 Warcraft III - External MapHack

 Timestamp is 609006e4 (Mon May  3 17:21:24 2021)

 Preferred load address is 00400000

 Start         Length     Name                   Class
 0001:00000000 00008540H .text$di                CODE
 0001:00008540 000934f0H .text$mn                CODE
 0001:0009ba30 00004190H .text$x                 CODE
 0001:0009fbc0 000028d4H .text$yd                CODE
 0002:00000000 00000104H .CRT$XCA                DATA
 0002:00000104 00000104H .CRT$XCAA               DATA
 0002:00000208 00000104H .CRT$XCL                DATA
 0002:0000030c 00000288H .CRT$XCU                DATA
 0002:00000594 00000104H .CRT$XCZ                DATA
 0002:00000698 00000104H .CRT$XIA                DATA
 0002:0000079c 00000104H .CRT$XIAA               DATA
 0002:000008a0 00000104H .CRT$XIAC               DATA
 0002:000009a4 00000104H .CRT$XIZ                DATA
 0002:00000aa8 00000104H .CRT$XPA                DATA
 0002:00000bac 00000104H .CRT$XPZ                DATA
 0002:00000cb0 00000104H .CRT$XTA                DATA
 0002:00000db4 0000010cH .CRT$XTZ                DATA
 0002:00000ec0 0000f000H .rdata                  DATA
 0002:0000fec0 00000104H .rdata$CastGuardVftablesA DATA
 0002:0000ffc4 00000104H .rdata$CastGuardVftablesC DATA
 0002:000100c8 000007f4H .rdata$r                DATA
 0002:000108bc 00000384H .rdata$sxdata           DATA
 0002:00010c40 00000104H .rtc$IAA                DATA
 0002:00010d44 00000110H .rtc$IMZ                DATA
 0002:00010e54 00000104H .rtc$IZZ                DATA
 0002:00010f58 00000104H .rtc$TAA                DATA
 0002:0001105c 00000110H .rtc$TMZ                DATA
 0002:0001116c 00000104H .rtc$TZZ                DATA
 0002:00011270 00002d02H .xdata$x                DATA
 0002:00013f72 00000000H .edata                  DATA
 0003:00000000 00000194H .data                   DATA
 0003:00000194 000001e4H .data$r                 DATA
 0003:00000378 00000558H .data$rs                DATA
 0003:000008d0 00001061H .bss                    DATA
 0004:00000000 000007fcH .idata$5                DATA
 0004:000007fc 000000dcH .idata$2                DATA
 0004:000008d8 00000014H .idata$3                DATA
 0004:000008ec 000007fcH .idata$4                DATA
 0004:000010e8 00002407H .idata$6                DATA
 0005:00000000 000001e7H .msvcjmc                DATA
 0006:00000000 00000109H .00cfg                  DATA
 0007:00000000 00000170H .rsrc$01                DATA
 0007:00000170 000002d6H .rsrc$02                DATA

  Address         Publics by Value              Rva+Base       Lib:Object

 0000:00000000       ___hybrid_code_map_count   00000000     <absolute>
 0000:00000000       ___guard_iat_count         00000000     <absolute>
 0000:00000000       ___guard_longjmp_count     00000000     <absolute>
 0000:00000000       ___x64_code_ranges_to_entry_points_count 00000000     <absolute>
 0000:00000000       ___hybrid_code_map         00000000     <absolute>
 0000:00000000       ___arm64x_extra_rfe_table  00000000     <absolute>
 0000:00000000       ___volatile_metadata       00000000     <absolute>
 0000:00000000       ___guard_check_icall_a64n_fptr 00000000     <absolute>
 0000:00000000       ___arm64x_redirection_metadata_count 00000000     <absolute>
 0000:00000000       ___arm64x_native_entrypoint 00000000     <absolute>
 0000:00000000       ___guard_longjmp_table     00000000     <absolute>
 0000:00000000       ___arm64x_extra_rfe_table_size 00000000     <absolute>
 0000:00000000       ___enclave_config          00000000     <absolute>
 0000:00000000       ___guard_eh_cont_table     00000000     <absolute>
 0000:00000000       ___guard_eh_cont_count     00000000     <absolute>
 0000:00000000       ___AbsoluteZero            00000000     <absolute>
 0000:00000000       ___guard_fids_count        00000000     <absolute>
 0000:00000000       ___guard_iat_table         00000000     <absolute>
 0000:00000000       ___guard_fids_table        00000000     <absolute>
 0000:00000000       ___x64_code_ranges_to_entry_points 00000000     <absolute>
 0000:00000000       ___dynamic_value_reloc_table 00000000     <absolute>
 0000:00000000       ___hybrid_auxiliary_iat    00000000     <absolute>
 0000:00000000       ___hybrid_auxiliary_iat_copy 00000000     <absolute>
 0000:00000000       ___arm64x_redirection_metadata 00000000     <absolute>
 0000:00000086       ___safe_se_handler_count   00000086     <absolute>
 0000:00000100       ___guard_flags             00000100     <absolute>
 0000:00000000       ___ImageBase               00400000     <linker-defined>
 0001:00008540       ??0D3DXMATRIX@@QAE@XZ      00409540 f i Main.obj
 0001:000085a0       ??0D3DXVECTOR2@@QAE@MM@Z   004095a0 f i Main.obj
 0001:00008620       ??0D3DXVECTOR2@@QAE@XZ     00409620 f i Main.obj
 0001:00008680       ??0D3DXVECTOR3@@QAE@MMM@Z  00409680 f i Main.obj
 0001:00008710       ??0D3DXVECTOR3@@QAE@XZ     00409710 f i Main.obj
 0001:00008770       ??0_D3DXMATRIXA16@@QAE@XZ  00409770 f i Main.obj
 0001:000087d0       ??BD3DXMATRIX@@QAEPAMXZ    004097d0 f i Main.obj
 0001:00008830       ??_H@YGXPAXIIP6EPAX0@Z@Z   00409830 f i Main.obj
 0001:000088e0       ?D3DInit@@YAHPAUHWND__@@@Z 004098e0 f   Main.obj
 0001:00008a20       ?DrawEspBox@@YAXUD3DXVECTOR2@@0MK@Z 00409a20 f   Main.obj
 0001:00008c70       ?DrawLine@@YAXMMMMMK@Z     00409c70 f   Main.obj
 0001:00008e30       ?DrawLine@@YAXUD3DXVECTOR2@@0MK@Z 00409e30 f   Main.obj
 0001:00008ed0       ?GetProcessHandle@@YAPAXXZ 00409ed0 f   Main.obj
 0001:000091e0       ?ReadBytes@@YAHPAXH0@Z     0040a1e0 f   Main.obj
 0001:00009270       ?Render@@YAXXZ             0040a270 f   Main.obj
 0001:00009b00       ?WndProc@@YGJPAUHWND__@@IIJ@Z 0040ab00 f   Main.obj
 0001:00009bf0       ?WorldToScreen@@YA?AUD3DXVECTOR3@@U1@@Z 0040abf0 f   Main.obj
 0001:00009fc0       ?__empty_global_delete@@YAXPAX@Z 0040afc0 f i Main.obj
 0001:0000a010       ?__global_delete@@YAXPAXI@Z 0040b010 f i Main.obj
 0001:0000a010       ?__empty_global_delete@@YAXPAXI@Z 0040b010 f i Main.obj
 0001:0000a060       ?strstr@@YAPADQADQBD@Z     0040b060 f i Main.obj
 0001:0000a0c0       _WinMain@16                0040b0c0 f   Main.obj
 0001:0000a5e0       __JustMyCode_Default       0040b5e0 f i Main.obj
 0001:0000a5f0       ??$?0$$V@?$_Compressed_pair@V?$allocator@D@std@@V?$_String_val@U?$_Simple_types@D@std@@@2@$00@std@@QAE@U_Zero_then_variadic_args_t@1@@Z 0040b5f0 f i protect.obj
 0001:0000a660       ??$?0AAPAVCPUInfoDelegate@@@?$_Compressed_pair@U?$default_delete@VCPUInfoDelegate@@@std@@PAVCPUInfoDelegate@@$00@std@@QAE@U_Zero_then_variadic_args_t@1@AAPAVCPUInfoDelegate@@@Z 0040b660 f i protect.obj
 0001:0000a6d0       ??$?0AAPAVGPUInfoDelegate@@@?$_Compressed_pair@U?$default_delete@VGPUInfoDelegate@@@std@@PAVGPUInfoDelegate@@$00@std@@QAE@U_Zero_then_variadic_args_t@1@AAPAVGPUInfoDelegate@@@Z 0040b6d0 f i protect.obj
 0001:0000a740       ??$?0AAPAVMotherboardInfoDelegate@@@?$_Compressed_pair@U?$default_delete@VMotherboardInfoDelegate@@@std@@PAVMotherboardInfoDelegate@@$00@std@@QAE@U_Zero_then_variadic_args_t@1@AAPAVMotherboardInfoDelegate@@@Z 0040b740 f i protect.obj
 0001:0000a7b0       ??$?0AAPAVOSInfoDelegate@@@?$_Compressed_pair@U?$default_delete@VOSInfoDelegate@@@std@@PAVOSInfoDelegate@@$00@std@@QAE@U_Zero_then_variadic_args_t@1@AAPAVOSInfoDelegate@@@Z 0040b7b0 f i protect.obj
 0001:0000a820       ??$?0AAPAVRAMInfoDelegate@@@?$_Compressed_pair@U?$default_delete@VRAMInfoDelegate@@@std@@PAVRAMInfoDelegate@@$00@std@@QAE@U_Zero_then_variadic_args_t@1@AAPAVRAMInfoDelegate@@@Z 0040b820 f i protect.obj
 0001:0000a890       ??$?0ABV?$allocator@D@std@@$$V@?$_Compressed_pair@V?$allocator@D@std@@V?$_String_val@U?$_Simple_types@D@std@@@2@$00@std@@QAE@U_One_then_variadic_args_t@1@ABV?$allocator@D@1@@Z 0040b890 f i protect.obj
 0001:0000a900       ??$?0D@?$allocator@U_Container_proxy@std@@@std@@QAE@ABV?$allocator@D@1@@Z 0040b900 f i protect.obj
 0001:0000a960       ??$?0PAD$0A@@?$basic_string@DU?$char_traits@D@std@@V?$allocator@D@2@@std@@QAE@PAD0ABV?$allocator@D@1@@Z 0040b960 f i protect.obj
 0001:0000ab20       ??$?0U?$default_delete@VCPUInfoDelegate@@@std@@$0A@@?$unique_ptr@VCPUInfoDelegate@@U?$default_delete@VCPUInfoDelegate@@@std@@@std@@QAE@$$QAV01@@Z 0040bb20 f i protect.obj
 0001:0000abc0       ??$?0U?$default_delete@VCPUInfoDelegate@@@std@@$0A@@?$unique_ptr@VCPUInfoDelegate@@U?$default_delete@VCPUInfoDelegate@@@std@@@std@@QAE@PAVCPUInfoDelegate@@@Z 0040bbc0 f i protect.obj
 0001:0000ac30       ??$?0U?$default_delete@VCPUInfoDelegate@@@std@@PAVCPUInfoDelegate@@@?$_Compressed_pair@U?$default_delete@VCPUInfoDelegate@@@std@@PAVCPUInfoDelegate@@$00@std@@QAE@U_One_then_variadic_args_t@1@$$QAU?$default_delete@VCPUInfoDelegate@@@1@$$QAPAVCPUInfoDelegate@@@Z 0040bc30 f i protect.obj
 0001:0000acb0       ??$?0U?$default_delete@VGPUInfoDelegate@@@std@@$0A@@?$unique_ptr@VGPUInfoDelegate@@U?$default_delete@VGPUInfoDelegate@@@std@@@std@@QAE@$$QAV01@@Z 0040bcb0 f i protect.obj
 0001:0000ad50       ??$?0U?$default_delete@VGPUInfoDelegate@@@std@@$0A@@?$unique_ptr@VGPUInfoDelegate@@U?$default_delete@VGPUInfoDelegate@@@std@@@std@@QAE@PAVGPUInfoDelegate@@@Z 0040bd50 f i protect.obj
 0001:0000adc0       ??$?0U?$default_delete@VGPUInfoDelegate@@@std@@PAVGPUInfoDelegate@@@?$_Compressed_pair@U?$default_delete@VGPUInfoDelegate@@@std@@PAVGPUInfoDelegate@@$00@std@@QAE@U_One_then_variadic_args_t@1@$$QAU?$default_delete@VGPUInfoDelegate@@@1@$$QAPAVGPUInfoDelegate@@@Z 0040bdc0 f i protect.obj
 0001:0000ae40       ??$?0U?$default_delete@VMotherboardInfoDelegate@@@std@@$0A@@?$unique_ptr@VMotherboardInfoDelegate@@U?$default_delete@VMotherboardInfoDelegate@@@std@@@std@@QAE@$$QAV01@@Z 0040be40 f i protect.obj
 0001:0000aee0       ??$?0U?$default_delete@VMotherboardInfoDelegate@@@std@@$0A@@?$unique_ptr@VMotherboardInfoDelegate@@U?$default_delete@VMotherboardInfoDelegate@@@std@@@std@@QAE@PAVMotherboardInfoDelegate@@@Z 0040bee0 f i protect.obj
 0001:0000af50       ??$?0U?$default_delete@VMotherboardInfoDelegate@@@std@@PAVMotherboardInfoDelegate@@@?$_Compressed_pair@U?$default_delete@VMotherboardInfoDelegate@@@std@@PAVMotherboardInfoDelegate@@$00@std@@QAE@U_One_then_variadic_args_t@1@$$QAU?$default_delete@VMotherboardInfoDelegate@@@1@$$QAPAVMotherboardInfoDelegate@@@Z 0040bf50 f i protect.obj
 0001:0000afd0       ??$?0U?$default_delete@VOSInfoDelegate@@@std@@$0A@@?$unique_ptr@VOSInfoDelegate@@U?$default_delete@VOSInfoDelegate@@@std@@@std@@QAE@$$QAV01@@Z 0040bfd0 f i protect.obj
 0001:0000b070       ??$?0U?$default_delete@VOSInfoDelegate@@@std@@$0A@@?$unique_ptr@VOSInfoDelegate@@U?$default_delete@VOSInfoDelegate@@@std@@@std@@QAE@PAVOSInfoDelegate@@@Z 0040c070 f i protect.obj
 0001:0000b0e0       ??$?0U?$default_delete@VOSInfoDelegate@@@std@@PAVOSInfoDelegate@@@?$_Compressed_pair@U?$default_delete@VOSInfoDelegate@@@std@@PAVOSInfoDelegate@@$00@std@@QAE@U_One_then_variadic_args_t@1@$$QAU?$default_delete@VOSInfoDelegate@@@1@$$QAPAVOSInfoDelegate@@@Z 0040c0e0 f i protect.obj
 0001:0000b160       ??$?0U?$default_delete@VRAMInfoDelegate@@@std@@$0A@@?$unique_ptr@VRAMInfoDelegate@@U?$default_delete@VRAMInfoDelegate@@@std@@@std@@QAE@$$QAV01@@Z 0040c160 f i protect.obj
 0001:0000b200       ??$?0U?$default_delete@VRAMInfoDelegate@@@std@@$0A@@?$unique_ptr@VRAMInfoDelegate@@U?$default_delete@VRAMInfoDelegate@@@std@@@std@@QAE@PAVRAMInfoDelegate@@@Z 0040c200 f i protect.obj
 0001:0000b270       ??$?0U?$default_delete@VRAMInfoDelegate@@@std@@PAVRAMInfoDelegate@@@?$_Compressed_pair@U?$default_delete@VRAMInfoDelegate@@@std@@PAVRAMInfoDelegate@@$00@std@@QAE@U_One_then_variadic_args_t@1@$$QAU?$default_delete@VRAMInfoDelegate@@@1@$$QAPAVRAMInfoDelegate@@@Z 0040c270 f i protect.obj
 0001:0000b2f0       ??$?0V?$allocator@D@std@@$$V@?$_Compressed_pair@V?$allocator@D@std@@V?$_String_val@U?$_Simple_types@D@std@@@2@$00@std@@QAE@U_One_then_variadic_args_t@1@$$QAV?$allocator@D@1@@Z 0040c2f0 f i protect.obj
 0001:0000b360       ??$?0VCPUInfo@@@?$allocator@U_Container_proxy@std@@@std@@QAE@ABV?$allocator@VCPUInfo@@@1@@Z 0040c360 f i protect.obj
 0001:0000b3c0       ??$?0VGPUInfo@@@?$allocator@U_Container_proxy@std@@@std@@QAE@ABV?$allocator@VGPUInfo@@@1@@Z 0040c3c0 f i protect.obj
 0001:0000b420       ??$?0VMotherboardInfo@@@?$allocator@U_Container_proxy@std@@@std@@QAE@ABV?$allocator@VMotherboardInfo@@@1@@Z 0040c420 f i protect.obj
 0001:0000b480       ??$?0VOSInfo@@@?$allocator@U_Container_proxy@std@@@std@@QAE@ABV?$allocator@VOSInfo@@@1@@Z 0040c480 f i protect.obj
 0001:0000b4e0       ??$?0VRAMInfo@@@?$allocator@U_Container_proxy@std@@@std@@QAE@ABV?$allocator@VRAMInfo@@@1@@Z 0040c4e0 f i protect.obj
 0001:0000b540       ??$?6U?$char_traits@D@std@@@std@@YAAAV?$basic_ostream@DU?$char_traits@D@std@@@0@AAV10@PBD@Z 0040c540 f i protect.obj
 0001:0000bb20       ??$_Adl_verify_range@PADPAD@std@@YAXABQAD0@Z 0040cb20 f i protect.obj
 0001:0000bb90       ??$_Alloc_proxy@V?$allocator@U_Container_proxy@std@@@std@@@_Container_base12@std@@QAEX$$QAV?$allocator@U_Container_proxy@std@@@1@@Z 0040cb90 f i protect.obj
 0001:0000bc40       ??$_Allocate@$07U_Default_allocate_traits@std@@$0A@@std@@YAPAXI@Z 0040cc40 f i protect.obj
 0001:0000bcd0       ??$_Allocate_manually_vector_aligned@U_Default_allocate_traits@std@@@std@@YAPAXI@Z 0040ccd0 f i protect.obj
 0001:0000be10       ??$_Construct_in_place@PADABQAD@std@@YAXAAPADABQAD@Z 0040ce10 f i protect.obj
 0001:0000beb0       ??$_Construct_in_place@U_Container_proxy@std@@PAU_Container_base12@2@@std@@YAXAAU_Container_proxy@0@$$QAPAU_Container_base12@0@@Z 0040ceb0 f i protect.obj
 0001:0000bf50       ??$_Convert_size@I@std@@YAII@Z 0040cf50 f i protect.obj
 0001:0000bfa0       ??$_Deallocate@$07$0A@@std@@YAXPAXI@Z 0040cfa0 f i protect.obj
 0001:0000c060       ??$_Deallocate_plain@V?$allocator@U_Container_proxy@std@@@std@@@std@@YAXAAV?$allocator@U_Container_proxy@std@@@0@QAU_Container_proxy@0@@Z 0040d060 f i protect.obj
 0001:0000c100       ??$_Delete_plain_internal@V?$allocator@U_Container_proxy@std@@@std@@@std@@YAXAAV?$allocator@U_Container_proxy@std@@@0@QAU_Container_proxy@0@@Z 0040d100 f i protect.obj
 0001:0000c160       ??$_Destroy_in_place@PAD@std@@YAXAAPAD@Z 0040d160 f i protect.obj
 0001:0000c1b0       ??$_Destroy_range@V?$allocator@VCPUInfo@@@std@@@std@@YAXPAVCPUInfo@@QAV1@AAV?$allocator@VCPUInfo@@@0@@Z 0040d1b0 f i protect.obj
 0001:0000c280       ??$_Destroy_range@V?$allocator@VGPUInfo@@@std@@@std@@YAXPAVGPUInfo@@QAV1@AAV?$allocator@VGPUInfo@@@0@@Z 0040d280 f i protect.obj
 0001:0000c350       ??$_Destroy_range@V?$allocator@VMotherboardInfo@@@std@@@std@@YAXPAVMotherboardInfo@@QAV1@AAV?$allocator@VMotherboardInfo@@@0@@Z 0040d350 f i protect.obj
 0001:0000c420       ??$_Destroy_range@V?$allocator@VOSInfo@@@std@@@std@@YAXPAVOSInfo@@QAV1@AAV?$allocator@VOSInfo@@@0@@Z 0040d420 f i protect.obj
 0001:0000c4f0       ??$_Destroy_range@V?$allocator@VRAMInfo@@@std@@@std@@YAXPAVRAMInfo@@QAV1@AAV?$allocator@VRAMInfo@@@0@@Z 0040d4f0 f i protect.obj
 0001:0000c5c0       ??$_Get_size_of_n@$00@std@@YAII@Z 0040d5c0 f i protect.obj
 0001:0000c620       ??$_Get_size_of_n@$07@std@@YAII@Z 0040d620 f i protect.obj
 0001:0000c6a0       ??$_Get_unwrapped@AAPAD@std@@YA@AAPAD@Z 0040d6a0 f i protect.obj
 0001:0000c700       ??$_Integral_to_string@DH@std@@YA?AV?$basic_string@DU?$char_traits@D@std@@V?$allocator@D@2@@0@H@Z 0040d700 f i protect.obj
 0001:0000c860       ??$_Reallocate_for@V<lambda_9366063389c5f42a00a5088cf24e69de>@@PBD@?$basic_string@DU?$char_traits@D@std@@V?$allocator@D@2@@std@@AAEAAV01@IV<lambda_9366063389c5f42a00a5088cf24e69de>@@PBD@Z 0040d860 f i protect.obj
 0001:0000ca00       ??$_Reallocate_grow_by@V<lambda_ab246b20b9526e2ef7792587e4298a77>@@PBDI@?$basic_string@DU?$char_traits@D@std@@V?$allocator@D@2@@std@@AAEAAV01@IV<lambda_ab246b20b9526e2ef7792587e4298a77>@@PBDI@Z 0040da00 f i protect.obj
 0001:0000cc10       ??$_Traits_compare@U?$char_traits@D@std@@@std@@YAHQBDI0I@Z 0040dc10 f i protect.obj
 0001:0000ccc0       ??$_UIntegral_to_buff@DI@std@@YAPADPADI@Z 0040dcc0 f i protect.obj
 0001:0000cd60       ??$_Unfancy@D@std@@YAPADPAD@Z 0040dd60 f i protect.obj
 0001:0000cdb0       ??$_Unfancy@U_Container_proxy@std@@@std@@YAPAU_Container_proxy@0@PAU10@@Z 0040ddb0 f i protect.obj
 0001:0000ce00       ??$_Unfancy@VCPUInfo@@@std@@YAPAVCPUInfo@@PAV1@@Z 0040de00 f i protect.obj
 0001:0000ce50       ??$_Unfancy@VGPUInfo@@@std@@YAPAVGPUInfo@@PAV1@@Z 0040de50 f i protect.obj
 0001:0000cea0       ??$_Unfancy@VMotherboardInfo@@@std@@YAPAVMotherboardInfo@@PAV1@@Z 0040dea0 f i protect.obj
 0001:0000cef0       ??$_Unfancy@VOSInfo@@@std@@YAPAVOSInfo@@PAV1@@Z 0040def0 f i protect.obj
 0001:0000cf40       ??$_Unfancy@VRAMInfo@@@std@@YAPAVRAMInfo@@PAV1@@Z 0040df40 f i protect.obj
 0001:0000cf90       ??$_Verify_range@D@std@@YAXQBD0@Z 0040df90 f i protect.obj
 0001:0000d060       ??$_Voidify_iter@PAPAD@std@@YAPAXPAPAD@Z 0040e060 f i protect.obj
 0001:0000d0b0       ??$_Voidify_iter@PAU_Container_proxy@std@@@std@@YAPAXPAU_Container_proxy@0@@Z 0040e0b0 f i protect.obj
 0001:0000d100       ??$addressof@$$CBV?$_String_val@U?$_Simple_types@D@std@@@std@@@std@@YAPBV?$_String_val@U?$_Simple_types@D@std@@@0@ABV10@@Z 0040e100 f i protect.obj
 0001:0000d150       ??$addressof@PAD@std@@YAPAPADAAPAD@Z 0040e150 f i protect.obj
 0001:0000d1a0       ??$addressof@U_Container_base12@std@@@std@@YAPAU_Container_base12@0@AAU10@@Z 0040e1a0 f i protect.obj
 0001:0000d1f0       ??$addressof@U_Container_proxy@std@@@std@@YAPAU_Container_proxy@0@AAU10@@Z 0040e1f0 f i protect.obj
 0001:0000d240       ??$addressof@V?$_String_val@U?$_Simple_types@D@std@@@std@@@std@@YAPAV?$_String_val@U?$_Simple_types@D@std@@@0@AAV10@@Z 0040e240 f i protect.obj
 0001:0000d290       ??$addressof@V?$_Vector_val@U?$_Simple_types@VCPUInfo@@@std@@@std@@@std@@YAPAV?$_Vector_val@U?$_Simple_types@VCPUInfo@@@std@@@0@AAV10@@Z 0040e290 f i protect.obj
 0001:0000d2e0       ??$addressof@V?$_Vector_val@U?$_Simple_types@VGPUInfo@@@std@@@std@@@std@@YAPAV?$_Vector_val@U?$_Simple_types@VGPUInfo@@@std@@@0@AAV10@@Z 0040e2e0 f i protect.obj
 0001:0000d330       ??$addressof@V?$_Vector_val@U?$_Simple_types@VMotherboardInfo@@@std@@@std@@@std@@YAPAV?$_Vector_val@U?$_Simple_types@VMotherboardInfo@@@std@@@0@AAV10@@Z 0040e330 f i protect.obj
 0001:0000d380       ??$addressof@V?$_Vector_val@U?$_Simple_types@VOSInfo@@@std@@@std@@@std@@YAPAV?$_Vector_val@U?$_Simple_types@VOSInfo@@@std@@@0@AAV10@@Z 0040e380 f i protect.obj
 0001:0000d3d0       ??$addressof@V?$_Vector_val@U?$_Simple_types@VRAMInfo@@@std@@@std@@@std@@YAPAV?$_Vector_val@U?$_Simple_types@VRAMInfo@@@std@@@0@AAV10@@Z 0040e3d0 f i protect.obj
 0001:0000d420       ??$destroy@VCPUInfo@@@?$_Default_allocator_traits@V?$allocator@VCPUInfo@@@std@@@std@@SAXAAV?$allocator@VCPUInfo@@@1@QAVCPUInfo@@@Z 0040e420 f i protect.obj
 0001:0000d480       ??$destroy@VGPUInfo@@@?$_Default_allocator_traits@V?$allocator@VGPUInfo@@@std@@@std@@SAXAAV?$allocator@VGPUInfo@@@1@QAVGPUInfo@@@Z 0040e480 f i protect.obj
 0001:0000d4e0       ??$destroy@VMotherboardInfo@@@?$_Default_allocator_traits@V?$allocator@VMotherboardInfo@@@std@@@std@@SAXAAV?$allocator@VMotherboardInfo@@@1@QAVMotherboardInfo@@@Z 0040e4e0 f i protect.obj
 0001:0000d540       ??$destroy@VOSInfo@@@?$_Default_allocator_traits@V?$allocator@VOSInfo@@@std@@@std@@SAXAAV?$allocator@VOSInfo@@@1@QAVOSInfo@@@Z 0040e540 f i protect.obj
 0001:0000d5a0       ??$destroy@VRAMInfo@@@?$_Default_allocator_traits@V?$allocator@VRAMInfo@@@std@@@std@@SAXAAV?$allocator@VRAMInfo@@@1@QAVRAMInfo@@@Z 0040e5a0 f i protect.obj
 0001:0000d600       ??$end@D$0BF@@std@@YAPADAAY0BF@D@Z 0040e600 f i protect.obj
 0001:0000d660       ??$endl@DU?$char_traits@D@std@@@std@@YAAAV?$basic_ostream@DU?$char_traits@D@std@@@0@AAV10@@Z 0040e660 f i protect.obj
 0001:0000d710       ??$exchange@PAU_Container_proxy@std@@$$T@std@@YAPAU_Container_proxy@0@AAPAU10@$$QA$$T@Z 0040e710 f i protect.obj
 0001:0000d780       ??$exchange@PAVCPUInfoDelegate@@$$T@std@@YAPAVCPUInfoDelegate@@AAPAV1@$$QA$$T@Z 0040e780 f i protect.obj
 0001:0000d7f0       ??$exchange@PAVGPUInfoDelegate@@$$T@std@@YAPAVGPUInfoDelegate@@AAPAV1@$$QA$$T@Z 0040e7f0 f i protect.obj
 0001:0000d860       ??$exchange@PAVMotherboardInfoDelegate@@$$T@std@@YAPAVMotherboardInfoDelegate@@AAPAV1@$$QA$$T@Z 0040e860 f i protect.obj
 0001:0000d8d0       ??$exchange@PAVOSInfoDelegate@@$$T@std@@YAPAVOSInfoDelegate@@AAPAV1@$$QA$$T@Z 0040e8d0 f i protect.obj
 0001:0000d940       ??$exchange@PAVRAMInfoDelegate@@$$T@std@@YAPAVRAMInfoDelegate@@AAPAV1@$$QA$$T@Z 0040e940 f i protect.obj
 0001:0000d9b0       ??$forward@AAPAVCPUInfoDelegate@@@std@@YAAAPAVCPUInfoDelegate@@AAPAV1@@Z 0040e9b0 f i protect.obj
 0001:0000da00       ??$forward@AAPAVGPUInfoDelegate@@@std@@YAAAPAVGPUInfoDelegate@@AAPAV1@@Z 0040ea00 f i protect.obj
 0001:0000da50       ??$forward@AAPAVMotherboardInfoDelegate@@@std@@YAAAPAVMotherboardInfoDelegate@@AAPAV1@@Z 0040ea50 f i protect.obj
 0001:0000daa0       ??$forward@AAPAVOSInfoDelegate@@@std@@YAAAPAVOSInfoDelegate@@AAPAV1@@Z 0040eaa0 f i protect.obj
 0001:0000daf0       ??$forward@AAPAVRAMInfoDelegate@@@std@@YAAAPAVRAMInfoDelegate@@AAPAV1@@Z 0040eaf0 f i protect.obj
 0001:0000db40       ??$forward@ABQAD@std@@YAABQADABQAD@Z 0040eb40 f i protect.obj
 0001:0000db90       ??$forward@ABV?$allocator@D@std@@@std@@YAABV?$allocator@D@0@ABV10@@Z 0040eb90 f i protect.obj
 0001:0000dbe0       ??$forward@PAU_Container_base12@std@@@std@@YA$$QAPAU_Container_base12@0@AAPAU10@@Z 0040ebe0 f i protect.obj
 0001:0000dc30       ??$forward@PAVCPUInfoDelegate@@@std@@YA$$QAPAVCPUInfoDelegate@@AAPAV1@@Z 0040ec30 f i protect.obj
 0001:0000dc80       ??$forward@PAVGPUInfoDelegate@@@std@@YA$$QAPAVGPUInfoDelegate@@AAPAV1@@Z 0040ec80 f i protect.obj
 0001:0000dcd0       ??$forward@PAVMotherboardInfoDelegate@@@std@@YA$$QAPAVMotherboardInfoDelegate@@AAPAV1@@Z 0040ecd0 f i protect.obj
 0001:0000dd20       ??$forward@PAVOSInfoDelegate@@@std@@YA$$QAPAVOSInfoDelegate@@AAPAV1@@Z 0040ed20 f i protect.obj
 0001:0000dd70       ??$forward@PAVRAMInfoDelegate@@@std@@YA$$QAPAVRAMInfoDelegate@@AAPAV1@@Z 0040ed70 f i protect.obj
 0001:0000ddc0       ??$forward@U?$default_delete@VCPUInfoDelegate@@@std@@@std@@YA$$QAU?$default_delete@VCPUInfoDelegate@@@0@AAU10@@Z 0040edc0 f i protect.obj
 0001:0000de10       ??$forward@U?$default_delete@VGPUInfoDelegate@@@std@@@std@@YA$$QAU?$default_delete@VGPUInfoDelegate@@@0@AAU10@@Z 0040ee10 f i protect.obj
 0001:0000de60       ??$forward@U?$default_delete@VMotherboardInfoDelegate@@@std@@@std@@YA$$QAU?$default_delete@VMotherboardInfoDelegate@@@0@AAU10@@Z 0040ee60 f i protect.obj
 0001:0000deb0       ??$forward@U?$default_delete@VOSInfoDelegate@@@std@@@std@@YA$$QAU?$default_delete@VOSInfoDelegate@@@0@AAU10@@Z 0040eeb0 f i protect.obj
 0001:0000df00       ??$forward@U?$default_delete@VRAMInfoDelegate@@@std@@@std@@YA$$QAU?$default_delete@VRAMInfoDelegate@@@0@AAU10@@Z 0040ef00 f i protect.obj
 0001:0000df50       ??$forward@V?$allocator@D@std@@@std@@YA$$QAV?$allocator@D@0@AAV10@@Z 0040ef50 f i protect.obj
 0001:0000dfa0       ??$make_unique@VCPUInfoDelegate@@$$V$0A@@std@@YA?AV?$unique_ptr@VCPUInfoDelegate@@U?$default_delete@VCPUInfoDelegate@@@std@@@0@XZ 0040efa0 f i protect.obj
 0001:0000e100       ??$make_unique@VGPUInfoDelegate@@$$V$0A@@std@@YA?AV?$unique_ptr@VGPUInfoDelegate@@U?$default_delete@VGPUInfoDelegate@@@std@@@0@XZ 0040f100 f i protect.obj
 0001:0000e260       ??$make_unique@VMotherboardInfoDelegate@@$$V$0A@@std@@YA?AV?$unique_ptr@VMotherboardInfoDelegate@@U?$default_delete@VMotherboardInfoDelegate@@@std@@@0@XZ 0040f260 f i protect.obj
 0001:0000e3c0       ??$make_unique@VOSInfoDelegate@@$$V$0A@@std@@YA?AV?$unique_ptr@VOSInfoDelegate@@U?$default_delete@VOSInfoDelegate@@@std@@@0@XZ 0040f3c0 f i protect.obj
 0001:0000e520       ??$make_unique@VRAMInfoDelegate@@$$V$0A@@std@@YA?AV?$unique_ptr@VRAMInfoDelegate@@U?$default_delete@VRAMInfoDelegate@@@std@@@0@XZ 0040f520 f i protect.obj
 0001:0000e680       ??$max@I@std@@YAABIABI0@Z  0040f680 f i protect.obj
 0001:0000e710       ??$min@I@std@@YAABIABI0@Z  0040f710 f i protect.obj
 0001:0000e7a0       ??$move@AAV?$allocator@D@std@@@std@@YA$$QAV?$allocator@D@0@AAV10@@Z 0040f7a0 f i protect.obj
 0001:0000e7f0       ??0?$_Container_proxy_ptr12@V?$allocator@U_Container_proxy@std@@@std@@@std@@QAE@AAV?$allocator@U_Container_proxy@std@@@1@AAU_Container_base12@1@@Z 0040f7f0 f i protect.obj
 0001:0000e8b0       ??0?$_String_val@U?$_Simple_types@D@std@@@std@@QAE@XZ 0040f8b0 f i protect.obj
 0001:0000e940       ??0?$_Vector_const_iterator@V?$_Vector_val@U?$_Simple_types@VCPUInfo@@@std@@@std@@@std@@QAE@$$QAV01@@Z 0040f940 f i protect.obj
 0001:0000e9b0       ??0?$_Vector_const_iterator@V?$_Vector_val@U?$_Simple_types@VCPUInfo@@@std@@@std@@@std@@QAE@ABV01@@Z 0040f9b0 f i protect.obj
 0001:0000ea20       ??0?$_Vector_const_iterator@V?$_Vector_val@U?$_Simple_types@VCPUInfo@@@std@@@std@@@std@@QAE@PAVCPUInfo@@PBU_Container_base12@1@@Z 0040fa20 f i protect.obj
 0001:0000eaa0       ??0?$_Vector_const_iterator@V?$_Vector_val@U?$_Simple_types@VGPUInfo@@@std@@@std@@@std@@QAE@$$QAV01@@Z 0040faa0 f i protect.obj
 0001:0000eb10       ??0?$_Vector_const_iterator@V?$_Vector_val@U?$_Simple_types@VGPUInfo@@@std@@@std@@@std@@QAE@ABV01@@Z 0040fb10 f i protect.obj
 0001:0000eb80       ??0?$_Vector_const_iterator@V?$_Vector_val@U?$_Simple_types@VGPUInfo@@@std@@@std@@@std@@QAE@PAVGPUInfo@@PBU_Container_base12@1@@Z 0040fb80 f i protect.obj
 0001:0000ec00       ??0?$_Vector_const_iterator@V?$_Vector_val@U?$_Simple_types@VMotherboardInfo@@@std@@@std@@@std@@QAE@$$QAV01@@Z 0040fc00 f i protect.obj
 0001:0000ec70       ??0?$_Vector_const_iterator@V?$_Vector_val@U?$_Simple_types@VMotherboardInfo@@@std@@@std@@@std@@QAE@ABV01@@Z 0040fc70 f i protect.obj
 0001:0000ece0       ??0?$_Vector_const_iterator@V?$_Vector_val@U?$_Simple_types@VMotherboardInfo@@@std@@@std@@@std@@QAE@PAVMotherboardInfo@@PBU_Container_base12@1@@Z 0040fce0 f i protect.obj
 0001:0000ed60       ??0?$_Vector_const_iterator@V?$_Vector_val@U?$_Simple_types@VOSInfo@@@std@@@std@@@std@@QAE@$$QAV01@@Z 0040fd60 f i protect.obj
 0001:0000edd0       ??0?$_Vector_const_iterator@V?$_Vector_val@U?$_Simple_types@VOSInfo@@@std@@@std@@@std@@QAE@ABV01@@Z 0040fdd0 f i protect.obj
 0001:0000ee40       ??0?$_Vector_const_iterator@V?$_Vector_val@U?$_Simple_types@VOSInfo@@@std@@@std@@@std@@QAE@PAVOSInfo@@PBU_Container_base12@1@@Z 0040fe40 f i protect.obj
 0001:0000eec0       ??0?$_Vector_const_iterator@V?$_Vector_val@U?$_Simple_types@VRAMInfo@@@std@@@std@@@std@@QAE@$$QAV01@@Z 0040fec0 f i protect.obj
 0001:0000ef30       ??0?$_Vector_const_iterator@V?$_Vector_val@U?$_Simple_types@VRAMInfo@@@std@@@std@@@std@@QAE@ABV01@@Z 0040ff30 f i protect.obj
 0001:0000efa0       ??0?$_Vector_const_iterator@V?$_Vector_val@U?$_Simple_types@VRAMInfo@@@std@@@std@@@std@@QAE@PAVRAMInfo@@PBU_Container_base12@1@@Z 0040ffa0 f i protect.obj
 0001:0000f020       ??0?$_Vector_iterator@V?$_Vector_val@U?$_Simple_types@VCPUInfo@@@std@@@std@@@std@@QAE@PAVCPUInfo@@PBU_Container_base12@1@@Z 00410020 f i protect.obj
 0001:0000f080       ??0?$_Vector_iterator@V?$_Vector_val@U?$_Simple_types@VGPUInfo@@@std@@@std@@@std@@QAE@PAVGPUInfo@@PBU_Container_base12@1@@Z 00410080 f i protect.obj
 0001:0000f0e0       ??0?$_Vector_iterator@V?$_Vector_val@U?$_Simple_types@VMotherboardInfo@@@std@@@std@@@std@@QAE@PAVMotherboardInfo@@PBU_Container_base12@1@@Z 004100e0 f i protect.obj
 0001:0000f140       ??0?$_Vector_iterator@V?$_Vector_val@U?$_Simple_types@VOSInfo@@@std@@@std@@@std@@QAE@PAVOSInfo@@PBU_Container_base12@1@@Z 00410140 f i protect.obj
 0001:0000f1a0       ??0?$_Vector_iterator@V?$_Vector_val@U?$_Simple_types@VRAMInfo@@@std@@@std@@@std@@QAE@PAVRAMInfo@@PBU_Container_base12@1@@Z 004101a0 f i protect.obj
 0001:0000f200       ??0?$allocator@D@std@@QAE@XZ 00410200 f i protect.obj
 0001:0000f260       ??0?$basic_string@DU?$char_traits@D@std@@V?$allocator@D@2@@std@@QAE@$$QAV01@@Z 00410260 f i protect.obj
 0001:0000f370       ??0?$basic_string@DU?$char_traits@D@std@@V?$allocator@D@2@@std@@QAE@ABV01@IIABV?$allocator@D@1@@Z 00410370 f i protect.obj
 0001:0000f500       ??0?$basic_string@DU?$char_traits@D@std@@V?$allocator@D@2@@std@@QAE@QBD@Z 00410500 f i protect.obj
 0001:0000f680       ??0?$basic_string@DU?$char_traits@D@std@@V?$allocator@D@2@@std@@QAE@XZ 00410680 f i protect.obj
 0001:0000f760       ??0_Bxty@?$_String_val@U?$_Simple_types@D@std@@@std@@QAE@XZ 00410760 f i protect.obj
 0001:0000f7c0       ??0_Container_base12@std@@QAE@XZ 004107c0 f i protect.obj
 0001:0000f820       ??0_Container_proxy@std@@QAE@PAU_Container_base12@1@@Z 00410820 f i protect.obj
 0001:0000f890       ??0_Iterator_base12@std@@QAE@ABU01@@Z 00410890 f i protect.obj
 0001:0000f910       ??0_Iterator_base12@std@@QAE@XZ 00410910 f i protect.obj
 0001:0000f980       ??0_Sentry_base@?$basic_ostream@DU?$char_traits@D@std@@@std@@QAE@AAV12@@Z 00410980 f i protect.obj
 0001:0000fa40       ??0bad_alloc@std@@AAE@QBD@Z 00410a40 f i protect.obj
 0001:0000fac0       ??0bad_alloc@std@@QAE@ABV01@@Z 00410ac0 f i protect.obj
 0001:0000fb30       ??0bad_array_new_length@std@@QAE@ABV01@@Z 00410b30 f i protect.obj
 0001:0000fba0       ??0bad_array_new_length@std@@QAE@XZ 00410ba0 f i protect.obj
 0001:0000fc10       ??0exception@std@@QAE@ABV01@@Z 00410c10 f i protect.obj
 0001:0000fca0       ??0exception@std@@QAE@QBDH@Z 00410ca0 f i protect.obj
 0001:0000fd20       ??0sentry@?$basic_ostream@DU?$char_traits@D@std@@@std@@QAE@AAV12@@Z 00410d20 f i protect.obj
 0001:0000fe90       ??1?$_Compressed_pair@V?$allocator@D@std@@V?$_String_val@U?$_Simple_types@D@std@@@2@$00@std@@QAE@XZ 00410e90 f i protect.obj
 0001:0000fee0       ??1?$_Container_proxy_ptr12@V?$allocator@U_Container_proxy@std@@@std@@@std@@QAE@XZ 00410ee0 f i protect.obj
 0001:0000ff60       ??1?$_String_val@U?$_Simple_types@D@std@@@std@@QAE@XZ 00410f60 f i protect.obj
 0001:0000ffc0       ??1?$_Vector_const_iterator@V?$_Vector_val@U?$_Simple_types@VCPUInfo@@@std@@@std@@@std@@QAE@XZ 00410fc0 f i protect.obj
 0001:00010010       ??1?$_Vector_const_iterator@V?$_Vector_val@U?$_Simple_types@VGPUInfo@@@std@@@std@@@std@@QAE@XZ 00411010 f i protect.obj
 0001:00010060       ??1?$_Vector_const_iterator@V?$_Vector_val@U?$_Simple_types@VMotherboardInfo@@@std@@@std@@@std@@QAE@XZ 00411060 f i protect.obj
 0001:000100b0       ??1?$_Vector_const_iterator@V?$_Vector_val@U?$_Simple_types@VOSInfo@@@std@@@std@@@std@@QAE@XZ 004110b0 f i protect.obj
 0001:00010100       ??1?$_Vector_const_iterator@V?$_Vector_val@U?$_Simple_types@VRAMInfo@@@std@@@std@@@std@@QAE@XZ 00411100 f i protect.obj
 0001:00010150       ??1?$_Vector_iterator@V?$_Vector_val@U?$_Simple_types@VCPUInfo@@@std@@@std@@@std@@QAE@XZ 00411150 f i protect.obj
 0001:000101a0       ??1?$_Vector_iterator@V?$_Vector_val@U?$_Simple_types@VGPUInfo@@@std@@@std@@@std@@QAE@XZ 004111a0 f i protect.obj
 0001:000101f0       ??1?$_Vector_iterator@V?$_Vector_val@U?$_Simple_types@VMotherboardInfo@@@std@@@std@@@std@@QAE@XZ 004111f0 f i protect.obj
 0001:00010240       ??1?$_Vector_iterator@V?$_Vector_val@U?$_Simple_types@VOSInfo@@@std@@@std@@@std@@QAE@XZ 00411240 f i protect.obj
 0001:00010290       ??1?$_Vector_iterator@V?$_Vector_val@U?$_Simple_types@VRAMInfo@@@std@@@std@@@std@@QAE@XZ 00411290 f i protect.obj
 0001:000102e0       ??1?$basic_string@DU?$char_traits@D@std@@V?$allocator@D@2@@std@@QAE@XZ 004112e0 f i protect.obj
 0001:000103e0       ??1?$unique_ptr@VCPUInfoDelegate@@U?$default_delete@VCPUInfoDelegate@@@std@@@std@@QAE@XZ 004113e0 f i protect.obj
 0001:00010460       ??1?$unique_ptr@VGPUInfoDelegate@@U?$default_delete@VGPUInfoDelegate@@@std@@@std@@QAE@XZ 00411460 f i protect.obj
 0001:000104e0       ??1?$unique_ptr@VMotherboardInfoDelegate@@U?$default_delete@VMotherboardInfoDelegate@@@std@@@std@@QAE@XZ 004114e0 f i protect.obj
 0001:00010560       ??1?$unique_ptr@VOSInfoDelegate@@U?$default_delete@VOSInfoDelegate@@@std@@@std@@QAE@XZ 00411560 f i protect.obj
 0001:000105e0       ??1?$unique_ptr@VRAMInfoDelegate@@U?$default_delete@VRAMInfoDelegate@@@std@@@std@@QAE@XZ 004115e0 f i protect.obj
 0001:00010660       ??1?$vector@VCPUInfo@@V?$allocator@VCPUInfo@@@std@@@std@@QAE@XZ 00411660 f i protect.obj
 0001:00010760       ??1?$vector@VGPUInfo@@V?$allocator@VGPUInfo@@@std@@@std@@QAE@XZ 00411760 f i protect.obj
 0001:00010860       ??1?$vector@VMotherboardInfo@@V?$allocator@VMotherboardInfo@@@std@@@std@@QAE@XZ 00411860 f i protect.obj
 0001:00010960       ??1?$vector@VOSInfo@@V?$allocator@VOSInfo@@@std@@@std@@QAE@XZ 00411960 f i protect.obj
 0001:00010a60       ??1?$vector@VRAMInfo@@V?$allocator@VRAMInfo@@@std@@@std@@QAE@XZ 00411a60 f i protect.obj
 0001:00010b60       ??1CPUInfo@@QAE@XZ         00411b60 f i protect.obj
 0001:00010c00       ??1CPUInfoDelegate@@QAE@XZ 00411c00 f i protect.obj
 0001:00010c50       ??1GPUInfo@@QAE@XZ         00411c50 f i protect.obj
 0001:00010d30       ??1GPUInfoDelegate@@QAE@XZ 00411d30 f i protect.obj
 0001:00010d80       ??1MotherboardInfo@@QAE@XZ 00411d80 f i protect.obj
 0001:00010e10       ??1MotherboardInfoDelegate@@QAE@XZ 00411e10 f i protect.obj
 0001:00010e60       ??1OSInfo@@QAE@XZ          00411e60 f i protect.obj
 0001:00010f90       ??1OSInfoDelegate@@QAE@XZ  00411f90 f i protect.obj
 0001:00010fe0       ??1RAMInfo@@QAE@XZ         00411fe0 f i protect.obj
 0001:000110a0       ??1RAMInfoDelegate@@QAE@XZ 004120a0 f i protect.obj
 0001:000110f0       ??1_Bxty@?$_String_val@U?$_Simple_types@D@std@@@std@@QAE@XZ 004120f0 f i protect.obj
 0001:00011150       ??1_Iterator_base12@std@@QAE@XZ 00412150 f i protect.obj
 0001:00011230       ??1_Sentry_base@?$basic_ostream@DU?$char_traits@D@std@@@std@@QAE@XZ 00412230 f i protect.obj
 0001:00011320       ??1bad_alloc@std@@UAE@XZ   00412320 f i protect.obj
 0001:00011370       ??1bad_array_new_length@std@@UAE@XZ 00412370 f i protect.obj
 0001:000113c0       ??1exception@std@@UAE@XZ   004123c0 f i protect.obj
 0001:00011430       ??1sentry@?$basic_ostream@DU?$char_traits@D@std@@@std@@QAE@XZ 00412430 f i protect.obj
 0001:00011520       ??2@YAPAXIPAX@Z            00412520 f i protect.obj
 0001:00011570       ??4_Iterator_base12@std@@QAEAAU01@ABU01@@Z 00412570 f i protect.obj
 0001:00011680       ??8?$_Vector_const_iterator@V?$_Vector_val@U?$_Simple_types@VCPUInfo@@@std@@@std@@@std@@QBE_NABV01@@Z 00412680 f i protect.obj
 0001:00011720       ??8?$_Vector_const_iterator@V?$_Vector_val@U?$_Simple_types@VGPUInfo@@@std@@@std@@@std@@QBE_NABV01@@Z 00412720 f i protect.obj
 0001:000117c0       ??8?$_Vector_const_iterator@V?$_Vector_val@U?$_Simple_types@VMotherboardInfo@@@std@@@std@@@std@@QBE_NABV01@@Z 004127c0 f i protect.obj
 0001:00011860       ??8?$_Vector_const_iterator@V?$_Vector_val@U?$_Simple_types@VOSInfo@@@std@@@std@@@std@@QBE_NABV01@@Z 00412860 f i protect.obj
 0001:00011900       ??8?$_Vector_const_iterator@V?$_Vector_val@U?$_Simple_types@VRAMInfo@@@std@@@std@@@std@@QBE_NABV01@@Z 00412900 f i protect.obj
 0001:000119a0       ??9?$_Vector_const_iterator@V?$_Vector_val@U?$_Simple_types@VCPUInfo@@@std@@@std@@@std@@QBE_NABV01@@Z 004129a0 f i protect.obj
 0001:00011a30       ??9?$_Vector_const_iterator@V?$_Vector_val@U?$_Simple_types@VGPUInfo@@@std@@@std@@@std@@QBE_NABV01@@Z 00412a30 f i protect.obj
 0001:00011ac0       ??9?$_Vector_const_iterator@V?$_Vector_val@U?$_Simple_types@VMotherboardInfo@@@std@@@std@@@std@@QBE_NABV01@@Z 00412ac0 f i protect.obj
 0001:00011b50       ??9?$_Vector_const_iterator@V?$_Vector_val@U?$_Simple_types@VOSInfo@@@std@@@std@@@std@@QBE_NABV01@@Z 00412b50 f i protect.obj
 0001:00011be0       ??9?$_Vector_const_iterator@V?$_Vector_val@U?$_Simple_types@VRAMInfo@@@std@@@std@@@std@@QBE_NABV01@@Z 00412be0 f i protect.obj
 0001:00011c70       ??A?$basic_string@DU?$char_traits@D@std@@V?$allocator@D@2@@std@@QAEAADI@Z 00412c70 f i protect.obj
 0001:00011d60       ??Bsentry@?$basic_ostream@DU?$char_traits@D@std@@@std@@QBE_NXZ 00412d60 f i protect.obj
 0001:00011dc0       ??C?$_Vector_const_iterator@V?$_Vector_val@U?$_Simple_types@VCPUInfo@@@std@@@std@@@std@@QBEPBVCPUInfo@@XZ 00412dc0 f i protect.obj
 0001:00011f40       ??C?$_Vector_const_iterator@V?$_Vector_val@U?$_Simple_types@VGPUInfo@@@std@@@std@@@std@@QBEPBVGPUInfo@@XZ 00412f40 f i protect.obj
 0001:000120c0       ??C?$_Vector_const_iterator@V?$_Vector_val@U?$_Simple_types@VMotherboardInfo@@@std@@@std@@@std@@QBEPBVMotherboardInfo@@XZ 004130c0 f i protect.obj
 0001:00012240       ??C?$_Vector_const_iterator@V?$_Vector_val@U?$_Simple_types@VOSInfo@@@std@@@std@@@std@@QBEPBVOSInfo@@XZ 00413240 f i protect.obj
 0001:000123c0       ??C?$_Vector_const_iterator@V?$_Vector_val@U?$_Simple_types@VRAMInfo@@@std@@@std@@@std@@QBEPBVRAMInfo@@XZ 004133c0 f i protect.obj
 0001:00012540       ??C?$unique_ptr@VCPUInfoDelegate@@U?$default_delete@VCPUInfoDelegate@@@std@@@std@@QBEPAVCPUInfoDelegate@@XZ 00413540 f i protect.obj
 0001:000125a0       ??C?$unique_ptr@VGPUInfoDelegate@@U?$default_delete@VGPUInfoDelegate@@@std@@@std@@QBEPAVGPUInfoDelegate@@XZ 004135a0 f i protect.obj
 0001:00012600       ??C?$unique_ptr@VMotherboardInfoDelegate@@U?$default_delete@VMotherboardInfoDelegate@@@std@@@std@@QBEPAVMotherboardInfoDelegate@@XZ 00413600 f i protect.obj
 0001:00012660       ??C?$unique_ptr@VOSInfoDelegate@@U?$default_delete@VOSInfoDelegate@@@std@@@std@@QBEPAVOSInfoDelegate@@XZ 00413660 f i protect.obj
 0001:000126c0       ??C?$unique_ptr@VRAMInfoDelegate@@U?$default_delete@VRAMInfoDelegate@@@std@@@std@@QBEPAVRAMInfoDelegate@@XZ 004136c0 f i protect.obj
 0001:00012720       ??E?$_Vector_const_iterator@V?$_Vector_val@U?$_Simple_types@VCPUInfo@@@std@@@std@@@std@@QAE?AV01@H@Z 00413720 f i protect.obj
 0001:00012810       ??E?$_Vector_const_iterator@V?$_Vector_val@U?$_Simple_types@VCPUInfo@@@std@@@std@@@std@@QAEAAV01@XZ 00413810 f i protect.obj
 0001:00012990       ??E?$_Vector_const_iterator@V?$_Vector_val@U?$_Simple_types@VGPUInfo@@@std@@@std@@@std@@QAE?AV01@H@Z 00413990 f i protect.obj
 0001:00012a80       ??E?$_Vector_const_iterator@V?$_Vector_val@U?$_Simple_types@VGPUInfo@@@std@@@std@@@std@@QAEAAV01@XZ 00413a80 f i protect.obj
 0001:00012c00       ??E?$_Vector_const_iterator@V?$_Vector_val@U?$_Simple_types@VMotherboardInfo@@@std@@@std@@@std@@QAE?AV01@H@Z 00413c00 f i protect.obj
 0001:00012cf0       ??E?$_Vector_const_iterator@V?$_Vector_val@U?$_Simple_types@VMotherboardInfo@@@std@@@std@@@std@@QAEAAV01@XZ 00413cf0 f i protect.obj
 0001:00012e70       ??E?$_Vector_const_iterator@V?$_Vector_val@U?$_Simple_types@VOSInfo@@@std@@@std@@@std@@QAE?AV01@H@Z 00413e70 f i protect.obj
 0001:00012f60       ??E?$_Vector_const_iterator@V?$_Vector_val@U?$_Simple_types@VOSInfo@@@std@@@std@@@std@@QAEAAV01@XZ 00413f60 f i protect.obj
 0001:000130e0       ??E?$_Vector_const_iterator@V?$_Vector_val@U?$_Simple_types@VRAMInfo@@@std@@@std@@@std@@QAE?AV01@H@Z 004140e0 f i protect.obj
 0001:000131d0       ??E?$_Vector_const_iterator@V?$_Vector_val@U?$_Simple_types@VRAMInfo@@@std@@@std@@@std@@QAEAAV01@XZ 004141d0 f i protect.obj
 0001:00013350       ??R<lambda_9366063389c5f42a00a5088cf24e69de>@@QBEXQADIQBD@Z 00414350 f i protect.obj
 0001:000133f0       ??R<lambda_ab246b20b9526e2ef7792587e4298a77>@@QBEXQADQBDI1I@Z 004143f0 f i protect.obj
 0001:000134b0       ??R?$default_delete@VCPUInfoDelegate@@@std@@QBEXPAVCPUInfoDelegate@@@Z 004144b0 f i protect.obj
 0001:00013550       ??R?$default_delete@VGPUInfoDelegate@@@std@@QBEXPAVGPUInfoDelegate@@@Z 00414550 f i protect.obj
 0001:000135f0       ??R?$default_delete@VMotherboardInfoDelegate@@@std@@QBEXPAVMotherboardInfoDelegate@@@Z 004145f0 f i protect.obj
 0001:00013690       ??R?$default_delete@VOSInfoDelegate@@@std@@QBEXPAVOSInfoDelegate@@@Z 00414690 f i protect.obj
 0001:00013730       ??R?$default_delete@VRAMInfoDelegate@@@std@@QBEXPAVRAMInfoDelegate@@@Z 00414730 f i protect.obj
 0001:000137d0       ??Y?$basic_string@DU?$char_traits@D@std@@V?$allocator@D@2@@std@@QAEAAV01@QBD@Z 004147d0 f i protect.obj
 0001:00013840       ??_GCPUInfo@@QAEPAXI@Z     00414840 f i protect.obj
 0001:000138c0       ??_GCPUInfoDelegate@@QAEPAXI@Z 004148c0 f i protect.obj
 0001:00013930       ??_GGPUInfo@@QAEPAXI@Z     00414930 f i protect.obj
 0001:000139b0       ??_GGPUInfoDelegate@@QAEPAXI@Z 004149b0 f i protect.obj
 0001:00013a20       ??_GMotherboardInfo@@QAEPAXI@Z 00414a20 f i protect.obj
 0001:00013aa0       ??_GMotherboardInfoDelegate@@QAEPAXI@Z 00414aa0 f i protect.obj
 0001:00013b10       ??_GOSInfo@@QAEPAXI@Z      00414b10 f i protect.obj
 0001:00013b90       ??_GOSInfoDelegate@@QAEPAXI@Z 00414b90 f i protect.obj
 0001:00013c00       ??_GRAMInfo@@QAEPAXI@Z     00414c00 f i protect.obj
 0001:00013c80       ??_GRAMInfoDelegate@@QAEPAXI@Z 00414c80 f i protect.obj
 0001:00013cf0       ??_Ebad_alloc@std@@UAEPAXI@Z 00414cf0 f i protect.obj
 0001:00013cf0       ??_Gbad_alloc@std@@UAEPAXI@Z 00414cf0 f i protect.obj
 0001:00013d60       ??_Ebad_array_new_length@std@@UAEPAXI@Z 00414d60 f i protect.obj
 0001:00013d60       ??_Gbad_array_new_length@std@@UAEPAXI@Z 00414d60 f i protect.obj
 0001:00013dd0       ??_Gexception@std@@UAEPAXI@Z 00414dd0 f i protect.obj
 0001:00013dd0       ??_Eexception@std@@UAEPAXI@Z 00414dd0 f i protect.obj
 0001:00013e40       ?Gen@@YAKH@Z               00414e40 f   protect.obj
 0001:00013ed0       ?Gen@@YAKV?$basic_string@DU?$char_traits@D@std@@V?$allocator@D@2@@std@@@Z 00414ed0 f   protect.obj
 0001:00013fa0       ?IsValid@@YA_NPBD@Z        00414fa0 f   protect.obj
 0001:00014060       ?IsValidTime@@YA_NHHH@Z    00415060 f   protect.obj
 0001:000144c0       ?KEY@@YA?AV?$basic_string@DU?$char_traits@D@std@@V?$allocator@D@2@@std@@XZ 004154c0 f   protect.obj
 0001:000167c0       ?_Adjust_manually_vector_aligned@std@@YAXAAPAXAAI@Z 004177c0 f i protect.obj
 0001:00016990       ?_Adopt@_Iterator_base12@std@@QAEXPBU_Container_base12@2@@Z 00417990 f i protect.obj
 0001:00016b10       ?_Allocate@_Default_allocate_traits@std@@SAPAXI@Z 00417b10 f i protect.obj
 0001:00016b70       ?_Calculate_growth@?$basic_string@DU?$char_traits@D@std@@V?$allocator@D@2@@std@@ABEII@Z 00417b70 f i protect.obj
 0001:00016bf0       ?_Calculate_growth@?$basic_string@DU?$char_traits@D@std@@V?$allocator@D@2@@std@@CAIIII@Z 00417bf0 f i protect.obj
 0001:00016cf0       ?_Check_offset@?$_String_val@U?$_Simple_types@D@std@@@std@@QBEXI@Z 00417cf0 f i protect.obj
 0001:00016d60       ?_Clamp_suffix_size@?$_String_val@U?$_Simple_types@D@std@@@std@@QBEIII@Z 00417d60 f i protect.obj
 0001:00016de0       ?_Compat@?$_Vector_const_iterator@V?$_Vector_val@U?$_Simple_types@VCPUInfo@@@std@@@std@@@std@@QBEXABV12@@Z 00417de0 f i protect.obj
 0001:00016ed0       ?_Compat@?$_Vector_const_iterator@V?$_Vector_val@U?$_Simple_types@VGPUInfo@@@std@@@std@@@std@@QBEXABV12@@Z 00417ed0 f i protect.obj
 0001:00016fc0       ?_Compat@?$_Vector_const_iterator@V?$_Vector_val@U?$_Simple_types@VMotherboardInfo@@@std@@@std@@@std@@QBEXABV12@@Z 00417fc0 f i protect.obj
 0001:000170b0       ?_Compat@?$_Vector_const_iterator@V?$_Vector_val@U?$_Simple_types@VOSInfo@@@std@@@std@@@std@@QBEXABV12@@Z 004180b0 f i protect.obj
 0001:000171a0       ?_Compat@?$_Vector_const_iterator@V?$_Vector_val@U?$_Simple_types@VRAMInfo@@@std@@@std@@@std@@QBEXABV12@@Z 004181a0 f i protect.obj
 0001:00017290       ?_Construct@?$basic_string@DU?$char_traits@D@std@@V?$allocator@D@2@@std@@QAEXQAD0Urandom_access_iterator_tag@2@@Z 00418290 f i protect.obj
 0001:00017310       ?_Destroy@?$vector@VCPUInfo@@V?$allocator@VCPUInfo@@@std@@@std@@AAEXPAVCPUInfo@@0@Z 00418310 f i protect.obj
 0001:00017390       ?_Destroy@?$vector@VGPUInfo@@V?$allocator@VGPUInfo@@@std@@@std@@AAEXPAVGPUInfo@@0@Z 00418390 f i protect.obj
 0001:00017410       ?_Destroy@?$vector@VMotherboardInfo@@V?$allocator@VMotherboardInfo@@@std@@@std@@AAEXPAVMotherboardInfo@@0@Z 00418410 f i protect.obj
 0001:00017490       ?_Destroy@?$vector@VOSInfo@@V?$allocator@VOSInfo@@@std@@@std@@AAEXPAVOSInfo@@0@Z 00418490 f i protect.obj
 0001:00017510       ?_Destroy@?$vector@VRAMInfo@@V?$allocator@VRAMInfo@@@std@@@std@@AAEXPAVRAMInfo@@0@Z 00418510 f i protect.obj
 0001:00017590       ?_Get_first@?$_Compressed_pair@U?$default_delete@VCPUInfoDelegate@@@std@@PAVCPUInfoDelegate@@$00@std@@QAEAAU?$default_delete@VCPUInfoDelegate@@@2@XZ 00418590 f i protect.obj
 0001:000175f0       ?_Get_first@?$_Compressed_pair@U?$default_delete@VGPUInfoDelegate@@@std@@PAVGPUInfoDelegate@@$00@std@@QAEAAU?$default_delete@VGPUInfoDelegate@@@2@XZ 004185f0 f i protect.obj
 0001:00017650       ?_Get_first@?$_Compressed_pair@U?$default_delete@VMotherboardInfoDelegate@@@std@@PAVMotherboardInfoDelegate@@$00@std@@QAEAAU?$default_delete@VMotherboardInfoDelegate@@@2@XZ 00418650 f i protect.obj
 0001:000176b0       ?_Get_first@?$_Compressed_pair@U?$default_delete@VOSInfoDelegate@@@std@@PAVOSInfoDelegate@@$00@std@@QAEAAU?$default_delete@VOSInfoDelegate@@@2@XZ 004186b0 f i protect.obj
 0001:00017710       ?_Get_first@?$_Compressed_pair@U?$default_delete@VRAMInfoDelegate@@@std@@PAVRAMInfoDelegate@@$00@std@@QAEAAU?$default_delete@VRAMInfoDelegate@@@2@XZ 00418710 f i protect.obj
 0001:00017770       ?_Get_first@?$_Compressed_pair@V?$allocator@D@std@@V?$_String_val@U?$_Simple_types@D@std@@@2@$00@std@@QAEAAV?$allocator@D@2@XZ 00418770 f i protect.obj
 0001:000177d0       ?_Get_first@?$_Compressed_pair@V?$allocator@D@std@@V?$_String_val@U?$_Simple_types@D@std@@@2@$00@std@@QBEABV?$allocator@D@2@XZ 004187d0 f i protect.obj
 0001:00017830       ?_Get_first@?$_Compressed_pair@V?$allocator@VCPUInfo@@@std@@V?$_Vector_val@U?$_Simple_types@VCPUInfo@@@std@@@2@$00@std@@QAEAAV?$allocator@VCPUInfo@@@2@XZ 00418830 f i protect.obj
 0001:00017890       ?_Get_first@?$_Compressed_pair@V?$allocator@VGPUInfo@@@std@@V?$_Vector_val@U?$_Simple_types@VGPUInfo@@@std@@@2@$00@std@@QAEAAV?$allocator@VGPUInfo@@@2@XZ 00418890 f i protect.obj
 0001:000178f0       ?_Get_first@?$_Compressed_pair@V?$allocator@VMotherboardInfo@@@std@@V?$_Vector_val@U?$_Simple_types@VMotherboardInfo@@@std@@@2@$00@std@@QAEAAV?$allocator@VMotherboardInfo@@@2@XZ 004188f0 f i protect.obj
 0001:00017950       ?_Get_first@?$_Compressed_pair@V?$allocator@VOSInfo@@@std@@V?$_Vector_val@U?$_Simple_types@VOSInfo@@@std@@@2@$00@std@@QAEAAV?$allocator@VOSInfo@@@2@XZ 00418950 f i protect.obj
 0001:000179b0       ?_Get_first@?$_Compressed_pair@V?$allocator@VRAMInfo@@@std@@V?$_Vector_val@U?$_Simple_types@VRAMInfo@@@std@@@2@$00@std@@QAEAAV?$allocator@VRAMInfo@@@2@XZ 004189b0 f i protect.obj
 0001:00017a10       ?_Getal@?$basic_string@DU?$char_traits@D@std@@V?$allocator@D@2@@std@@AAEAAV?$allocator@D@2@XZ 00418a10 f i protect.obj
 0001:00017a70       ?_Getal@?$basic_string@DU?$char_traits@D@std@@V?$allocator@D@2@@std@@ABEABV?$allocator@D@2@XZ 00418a70 f i protect.obj
 0001:00017ad0       ?_Getal@?$vector@VCPUInfo@@V?$allocator@VCPUInfo@@@std@@@std@@AAEAAV?$allocator@VCPUInfo@@@2@XZ 00418ad0 f i protect.obj
 0001:00017b30       ?_Getal@?$vector@VGPUInfo@@V?$allocator@VGPUInfo@@@std@@@std@@AAEAAV?$allocator@VGPUInfo@@@2@XZ 00418b30 f i protect.obj
 0001:00017b90       ?_Getal@?$vector@VMotherboardInfo@@V?$allocator@VMotherboardInfo@@@std@@@std@@AAEAAV?$allocator@VMotherboardInfo@@@2@XZ 00418b90 f i protect.obj
 0001:00017bf0       ?_Getal@?$vector@VOSInfo@@V?$allocator@VOSInfo@@@std@@@std@@AAEAAV?$allocator@VOSInfo@@@2@XZ 00418bf0 f i protect.obj
 0001:00017c50       ?_Getal@?$vector@VRAMInfo@@V?$allocator@VRAMInfo@@@std@@@std@@AAEAAV?$allocator@VRAMInfo@@@2@XZ 00418c50 f i protect.obj
 0001:00017cb0       ?_Getcont@_Iterator_base12@std@@QBEPBU_Container_base12@2@XZ 00418cb0 f i protect.obj
 0001:00017d40       ?_Large_string_engaged@?$_String_val@U?$_Simple_types@D@std@@@std@@QBE_NXZ 00418d40 f i protect.obj
 0001:00017dc0       ?_Memcpy_val_from@?$basic_string@DU?$char_traits@D@std@@V?$allocator@D@2@@std@@AAEXABV12@@Z 00418dc0 f i protect.obj
 0001:00017e60       ?_Myptr@?$_String_val@U?$_Simple_types@D@std@@@std@@QAEPADXZ 00418e60 f i protect.obj
 0001:00017ef0       ?_Myptr@?$_String_val@U?$_Simple_types@D@std@@@std@@QBEPBDXZ 00418ef0 f i protect.obj
 0001:00017f80       ?_Orphan_all@_Container_base12@std@@QAEXXZ 00418f80 f i protect.obj
 0001:000180b0       ?_Orphan_me@_Iterator_base12@std@@QAEXXZ 004190b0 f i protect.obj
 0001:000181f0       ?_Release@_Basic_container_proxy_ptr12@std@@QAEXXZ 004191f0 f i protect.obj
 0001:00018250       ?_Swap_proxy_and_iterators@?$basic_string@DU?$char_traits@D@std@@V?$allocator@D@2@@std@@AAEXAAV12@@Z 00419250 f i protect.obj
 0001:000182c0       ?_Swap_proxy_and_iterators@_Container_base12@std@@QAEXAAU12@@Z 004192c0 f i protect.obj
 0001:000183e0       ?_Take_contents@?$basic_string@DU?$char_traits@D@std@@V?$allocator@D@2@@std@@AAEXAAV12@U?$integral_constant@_N$00@2@@Z 004193e0 f i protect.obj
 0001:000184c0       ?_Throw_bad_array_new_length@std@@YAXXZ 004194c0 f i protect.obj
 0001:00018530       ?_Tidy@?$vector@VCPUInfo@@V?$allocator@VCPUInfo@@@std@@@std@@AAEXXZ 00419530 f i protect.obj
 0001:00018670       ?_Tidy@?$vector@VGPUInfo@@V?$allocator@VGPUInfo@@@std@@@std@@AAEXXZ 00419670 f i protect.obj
 0001:000187b0       ?_Tidy@?$vector@VMotherboardInfo@@V?$allocator@VMotherboardInfo@@@std@@@std@@AAEXXZ 004197b0 f i protect.obj
 0001:000188f0       ?_Tidy@?$vector@VOSInfo@@V?$allocator@VOSInfo@@@std@@@std@@AAEXXZ 004198f0 f i protect.obj
 0001:00018a30       ?_Tidy@?$vector@VRAMInfo@@V?$allocator@VRAMInfo@@@std@@@std@@AAEXXZ 00419a30 f i protect.obj
 0001:00018b70       ?_Tidy_deallocate@?$basic_string@DU?$char_traits@D@std@@V?$allocator@D@2@@std@@AAEXXZ 00419b70 f i protect.obj
 0001:00018cb0       ?_Tidy_init@?$basic_string@DU?$char_traits@D@std@@V?$allocator@D@2@@std@@AAEXXZ 00419cb0 f i protect.obj
 0001:00018d50       ?_Xlen_string@std@@YAXXZ   00419d50 f i protect.obj
 0001:00018db0       ?_Xran@?$_String_val@U?$_Simple_types@D@std@@@std@@SAXXZ 00419db0 f i protect.obj
 0001:00018e10       ?__autoclassinit2@?$_Vector_const_iterator@V?$_Vector_val@U?$_Simple_types@VCPUInfo@@@std@@@std@@@std@@QAEXI@Z 00419e10 f i protect.obj
 0001:00018e70       ?__autoclassinit2@?$_Vector_const_iterator@V?$_Vector_val@U?$_Simple_types@VGPUInfo@@@std@@@std@@@std@@QAEXI@Z 00419e70 f i protect.obj
 0001:00018ed0       ?__autoclassinit2@?$_Vector_const_iterator@V?$_Vector_val@U?$_Simple_types@VMotherboardInfo@@@std@@@std@@@std@@QAEXI@Z 00419ed0 f i protect.obj
 0001:00018f30       ?__autoclassinit2@?$_Vector_const_iterator@V?$_Vector_val@U?$_Simple_types@VOSInfo@@@std@@@std@@@std@@QAEXI@Z 00419f30 f i protect.obj
 0001:00018f90       ?__autoclassinit2@?$_Vector_const_iterator@V?$_Vector_val@U?$_Simple_types@VRAMInfo@@@std@@@std@@@std@@QAEXI@Z 00419f90 f i protect.obj
 0001:00018ff0       ?__autoclassinit2@?$unique_ptr@VCPUInfoDelegate@@U?$default_delete@VCPUInfoDelegate@@@std@@@std@@QAEXI@Z 00419ff0 f i protect.obj
 0001:00019050       ?__autoclassinit2@?$unique_ptr@VGPUInfoDelegate@@U?$default_delete@VGPUInfoDelegate@@@std@@@std@@QAEXI@Z 0041a050 f i protect.obj
 0001:000190b0       ?__autoclassinit2@?$unique_ptr@VMotherboardInfoDelegate@@U?$default_delete@VMotherboardInfoDelegate@@@std@@@std@@QAEXI@Z 0041a0b0 f i protect.obj
 0001:00019110       ?__autoclassinit2@?$unique_ptr@VOSInfoDelegate@@U?$default_delete@VOSInfoDelegate@@@std@@@std@@QAEXI@Z 0041a110 f i protect.obj
 0001:00019170       ?__autoclassinit2@?$unique_ptr@VRAMInfoDelegate@@U?$default_delete@VRAMInfoDelegate@@@std@@@std@@QAEXI@Z 0041a170 f i protect.obj
 0001:000191d0       ?__autoclassinit2@?$vector@VCPUInfo@@V?$allocator@VCPUInfo@@@std@@@std@@QAEXI@Z 0041a1d0 f i protect.obj
 0001:00019230       ?__autoclassinit2@?$vector@VGPUInfo@@V?$allocator@VGPUInfo@@@std@@@std@@QAEXI@Z 0041a230 f i protect.obj
 0001:00019290       ?__autoclassinit2@?$vector@VMotherboardInfo@@V?$allocator@VMotherboardInfo@@@std@@@std@@QAEXI@Z 0041a290 f i protect.obj
 0001:000192f0       ?__autoclassinit2@?$vector@VOSInfo@@V?$allocator@VOSInfo@@@std@@@std@@QAEXI@Z 0041a2f0 f i protect.obj
 0001:00019350       ?__autoclassinit2@?$vector@VRAMInfo@@V?$allocator@VRAMInfo@@@std@@@std@@QAEXI@Z 0041a350 f i protect.obj
 0001:000193b0       ?__autoclassinit2@CPUInfoDelegate@@QAEXI@Z 0041a3b0 f i protect.obj
 0001:00019410       ?__autoclassinit2@GPUInfoDelegate@@QAEXI@Z 0041a410 f i protect.obj
 0001:00019470       ?__autoclassinit2@MotherboardInfoDelegate@@QAEXI@Z 0041a470 f i protect.obj
 0001:000194d0       ?__autoclassinit2@OSInfoDelegate@@QAEXI@Z 0041a4d0 f i protect.obj
 0001:00019530       ?__autoclassinit2@RAMInfoDelegate@@QAEXI@Z 0041a530 f i protect.obj
 0001:00019590       ?allocate@?$allocator@D@std@@QAEPADI@Z 0041a590 f i protect.obj
 0001:00019600       ?allocate@?$allocator@U_Container_proxy@std@@@std@@QAEPAU_Container_proxy@2@I@Z 0041a600 f i protect.obj
 0001:00019670       ?append@?$basic_string@DU?$char_traits@D@std@@V?$allocator@D@2@@std@@QAEAAV12@ABV12@II@Z 0041a670 f i protect.obj
 0001:00019710       ?append@?$basic_string@DU?$char_traits@D@std@@V?$allocator@D@2@@std@@QAEAAV12@QBD@Z 0041a710 f i protect.obj
 0001:00019790       ?append@?$basic_string@DU?$char_traits@D@std@@V?$allocator@D@2@@std@@QAEAAV12@QBDI@Z 0041a790 f i protect.obj
 0001:000198a0       ?assign@?$_Narrow_char_traits@DH@std@@SAXAADABD@Z 0041a8a0 f i protect.obj
 0001:00019900       ?assign@?$basic_string@DU?$char_traits@D@std@@V?$allocator@D@2@@std@@QAEAAV12@ABV12@II@Z 0041a900 f i protect.obj
 0001:000199a0       ?assign@?$basic_string@DU?$char_traits@D@std@@V?$allocator@D@2@@std@@QAEAAV12@QBD@Z 0041a9a0 f i protect.obj
 0001:00019a20       ?assign@?$basic_string@DU?$char_traits@D@std@@V?$allocator@D@2@@std@@QAEAAV12@QBDI@Z 0041aa20 f i protect.obj
 0001:00019b10       ?begin@?$vector@VCPUInfo@@V?$allocator@VCPUInfo@@@std@@@std@@QAE?AV?$_Vector_iterator@V?$_Vector_val@U?$_Simple_types@VCPUInfo@@@std@@@std@@@2@XZ 0041ab10 f i protect.obj
 0001:00019ba0       ?begin@?$vector@VGPUInfo@@V?$allocator@VGPUInfo@@@std@@@std@@QAE?AV?$_Vector_iterator@V?$_Vector_val@U?$_Simple_types@VGPUInfo@@@std@@@std@@@2@XZ 0041aba0 f i protect.obj
 0001:00019c30       ?begin@?$vector@VMotherboardInfo@@V?$allocator@VMotherboardInfo@@@std@@@std@@QAE?AV?$_Vector_iterator@V?$_Vector_val@U?$_Simple_types@VMotherboardInfo@@@std@@@std@@@2@XZ 0041ac30 f i protect.obj
 0001:00019cc0       ?begin@?$vector@VOSInfo@@V?$allocator@VOSInfo@@@std@@@std@@QAE?AV?$_Vector_iterator@V?$_Vector_val@U?$_Simple_types@VOSInfo@@@std@@@std@@@2@XZ 0041acc0 f i protect.obj
 0001:00019d50       ?begin@?$vector@VRAMInfo@@V?$allocator@VRAMInfo@@@std@@@std@@QAE?AV?$_Vector_iterator@V?$_Vector_val@U?$_Simple_types@VRAMInfo@@@std@@@std@@@2@XZ 0041ad50 f i protect.obj
 0001:00019de0       ?c_str@?$basic_string@DU?$char_traits@D@std@@V?$allocator@D@2@@std@@QBEPBDXZ 0041ade0 f i protect.obj
 0001:00019e40       ?compare@?$_Narrow_char_traits@DH@std@@SAHQBD0I@Z 0041ae40 f i protect.obj
 0001:00019eb0       ?compare@?$basic_string@DU?$char_traits@D@std@@V?$allocator@D@2@@std@@QBEHQBD@Z 0041aeb0 f i protect.obj
 0001:00019f40       ?copy@?$_Char_traits@DH@std@@SAPADQADQBDI@Z 0041af40 f i protect.obj
 0001:00019fb0       ?deallocate@?$_Default_allocator_traits@V?$allocator@U_Container_proxy@std@@@std@@@std@@SAXAAV?$allocator@U_Container_proxy@std@@@2@QAU_Container_proxy@2@I@Z 0041afb0 f i protect.obj
 0001:0001a020       ?deallocate@?$allocator@D@std@@QAEXQADI@Z 0041b020 f i protect.obj
 0001:0001a090       ?deallocate@?$allocator@VCPUInfo@@@std@@QAEXQAVCPUInfo@@I@Z 0041b090 f i protect.obj
 0001:0001a100       ?deallocate@?$allocator@VGPUInfo@@@std@@QAEXQAVGPUInfo@@I@Z 0041b100 f i protect.obj
 0001:0001a170       ?deallocate@?$allocator@VMotherboardInfo@@@std@@QAEXQAVMotherboardInfo@@I@Z 0041b170 f i protect.obj
 0001:0001a1e0       ?deallocate@?$allocator@VOSInfo@@@std@@QAEXQAVOSInfo@@I@Z 0041b1e0 f i protect.obj
 0001:0001a250       ?deallocate@?$allocator@VRAMInfo@@@std@@QAEXQAVRAMInfo@@I@Z 0041b250 f i protect.obj
 0001:0001a2c0       ?end@?$vector@VCPUInfo@@V?$allocator@VCPUInfo@@@std@@@std@@QAE?AV?$_Vector_iterator@V?$_Vector_val@U?$_Simple_types@VCPUInfo@@@std@@@std@@@2@XZ 0041b2c0 f i protect.obj
 0001:0001a350       ?end@?$vector@VGPUInfo@@V?$allocator@VGPUInfo@@@std@@@std@@QAE?AV?$_Vector_iterator@V?$_Vector_val@U?$_Simple_types@VGPUInfo@@@std@@@std@@@2@XZ 0041b350 f i protect.obj
 0001:0001a3e0       ?end@?$vector@VMotherboardInfo@@V?$allocator@VMotherboardInfo@@@std@@@std@@QAE?AV?$_Vector_iterator@V?$_Vector_val@U?$_Simple_types@VMotherboardInfo@@@std@@@std@@@2@XZ 0041b3e0 f i protect.obj
 0001:0001a470       ?end@?$vector@VOSInfo@@V?$allocator@VOSInfo@@@std@@@std@@QAE?AV?$_Vector_iterator@V?$_Vector_val@U?$_Simple_types@VOSInfo@@@std@@@std@@@2@XZ 0041b470 f i protect.obj
 0001:0001a500       ?end@?$vector@VRAMInfo@@V?$allocator@VRAMInfo@@@std@@@std@@QAE?AV?$_Vector_iterator@V?$_Vector_val@U?$_Simple_types@VRAMInfo@@@std@@@std@@@2@XZ 0041b500 f i protect.obj
 0001:0001a590       ?eof@?$_Narrow_char_traits@DH@std@@SAHXZ 0041b590 f i protect.obj
 0001:0001a5e0       ?eq_int_type@?$_Narrow_char_traits@DH@std@@SA_NABH0@Z 0041b5e0 f i protect.obj
 0001:0001a660       ?get_allocator@?$basic_string@DU?$char_traits@D@std@@V?$allocator@D@2@@std@@QBE?AV?$allocator@D@2@XZ 0041b660 f i protect.obj
 0001:0001a6d0       ?get_deleter@?$unique_ptr@VCPUInfoDelegate@@U?$default_delete@VCPUInfoDelegate@@@std@@@std@@QAEAAU?$default_delete@VCPUInfoDelegate@@@2@XZ 0041b6d0 f i protect.obj
 0001:0001a730       ?get_deleter@?$unique_ptr@VGPUInfoDelegate@@U?$default_delete@VGPUInfoDelegate@@@std@@@std@@QAEAAU?$default_delete@VGPUInfoDelegate@@@2@XZ 0041b730 f i protect.obj
 0001:0001a790       ?get_deleter@?$unique_ptr@VMotherboardInfoDelegate@@U?$default_delete@VMotherboardInfoDelegate@@@std@@@std@@QAEAAU?$default_delete@VMotherboardInfoDelegate@@@2@XZ 0041b790 f i protect.obj
 0001:0001a7f0       ?get_deleter@?$unique_ptr@VOSInfoDelegate@@U?$default_delete@VOSInfoDelegate@@@std@@@std@@QAEAAU?$default_delete@VOSInfoDelegate@@@2@XZ 0041b7f0 f i protect.obj
 0001:0001a850       ?get_deleter@?$unique_ptr@VRAMInfoDelegate@@U?$default_delete@VRAMInfoDelegate@@@std@@@std@@QAEAAU?$default_delete@VRAMInfoDelegate@@@2@XZ 0041b850 f i protect.obj
 0001:0001a8b0       ?length@?$_Narrow_char_traits@DH@std@@SAIQBD@Z 0041b8b0 f i protect.obj
 0001:0001a910       ?max@?$numeric_limits@H@std@@SAHXZ 0041b910 f i protect.obj
 0001:0001a970       ?max_size@?$_Default_allocator_traits@V?$allocator@D@std@@@std@@SAIABV?$allocator@D@2@@Z 0041b970 f i protect.obj
 0001:0001a9c0       ?max_size@?$basic_string@DU?$char_traits@D@std@@V?$allocator@D@2@@std@@QBEIXZ 0041b9c0 f i protect.obj
 0001:0001aaf0       ?move@?$_Char_traits@DH@std@@SAPADQADQBDI@Z 0041baf0 f i protect.obj
 0001:0001ab60       ?release@?$unique_ptr@VCPUInfoDelegate@@U?$default_delete@VCPUInfoDelegate@@@std@@@std@@QAEPAVCPUInfoDelegate@@XZ 0041bb60 f i protect.obj
 0001:0001abe0       ?release@?$unique_ptr@VGPUInfoDelegate@@U?$default_delete@VGPUInfoDelegate@@@std@@@std@@QAEPAVGPUInfoDelegate@@XZ 0041bbe0 f i protect.obj
 0001:0001ac60       ?release@?$unique_ptr@VMotherboardInfoDelegate@@U?$default_delete@VMotherboardInfoDelegate@@@std@@@std@@QAEPAVMotherboardInfoDelegate@@XZ 0041bc60 f i protect.obj
 0001:0001ace0       ?release@?$unique_ptr@VOSInfoDelegate@@U?$default_delete@VOSInfoDelegate@@@std@@@std@@QAEPAVOSInfoDelegate@@XZ 0041bce0 f i protect.obj
 0001:0001ad60       ?release@?$unique_ptr@VRAMInfoDelegate@@U?$default_delete@VRAMInfoDelegate@@@std@@@std@@QAEPAVRAMInfoDelegate@@XZ 0041bd60 f i protect.obj
 0001:0001ade0       ?size@?$basic_string@DU?$char_traits@D@std@@V?$allocator@D@2@@std@@QBEIXZ 0041bde0 f i protect.obj
 0001:0001ae40       ?stoi@std@@YAHABV?$basic_string@DU?$char_traits@D@std@@V?$allocator@D@2@@1@PAIH@Z 0041be40 f i protect.obj
 0001:0001afa0       ?substr@?$basic_string@DU?$char_traits@D@std@@V?$allocator@D@2@@std@@QBE?AV12@II@Z 0041bfa0 f i protect.obj
 0001:0001b050       ?to_string@std@@YA?AV?$basic_string@DU?$char_traits@D@std@@V?$allocator@D@2@@1@H@Z 0041c050 f i protect.obj
 0001:0001b0e0       ?what@exception@std@@UBEPBDXZ 0041c0e0 f i protect.obj
 0001:0001b170       ?write_to_string@@YAIPAXII0@Z 0041c170 f   protect.obj
 0001:0001b250       ___local_stdio_printf_options 0041c250 f i protect.obj
 0001:0001b2b0       __vsnprintf_l              0041c2b0 f i protect.obj
 0001:0001b370       __vsprintf_l               0041c370 f i protect.obj
 0001:0001b450       _sprintf                   0041c450 f i protect.obj
 0001:0001b4d0       ??$?0$$V@?$_Compressed_pair@V?$allocator@V?$basic_string@DU?$char_traits@D@std@@V?$allocator@D@2@@std@@@std@@V?$_Vector_val@U?$_Simple_types@V?$basic_string@DU?$char_traits@D@std@@V?$allocator@D@2@@std@@@std@@@2@$00@std@@QAE@U_Zero_then_variadic_args_t@1@@Z 0041c4d0 f i systeminfo.obj
 0001:0001b540       ??$?0$$V@?$_Compressed_pair@V?$allocator@VCPUInfo@@@std@@V?$_Vector_val@U?$_Simple_types@VCPUInfo@@@std@@@2@$00@std@@QAE@U_Zero_then_variadic_args_t@1@@Z 0041c540 f i systeminfo.obj
 0001:0001b5b0       ??$?0$$V@?$_Compressed_pair@V?$allocator@VGPUInfo@@@std@@V?$_Vector_val@U?$_Simple_types@VGPUInfo@@@std@@@2@$00@std@@QAE@U_Zero_then_variadic_args_t@1@@Z 0041c5b0 f i systeminfo.obj
 0001:0001b620       ??$?0$$V@?$_Compressed_pair@V?$allocator@VMotherboardInfo@@@std@@V?$_Vector_val@U?$_Simple_types@VMotherboardInfo@@@std@@@2@$00@std@@QAE@U_Zero_then_variadic_args_t@1@@Z 0041c620 f i systeminfo.obj
 0001:0001b690       ??$?0$$V@?$_Compressed_pair@V?$allocator@VOSInfo@@@std@@V?$_Vector_val@U?$_Simple_types@VOSInfo@@@std@@@2@$00@std@@QAE@U_Zero_then_variadic_args_t@1@@Z 0041c690 f i systeminfo.obj
 0001:0001b700       ??$?0$$V@?$_Compressed_pair@V?$allocator@VRAMInfo@@@std@@V?$_Vector_val@U?$_Simple_types@VRAMInfo@@@std@@@2@$00@std@@QAE@U_Zero_then_variadic_args_t@1@@Z 0041c700 f i systeminfo.obj
 0001:0001b770       ??$?0AAPAV_Facet_base@std@@@?$_Compressed_pair@U?$default_delete@V_Facet_base@std@@@std@@PAV_Facet_base@2@$00@std@@QAE@U_Zero_then_variadic_args_t@1@AAPAV_Facet_base@1@@Z 0041c770 f i systeminfo.obj
 0001:0001b7e0       ??$?0AAV?$allocator@D@std@@$$V@?$_Compressed_pair@V?$allocator@D@std@@V?$_String_val@U?$_Simple_types@D@std@@@2@$00@std@@QAE@U_One_then_variadic_args_t@1@AAV?$allocator@D@1@@Z 0041c7e0 f i systeminfo.obj
 0001:0001b8d0       ??$?0ABV?$allocator@V?$basic_string@DU?$char_traits@D@std@@V?$allocator@D@2@@std@@@std@@$$V@?$_Compressed_pair@V?$allocator@V?$basic_string@DU?$char_traits@D@std@@V?$allocator@D@2@@std@@@std@@V?$_Vector_val@U?$_Simple_types@V?$basic_string@DU?$char_traits@D@std@@V?$allocator@D@2@@std@@@std@@@2@$00@std@@QAE@U_One_then_variadic_args_t@1@ABV?$allocator@V?$basic_string@DU?$char_traits@D@std@@V?$allocator@D@2@@std@@@1@@Z 0041c8d0 f i systeminfo.obj
 0001:0001b940       ??$?0U?$default_delete@V_Facet_base@std@@@std@@$0A@@?$unique_ptr@V_Facet_base@std@@U?$default_delete@V_Facet_base@std@@@2@@std@@QAE@PAV_Facet_base@1@@Z 0041c940 f i systeminfo.obj
 0001:0001bb00       ??$?0V?$allocator@V?$basic_string@DU?$char_traits@D@std@@V?$allocator@D@2@@std@@@std@@$$V@?$_Compressed_pair@V?$allocator@V?$basic_string@DU?$char_traits@D@std@@V?$allocator@D@2@@std@@@std@@V?$_Vector_val@U?$_Simple_types@V?$basic_string@DU?$char_traits@D@std@@V?$allocator@D@2@@std@@@std@@@2@$00@std@@QAE@U_One_then_variadic_args_t@1@$$QAV?$allocator@V?$basic_string@DU?$char_traits@D@std@@V?$allocator@D@2@@std@@@1@@Z 0041cb00 f i systeminfo.obj
 0001:0001bb70       ??$?0V?$allocator@VCPUInfo@@@std@@$$V@?$_Compressed_pair@V?$allocator@VCPUInfo@@@std@@V?$_Vector_val@U?$_Simple_types@VCPUInfo@@@std@@@2@$00@std@@QAE@U_One_then_variadic_args_t@1@$$QAV?$allocator@VCPUInfo@@@1@@Z 0041cb70 f i systeminfo.obj
 0001:0001bbe0       ??$?0V?$allocator@VGPUInfo@@@std@@$$V@?$_Compressed_pair@V?$allocator@VGPUInfo@@@std@@V?$_Vector_val@U?$_Simple_types@VGPUInfo@@@std@@@2@$00@std@@QAE@U_One_then_variadic_args_t@1@$$QAV?$allocator@VGPUInfo@@@1@@Z 0041cbe0 f i systeminfo.obj
 0001:0001bc50       ??$?0V?$allocator@VMotherboardInfo@@@std@@$$V@?$_Compressed_pair@V?$allocator@VMotherboardInfo@@@std@@V?$_Vector_val@U?$_Simple_types@VMotherboardInfo@@@std@@@2@$00@std@@QAE@U_One_then_variadic_args_t@1@$$QAV?$allocator@VMotherboardInfo@@@1@@Z 0041cc50 f i systeminfo.obj
 0001:0001bcc0       ??$?0V?$allocator@VOSInfo@@@std@@$$V@?$_Compressed_pair@V?$allocator@VOSInfo@@@std@@V?$_Vector_val@U?$_Simple_types@VOSInfo@@@std@@@2@$00@std@@QAE@U_One_then_variadic_args_t@1@$$QAV?$allocator@VOSInfo@@@1@@Z 0041ccc0 f i systeminfo.obj
 0001:0001bd30       ??$?0V?$allocator@VRAMInfo@@@std@@$$V@?$_Compressed_pair@V?$allocator@VRAMInfo@@@std@@V?$_Vector_val@U?$_Simple_types@VRAMInfo@@@std@@@2@$00@std@@QAE@U_One_then_variadic_args_t@1@$$QAV?$allocator@VRAMInfo@@@1@@Z 0041cd30 f i systeminfo.obj
 0001:0001bda0       ??$?0V?$basic_string@DU?$char_traits@D@std@@V?$allocator@D@2@@std@@@?$allocator@U_Container_proxy@std@@@std@@QAE@ABV?$allocator@V?$basic_string@DU?$char_traits@D@std@@V?$allocator@D@2@@std@@@1@@Z 0041cda0 f i systeminfo.obj
 0001:0001be00       ??$?5DU?$char_traits@D@std@@V?$allocator@D@1@@std@@YAAAV?$basic_istream@DU?$char_traits@D@std@@@0@$$QAV10@AAV?$basic_string@DU?$char_traits@D@std@@V?$allocator@D@2@@0@@Z 0041ce00 f i systeminfo.obj
 0001:0001c2d0       ??$?5DU?$char_traits@D@std@@V?$allocator@D@1@@std@@YAAAV?$basic_istream@DU?$char_traits@D@std@@@0@AAV10@AAV?$basic_string@DU?$char_traits@D@std@@V?$allocator@D@2@@0@@Z 0041d2d0 f i systeminfo.obj
 0001:0001c340       ??$?6DU?$char_traits@D@std@@V?$allocator@D@1@@std@@YAAAV?$basic_ostream@DU?$char_traits@D@std@@@0@AAV10@ABV?$basic_string@DU?$char_traits@D@std@@V?$allocator@D@2@@0@@Z 0041d340 f i systeminfo.obj
 0001:0001c3b0       ??$?8DU?$char_traits@D@std@@V?$allocator@D@1@@std@@YA_NABV?$basic_string@DU?$char_traits@D@std@@V?$allocator@D@2@@0@QBD@Z 0041d3b0 f i systeminfo.obj
 0001:0001c410       ??$?9DU?$char_traits@D@std@@V?$allocator@D@1@@std@@YA_NABV?$basic_string@DU?$char_traits@D@std@@V?$allocator@D@2@@0@QBD@Z 0041d410 f i systeminfo.obj
 0001:0001c4a0       ??$?HDU?$char_traits@D@std@@V?$allocator@D@1@@std@@YA?AV?$basic_string@DU?$char_traits@D@std@@V?$allocator@D@2@@0@$$QAV10@0@Z 0041d4a0 f i systeminfo.obj
 0001:0001c5d0       ??$?HDU?$char_traits@D@std@@V?$allocator@D@1@@std@@YA?AV?$basic_string@DU?$char_traits@D@std@@V?$allocator@D@2@@0@$$QAV10@QBD@Z 0041d5d0 f i systeminfo.obj
 0001:0001c670       ??$?HDU?$char_traits@D@std@@V?$allocator@D@1@@std@@YA?AV?$basic_string@DU?$char_traits@D@std@@V?$allocator@D@2@@0@ABV10@QBD@Z 0041d670 f i systeminfo.obj
 0001:0001c780       ??$_Allocators_equal@V?$allocator@D@std@@@std@@YA_NABV?$allocator@D@0@0@Z 0041d780 f i systeminfo.obj
 0001:0001c860       ??$_Const_cast@$$CBV?$basic_string@DU?$char_traits@D@std@@V?$allocator@D@2@@std@@@std@@YA@PBV?$basic_string@DU?$char_traits@D@std@@V?$allocator@D@2@@0@@Z 0041d860 f i systeminfo.obj
 0001:0001c8b0       ??$_Deallocate@$03$0A@@std@@YAXPAXI@Z 0041d8b0 f i systeminfo.obj
 0001:0001c970       ??$_Destroy_range@V?$allocator@V?$basic_string@DU?$char_traits@D@std@@V?$allocator@D@2@@std@@@std@@@std@@YAXPAV?$basic_string@DU?$char_traits@D@std@@V?$allocator@D@2@@0@QAV10@AAV?$allocator@V?$basic_string@DU?$char_traits@D@std@@V?$allocator@D@2@@std@@@0@@Z 0041d970 f i systeminfo.obj
 0001:0001ca30       ??$_Emplace_back@AAV?$basic_string@DU?$char_traits@D@std@@V?$allocator@D@2@@std@@@?$_Uninitialized_backout_al@V?$allocator@V?$basic_string@DU?$char_traits@D@std@@V?$allocator@D@2@@std@@@std@@@std@@QAEXAAV?$basic_string@DU?$char_traits@D@std@@V?$allocator@D@2@@1@@Z 0041da30 f i systeminfo.obj
 0001:0001cad0       ??$_Emplace_back@AAVCPUInfo@@@?$_Uninitialized_backout_al@V?$allocator@VCPUInfo@@@std@@@std@@QAEXAAVCPUInfo@@@Z 0041dad0 f i systeminfo.obj
 0001:0001cb80       ??$_Emplace_back@AAVGPUInfo@@@?$_Uninitialized_backout_al@V?$allocator@VGPUInfo@@@std@@@std@@QAEXAAVGPUInfo@@@Z 0041db80 f i systeminfo.obj
 0001:0001cc30       ??$_Emplace_back@AAVMotherboardInfo@@@?$_Uninitialized_backout_al@V?$allocator@VMotherboardInfo@@@std@@@std@@QAEXAAVMotherboardInfo@@@Z 0041dc30 f i systeminfo.obj
 0001:0001cce0       ??$_Emplace_back@AAVOSInfo@@@?$_Uninitialized_backout_al@V?$allocator@VOSInfo@@@std@@@std@@QAEXAAVOSInfo@@@Z 0041dce0 f i systeminfo.obj
 0001:0001cd90       ??$_Emplace_back@AAVRAMInfo@@@?$_Uninitialized_backout_al@V?$allocator@VRAMInfo@@@std@@@std@@QAEXAAVRAMInfo@@@Z 0041dd90 f i systeminfo.obj
 0001:0001ce40       ??$_Emplace_back@ABV?$basic_string@DU?$char_traits@D@std@@V?$allocator@D@2@@std@@@?$_Uninitialized_backout_al@V?$allocator@V?$basic_string@DU?$char_traits@D@std@@V?$allocator@D@2@@std@@@std@@@std@@QAEXABV?$basic_string@DU?$char_traits@D@std@@V?$allocator@D@2@@1@@Z 0041de40 f i systeminfo.obj
 0001:0001cee0       ??$_Emplace_back@V?$basic_string@DU?$char_traits@D@std@@V?$allocator@D@2@@std@@@?$_Uninitialized_backout_al@V?$allocator@V?$basic_string@DU?$char_traits@D@std@@V?$allocator@D@2@@std@@@std@@@std@@QAEX$$QAV?$basic_string@DU?$char_traits@D@std@@V?$allocator@D@2@@1@@Z 0041dee0 f i systeminfo.obj
 0001:0001cf80       ??$_Emplace_back@VCPUInfo@@@?$_Uninitialized_backout_al@V?$allocator@VCPUInfo@@@std@@@std@@QAEX$$QAVCPUInfo@@@Z 0041df80 f i systeminfo.obj
 0001:0001d030       ??$_Emplace_back@VGPUInfo@@@?$_Uninitialized_backout_al@V?$allocator@VGPUInfo@@@std@@@std@@QAEX$$QAVGPUInfo@@@Z 0041e030 f i systeminfo.obj
 0001:0001d0e0       ??$_Emplace_back@VMotherboardInfo@@@?$_Uninitialized_backout_al@V?$allocator@VMotherboardInfo@@@std@@@std@@QAEX$$QAVMotherboardInfo@@@Z 0041e0e0 f i systeminfo.obj
 0001:0001d190       ??$_Emplace_back@VOSInfo@@@?$_Uninitialized_backout_al@V?$allocator@VOSInfo@@@std@@@std@@QAEX$$QAVOSInfo@@@Z 0041e190 f i systeminfo.obj
 0001:0001d240       ??$_Emplace_back@VRAMInfo@@@?$_Uninitialized_backout_al@V?$allocator@VRAMInfo@@@std@@@std@@QAEX$$QAVRAMInfo@@@Z 0041e240 f i systeminfo.obj
 0001:0001d2f0       ??$_Emplace_back_with_unused_capacity@AAV?$vector@V?$basic_string@DU?$char_traits@D@std@@V?$allocator@D@2@@std@@V?$allocator@V?$basic_string@DU?$char_traits@D@std@@V?$allocator@D@2@@std@@@2@@std@@AAH@?$vector@VCPUInfo@@V?$allocator@VCPUInfo@@@std@@@std@@AAE@AAV?$vector@V?$basic_string@DU?$char_traits@D@std@@V?$allocator@D@2@@std@@V?$allocator@V?$basic_string@DU?$char_traits@D@std@@V?$allocator@D@2@@std@@@2@@1@AAH@Z 0041e2f0 f i systeminfo.obj
 0001:0001d3e0       ??$_Emplace_back_with_unused_capacity@AAV?$vector@V?$basic_string@DU?$char_traits@D@std@@V?$allocator@D@2@@std@@V?$allocator@V?$basic_string@DU?$char_traits@D@std@@V?$allocator@D@2@@std@@@2@@std@@AAH@?$vector@VGPUInfo@@V?$allocator@VGPUInfo@@@std@@@std@@AAE@AAV?$vector@V?$basic_string@DU?$char_traits@D@std@@V?$allocator@D@2@@std@@V?$allocator@V?$basic_string@DU?$char_traits@D@std@@V?$allocator@D@2@@std@@@2@@1@AAH@Z 0041e3e0 f i systeminfo.obj
 0001:0001d4d0       ??$_Emplace_back_with_unused_capacity@AAV?$vector@V?$basic_string@DU?$char_traits@D@std@@V?$allocator@D@2@@std@@V?$allocator@V?$basic_string@DU?$char_traits@D@std@@V?$allocator@D@2@@std@@@2@@std@@AAH@?$vector@VMotherboardInfo@@V?$allocator@VMotherboardInfo@@@std@@@std@@AAE@AAV?$vector@V?$basic_string@DU?$char_traits@D@std@@V?$allocator@D@2@@std@@V?$allocator@V?$basic_string@DU?$char_traits@D@std@@V?$allocator@D@2@@std@@@2@@1@AAH@Z 0041e4d0 f i systeminfo.obj
 0001:0001d5c0       ??$_Emplace_back_with_unused_capacity@AAV?$vector@V?$basic_string@DU?$char_traits@D@std@@V?$allocator@D@2@@std@@V?$allocator@V?$basic_string@DU?$char_traits@D@std@@V?$allocator@D@2@@std@@@2@@std@@AAH@?$vector@VOSInfo@@V?$allocator@VOSInfo@@@std@@@std@@AAE@AAV?$vector@V?$basic_string@DU?$char_traits@D@std@@V?$allocator@D@2@@std@@V?$allocator@V?$basic_string@DU?$char_traits@D@std@@V?$allocator@D@2@@std@@@2@@1@AAH@Z 0041e5c0 f i systeminfo.obj
 0001:0001d6b0       ??$_Emplace_back_with_unused_capacity@AAV?$vector@V?$basic_string@DU?$char_traits@D@std@@V?$allocator@D@2@@std@@V?$allocator@V?$basic_string@DU?$char_traits@D@std@@V?$allocator@D@2@@std@@@2@@std@@AAH@?$vector@VRAMInfo@@V?$allocator@VRAMInfo@@@std@@@std@@AAE@AAV?$vector@V?$basic_string@DU?$char_traits@D@std@@V?$allocator@D@2@@std@@V?$allocator@V?$basic_string@DU?$char_traits@D@std@@V?$allocator@D@2@@std@@@2@@1@AAH@Z 0041e6b0 f i systeminfo.obj
 0001:0001d7a0       ??$_Emplace_back_with_unused_capacity@ABV?$basic_string@DU?$char_traits@D@std@@V?$allocator@D@2@@std@@@?$vector@V?$basic_string@DU?$char_traits@D@std@@V?$allocator@D@2@@std@@V?$allocator@V?$basic_string@DU?$char_traits@D@std@@V?$allocator@D@2@@std@@@2@@std@@AAE@ABV?$basic_string@DU?$char_traits@D@std@@V?$allocator@D@2@@1@@Z 0041e7a0 f i systeminfo.obj
 0001:0001d880       ??$_Emplace_back_with_unused_capacity@V?$basic_string@DU?$char_traits@D@std@@V?$allocator@D@2@@std@@@?$vector@V?$basic_string@DU?$char_traits@D@std@@V?$allocator@D@2@@std@@V?$allocator@V?$basic_string@DU?$char_traits@D@std@@V?$allocator@D@2@@std@@@2@@std@@AAE@$$QAV?$basic_string@DU?$char_traits@D@std@@V?$allocator@D@2@@1@@Z 0041e880 f i systeminfo.obj
 0001:0001d960       ??$_Emplace_reallocate@AAV?$vector@V?$basic_string@DU?$char_traits@D@std@@V?$allocator@D@2@@std@@V?$allocator@V?$basic_string@DU?$char_traits@D@std@@V?$allocator@D@2@@std@@@2@@std@@AAH@?$vector@VCPUInfo@@V?$allocator@VCPUInfo@@@std@@@std@@QAEPAVCPUInfo@@QAV2@AAV?$vector@V?$basic_string@DU?$char_traits@D@std@@V?$allocator@D@2@@std@@V?$allocator@V?$basic_string@DU?$char_traits@D@std@@V?$allocator@D@2@@std@@@2@@1@AAH@Z 0041e960 f i systeminfo.obj
 0001:0001dc60       ??$_Emplace_reallocate@AAV?$vector@V?$basic_string@DU?$char_traits@D@std@@V?$allocator@D@2@@std@@V?$allocator@V?$basic_string@DU?$char_traits@D@std@@V?$allocator@D@2@@std@@@2@@std@@AAH@?$vector@VGPUInfo@@V?$allocator@VGPUInfo@@@std@@@std@@QAEPAVGPUInfo@@QAV2@AAV?$vector@V?$basic_string@DU?$char_traits@D@std@@V?$allocator@D@2@@std@@V?$allocator@V?$basic_string@DU?$char_traits@D@std@@V?$allocator@D@2@@std@@@2@@1@AAH@Z 0041ec60 f i systeminfo.obj
 0001:0001df60       ??$_Emplace_reallocate@AAV?$vector@V?$basic_string@DU?$char_traits@D@std@@V?$allocator@D@2@@std@@V?$allocator@V?$basic_string@DU?$char_traits@D@std@@V?$allocator@D@2@@std@@@2@@std@@AAH@?$vector@VMotherboardInfo@@V?$allocator@VMotherboardInfo@@@std@@@std@@QAEPAVMotherboardInfo@@QAV2@AAV?$vector@V?$basic_string@DU?$char_traits@D@std@@V?$allocator@D@2@@std@@V?$allocator@V?$basic_string@DU?$char_traits@D@std@@V?$allocator@D@2@@std@@@2@@1@AAH@Z 0041ef60 f i systeminfo.obj
 0001:0001e260       ??$_Emplace_reallocate@AAV?$vector@V?$basic_string@DU?$char_traits@D@std@@V?$allocator@D@2@@std@@V?$allocator@V?$basic_string@DU?$char_traits@D@std@@V?$allocator@D@2@@std@@@2@@std@@AAH@?$vector@VOSInfo@@V?$allocator@VOSInfo@@@std@@@std@@QAEPAVOSInfo@@QAV2@AAV?$vector@V?$basic_string@DU?$char_traits@D@std@@V?$allocator@D@2@@std@@V?$allocator@V?$basic_string@DU?$char_traits@D@std@@V?$allocator@D@2@@std@@@2@@1@AAH@Z 0041f260 f i systeminfo.obj
 0001:0001e560       ??$_Emplace_reallocate@AAV?$vector@V?$basic_string@DU?$char_traits@D@std@@V?$allocator@D@2@@std@@V?$allocator@V?$basic_string@DU?$char_traits@D@std@@V?$allocator@D@2@@std@@@2@@std@@AAH@?$vector@VRAMInfo@@V?$allocator@VRAMInfo@@@std@@@std@@QAEPAVRAMInfo@@QAV2@AAV?$vector@V?$basic_string@DU?$char_traits@D@std@@V?$allocator@D@2@@std@@V?$allocator@V?$basic_string@DU?$char_traits@D@std@@V?$allocator@D@2@@std@@@2@@1@AAH@Z 0041f560 f i systeminfo.obj
 0001:0001e860       ??$_Emplace_reallocate@ABV?$basic_string@DU?$char_traits@D@std@@V?$allocator@D@2@@std@@@?$vector@V?$basic_string@DU?$char_traits@D@std@@V?$allocator@D@2@@std@@V?$allocator@V?$basic_string@DU?$char_traits@D@std@@V?$allocator@D@2@@std@@@2@@std@@QAEPAV?$basic_string@DU?$char_traits@D@std@@V?$allocator@D@2@@1@QAV21@ABV21@@Z 0041f860 f i systeminfo.obj
 0001:0001eb30       ??$_Emplace_reallocate@V?$basic_string@DU?$char_traits@D@std@@V?$allocator@D@2@@std@@@?$vector@V?$basic_string@DU?$char_traits@D@std@@V?$allocator@D@2@@std@@V?$allocator@V?$basic_string@DU?$char_traits@D@std@@V?$allocator@D@2@@std@@@2@@std@@QAEPAV?$basic_string@DU?$char_traits@D@std@@V?$allocator@D@2@@1@QAV21@$$QAV21@@Z 0041fb30 f i systeminfo.obj
 0001:0001ee00       ??$_Fgetc@D@std@@YA_NAADPAU_iobuf@@@Z 0041fe00 f i systeminfo.obj
 0001:0001ee90       ??$_Fputc@D@std@@YA_NDPAU_iobuf@@@Z 0041fe90 f i systeminfo.obj
 0001:0001ef30       ??$_Get_size_of_n@$0BBM@@std@@YAII@Z 0041ff30 f i systeminfo.obj
 0001:0001efb0       ??$_Get_size_of_n@$0BIM@@std@@YAII@Z 0041ffb0 f i systeminfo.obj
 0001:0001f030       ??$_Get_size_of_n@$0BM@@std@@YAII@Z 00420030 f i systeminfo.obj
 0001:0001f0a0       ??$_Get_size_of_n@$0JA@@std@@YAII@Z 004200a0 f i systeminfo.obj
 0001:0001f120       ??$_Get_size_of_n@$0KM@@std@@YAII@Z 00420120 f i systeminfo.obj
 0001:0001f1a0       ??$_Get_size_of_n@$0OE@@std@@YAII@Z 004201a0 f i systeminfo.obj
 0001:0001f220       ??$_Get_unwrapped@ABQAV?$basic_string@DU?$char_traits@D@std@@V?$allocator@D@2@@std@@@std@@YA@ABQAV?$basic_string@DU?$char_traits@D@std@@V?$allocator@D@2@@0@@Z 00420220 f i systeminfo.obj
 0001:0001f280       ??$_Get_unwrapped@ABQAVCPUInfo@@@std@@YA@ABQAVCPUInfo@@@Z 00420280 f i systeminfo.obj
 0001:0001f2e0       ??$_Get_unwrapped@ABQAVGPUInfo@@@std@@YA@ABQAVGPUInfo@@@Z 004202e0 f i systeminfo.obj
 0001:0001f340       ??$_Get_unwrapped@ABQAVMotherboardInfo@@@std@@YA@ABQAVMotherboardInfo@@@Z 00420340 f i systeminfo.obj
 0001:0001f3a0       ??$_Get_unwrapped@ABQAVOSInfo@@@std@@YA@ABQAVOSInfo@@@Z 004203a0 f i systeminfo.obj
 0001:0001f400       ??$_Get_unwrapped@ABQAVRAMInfo@@@std@@YA@ABQAVRAMInfo@@@Z 00420400 f i systeminfo.obj
 0001:0001f460       ??$_Get_unwrapped@ABQBV?$basic_string@DU?$char_traits@D@std@@V?$allocator@D@2@@std@@@std@@YA@ABQBV?$basic_string@DU?$char_traits@D@std@@V?$allocator@D@2@@0@@Z 00420460 f i systeminfo.obj
 0001:0001f4c0       ??$_Insert_string@DU?$char_traits@D@std@@I@std@@YAAAV?$basic_ostream@DU?$char_traits@D@std@@@0@AAV10@QBDI@Z 004204c0 f i systeminfo.obj
 0001:0001fa20       ??$_Pocca@V?$allocator@D@std@@@std@@YAXAAV?$allocator@D@0@ABV10@@Z 00420a20 f i systeminfo.obj
 0001:0001fa70       ??$_Pocma@V?$allocator@D@std@@@std@@YAXAAV?$allocator@D@0@0@Z 00420a70 f i systeminfo.obj
 0001:0001fad0       ??$_Range_construct_or_tidy@PBV?$basic_string@DU?$char_traits@D@std@@V?$allocator@D@2@@std@@@?$vector@V?$basic_string@DU?$char_traits@D@std@@V?$allocator@D@2@@std@@V?$allocator@V?$basic_string@DU?$char_traits@D@std@@V?$allocator@D@2@@std@@@2@@std@@AAEXPBV?$basic_string@DU?$char_traits@D@std@@V?$allocator@D@2@@1@0Uforward_iterator_tag@1@@Z 00420ad0 f i systeminfo.obj
 0001:0001fc40       ??$_Reallocate_grow_by@V<lambda_15711c68e099a15a58f4d77303cb286d>@@D@?$basic_string@DU?$char_traits@D@std@@V?$allocator@D@2@@std@@AAEAAV01@IV<lambda_15711c68e099a15a58f4d77303cb286d>@@D@Z 00420c40 f i systeminfo.obj
 0001:0001fe50       ??$_Reallocate_grow_by@V<lambda_4d79bb85f269e6e8002a4599002d832c>@@IPBDI@?$basic_string@DU?$char_traits@D@std@@V?$allocator@D@2@@std@@AAEAAV01@IV<lambda_4d79bb85f269e6e8002a4599002d832c>@@IPBDI@Z 00420e50 f i systeminfo.obj
 0001:00020170       ??$_Traits_equal@U?$char_traits@D@std@@@std@@YA_NQBDI0I@Z 00421170 f i systeminfo.obj
 0001:00020210       ??$_Traits_find@U?$char_traits@D@std@@@std@@YAIQBDII0I@Z 00421210 f i systeminfo.obj
 0001:00020310       ??$_Ucopy@PAV?$basic_string@DU?$char_traits@D@std@@V?$allocator@D@2@@std@@@?$vector@V?$basic_string@DU?$char_traits@D@std@@V?$allocator@D@2@@std@@V?$allocator@V?$basic_string@DU?$char_traits@D@std@@V?$allocator@D@2@@std@@@2@@std@@AAEPAV?$basic_string@DU?$char_traits@D@std@@V?$allocator@D@2@@1@PAV21@00@Z 00421310 f i systeminfo.obj
 0001:00020390       ??$_Ucopy@PAVCPUInfo@@@?$vector@VCPUInfo@@V?$allocator@VCPUInfo@@@std@@@std@@AAEPAVCPUInfo@@PAV2@00@Z 00421390 f i systeminfo.obj
 0001:00020410       ??$_Ucopy@PAVGPUInfo@@@?$vector@VGPUInfo@@V?$allocator@VGPUInfo@@@std@@@std@@AAEPAVGPUInfo@@PAV2@00@Z 00421410 f i systeminfo.obj
 0001:00020490       ??$_Ucopy@PAVMotherboardInfo@@@?$vector@VMotherboardInfo@@V?$allocator@VMotherboardInfo@@@std@@@std@@AAEPAVMotherboardInfo@@PAV2@00@Z 00421490 f i systeminfo.obj
 0001:00020510       ??$_Ucopy@PAVOSInfo@@@?$vector@VOSInfo@@V?$allocator@VOSInfo@@@std@@@std@@AAEPAVOSInfo@@PAV2@00@Z 00421510 f i systeminfo.obj
 0001:00020590       ??$_Ucopy@PAVRAMInfo@@@?$vector@VRAMInfo@@V?$allocator@VRAMInfo@@@std@@@std@@AAEPAVRAMInfo@@PAV2@00@Z 00421590 f i systeminfo.obj
 0001:00020610       ??$_Ucopy@PBV?$basic_string@DU?$char_traits@D@std@@V?$allocator@D@2@@std@@@?$vector@V?$basic_string@DU?$char_traits@D@std@@V?$allocator@D@2@@std@@V?$allocator@V?$basic_string@DU?$char_traits@D@std@@V?$allocator@D@2@@std@@@2@@std@@AAEPAV?$basic_string@DU?$char_traits@D@std@@V?$allocator@D@2@@1@PBV21@0PAV21@@Z 00421610 f i systeminfo.obj
 0001:00020690       ??$_Unfancy@V?$basic_string@DU?$char_traits@D@std@@V?$allocator@D@2@@std@@@std@@YAPAV?$basic_string@DU?$char_traits@D@std@@V?$allocator@D@2@@0@PAV10@@Z 00421690 f i systeminfo.obj
 0001:000206e0       ??$_Ungetc@D@std@@YA_NABDPAU_iobuf@@@Z 004216e0 f i systeminfo.obj
 0001:00020780       ??$_Uninitialized_copy@PAV?$basic_string@DU?$char_traits@D@std@@V?$allocator@D@2@@std@@V?$allocator@V?$basic_string@DU?$char_traits@D@std@@V?$allocator@D@2@@std@@@2@@std@@YAPAV?$basic_string@DU?$char_traits@D@std@@V?$allocator@D@2@@0@QAV10@0PAV10@AAV?$allocator@V?$basic_string@DU?$char_traits@D@std@@V?$allocator@D@2@@std@@@0@@Z 00421780 f i systeminfo.obj
 0001:000208f0       ??$_Uninitialized_copy@PAVCPUInfo@@V?$allocator@VCPUInfo@@@std@@@std@@YAPAVCPUInfo@@QAV1@0PAV1@AAV?$allocator@VCPUInfo@@@0@@Z 004218f0 f i systeminfo.obj
 0001:00020a60       ??$_Uninitialized_copy@PAVGPUInfo@@V?$allocator@VGPUInfo@@@std@@@std@@YAPAVGPUInfo@@QAV1@0PAV1@AAV?$allocator@VGPUInfo@@@0@@Z 00421a60 f i systeminfo.obj
 0001:00020bd0       ??$_Uninitialized_copy@PAVMotherboardInfo@@V?$allocator@VMotherboardInfo@@@std@@@std@@YAPAVMotherboardInfo@@QAV1@0PAV1@AAV?$allocator@VMotherboardInfo@@@0@@Z 00421bd0 f i systeminfo.obj
 0001:00020d40       ??$_Uninitialized_copy@PAVOSInfo@@V?$allocator@VOSInfo@@@std@@@std@@YAPAVOSInfo@@QAV1@0PAV1@AAV?$allocator@VOSInfo@@@0@@Z 00421d40 f i systeminfo.obj
 0001:00020eb0       ??$_Uninitialized_copy@PAVRAMInfo@@V?$allocator@VRAMInfo@@@std@@@std@@YAPAVRAMInfo@@QAV1@0PAV1@AAV?$allocator@VRAMInfo@@@0@@Z 00421eb0 f i systeminfo.obj
 0001:00021020       ??$_Uninitialized_copy@PBV?$basic_string@DU?$char_traits@D@std@@V?$allocator@D@2@@std@@V?$allocator@V?$basic_string@DU?$char_traits@D@std@@V?$allocator@D@2@@std@@@2@@std@@YAPAV?$basic_string@DU?$char_traits@D@std@@V?$allocator@D@2@@0@QBV10@0PAV10@AAV?$allocator@V?$basic_string@DU?$char_traits@D@std@@V?$allocator@D@2@@std@@@0@@Z 00422020 f i systeminfo.obj
 0001:00021190       ??$_Uninitialized_move@PAV?$basic_string@DU?$char_traits@D@std@@V?$allocator@D@2@@std@@V?$allocator@V?$basic_string@DU?$char_traits@D@std@@V?$allocator@D@2@@std@@@2@@std@@YAPAV?$basic_string@DU?$char_traits@D@std@@V?$allocator@D@2@@0@QAV10@0PAV10@AAV?$allocator@V?$basic_string@DU?$char_traits@D@std@@V?$allocator@D@2@@std@@@0@@Z 00422190 f i systeminfo.obj
 0001:00021310       ??$_Uninitialized_move@PAVCPUInfo@@V?$allocator@VCPUInfo@@@std@@@std@@YAPAVCPUInfo@@QAV1@0PAV1@AAV?$allocator@VCPUInfo@@@0@@Z 00422310 f i systeminfo.obj
 0001:00021490       ??$_Uninitialized_move@PAVGPUInfo@@V?$allocator@VGPUInfo@@@std@@@std@@YAPAVGPUInfo@@QAV1@0PAV1@AAV?$allocator@VGPUInfo@@@0@@Z 00422490 f i systeminfo.obj
 0001:00021610       ??$_Uninitialized_move@PAVMotherboardInfo@@V?$allocator@VMotherboardInfo@@@std@@@std@@YAPAVMotherboardInfo@@QAV1@0PAV1@AAV?$allocator@VMotherboardInfo@@@0@@Z 00422610 f i systeminfo.obj
 0001:00021790       ??$_Uninitialized_move@PAVOSInfo@@V?$allocator@VOSInfo@@@std@@@std@@YAPAVOSInfo@@QAV1@0PAV1@AAV?$allocator@VOSInfo@@@0@@Z 00422790 f i systeminfo.obj
 0001:00021910       ??$_Uninitialized_move@PAVRAMInfo@@V?$allocator@VRAMInfo@@@std@@@std@@YAPAVRAMInfo@@QAV1@0PAV1@AAV?$allocator@VRAMInfo@@@0@@Z 00422910 f i systeminfo.obj
 0001:00021ae0       ??$addressof@$$CBV?$_Vector_val@U?$_Simple_types@V?$basic_string@DU?$char_traits@D@std@@V?$allocator@D@2@@std@@@std@@@std@@@std@@YAPBV?$_Vector_val@U?$_Simple_types@V?$basic_string@DU?$char_traits@D@std@@V?$allocator@D@2@@std@@@std@@@0@ABV10@@Z 00422ae0 f i systeminfo.obj
 0001:00021b30       ??$addressof@$$CBV?$basic_string@DU?$char_traits@D@std@@V?$allocator@D@2@@std@@@std@@YAPBV?$basic_string@DU?$char_traits@D@std@@V?$allocator@D@2@@0@ABV10@@Z 00422b30 f i systeminfo.obj
 0001:00021b80       ??$addressof@$$CBV?$codecvt@DDU_Mbstatet@@@std@@@std@@YAPBV?$codecvt@DDU_Mbstatet@@@0@ABV10@@Z 00422b80 f i systeminfo.obj
 0001:00021bd0       ??$addressof@D@std@@YAPADAAD@Z 00422bd0 f i systeminfo.obj
 0001:00021c20       ??$addressof@V?$_Vector_val@U?$_Simple_types@V?$basic_string@DU?$char_traits@D@std@@V?$allocator@D@2@@std@@@std@@@std@@@std@@YAPAV?$_Vector_val@U?$_Simple_types@V?$basic_string@DU?$char_traits@D@std@@V?$allocator@D@2@@std@@@std@@@0@AAV10@@Z 00422c20 f i systeminfo.obj
 0001:00021c70       ??$addressof@V?$basic_filebuf@DU?$char_traits@D@std@@@std@@@std@@YAPAV?$basic_filebuf@DU?$char_traits@D@std@@@0@AAV10@@Z 00422c70 f i systeminfo.obj
 0001:00021cc0       ??$addressof@V?$basic_string@DU?$char_traits@D@std@@V?$allocator@D@2@@std@@@std@@YAPAV?$basic_string@DU?$char_traits@D@std@@V?$allocator@D@2@@0@AAV10@@Z 00422cc0 f i systeminfo.obj
 0001:00021d10       ??$addressof@V?$basic_stringbuf@DU?$char_traits@D@std@@V?$allocator@D@2@@std@@@std@@YAPAV?$basic_stringbuf@DU?$char_traits@D@std@@V?$allocator@D@2@@0@AAV10@@Z 00422d10 f i systeminfo.obj
 0001:00021d60       ??$begin@V?$basic_string@DU?$char_traits@D@std@@V?$allocator@D@2@@std@@@std@@YAPBV?$basic_string@DU?$char_traits@D@std@@V?$allocator@D@2@@0@V?$initializer_list@V?$basic_string@DU?$char_traits@D@std@@V?$allocator@D@2@@std@@@0@@Z 00422d60 f i systeminfo.obj
 0001:00021dc0       ??$construct@V?$basic_string@DU?$char_traits@D@std@@V?$allocator@D@2@@std@@AAV12@@?$_Default_allocator_traits@V?$allocator@V?$basic_string@DU?$char_traits@D@std@@V?$allocator@D@2@@std@@@std@@@std@@SAXAAV?$allocator@V?$basic_string@DU?$char_traits@D@std@@V?$allocator@D@2@@std@@@1@QAV?$basic_string@DU?$char_traits@D@std@@V?$allocator@D@2@@1@AAV31@@Z 00422dc0 f i systeminfo.obj
 0001:00021e50       ??$construct@V?$basic_string@DU?$char_traits@D@std@@V?$allocator@D@2@@std@@ABV12@@?$_Default_allocator_traits@V?$allocator@V?$basic_string@DU?$char_traits@D@std@@V?$allocator@D@2@@std@@@std@@@std@@SAXAAV?$allocator@V?$basic_string@DU?$char_traits@D@std@@V?$allocator@D@2@@std@@@1@QAV?$basic_string@DU?$char_traits@D@std@@V?$allocator@D@2@@1@ABV31@@Z 00422e50 f i systeminfo.obj
 0001:00021ee0       ??$construct@V?$basic_string@DU?$char_traits@D@std@@V?$allocator@D@2@@std@@V12@@?$_Default_allocator_traits@V?$allocator@V?$basic_string@DU?$char_traits@D@std@@V?$allocator@D@2@@std@@@std@@@std@@SAXAAV?$allocator@V?$basic_string@DU?$char_traits@D@std@@V?$allocator@D@2@@std@@@1@QAV?$basic_string@DU?$char_traits@D@std@@V?$allocator@D@2@@1@$$QAV31@@Z 00422ee0 f i systeminfo.obj
 0001:00021f70       ??$construct@VCPUInfo@@AAV1@@?$_Default_allocator_traits@V?$allocator@VCPUInfo@@@std@@@std@@SAXAAV?$allocator@VCPUInfo@@@1@QAVCPUInfo@@AAV3@@Z 00422f70 f i systeminfo.obj
 0001:00022000       ??$construct@VCPUInfo@@AAV?$vector@V?$basic_string@DU?$char_traits@D@std@@V?$allocator@D@2@@std@@V?$allocator@V?$basic_string@DU?$char_traits@D@std@@V?$allocator@D@2@@std@@@2@@std@@AAH@?$_Default_allocator_traits@V?$allocator@VCPUInfo@@@std@@@std@@SAXAAV?$allocator@VCPUInfo@@@1@QAVCPUInfo@@AAV?$vector@V?$basic_string@DU?$char_traits@D@std@@V?$allocator@D@2@@std@@V?$allocator@V?$basic_string@DU?$char_traits@D@std@@V?$allocator@D@2@@std@@@2@@1@AAH@Z 00423000 f i systeminfo.obj
 0001:000220a0       ??$construct@VCPUInfo@@V1@@?$_Default_allocator_traits@V?$allocator@VCPUInfo@@@std@@@std@@SAXAAV?$allocator@VCPUInfo@@@1@QAVCPUInfo@@$$QAV3@@Z 004230a0 f i systeminfo.obj
 0001:00022130       ??$construct@VGPUInfo@@AAV1@@?$_Default_allocator_traits@V?$allocator@VGPUInfo@@@std@@@std@@SAXAAV?$allocator@VGPUInfo@@@1@QAVGPUInfo@@AAV3@@Z 00423130 f i systeminfo.obj
 0001:000221c0       ??$construct@VGPUInfo@@AAV?$vector@V?$basic_string@DU?$char_traits@D@std@@V?$allocator@D@2@@std@@V?$allocator@V?$basic_string@DU?$char_traits@D@std@@V?$allocator@D@2@@std@@@2@@std@@AAH@?$_Default_allocator_traits@V?$allocator@VGPUInfo@@@std@@@std@@SAXAAV?$allocator@VGPUInfo@@@1@QAVGPUInfo@@AAV?$vector@V?$basic_string@DU?$char_traits@D@std@@V?$allocator@D@2@@std@@V?$allocator@V?$basic_string@DU?$char_traits@D@std@@V?$allocator@D@2@@std@@@2@@1@AAH@Z 004231c0 f i systeminfo.obj
 0001:00022260       ??$construct@VGPUInfo@@V1@@?$_Default_allocator_traits@V?$allocator@VGPUInfo@@@std@@@std@@SAXAAV?$allocator@VGPUInfo@@@1@QAVGPUInfo@@$$QAV3@@Z 00423260 f i systeminfo.obj
 0001:000222f0       ??$construct@VMotherboardInfo@@AAV1@@?$_Default_allocator_traits@V?$allocator@VMotherboardInfo@@@std@@@std@@SAXAAV?$allocator@VMotherboardInfo@@@1@QAVMotherboardInfo@@AAV3@@Z 004232f0 f i systeminfo.obj
 0001:00022380       ??$construct@VMotherboardInfo@@AAV?$vector@V?$basic_string@DU?$char_traits@D@std@@V?$allocator@D@2@@std@@V?$allocator@V?$basic_string@DU?$char_traits@D@std@@V?$allocator@D@2@@std@@@2@@std@@AAH@?$_Default_allocator_traits@V?$allocator@VMotherboardInfo@@@std@@@std@@SAXAAV?$allocator@VMotherboardInfo@@@1@QAVMotherboardInfo@@AAV?$vector@V?$basic_string@DU?$char_traits@D@std@@V?$allocator@D@2@@std@@V?$allocator@V?$basic_string@DU?$char_traits@D@std@@V?$allocator@D@2@@std@@@2@@1@AAH@Z 00423380 f i systeminfo.obj
 0001:00022420       ??$construct@VMotherboardInfo@@V1@@?$_Default_allocator_traits@V?$allocator@VMotherboardInfo@@@std@@@std@@SAXAAV?$allocator@VMotherboardInfo@@@1@QAVMotherboardInfo@@$$QAV3@@Z 00423420 f i systeminfo.obj
 0001:000224b0       ??$construct@VOSInfo@@AAV1@@?$_Default_allocator_traits@V?$allocator@VOSInfo@@@std@@@std@@SAXAAV?$allocator@VOSInfo@@@1@QAVOSInfo@@AAV3@@Z 004234b0 f i systeminfo.obj
 0001:00022540       ??$construct@VOSInfo@@AAV?$vector@V?$basic_string@DU?$char_traits@D@std@@V?$allocator@D@2@@std@@V?$allocator@V?$basic_string@DU?$char_traits@D@std@@V?$allocator@D@2@@std@@@2@@std@@AAH@?$_Default_allocator_traits@V?$allocator@VOSInfo@@@std@@@std@@SAXAAV?$allocator@VOSInfo@@@1@QAVOSInfo@@AAV?$vector@V?$basic_string@DU?$char_traits@D@std@@V?$allocator@D@2@@std@@V?$allocator@V?$basic_string@DU?$char_traits@D@std@@V?$allocator@D@2@@std@@@2@@1@AAH@Z 00423540 f i systeminfo.obj
 0001:000225e0       ??$construct@VOSInfo@@V1@@?$_Default_allocator_traits@V?$allocator@VOSInfo@@@std@@@std@@SAXAAV?$allocator@VOSInfo@@@1@QAVOSInfo@@$$QAV3@@Z 004235e0 f i systeminfo.obj
 0001:00022670       ??$construct@VRAMInfo@@AAV1@@?$_Default_allocator_traits@V?$allocator@VRAMInfo@@@std@@@std@@SAXAAV?$allocator@VRAMInfo@@@1@QAVRAMInfo@@AAV3@@Z 00423670 f i systeminfo.obj
 0001:00022700       ??$construct@VRAMInfo@@AAV?$vector@V?$basic_string@DU?$char_traits@D@std@@V?$allocator@D@2@@std@@V?$allocator@V?$basic_string@DU?$char_traits@D@std@@V?$allocator@D@2@@std@@@2@@std@@AAH@?$_Default_allocator_traits@V?$allocator@VRAMInfo@@@std@@@std@@SAXAAV?$allocator@VRAMInfo@@@1@QAVRAMInfo@@AAV?$vector@V?$basic_string@DU?$char_traits@D@std@@V?$allocator@D@2@@std@@V?$allocator@V?$basic_string@DU?$char_traits@D@std@@V?$allocator@D@2@@std@@@2@@1@AAH@Z 00423700 f i systeminfo.obj
 0001:000227a0       ??$construct@VRAMInfo@@V1@@?$_Default_allocator_traits@V?$allocator@VRAMInfo@@@std@@@std@@SAXAAV?$allocator@VRAMInfo@@@1@QAVRAMInfo@@$$QAV3@@Z 004237a0 f i systeminfo.obj
 0001:00022830       ??$destroy@V?$basic_string@DU?$char_traits@D@std@@V?$allocator@D@2@@std@@@?$_Default_allocator_traits@V?$allocator@V?$basic_string@DU?$char_traits@D@std@@V?$allocator@D@2@@std@@@std@@@std@@SAXAAV?$allocator@V?$basic_string@DU?$char_traits@D@std@@V?$allocator@D@2@@std@@@1@QAV?$basic_string@DU?$char_traits@D@std@@V?$allocator@D@2@@1@@Z 00423830 f i systeminfo.obj
 0001:00022890       ??$distance@PBV?$basic_string@DU?$char_traits@D@std@@V?$allocator@D@2@@std@@@std@@YAHPBV?$basic_string@DU?$char_traits@D@std@@V?$allocator@D@2@@0@0@Z 00423890 f i systeminfo.obj
 0001:000228f0       ??$emplace_back@AAV?$vector@V?$basic_string@DU?$char_traits@D@std@@V?$allocator@D@2@@std@@V?$allocator@V?$basic_string@DU?$char_traits@D@std@@V?$allocator@D@2@@std@@@2@@std@@AAH@?$vector@VCPUInfo@@V?$allocator@VCPUInfo@@@std@@@std@@QAE@AAV?$vector@V?$basic_string@DU?$char_traits@D@std@@V?$allocator@D@2@@std@@V?$allocator@V?$basic_string@DU?$char_traits@D@std@@V?$allocator@D@2@@std@@@2@@1@AAH@Z 004238f0 f i systeminfo.obj
 0001:000229d0       ??$emplace_back@AAV?$vector@V?$basic_string@DU?$char_traits@D@std@@V?$allocator@D@2@@std@@V?$allocator@V?$basic_string@DU?$char_traits@D@std@@V?$allocator@D@2@@std@@@2@@std@@AAH@?$vector@VGPUInfo@@V?$allocator@VGPUInfo@@@std@@@std@@QAE@AAV?$vector@V?$basic_string@DU?$char_traits@D@std@@V?$allocator@D@2@@std@@V?$allocator@V?$basic_string@DU?$char_traits@D@std@@V?$allocator@D@2@@std@@@2@@1@AAH@Z 004239d0 f i systeminfo.obj
 0001:00022ab0       ??$emplace_back@AAV?$vector@V?$basic_string@DU?$char_traits@D@std@@V?$allocator@D@2@@std@@V?$allocator@V?$basic_string@DU?$char_traits@D@std@@V?$allocator@D@2@@std@@@2@@std@@AAH@?$vector@VMotherboardInfo@@V?$allocator@VMotherboardInfo@@@std@@@std@@QAE@AAV?$vector@V?$basic_string@DU?$char_traits@D@std@@V?$allocator@D@2@@std@@V?$allocator@V?$basic_string@DU?$char_traits@D@std@@V?$allocator@D@2@@std@@@2@@1@AAH@Z 00423ab0 f i systeminfo.obj
 0001:00022b90       ??$emplace_back@AAV?$vector@V?$basic_string@DU?$char_traits@D@std@@V?$allocator@D@2@@std@@V?$allocator@V?$basic_string@DU?$char_traits@D@std@@V?$allocator@D@2@@std@@@2@@std@@AAH@?$vector@VOSInfo@@V?$allocator@VOSInfo@@@std@@@std@@QAE@AAV?$vector@V?$basic_string@DU?$char_traits@D@std@@V?$allocator@D@2@@std@@V?$allocator@V?$basic_string@DU?$char_traits@D@std@@V?$allocator@D@2@@std@@@2@@1@AAH@Z 00423b90 f i systeminfo.obj
 0001:00022c70       ??$emplace_back@AAV?$vector@V?$basic_string@DU?$char_traits@D@std@@V?$allocator@D@2@@std@@V?$allocator@V?$basic_string@DU?$char_traits@D@std@@V?$allocator@D@2@@std@@@2@@std@@AAH@?$vector@VRAMInfo@@V?$allocator@VRAMInfo@@@std@@@std@@QAE@AAV?$vector@V?$basic_string@DU?$char_traits@D@std@@V?$allocator@D@2@@std@@V?$allocator@V?$basic_string@DU?$char_traits@D@std@@V?$allocator@D@2@@std@@@2@@1@AAH@Z 00423c70 f i systeminfo.obj
 0001:00022d50       ??$emplace_back@ABV?$basic_string@DU?$char_traits@D@std@@V?$allocator@D@2@@std@@@?$vector@V?$basic_string@DU?$char_traits@D@std@@V?$allocator@D@2@@std@@V?$allocator@V?$basic_string@DU?$char_traits@D@std@@V?$allocator@D@2@@std@@@2@@std@@QAE@ABV?$basic_string@DU?$char_traits@D@std@@V?$allocator@D@2@@1@@Z 00423d50 f i systeminfo.obj
 0001:00022e10       ??$emplace_back@V?$basic_string@DU?$char_traits@D@std@@V?$allocator@D@2@@std@@@?$vector@V?$basic_string@DU?$char_traits@D@std@@V?$allocator@D@2@@std@@V?$allocator@V?$basic_string@DU?$char_traits@D@std@@V?$allocator@D@2@@std@@@2@@std@@QAE@$$QAV?$basic_string@DU?$char_traits@D@std@@V?$allocator@D@2@@1@@Z 00423e10 f i systeminfo.obj
 0001:00022ed0       ??$exchange@PAV_Facet_base@std@@$$T@std@@YAPAV_Facet_base@0@AAPAV10@$$QA$$T@Z 00423ed0 f i systeminfo.obj
 0001:00022f40       ??$forward@AAH@std@@YAAAHAAH@Z 00423f40 f i systeminfo.obj
 0001:00022f90       ??$forward@AAPAV_Facet_base@std@@@std@@YAAAPAV_Facet_base@0@AAPAV10@@Z 00423f90 f i systeminfo.obj
 0001:00022fe0       ??$forward@AAV?$allocator@D@std@@@std@@YAAAV?$allocator@D@0@AAV10@@Z 00423fe0 f i systeminfo.obj
 0001:00023030       ??$forward@AAV?$basic_string@DU?$char_traits@D@std@@V?$allocator@D@2@@std@@@std@@YAAAV?$basic_string@DU?$char_traits@D@std@@V?$allocator@D@2@@0@AAV10@@Z 00424030 f i systeminfo.obj
 0001:00023080       ??$forward@AAV?$vector@V?$basic_string@DU?$char_traits@D@std@@V?$allocator@D@2@@std@@V?$allocator@V?$basic_string@DU?$char_traits@D@std@@V?$allocator@D@2@@std@@@2@@std@@@std@@YAAAV?$vector@V?$basic_string@DU?$char_traits@D@std@@V?$allocator@D@2@@std@@V?$allocator@V?$basic_string@DU?$char_traits@D@std@@V?$allocator@D@2@@std@@@2@@0@AAV10@@Z 00424080 f i systeminfo.obj
 0001:000230d0       ??$forward@AAVCPUInfo@@@std@@YAAAVCPUInfo@@AAV1@@Z 004240d0 f i systeminfo.obj
 0001:00023120       ??$forward@AAVGPUInfo@@@std@@YAAAVGPUInfo@@AAV1@@Z 00424120 f i systeminfo.obj
 0001:00023170       ??$forward@AAVMotherboardInfo@@@std@@YAAAVMotherboardInfo@@AAV1@@Z 00424170 f i systeminfo.obj
 0001:000231c0       ??$forward@AAVOSInfo@@@std@@YAAAVOSInfo@@AAV1@@Z 004241c0 f i systeminfo.obj
 0001:00023210       ??$forward@AAVRAMInfo@@@std@@YAAAVRAMInfo@@AAV1@@Z 00424210 f i systeminfo.obj
 0001:000232b0       ??$forward@ABV?$allocator@V?$basic_string@DU?$char_traits@D@std@@V?$allocator@D@2@@std@@@std@@@std@@YAABV?$allocator@V?$basic_string@DU?$char_traits@D@std@@V?$allocator@D@2@@std@@@0@ABV10@@Z 004242b0 f i systeminfo.obj
 0001:00023300       ??$forward@ABV?$basic_string@DU?$char_traits@D@std@@V?$allocator@D@2@@std@@@std@@YAABV?$basic_string@DU?$char_traits@D@std@@V?$allocator@D@2@@0@ABV10@@Z 00424300 f i systeminfo.obj
 0001:000233a0       ??$forward@V?$allocator@V?$basic_string@DU?$char_traits@D@std@@V?$allocator@D@2@@std@@@std@@@std@@YA$$QAV?$allocator@V?$basic_string@DU?$char_traits@D@std@@V?$allocator@D@2@@std@@@0@AAV10@@Z 004243a0 f i systeminfo.obj
 0001:000233f0       ??$forward@V?$allocator@VCPUInfo@@@std@@@std@@YA$$QAV?$allocator@VCPUInfo@@@0@AAV10@@Z 004243f0 f i systeminfo.obj
 0001:00023440       ??$forward@V?$allocator@VGPUInfo@@@std@@@std@@YA$$QAV?$allocator@VGPUInfo@@@0@AAV10@@Z 00424440 f i systeminfo.obj
 0001:00023490       ??$forward@V?$allocator@VMotherboardInfo@@@std@@@std@@YA$$QAV?$allocator@VMotherboardInfo@@@0@AAV10@@Z 00424490 f i systeminfo.obj
 0001:000234e0       ??$forward@V?$allocator@VOSInfo@@@std@@@std@@YA$$QAV?$allocator@VOSInfo@@@0@AAV10@@Z 004244e0 f i systeminfo.obj
 0001:00023530       ??$forward@V?$allocator@VRAMInfo@@@std@@@std@@YA$$QAV?$allocator@VRAMInfo@@@0@AAV10@@Z 00424530 f i systeminfo.obj
 0001:00023580       ??$forward@V?$basic_string@DU?$char_traits@D@std@@V?$allocator@D@2@@std@@@std@@YA$$QAV?$basic_string@DU?$char_traits@D@std@@V?$allocator@D@2@@0@AAV10@@Z 00424580 f i systeminfo.obj
 0001:000235d0       ??$forward@VCPUInfo@@@std@@YA$$QAVCPUInfo@@AAV1@@Z 004245d0 f i systeminfo.obj
 0001:00023620       ??$forward@VGPUInfo@@@std@@YA$$QAVGPUInfo@@AAV1@@Z 00424620 f i systeminfo.obj
 0001:00023670       ??$forward@VMotherboardInfo@@@std@@YA$$QAVMotherboardInfo@@AAV1@@Z 00424670 f i systeminfo.obj
 0001:000236c0       ??$forward@VOSInfo@@@std@@YA$$QAVOSInfo@@AAV1@@Z 004246c0 f i systeminfo.obj
 0001:00023710       ??$forward@VRAMInfo@@@std@@YA$$QAVRAMInfo@@AAV1@@Z 00424710 f i systeminfo.obj
 0001:000237f0       ??$max@PAD@std@@YAABQADABQAD0@Z 004247f0 f i systeminfo.obj
 0001:000238d0       ??$move@AAV?$basic_istream@DU?$char_traits@D@std@@@std@@@std@@YA$$QAV?$basic_istream@DU?$char_traits@D@std@@@0@AAV10@@Z 004248d0 f i systeminfo.obj
 0001:00023920       ??$move@AAV?$basic_string@DU?$char_traits@D@std@@V?$allocator@D@2@@std@@@std@@YA$$QAV?$basic_string@DU?$char_traits@D@std@@V?$allocator@D@2@@0@AAV10@@Z 00424920 f i systeminfo.obj
 0001:00023970       ??$move@AAVCPUInfo@@@std@@YA$$QAVCPUInfo@@AAV1@@Z 00424970 f i systeminfo.obj
 0001:000239c0       ??$move@AAVGPUInfo@@@std@@YA$$QAVGPUInfo@@AAV1@@Z 004249c0 f i systeminfo.obj
 0001:00023a10       ??$move@AAVMotherboardInfo@@@std@@YA$$QAVMotherboardInfo@@AAV1@@Z 00424a10 f i systeminfo.obj
 0001:00023a60       ??$move@AAVOSInfo@@@std@@YA$$QAVOSInfo@@AAV1@@Z 00424a60 f i systeminfo.obj
 0001:00023ab0       ??$move@AAVRAMInfo@@@std@@YA$$QAVRAMInfo@@AAV1@@Z 00424ab0 f i systeminfo.obj
 0001:00023b00       ??$toString@H@CPUInfo@@ABE?AV?$basic_string@DU?$char_traits@D@std@@V?$allocator@D@2@@std@@ABH@Z 00424b00 f i systeminfo.obj
 0001:00023cd0       ??$toString@_J@GPUInfo@@ABE?AV?$basic_string@DU?$char_traits@D@std@@V?$allocator@D@2@@std@@AB_J@Z 00424cd0 f i systeminfo.obj
 0001:00023eb0       ??$toString@_J@OSInfo@@ABE?AV?$basic_string@DU?$char_traits@D@std@@V?$allocator@D@2@@std@@AB_J@Z 00424eb0 f i systeminfo.obj
 0001:00024090       ??$toString@_J@RAMInfo@@ABE?AV?$basic_string@DU?$char_traits@D@std@@V?$allocator@D@2@@std@@AB_J@Z 00425090 f i systeminfo.obj
 0001:00024270       ??$use_facet@V?$codecvt@DDU_Mbstatet@@@std@@@std@@YAABV?$codecvt@DDU_Mbstatet@@@0@ABVlocale@0@@Z 00425270 f i systeminfo.obj
 0001:000244d0       ??$use_facet@V?$ctype@D@std@@@std@@YAABV?$ctype@D@0@ABVlocale@0@@Z 004254d0 f i systeminfo.obj
 0001:00024730       ??0?$_Func_base@V?$basic_string@DU?$char_traits@D@std@@V?$allocator@D@2@@std@@ABV12@@std@@QAE@XZ 00425730 f i systeminfo.obj
 0001:00024790       ??0?$_Func_class@V?$basic_string@DU?$char_traits@D@std@@V?$allocator@D@2@@std@@ABV12@@std@@QAE@XZ 00425790 f i systeminfo.obj
 0001:00024800       ??0?$_Uninitialized_backout_al@V?$allocator@V?$basic_string@DU?$char_traits@D@std@@V?$allocator@D@2@@std@@@std@@@std@@QAE@PAV?$basic_string@DU?$char_traits@D@std@@V?$allocator@D@2@@1@AAV?$allocator@V?$basic_string@DU?$char_traits@D@std@@V?$allocator@D@2@@std@@@1@@Z 00425800 f i systeminfo.obj
 0001:00024880       ??0?$_Uninitialized_backout_al@V?$allocator@VCPUInfo@@@std@@@std@@QAE@PAVCPUInfo@@AAV?$allocator@VCPUInfo@@@1@@Z 00425880 f i systeminfo.obj
 0001:00024900       ??0?$_Uninitialized_backout_al@V?$allocator@VGPUInfo@@@std@@@std@@QAE@PAVGPUInfo@@AAV?$allocator@VGPUInfo@@@1@@Z 00425900 f i systeminfo.obj
 0001:00024980       ??0?$_Uninitialized_backout_al@V?$allocator@VMotherboardInfo@@@std@@@std@@QAE@PAVMotherboardInfo@@AAV?$allocator@VMotherboardInfo@@@1@@Z 00425980 f i systeminfo.obj
 0001:00024a00       ??0?$_Uninitialized_backout_al@V?$allocator@VOSInfo@@@std@@@std@@QAE@PAVOSInfo@@AAV?$allocator@VOSInfo@@@1@@Z 00425a00 f i systeminfo.obj
 0001:00024a80       ??0?$_Uninitialized_backout_al@V?$allocator@VRAMInfo@@@std@@@std@@QAE@PAVRAMInfo@@AAV?$allocator@VRAMInfo@@@1@@Z 00425a80 f i systeminfo.obj
 0001:00024b00       ??0?$_Vector_const_iterator@V?$_Vector_val@U?$_Simple_types@V?$basic_string@DU?$char_traits@D@std@@V?$allocator@D@2@@std@@@std@@@std@@@std@@QAE@$$QAV01@@Z 00425b00 f i systeminfo.obj
 0001:00024b70       ??0?$_Vector_const_iterator@V?$_Vector_val@U?$_Simple_types@V?$basic_string@DU?$char_traits@D@std@@V?$allocator@D@2@@std@@@std@@@std@@@std@@QAE@ABV01@@Z 00425b70 f i systeminfo.obj
 0001:00024be0       ??0?$_Vector_const_iterator@V?$_Vector_val@U?$_Simple_types@V?$basic_string@DU?$char_traits@D@std@@V?$allocator@D@2@@std@@@std@@@std@@@std@@QAE@PAV?$basic_string@DU?$char_traits@D@std@@V?$allocator@D@2@@1@PBU_Container_base12@1@@Z 00425be0 f i systeminfo.obj
 0001:00024c60       ??0?$_Vector_iterator@V?$_Vector_val@U?$_Simple_types@V?$basic_string@DU?$char_traits@D@std@@V?$allocator@D@2@@std@@@std@@@std@@@std@@QAE@$$QAV01@@Z 00425c60 f i systeminfo.obj
 0001:00024cc0       ??0?$_Vector_iterator@V?$_Vector_val@U?$_Simple_types@V?$basic_string@DU?$char_traits@D@std@@V?$allocator@D@2@@std@@@std@@@std@@@std@@QAE@ABV01@@Z 00425cc0 f i systeminfo.obj
 0001:00024d20       ??0?$_Vector_iterator@V?$_Vector_val@U?$_Simple_types@V?$basic_string@DU?$char_traits@D@std@@V?$allocator@D@2@@std@@@std@@@std@@@std@@QAE@PAV?$basic_string@DU?$char_traits@D@std@@V?$allocator@D@2@@1@PBU_Container_base12@1@@Z 00425d20 f i systeminfo.obj
 0001:00024d80       ??0?$_Vector_val@U?$_Simple_types@V?$basic_string@DU?$char_traits@D@std@@V?$allocator@D@2@@std@@@std@@@std@@QAE@XZ 00425d80 f i systeminfo.obj
 0001:00024e10       ??0?$_Vector_val@U?$_Simple_types@VCPUInfo@@@std@@@std@@QAE@XZ 00425e10 f i systeminfo.obj
 0001:00024ea0       ??0?$_Vector_val@U?$_Simple_types@VGPUInfo@@@std@@@std@@QAE@XZ 00425ea0 f i systeminfo.obj
 0001:00024f30       ??0?$_Vector_val@U?$_Simple_types@VMotherboardInfo@@@std@@@std@@QAE@XZ 00425f30 f i systeminfo.obj
 0001:00024fc0       ??0?$_Vector_val@U?$_Simple_types@VOSInfo@@@std@@@std@@QAE@XZ 00425fc0 f i systeminfo.obj
 0001:00025050       ??0?$_Vector_val@U?$_Simple_types@VRAMInfo@@@std@@@std@@QAE@XZ 00426050 f i systeminfo.obj
 0001:000250e0       ??0?$allocator@V?$basic_string@DU?$char_traits@D@std@@V?$allocator@D@2@@std@@@std@@QAE@XZ 004260e0 f i systeminfo.obj
 0001:00025140       ??0?$allocator@VCPUInfo@@@std@@QAE@XZ 00426140 f i systeminfo.obj
 0001:000251a0       ??0?$allocator@VGPUInfo@@@std@@QAE@XZ 004261a0 f i systeminfo.obj
 0001:00025200       ??0?$allocator@VMotherboardInfo@@@std@@QAE@XZ 00426200 f i systeminfo.obj
 0001:00025260       ??0?$allocator@VOSInfo@@@std@@QAE@XZ 00426260 f i systeminfo.obj
 0001:000252c0       ??0?$allocator@VRAMInfo@@@std@@QAE@XZ 004262c0 f i systeminfo.obj
 0001:00025320       ??0?$basic_filebuf@DU?$char_traits@D@std@@@std@@QAE@XZ 00426320 f i systeminfo.obj
 0001:000253f0       ??0?$basic_ifstream@DU?$char_traits@D@std@@@std@@QAE@XZ 004263f0 f i systeminfo.obj
 0001:00025560       ??0?$basic_string@DU?$char_traits@D@std@@V?$allocator@D@2@@std@@QAE@ABV01@@Z 00426560 f i systeminfo.obj
 0001:000256f0       ??0?$basic_string@DU?$char_traits@D@std@@V?$allocator@D@2@@std@@QAE@U_String_constructor_concat_tag@1@AAV01@1@Z 004266f0 f i systeminfo.obj
 0001:00025c20       ??0?$basic_string@DU?$char_traits@D@std@@V?$allocator@D@2@@std@@QAE@U_String_constructor_concat_tag@1@ABV01@QBDI2I@Z 00426c20 f i systeminfo.obj
 0001:00025ed0       ??0?$basic_stringbuf@DU?$char_traits@D@std@@V?$allocator@D@2@@std@@QAE@H@Z 00426ed0 f i systeminfo.obj
 0001:00025fc0       ??0?$basic_stringstream@DU?$char_traits@D@std@@V?$allocator@D@2@@std@@QAE@XZ 00426fc0 f i systeminfo.obj
 0001:00026140       ??0?$fpos@U_Mbstatet@@@std@@QAE@U_Mbstatet@@_J@Z 00427140 f i systeminfo.obj
 0001:000261d0       ??0?$fpos@U_Mbstatet@@@std@@QAE@_J@Z 004271d0 f i systeminfo.obj
 0001:00026260       ??0?$initializer_list@V?$basic_string@DU?$char_traits@D@std@@V?$allocator@D@2@@std@@@std@@QAE@PBV?$basic_string@DU?$char_traits@D@std@@V?$allocator@D@2@@1@0@Z 00427260 f i systeminfo.obj
 0001:000262d0       ??0?$vector@V?$basic_string@DU?$char_traits@D@std@@V?$allocator@D@2@@std@@V?$allocator@V?$basic_string@DU?$char_traits@D@std@@V?$allocator@D@2@@std@@@2@@std@@QAE@ABV01@@Z 004272d0 f i systeminfo.obj
 0001:000264f0       ??0?$vector@V?$basic_string@DU?$char_traits@D@std@@V?$allocator@D@2@@std@@V?$allocator@V?$basic_string@DU?$char_traits@D@std@@V?$allocator@D@2@@std@@@2@@std@@QAE@V?$initializer_list@V?$basic_string@DU?$char_traits@D@std@@V?$allocator@D@2@@std@@@1@ABV?$allocator@V?$basic_string@DU?$char_traits@D@std@@V?$allocator@D@2@@std@@@1@@Z 004274f0 f i systeminfo.obj
 0001:00026680       ??0?$vector@V?$basic_string@DU?$char_traits@D@std@@V?$allocator@D@2@@std@@V?$allocator@V?$basic_string@DU?$char_traits@D@std@@V?$allocator@D@2@@std@@@2@@std@@QAE@XZ 00427680 f i systeminfo.obj
 0001:00026750       ??0?$vector@VCPUInfo@@V?$allocator@VCPUInfo@@@std@@@std@@QAE@ABV01@@Z 00427750 f i systeminfo.obj
 0001:00026970       ??0?$vector@VCPUInfo@@V?$allocator@VCPUInfo@@@std@@@std@@QAE@XZ 00427970 f i systeminfo.obj
 0001:00026a40       ??0?$vector@VGPUInfo@@V?$allocator@VGPUInfo@@@std@@@std@@QAE@ABV01@@Z 00427a40 f i systeminfo.obj
 0001:00026c60       ??0?$vector@VGPUInfo@@V?$allocator@VGPUInfo@@@std@@@std@@QAE@XZ 00427c60 f i systeminfo.obj
 0001:00026d30       ??0?$vector@VMotherboardInfo@@V?$allocator@VMotherboardInfo@@@std@@@std@@QAE@ABV01@@Z 00427d30 f i systeminfo.obj
 0001:00026f50       ??0?$vector@VMotherboardInfo@@V?$allocator@VMotherboardInfo@@@std@@@std@@QAE@XZ 00427f50 f i systeminfo.obj
 0001:00027020       ??0?$vector@VOSInfo@@V?$allocator@VOSInfo@@@std@@@std@@QAE@ABV01@@Z 00428020 f i systeminfo.obj
 0001:00027240       ??0?$vector@VOSInfo@@V?$allocator@VOSInfo@@@std@@@std@@QAE@XZ 00428240 f i systeminfo.obj
 0001:00027310       ??0?$vector@VRAMInfo@@V?$allocator@VRAMInfo@@@std@@@std@@QAE@ABV01@@Z 00428310 f i systeminfo.obj
 0001:00027530       ??0?$vector@VRAMInfo@@V?$allocator@VRAMInfo@@@std@@@std@@QAE@XZ 00428530 f i systeminfo.obj
 0001:00027600       ??0CPUInfo@@QAE@$$QAV0@@Z  00428600 f i systeminfo.obj
 0001:000276f0       ??0CPUInfo@@QAE@ABV0@@Z    004286f0 f i systeminfo.obj
 0001:00027840       ??0CPUInfo@@QAE@ABV?$vector@V?$basic_string@DU?$char_traits@D@std@@V?$allocator@D@2@@std@@V?$allocator@V?$basic_string@DU?$char_traits@D@std@@V?$allocator@D@2@@std@@@2@@std@@H@Z 00428840 f   systeminfo.obj
 0001:000281b0       ??0CPUInfoDelegate@@QAE@XZ 004291b0 f   systeminfo.obj
 0001:00028690       ??0GPUInfo@@QAE@$$QAV0@@Z  00429690 f i systeminfo.obj
 0001:000287f0       ??0GPUInfo@@QAE@ABV0@@Z    004297f0 f i systeminfo.obj
 0001:000289c0       ??0GPUInfo@@QAE@ABV?$vector@V?$basic_string@DU?$char_traits@D@std@@V?$allocator@D@2@@std@@V?$allocator@V?$basic_string@DU?$char_traits@D@std@@V?$allocator@D@2@@std@@@2@@std@@H@Z 004299c0 f   systeminfo.obj
 0001:00029a60       ??0GPUInfoDelegate@@QAE@XZ 0042aa60 f   systeminfo.obj
 0001:00029f40       ??0MotherboardInfo@@QAE@$$QAV0@@Z 0042af40 f i systeminfo.obj
 0001:0002a010       ??0MotherboardInfo@@QAE@ABV0@@Z 0042b010 f i systeminfo.obj
 0001:0002a130       ??0MotherboardInfo@@QAE@ABV?$vector@V?$basic_string@DU?$char_traits@D@std@@V?$allocator@D@2@@std@@V?$allocator@V?$basic_string@DU?$char_traits@D@std@@V?$allocator@D@2@@std@@@2@@std@@H@Z 0042b130 f   systeminfo.obj
 0001:0002a690       ??0MotherboardInfoDelegate@@QAE@XZ 0042b690 f   systeminfo.obj
 0001:0002ab90       ??0OSInfo@@QAE@$$QAV0@@Z   0042bb90 f i systeminfo.obj
 0001:0002ad60       ??0OSInfo@@QAE@ABV0@@Z     0042bd60 f i systeminfo.obj
 0001:0002afb0       ??0OSInfo@@QAE@ABV?$vector@V?$basic_string@DU?$char_traits@D@std@@V?$allocator@D@2@@std@@V?$allocator@V?$basic_string@DU?$char_traits@D@std@@V?$allocator@D@2@@std@@@2@@std@@H@Z 0042bfb0 f   systeminfo.obj
 0001:0002cab0       ??0OSInfoDelegate@@QAE@XZ  0042dab0 f   systeminfo.obj
 0001:0002cf90       ??0RAMInfo@@QAE@$$QAV0@@Z  0042df90 f i systeminfo.obj
 0001:0002d0b0       ??0RAMInfo@@QAE@ABV0@@Z    0042e0b0 f i systeminfo.obj
 0001:0002d240       ??0RAMInfo@@QAE@ABV?$vector@V?$basic_string@DU?$char_traits@D@std@@V?$allocator@D@2@@std@@V?$allocator@V?$basic_string@DU?$char_traits@D@std@@V?$allocator@D@2@@std@@@2@@std@@H@Z 0042e240 f   systeminfo.obj
 0001:0002e290       ??0RAMInfoDelegate@@QAE@XZ 0042f290 f   systeminfo.obj
 0001:0002e770       ??0SystemCommand@@QAE@ABV?$basic_string@DU?$char_traits@D@std@@V?$allocator@D@2@@std@@@Z 0042f770 f   systeminfo.obj
 0001:0002e880       ??0SystemCommand@@QAE@ABV?$basic_string@DU?$char_traits@D@std@@V?$allocator@D@2@@std@@H@Z 0042f880 f   systeminfo.obj
 0001:0002e990       ??0SystemCommand@@QAE@V?$initializer_list@V?$basic_string@DU?$char_traits@D@std@@V?$allocator@D@2@@std@@@std@@@Z 0042f990 f   systeminfo.obj
 0001:0002eab0       ??0SystemCommand@@QAE@XZ   0042fab0 f   systeminfo.obj
 0001:0002ebc0       ??0_Sentry_base@?$basic_istream@DU?$char_traits@D@std@@@std@@QAE@AAV12@@Z 0042fbc0 f i systeminfo.obj
 0001:0002ec80       ??0bad_cast@std@@QAE@ABV01@@Z 0042fc80 f i systeminfo.obj
 0001:0002ecf0       ??0bad_cast@std@@QAE@XZ    0042fcf0 f i systeminfo.obj
 0001:0002ed70       ??0sentry@?$basic_istream@DU?$char_traits@D@std@@@std@@QAE@AAV12@_N@Z 0042fd70 f i systeminfo.obj
 0001:0002ee50       ??1?$_Func_class@V?$basic_string@DU?$char_traits@D@std@@V?$allocator@D@2@@std@@ABV12@@std@@QAE@XZ 0042fe50 f i systeminfo.obj
 0001:0002eeb0       ??1?$_Tidy_guard@V?$vector@V?$basic_string@DU?$char_traits@D@std@@V?$allocator@D@2@@std@@V?$allocator@V?$basic_string@DU?$char_traits@D@std@@V?$allocator@D@2@@std@@@2@@std@@@std@@QAE@XZ 0042feb0 f i systeminfo.obj
 0001:0002ef20       ??1?$_Tidy_guard@V?$vector@VCPUInfo@@V?$allocator@VCPUInfo@@@std@@@std@@@std@@QAE@XZ 0042ff20 f i systeminfo.obj
 0001:0002ef90       ??1?$_Tidy_guard@V?$vector@VGPUInfo@@V?$allocator@VGPUInfo@@@std@@@std@@@std@@QAE@XZ 0042ff90 f i systeminfo.obj
 0001:0002f000       ??1?$_Tidy_guard@V?$vector@VMotherboardInfo@@V?$allocator@VMotherboardInfo@@@std@@@std@@@std@@QAE@XZ 00430000 f i systeminfo.obj
 0001:0002f070       ??1?$_Tidy_guard@V?$vector@VOSInfo@@V?$allocator@VOSInfo@@@std@@@std@@@std@@QAE@XZ 00430070 f i systeminfo.obj
 0001:0002f0e0       ??1?$_Tidy_guard@V?$vector@VRAMInfo@@V?$allocator@VRAMInfo@@@std@@@std@@@std@@QAE@XZ 004300e0 f i systeminfo.obj
 0001:0002f150       ??1?$_Uninitialized_backout_al@V?$allocator@V?$basic_string@DU?$char_traits@D@std@@V?$allocator@D@2@@std@@@std@@@std@@QAE@XZ 00430150 f i systeminfo.obj
 0001:0002f1d0       ??1?$_Uninitialized_backout_al@V?$allocator@VCPUInfo@@@std@@@std@@QAE@XZ 004301d0 f i systeminfo.obj
 0001:0002f250       ??1?$_Uninitialized_backout_al@V?$allocator@VGPUInfo@@@std@@@std@@QAE@XZ 00430250 f i systeminfo.obj
 0001:0002f2d0       ??1?$_Uninitialized_backout_al@V?$allocator@VMotherboardInfo@@@std@@@std@@QAE@XZ 004302d0 f i systeminfo.obj
 0001:0002f350       ??1?$_Uninitialized_backout_al@V?$allocator@VOSInfo@@@std@@@std@@QAE@XZ 00430350 f i systeminfo.obj
 0001:0002f3d0       ??1?$_Uninitialized_backout_al@V?$allocator@VRAMInfo@@@std@@@std@@QAE@XZ 004303d0 f i systeminfo.obj
 0001:0002f450       ??1?$_Vector_const_iterator@V?$_Vector_val@U?$_Simple_types@V?$basic_string@DU?$char_traits@D@std@@V?$allocator@D@2@@std@@@std@@@std@@@std@@QAE@XZ 00430450 f i systeminfo.obj
 0001:0002f4a0       ??1?$_Vector_iterator@V?$_Vector_val@U?$_Simple_types@V?$basic_string@DU?$char_traits@D@std@@V?$allocator@D@2@@std@@@std@@@std@@@std@@QAE@XZ 004304a0 f i systeminfo.obj
 0001:0002f4f0       ??1?$basic_filebuf@DU?$char_traits@D@std@@@std@@UAE@XZ 004304f0 f i systeminfo.obj
 0001:0002f5d0       ??1?$basic_ifstream@DU?$char_traits@D@std@@@std@@UAE@XZ 004305d0 f i systeminfo.obj
 0001:0002f690       ??1?$basic_stringbuf@DU?$char_traits@D@std@@V?$allocator@D@2@@std@@UAE@XZ 00430690 f i systeminfo.obj
 0001:0002f710       ??1?$basic_stringstream@DU?$char_traits@D@std@@V?$allocator@D@2@@std@@UAE@XZ 00430710 f i systeminfo.obj
 0001:0002f7d0       ??1?$function@$$A6A?AV?$basic_string@DU?$char_traits@D@std@@V?$allocator@D@2@@std@@ABV12@@Z@std@@QAE@XZ 004307d0 f i systeminfo.obj
 0001:0002f820       ??1?$unique_ptr@V_Facet_base@std@@U?$default_delete@V_Facet_base@std@@@2@@std@@QAE@XZ 00430820 f i systeminfo.obj
 0001:0002f8a0       ??1?$vector@V?$basic_string@DU?$char_traits@D@std@@V?$allocator@D@2@@std@@V?$allocator@V?$basic_string@DU?$char_traits@D@std@@V?$allocator@D@2@@std@@@2@@std@@QAE@XZ 004308a0 f i systeminfo.obj
 0001:0002f9a0       ??1SystemCommand@@QAE@XZ   004309a0 f i systeminfo.obj
 0001:0002fa20       ??1_Sentry_base@?$basic_istream@DU?$char_traits@D@std@@@std@@QAE@XZ 00430a20 f i systeminfo.obj
 0001:0002fb10       ??1bad_cast@std@@UAE@XZ    00430b10 f i systeminfo.obj
 0001:0002fb60       ??1locale@std@@QAE@XZ      00430b60 f i systeminfo.obj
 0001:0002fc30       ??1sentry@?$basic_istream@DU?$char_traits@D@std@@@std@@QAE@XZ 00430c30 f i systeminfo.obj
 0001:0002fc80       ??4?$basic_string@DU?$char_traits@D@std@@V?$allocator@D@2@@std@@QAEAAV01@$$QAV01@@Z 00430c80 f i systeminfo.obj
 0001:0002fd10       ??4?$basic_string@DU?$char_traits@D@std@@V?$allocator@D@2@@std@@QAEAAV01@ABV01@@Z 00430d10 f i systeminfo.obj
 0001:0002fda0       ??4?$basic_string@DU?$char_traits@D@std@@V?$allocator@D@2@@std@@QAEAAV01@QBD@Z 00430da0 f i systeminfo.obj
 0001:0002fe10       ??8?$_Vector_const_iterator@V?$_Vector_val@U?$_Simple_types@V?$basic_string@DU?$char_traits@D@std@@V?$allocator@D@2@@std@@@std@@@std@@@std@@QBE_NABV01@@Z 00430e10 f i systeminfo.obj
 0001:0002feb0       ??9?$_Vector_const_iterator@V?$_Vector_val@U?$_Simple_types@V?$basic_string@DU?$char_traits@D@std@@V?$allocator@D@2@@std@@@std@@@std@@@std@@QBE_NABV01@@Z 00430eb0 f i systeminfo.obj
 0001:0002ff40       ??B?$fpos@U_Mbstatet@@@std@@QBE_JXZ 00430f40 f i systeminfo.obj
 0001:0002ffb0       ??Bsentry@?$basic_istream@DU?$char_traits@D@std@@@std@@QBE_NXZ 00430fb0 f i systeminfo.obj
 0001:00030010       ??C?$_Vector_const_iterator@V?$_Vector_val@U?$_Simple_types@V?$basic_string@DU?$char_traits@D@std@@V?$allocator@D@2@@std@@@std@@@std@@@std@@QBEPBV?$basic_string@DU?$char_traits@D@std@@V?$allocator@D@2@@1@XZ 00431010 f i systeminfo.obj
 0001:00030190       ??C?$_Vector_iterator@V?$_Vector_val@U?$_Simple_types@V?$basic_string@DU?$char_traits@D@std@@V?$allocator@D@2@@std@@@std@@@std@@@std@@QBEPAV?$basic_string@DU?$char_traits@D@std@@V?$allocator@D@2@@1@XZ 00431190 f i systeminfo.obj
 0001:00030200       ??D?$_Vector_const_iterator@V?$_Vector_val@U?$_Simple_types@V?$basic_string@DU?$char_traits@D@std@@V?$allocator@D@2@@std@@@std@@@std@@@std@@QBEABV?$basic_string@DU?$char_traits@D@std@@V?$allocator@D@2@@1@XZ 00431200 f i systeminfo.obj
 0001:00030380       ??D?$_Vector_iterator@V?$_Vector_val@U?$_Simple_types@V?$basic_string@DU?$char_traits@D@std@@V?$allocator@D@2@@std@@@std@@@std@@@std@@QBEAAV?$basic_string@DU?$char_traits@D@std@@V?$allocator@D@2@@1@XZ 00431380 f i systeminfo.obj
 0001:000303e0       ??E?$_Vector_const_iterator@V?$_Vector_val@U?$_Simple_types@V?$basic_string@DU?$char_traits@D@std@@V?$allocator@D@2@@std@@@std@@@std@@@std@@QAE?AV01@H@Z 004313e0 f i systeminfo.obj
 0001:000304d0       ??E?$_Vector_const_iterator@V?$_Vector_val@U?$_Simple_types@V?$basic_string@DU?$char_traits@D@std@@V?$allocator@D@2@@std@@@std@@@std@@@std@@QAEAAV01@XZ 004314d0 f i systeminfo.obj
 0001:00030650       ??E?$_Vector_iterator@V?$_Vector_val@U?$_Simple_types@V?$basic_string@DU?$char_traits@D@std@@V?$allocator@D@2@@std@@@std@@@std@@@std@@QAE?AV01@H@Z 00431650 f i systeminfo.obj
 0001:00030740       ??H?$_Vector_iterator@V?$_Vector_val@U?$_Simple_types@V?$basic_string@DU?$char_traits@D@std@@V?$allocator@D@2@@std@@@std@@@std@@@std@@QBE?AV01@H@Z 00431740 f i systeminfo.obj
 0001:00030bb0       ??R<lambda_15711c68e099a15a58f4d77303cb286d>@@QBEXQADQBDID@Z 00431bb0 f i systeminfo.obj
 0001:00030c60       ??R<lambda_4d79bb85f269e6e8002a4599002d832c>@@QBEXQADQBDII1I@Z 00431c60 f i systeminfo.obj
 0001:00030d20       ??R?$_Func_class@V?$basic_string@DU?$char_traits@D@std@@V?$allocator@D@2@@std@@ABV12@@std@@QBE?AV?$basic_string@DU?$char_traits@D@std@@V?$allocator@D@2@@1@ABV21@@Z 00431d20 f i systeminfo.obj
 0001:00030df0       ??R?$default_delete@V_Facet_base@std@@@std@@QBEXPAV_Facet_base@1@@Z 00431df0 f i systeminfo.obj
 0001:00030ea0       ??Y?$_Vector_const_iterator@V?$_Vector_val@U?$_Simple_types@V?$basic_string@DU?$char_traits@D@std@@V?$allocator@D@2@@std@@@std@@@std@@@std@@QAEAAV01@H@Z 00431ea0 f i systeminfo.obj
 0001:00030f20       ??Y?$_Vector_iterator@V?$_Vector_val@U?$_Simple_types@V?$basic_string@DU?$char_traits@D@std@@V?$allocator@D@2@@std@@@std@@@std@@@std@@QAEAAV01@H@Z 00431f20 f i systeminfo.obj
 0001:00030f90       ??Y?$basic_string@DU?$char_traits@D@std@@V?$allocator@D@2@@std@@QAEAAV01@ABV01@@Z 00431f90 f i systeminfo.obj
 0001:00031000       ??Y?$basic_string@DU?$char_traits@D@std@@V?$allocator@D@2@@std@@QAEAAV01@D@Z 00432000 f i systeminfo.obj
 0001:00031070       ??_D?$basic_ifstream@DU?$char_traits@D@std@@@std@@QAEXXZ 00432070 f i systeminfo.obj
 0001:000310e0       ??_D?$basic_stringstream@DU?$char_traits@D@std@@V?$allocator@D@2@@std@@QAEXXZ 004320e0 f i systeminfo.obj
 0001:0003114c       ??_E?$basic_ifstream@DU?$char_traits@D@std@@@std@@$4PPPPPPPM@A@AEPAXI@Z 0043214c f i systeminfo.obj
 0001:00031156       ??_E?$basic_stringstream@DU?$char_traits@D@std@@V?$allocator@D@2@@std@@$4PPPPPPPM@A@AEPAXI@Z 00432156 f i systeminfo.obj
 0001:00031160       ??_G?$basic_filebuf@DU?$char_traits@D@std@@@std@@UAEPAXI@Z 00432160 f i systeminfo.obj
 0001:00031160       ??_E?$basic_filebuf@DU?$char_traits@D@std@@@std@@UAEPAXI@Z 00432160 f i systeminfo.obj
 0001:000311d0       ??_G?$basic_ifstream@DU?$char_traits@D@std@@@std@@UAEPAXI@Z 004321d0 f i systeminfo.obj
 0001:000311d0       ??_E?$basic_ifstream@DU?$char_traits@D@std@@@std@@UAEPAXI@Z 004321d0 f i systeminfo.obj
 0001:00031250       ??_G?$basic_string@DU?$char_traits@D@std@@V?$allocator@D@2@@std@@QAEPAXI@Z 00432250 f i systeminfo.obj
 0001:000312c0       ??_G?$basic_stringbuf@DU?$char_traits@D@std@@V?$allocator@D@2@@std@@UAEPAXI@Z 004322c0 f i systeminfo.obj
 0001:000312c0       ??_E?$basic_stringbuf@DU?$char_traits@D@std@@V?$allocator@D@2@@std@@UAEPAXI@Z 004322c0 f i systeminfo.obj
 0001:00031330       ??_G?$basic_stringstream@DU?$char_traits@D@std@@V?$allocator@D@2@@std@@UAEPAXI@Z 00432330 f i systeminfo.obj
 0001:00031330       ??_E?$basic_stringstream@DU?$char_traits@D@std@@V?$allocator@D@2@@std@@UAEPAXI@Z 00432330 f i systeminfo.obj
 0001:000313b0       ??_Ebad_cast@std@@UAEPAXI@Z 004323b0 f i systeminfo.obj
 0001:000313b0       ??_Gbad_cast@std@@UAEPAXI@Z 004323b0 f i systeminfo.obj
 0001:00031420       ?L2CacheSize@CPUInfo@@QBE?AV?$basic_string@DU?$char_traits@D@std@@V?$allocator@D@2@@std@@XZ 00432420 f   systeminfo.obj
 0001:000314b0       ?L3CacheSize@CPUInfo@@QBE?AV?$basic_string@DU?$char_traits@D@std@@V?$allocator@D@2@@std@@XZ 004324b0 f   systeminfo.obj
 0001:00031540       ?_Buy_nonzero@?$vector@V?$basic_string@DU?$char_traits@D@std@@V?$allocator@D@2@@std@@V?$allocator@V?$basic_string@DU?$char_traits@D@std@@V?$allocator@D@2@@std@@@2@@std@@AAEXI@Z 00432540 f i systeminfo.obj
 0001:000315c0       ?_Buy_raw@?$vector@V?$basic_string@DU?$char_traits@D@std@@V?$allocator@D@2@@std@@V?$allocator@V?$basic_string@DU?$char_traits@D@std@@V?$allocator@D@2@@std@@@2@@std@@AAEXI@Z 004325c0 f i systeminfo.obj
 0001:00031680       ?_Buy_raw@?$vector@VCPUInfo@@V?$allocator@VCPUInfo@@@std@@@std@@AAEXI@Z 00432680 f i systeminfo.obj
 0001:00031740       ?_Buy_raw@?$vector@VGPUInfo@@V?$allocator@VGPUInfo@@@std@@@std@@AAEXI@Z 00432740 f i systeminfo.obj
 0001:00031800       ?_Buy_raw@?$vector@VMotherboardInfo@@V?$allocator@VMotherboardInfo@@@std@@@std@@AAEXI@Z 00432800 f i systeminfo.obj
 0001:000318c0       ?_Buy_raw@?$vector@VOSInfo@@V?$allocator@VOSInfo@@@std@@@std@@AAEXI@Z 004328c0 f i systeminfo.obj
 0001:00031980       ?_Buy_raw@?$vector@VRAMInfo@@V?$allocator@VRAMInfo@@@std@@@std@@AAEXI@Z 00432980 f i systeminfo.obj
 0001:00031a40       ?_Calculate_growth@?$vector@V?$basic_string@DU?$char_traits@D@std@@V?$allocator@D@2@@std@@V?$allocator@V?$basic_string@DU?$char_traits@D@std@@V?$allocator@D@2@@std@@@2@@std@@ABEII@Z 00432a40 f i systeminfo.obj
 0001:00031af0       ?_Calculate_growth@?$vector@VCPUInfo@@V?$allocator@VCPUInfo@@@std@@@std@@ABEII@Z 00432af0 f i systeminfo.obj
 0001:00031ba0       ?_Calculate_growth@?$vector@VGPUInfo@@V?$allocator@VGPUInfo@@@std@@@std@@ABEII@Z 00432ba0 f i systeminfo.obj
 0001:00031c50       ?_Calculate_growth@?$vector@VMotherboardInfo@@V?$allocator@VMotherboardInfo@@@std@@@std@@ABEII@Z 00432c50 f i systeminfo.obj
 0001:00031d00       ?_Calculate_growth@?$vector@VOSInfo@@V?$allocator@VOSInfo@@@std@@@std@@ABEII@Z 00432d00 f i systeminfo.obj
 0001:00031db0       ?_Calculate_growth@?$vector@VRAMInfo@@V?$allocator@VRAMInfo@@@std@@@std@@ABEII@Z 00432db0 f i systeminfo.obj
 0001:00031e60       ?_Change_array@?$vector@V?$basic_string@DU?$char_traits@D@std@@V?$allocator@D@2@@std@@V?$allocator@V?$basic_string@DU?$char_traits@D@std@@V?$allocator@D@2@@std@@@2@@std@@AAEXQAV?$basic_string@DU?$char_traits@D@std@@V?$allocator@D@2@@2@II@Z 00432e60 f i systeminfo.obj
 0001:00031f70       ?_Change_array@?$vector@VCPUInfo@@V?$allocator@VCPUInfo@@@std@@@std@@AAEXQAVCPUInfo@@II@Z 00432f70 f i systeminfo.obj
 0001:00032080       ?_Change_array@?$vector@VGPUInfo@@V?$allocator@VGPUInfo@@@std@@@std@@AAEXQAVGPUInfo@@II@Z 00433080 f i systeminfo.obj
 0001:00032190       ?_Change_array@?$vector@VMotherboardInfo@@V?$allocator@VMotherboardInfo@@@std@@@std@@AAEXQAVMotherboardInfo@@II@Z 00433190 f i systeminfo.obj
 0001:000322a0       ?_Change_array@?$vector@VOSInfo@@V?$allocator@VOSInfo@@@std@@@std@@AAEXQAVOSInfo@@II@Z 004332a0 f i systeminfo.obj
 0001:000323b0       ?_Change_array@?$vector@VRAMInfo@@V?$allocator@VRAMInfo@@@std@@@std@@AAEXQAVRAMInfo@@II@Z 004333b0 f i systeminfo.obj
 0001:000324c0       ?_Compat@?$_Vector_const_iterator@V?$_Vector_val@U?$_Simple_types@V?$basic_string@DU?$char_traits@D@std@@V?$allocator@D@2@@std@@@std@@@std@@@std@@QBEXABV12@@Z 004334c0 f i systeminfo.obj
 0001:000325b0       ?_Construct_lv_contents@?$basic_string@DU?$char_traits@D@std@@V?$allocator@D@2@@std@@AAEXABV12@@Z 004335b0 f i systeminfo.obj
 0001:00032810       ?_Copy_assign@?$basic_string@DU?$char_traits@D@std@@V?$allocator@D@2@@std@@AAEXABV12@U?$integral_constant@_N$0A@@2@@Z 00433810 f i systeminfo.obj
 0001:00032920       ?_Destroy@?$vector@V?$basic_string@DU?$char_traits@D@std@@V?$allocator@D@2@@std@@V?$allocator@V?$basic_string@DU?$char_traits@D@std@@V?$allocator@D@2@@std@@@2@@std@@AAEXPAV?$basic_string@DU?$char_traits@D@std@@V?$allocator@D@2@@2@0@Z 00433920 f i systeminfo.obj
 0001:00032a40       ?_Empty@?$_Func_class@V?$basic_string@DU?$char_traits@D@std@@V?$allocator@D@2@@std@@ABV12@@std@@IBE_NXZ 00433a40 f i systeminfo.obj
 0001:00032ad0       ?_Endwrite@?$basic_filebuf@DU?$char_traits@D@std@@@std@@IAE_NXZ 00433ad0 f i systeminfo.obj
 0001:00032d10       ?_Eos@?$basic_string@DU?$char_traits@D@std@@V?$allocator@D@2@@std@@AAEXI@Z 00433d10 f i systeminfo.obj
 0001:00032da0       ?_Equal@?$basic_string@DU?$char_traits@D@std@@V?$allocator@D@2@@std@@QBE_NQBD@Z 00433da0 f i systeminfo.obj
 0001:00032e30       ?_Erase_noexcept@?$basic_string@DU?$char_traits@D@std@@V?$allocator@D@2@@std@@AAEAAV12@II@Z 00433e30 f i systeminfo.obj
 0001:00032f70       ?_Get_first@?$_Compressed_pair@U?$default_delete@V_Facet_base@std@@@std@@PAV_Facet_base@2@$00@std@@QAEAAU?$default_delete@V_Facet_base@std@@@2@XZ 00433f70 f i systeminfo.obj
 0001:00032fd0       ?_Get_first@?$_Compressed_pair@V?$allocator@V?$basic_string@DU?$char_traits@D@std@@V?$allocator@D@2@@std@@@std@@V?$_Vector_val@U?$_Simple_types@V?$basic_string@DU?$char_traits@D@std@@V?$allocator@D@2@@std@@@std@@@2@$00@std@@QAEAAV?$allocator@V?$basic_string@DU?$char_traits@D@std@@V?$allocator@D@2@@std@@@2@XZ 00433fd0 f i systeminfo.obj
 0001:00033030       ?_Get_first@?$_Compressed_pair@V?$allocator@V?$basic_string@DU?$char_traits@D@std@@V?$allocator@D@2@@std@@@std@@V?$_Vector_val@U?$_Simple_types@V?$basic_string@DU?$char_traits@D@std@@V?$allocator@D@2@@std@@@std@@@2@$00@std@@QBEABV?$allocator@V?$basic_string@DU?$char_traits@D@std@@V?$allocator@D@2@@std@@@2@XZ 00434030 f i systeminfo.obj
 0001:00033090       ?_Get_first@?$_Compressed_pair@V?$allocator@VCPUInfo@@@std@@V?$_Vector_val@U?$_Simple_types@VCPUInfo@@@std@@@2@$00@std@@QBEABV?$allocator@VCPUInfo@@@2@XZ 00434090 f i systeminfo.obj
 0001:000330f0       ?_Get_first@?$_Compressed_pair@V?$allocator@VGPUInfo@@@std@@V?$_Vector_val@U?$_Simple_types@VGPUInfo@@@std@@@2@$00@std@@QBEABV?$allocator@VGPUInfo@@@2@XZ 004340f0 f i systeminfo.obj
 0001:00033150       ?_Get_first@?$_Compressed_pair@V?$allocator@VMotherboardInfo@@@std@@V?$_Vector_val@U?$_Simple_types@VMotherboardInfo@@@std@@@2@$00@std@@QBEABV?$allocator@VMotherboardInfo@@@2@XZ 00434150 f i systeminfo.obj
 0001:000331b0       ?_Get_first@?$_Compressed_pair@V?$allocator@VOSInfo@@@std@@V?$_Vector_val@U?$_Simple_types@VOSInfo@@@std@@@2@$00@std@@QBEABV?$allocator@VOSInfo@@@2@XZ 004341b0 f i systeminfo.obj
 0001:00033210       ?_Get_first@?$_Compressed_pair@V?$allocator@VRAMInfo@@@std@@V?$_Vector_val@U?$_Simple_types@VRAMInfo@@@std@@@2@$00@std@@QBEABV?$allocator@VRAMInfo@@@2@XZ 00434210 f i systeminfo.obj
 0001:00033270       ?_Getal@?$vector@V?$basic_string@DU?$char_traits@D@std@@V?$allocator@D@2@@std@@V?$allocator@V?$basic_string@DU?$char_traits@D@std@@V?$allocator@D@2@@std@@@2@@std@@AAEAAV?$allocator@V?$basic_string@DU?$char_traits@D@std@@V?$allocator@D@2@@std@@@2@XZ 00434270 f i systeminfo.obj
 0001:000332d0       ?_Getal@?$vector@V?$basic_string@DU?$char_traits@D@std@@V?$allocator@D@2@@std@@V?$allocator@V?$basic_string@DU?$char_traits@D@std@@V?$allocator@D@2@@std@@@2@@std@@ABEABV?$allocator@V?$basic_string@DU?$char_traits@D@std@@V?$allocator@D@2@@std@@@2@XZ 004342d0 f i systeminfo.obj
 0001:00033330       ?_Getal@?$vector@VCPUInfo@@V?$allocator@VCPUInfo@@@std@@@std@@ABEABV?$allocator@VCPUInfo@@@2@XZ 00434330 f i systeminfo.obj
 0001:00033390       ?_Getal@?$vector@VGPUInfo@@V?$allocator@VGPUInfo@@@std@@@std@@ABEABV?$allocator@VGPUInfo@@@2@XZ 00434390 f i systeminfo.obj
 0001:000333f0       ?_Getal@?$vector@VMotherboardInfo@@V?$allocator@VMotherboardInfo@@@std@@@std@@ABEABV?$allocator@VMotherboardInfo@@@2@XZ 004343f0 f i systeminfo.obj
 0001:00033450       ?_Getal@?$vector@VOSInfo@@V?$allocator@VOSInfo@@@std@@@std@@ABEABV?$allocator@VOSInfo@@@2@XZ 00434450 f i systeminfo.obj
 0001:000334b0       ?_Getal@?$vector@VRAMInfo@@V?$allocator@VRAMInfo@@@std@@@std@@ABEABV?$allocator@VRAMInfo@@@2@XZ 004344b0 f i systeminfo.obj
 0001:00033510       ?_Getfacet@locale@std@@QBEPBVfacet@12@I@Z 00434510 f i systeminfo.obj
 0001:00033600       ?_Getimpl@?$_Func_class@V?$basic_string@DU?$char_traits@D@std@@V?$allocator@D@2@@std@@ABV12@@std@@ABEPAV?$_Func_base@V?$basic_string@DU?$char_traits@D@std@@V?$allocator@D@2@@std@@ABV12@@2@XZ 00434600 f i systeminfo.obj
 0001:00033670       ?_Getstate@?$basic_stringbuf@DU?$char_traits@D@std@@V?$allocator@D@2@@std@@CAHH@Z 00434670 f i systeminfo.obj
 0001:00033720       ?_Init@?$basic_filebuf@DU?$char_traits@D@std@@@std@@IAEXPAU_iobuf@@W4_Initfl@12@@Z 00434720 f i systeminfo.obj
 0001:00033900       ?_Initcvt@?$basic_filebuf@DU?$char_traits@D@std@@@std@@IAEXABV?$codecvt@DDU_Mbstatet@@@2@@Z 00434900 f i systeminfo.obj
 0001:000339b0       ?_Local@?$_Func_class@V?$basic_string@DU?$char_traits@D@std@@V?$allocator@D@2@@std@@ABV12@@std@@ABE_NXZ 004349b0 f i systeminfo.obj
 0001:00033a40       ?_Lock@?$basic_filebuf@DU?$char_traits@D@std@@@std@@UAEXXZ 00434a40 f i systeminfo.obj
 0001:00033b90       ?_Move_assign@?$basic_string@DU?$char_traits@D@std@@V?$allocator@D@2@@std@@AAEXAAV12@U_Equal_allocators@2@@Z 00434b90 f i systeminfo.obj
 0001:00033c40       ?_Orphan_range@?$vector@V?$basic_string@DU?$char_traits@D@std@@V?$allocator@D@2@@std@@V?$allocator@V?$basic_string@DU?$char_traits@D@std@@V?$allocator@D@2@@std@@@2@@std@@ABEXPAV?$basic_string@DU?$char_traits@D@std@@V?$allocator@D@2@@2@0@Z 00434c40 f i systeminfo.obj
 0001:00033d80       ?_Orphan_range@?$vector@VCPUInfo@@V?$allocator@VCPUInfo@@@std@@@std@@ABEXPAVCPUInfo@@0@Z 00434d80 f i systeminfo.obj
 0001:00033ec0       ?_Orphan_range@?$vector@VGPUInfo@@V?$allocator@VGPUInfo@@@std@@@std@@ABEXPAVGPUInfo@@0@Z 00434ec0 f i systeminfo.obj
 0001:00034000       ?_Orphan_range@?$vector@VMotherboardInfo@@V?$allocator@VMotherboardInfo@@@std@@@std@@ABEXPAVMotherboardInfo@@0@Z 00435000 f i systeminfo.obj
 0001:00034140       ?_Orphan_range@?$vector@VOSInfo@@V?$allocator@VOSInfo@@@std@@@std@@ABEXPAVOSInfo@@0@Z 00435140 f i systeminfo.obj
 0001:00034280       ?_Orphan_range@?$vector@VRAMInfo@@V?$allocator@VRAMInfo@@@std@@@std@@ABEXPAVRAMInfo@@0@Z 00435280 f i systeminfo.obj
 0001:000343c0       ?_Release@?$_Uninitialized_backout_al@V?$allocator@V?$basic_string@DU?$char_traits@D@std@@V?$allocator@D@2@@std@@@std@@@std@@QAEPAV?$basic_string@DU?$char_traits@D@std@@V?$allocator@D@2@@2@XZ 004353c0 f i systeminfo.obj
 0001:00034430       ?_Release@?$_Uninitialized_backout_al@V?$allocator@VCPUInfo@@@std@@@std@@QAEPAVCPUInfo@@XZ 00435430 f i systeminfo.obj
 0001:000344a0       ?_Release@?$_Uninitialized_backout_al@V?$allocator@VGPUInfo@@@std@@@std@@QAEPAVGPUInfo@@XZ 004354a0 f i systeminfo.obj
 0001:00034510       ?_Release@?$_Uninitialized_backout_al@V?$allocator@VMotherboardInfo@@@std@@@std@@QAEPAVMotherboardInfo@@XZ 00435510 f i systeminfo.obj
 0001:00034580       ?_Release@?$_Uninitialized_backout_al@V?$allocator@VOSInfo@@@std@@@std@@QAEPAVOSInfo@@XZ 00435580 f i systeminfo.obj
 0001:000345f0       ?_Release@?$_Uninitialized_backout_al@V?$allocator@VRAMInfo@@@std@@@std@@QAEPAVRAMInfo@@XZ 004355f0 f i systeminfo.obj
 0001:00034660       ?_Reset_back@?$basic_filebuf@DU?$char_traits@D@std@@@std@@AAEXXZ 00435660 f i systeminfo.obj
 0001:00034710       ?_Set@?$_Func_class@V?$basic_string@DU?$char_traits@D@std@@V?$allocator@D@2@@std@@ABV12@@std@@AAEXPAV?$_Func_base@V?$basic_string@DU?$char_traits@D@std@@V?$allocator@D@2@@std@@ABV12@@2@@Z 00435710 f i systeminfo.obj
 0001:00034780       ?_Set_back@?$basic_filebuf@DU?$char_traits@D@std@@@std@@AAEXXZ 00435780 f i systeminfo.obj
 0001:000348d0       ?_Throw_bad_cast@std@@YAXXZ 004358d0 f i systeminfo.obj
 0001:00034940       ?_Tidy@?$_Func_class@V?$basic_string@DU?$char_traits@D@std@@V?$allocator@D@2@@std@@ABV12@@std@@IAEXXZ 00435940 f i systeminfo.obj
 0001:00034a20       ?_Tidy@?$basic_stringbuf@DU?$char_traits@D@std@@V?$allocator@D@2@@std@@IAEXXZ 00435a20 f i systeminfo.obj
 0001:00034bd0       ?_Tidy@?$vector@V?$basic_string@DU?$char_traits@D@std@@V?$allocator@D@2@@std@@V?$allocator@V?$basic_string@DU?$char_traits@D@std@@V?$allocator@D@2@@std@@@2@@std@@AAEXXZ 00435bd0 f i systeminfo.obj
 0001:00034d10       ?_Umove@?$vector@V?$basic_string@DU?$char_traits@D@std@@V?$allocator@D@2@@std@@V?$allocator@V?$basic_string@DU?$char_traits@D@std@@V?$allocator@D@2@@std@@@2@@std@@AAEPAV?$basic_string@DU?$char_traits@D@std@@V?$allocator@D@2@@2@PAV32@00@Z 00435d10 f i systeminfo.obj
 0001:00034d90       ?_Umove@?$vector@VCPUInfo@@V?$allocator@VCPUInfo@@@std@@@std@@AAEPAVCPUInfo@@PAV3@00@Z 00435d90 f i systeminfo.obj
 0001:00034e10       ?_Umove@?$vector@VGPUInfo@@V?$allocator@VGPUInfo@@@std@@@std@@AAEPAVGPUInfo@@PAV3@00@Z 00435e10 f i systeminfo.obj
 0001:00034e90       ?_Umove@?$vector@VMotherboardInfo@@V?$allocator@VMotherboardInfo@@@std@@@std@@AAEPAVMotherboardInfo@@PAV3@00@Z 00435e90 f i systeminfo.obj
 0001:00034f10       ?_Umove@?$vector@VOSInfo@@V?$allocator@VOSInfo@@@std@@@std@@AAEPAVOSInfo@@PAV3@00@Z 00435f10 f i systeminfo.obj
 0001:00034f90       ?_Umove@?$vector@VRAMInfo@@V?$allocator@VRAMInfo@@@std@@@std@@AAEPAVRAMInfo@@PAV3@00@Z 00435f90 f i systeminfo.obj
 0001:00035010       ?_Umove_if_noexcept1@?$vector@V?$basic_string@DU?$char_traits@D@std@@V?$allocator@D@2@@std@@V?$allocator@V?$basic_string@DU?$char_traits@D@std@@V?$allocator@D@2@@std@@@2@@std@@AAEXPAV?$basic_string@DU?$char_traits@D@std@@V?$allocator@D@2@@2@00U?$integral_constant@_N$00@2@@Z 00436010 f i systeminfo.obj
 0001:00035090       ?_Umove_if_noexcept1@?$vector@VCPUInfo@@V?$allocator@VCPUInfo@@@std@@@std@@AAEXPAVCPUInfo@@00U?$integral_constant@_N$00@2@@Z 00436090 f i systeminfo.obj
 0001:00035110       ?_Umove_if_noexcept1@?$vector@VGPUInfo@@V?$allocator@VGPUInfo@@@std@@@std@@AAEXPAVGPUInfo@@00U?$integral_constant@_N$00@2@@Z 00436110 f i systeminfo.obj
 0001:00035190       ?_Umove_if_noexcept1@?$vector@VMotherboardInfo@@V?$allocator@VMotherboardInfo@@@std@@@std@@AAEXPAVMotherboardInfo@@00U?$integral_constant@_N$00@2@@Z 00436190 f i systeminfo.obj
 0001:00035210       ?_Umove_if_noexcept1@?$vector@VOSInfo@@V?$allocator@VOSInfo@@@std@@@std@@AAEXPAVOSInfo@@00U?$integral_constant@_N$00@2@@Z 00436210 f i systeminfo.obj
 0001:00035290       ?_Umove_if_noexcept1@?$vector@VRAMInfo@@V?$allocator@VRAMInfo@@@std@@@std@@AAEXPAVRAMInfo@@00U?$integral_constant@_N$00@2@@Z 00436290 f i systeminfo.obj
 0001:00035310       ?_Umove_if_noexcept@?$vector@V?$basic_string@DU?$char_traits@D@std@@V?$allocator@D@2@@std@@V?$allocator@V?$basic_string@DU?$char_traits@D@std@@V?$allocator@D@2@@std@@@2@@std@@AAEXPAV?$basic_string@DU?$char_traits@D@std@@V?$allocator@D@2@@2@00@Z 00436310 f i systeminfo.obj
 0001:00035390       ?_Umove_if_noexcept@?$vector@VCPUInfo@@V?$allocator@VCPUInfo@@@std@@@std@@AAEXPAVCPUInfo@@00@Z 00436390 f i systeminfo.obj
 0001:00035410       ?_Umove_if_noexcept@?$vector@VGPUInfo@@V?$allocator@VGPUInfo@@@std@@@std@@AAEXPAVGPUInfo@@00@Z 00436410 f i systeminfo.obj
 0001:00035490       ?_Umove_if_noexcept@?$vector@VMotherboardInfo@@V?$allocator@VMotherboardInfo@@@std@@@std@@AAEXPAVMotherboardInfo@@00@Z 00436490 f i systeminfo.obj
 0001:00035510       ?_Umove_if_noexcept@?$vector@VOSInfo@@V?$allocator@VOSInfo@@@std@@@std@@AAEXPAVOSInfo@@00@Z 00436510 f i systeminfo.obj
 0001:00035590       ?_Umove_if_noexcept@?$vector@VRAMInfo@@V?$allocator@VRAMInfo@@@std@@@std@@AAEXPAVRAMInfo@@00@Z 00436590 f i systeminfo.obj
 0001:00035610       ?_Unlock@?$basic_filebuf@DU?$char_traits@D@std@@@std@@UAEXXZ 00436610 f i systeminfo.obj
 0001:00035690       ?_Verify_offset@?$_Vector_const_iterator@V?$_Vector_val@U?$_Simple_types@V?$basic_string@DU?$char_traits@D@std@@V?$allocator@D@2@@std@@@std@@@std@@@std@@QBEXH@Z 00436690 f i systeminfo.obj
 0001:000358b0       ?_Xlength@?$vector@V?$basic_string@DU?$char_traits@D@std@@V?$allocator@D@2@@std@@V?$allocator@V?$basic_string@DU?$char_traits@D@std@@V?$allocator@D@2@@std@@@2@@std@@CAXXZ 004368b0 f i systeminfo.obj
 0001:00035910       ?_Xlength@?$vector@VCPUInfo@@V?$allocator@VCPUInfo@@@std@@@std@@CAXXZ 00436910 f i systeminfo.obj
 0001:00035970       ?_Xlength@?$vector@VGPUInfo@@V?$allocator@VGPUInfo@@@std@@@std@@CAXXZ 00436970 f i systeminfo.obj
 0001:000359d0       ?_Xlength@?$vector@VMotherboardInfo@@V?$allocator@VMotherboardInfo@@@std@@@std@@CAXXZ 004369d0 f i systeminfo.obj
 0001:00035a30       ?_Xlength@?$vector@VOSInfo@@V?$allocator@VOSInfo@@@std@@@std@@CAXXZ 00436a30 f i systeminfo.obj
 0001:00035a90       ?_Xlength@?$vector@VRAMInfo@@V?$allocator@VRAMInfo@@@std@@@std@@CAXXZ 00436a90 f i systeminfo.obj
 0001:00035af0       ?__autoclassinit2@?$_Uninitialized_backout_al@V?$allocator@V?$basic_string@DU?$char_traits@D@std@@V?$allocator@D@2@@std@@@std@@@std@@QAEXI@Z 00436af0 f i systeminfo.obj
 0001:00035b50       ?__autoclassinit2@?$_Uninitialized_backout_al@V?$allocator@VCPUInfo@@@std@@@std@@QAEXI@Z 00436b50 f i systeminfo.obj
 0001:00035bb0       ?__autoclassinit2@?$_Uninitialized_backout_al@V?$allocator@VGPUInfo@@@std@@@std@@QAEXI@Z 00436bb0 f i systeminfo.obj
 0001:00035c10       ?__autoclassinit2@?$_Uninitialized_backout_al@V?$allocator@VMotherboardInfo@@@std@@@std@@QAEXI@Z 00436c10 f i systeminfo.obj
 0001:00035c70       ?__autoclassinit2@?$_Uninitialized_backout_al@V?$allocator@VOSInfo@@@std@@@std@@QAEXI@Z 00436c70 f i systeminfo.obj
 0001:00035cd0       ?__autoclassinit2@?$_Uninitialized_backout_al@V?$allocator@VRAMInfo@@@std@@@std@@QAEXI@Z 00436cd0 f i systeminfo.obj
 0001:00035d30       ?__autoclassinit2@?$_Vector_const_iterator@V?$_Vector_val@U?$_Simple_types@V?$basic_string@DU?$char_traits@D@std@@V?$allocator@D@2@@std@@@std@@@std@@@std@@QAEXI@Z 00436d30 f i systeminfo.obj
 0001:00035d90       ?__autoclassinit2@?$_Vector_iterator@V?$_Vector_val@U?$_Simple_types@V?$basic_string@DU?$char_traits@D@std@@V?$allocator@D@2@@std@@@std@@@std@@@std@@QAEXI@Z 00436d90 f i systeminfo.obj
 0001:00035df0       ?__autoclassinit2@?$basic_stringstream@DU?$char_traits@D@std@@V?$allocator@D@2@@std@@QAEXI@Z 00436df0 f i systeminfo.obj
 0001:00035e50       ?__autoclassinit2@?$unique_ptr@V_Facet_base@std@@U?$default_delete@V_Facet_base@std@@@2@@std@@QAEXI@Z 00436e50 f i systeminfo.obj
 0001:00035eb0       ?__autoclassinit2@?$vector@V?$basic_string@DU?$char_traits@D@std@@V?$allocator@D@2@@std@@V?$allocator@V?$basic_string@DU?$char_traits@D@std@@V?$allocator@D@2@@std@@@2@@std@@QAEXI@Z 00436eb0 f i systeminfo.obj
 0001:00035f10       ?__autoclassinit2@SystemCommand@@QAEXI@Z 00436f10 f i systeminfo.obj
 0001:00035f70       ?adapterRAM@GPUInfo@@QBE?AV?$basic_string@DU?$char_traits@D@std@@V?$allocator@D@2@@std@@XZ 00436f70 f   systeminfo.obj
 0001:00036000       ?addFormattedThing@SystemCommand@@AAEXAAV?$vector@V?$basic_string@DU?$char_traits@D@std@@V?$allocator@D@2@@std@@V?$allocator@V?$basic_string@DU?$char_traits@D@std@@V?$allocator@D@2@@std@@@2@@std@@ABV?$basic_string@DU?$char_traits@D@std@@V?$allocator@D@2@@3@ABV?$function@$$A6A?AV?$basic_string@DU?$char_traits@D@std@@V?$allocator@D@2@@std@@ABV12@@Z@3@@Z 00437000 f i systeminfo.obj
 0001:000360f0       ?allocate@?$allocator@V?$basic_string@DU?$char_traits@D@std@@V?$allocator@D@2@@std@@@std@@QAEPAV?$basic_string@DU?$char_traits@D@std@@V?$allocator@D@2@@2@I@Z 004370f0 f i systeminfo.obj
 0001:00036160       ?allocate@?$allocator@VCPUInfo@@@std@@QAEPAVCPUInfo@@I@Z 00437160 f i systeminfo.obj
 0001:000361d0       ?allocate@?$allocator@VGPUInfo@@@std@@QAEPAVGPUInfo@@I@Z 004371d0 f i systeminfo.obj
 0001:00036240       ?allocate@?$allocator@VMotherboardInfo@@@std@@QAEPAVMotherboardInfo@@I@Z 00437240 f i systeminfo.obj
 0001:000362b0       ?allocate@?$allocator@VOSInfo@@@std@@QAEPAVOSInfo@@I@Z 004372b0 f i systeminfo.obj
 0001:00036320       ?allocate@?$allocator@VRAMInfo@@@std@@QAEPAVRAMInfo@@I@Z 00437320 f i systeminfo.obj
 0001:00036390       ?append@?$basic_string@DU?$char_traits@D@std@@V?$allocator@D@2@@std@@QAEAAV12@ABV12@@Z 00437390 f i systeminfo.obj
 0001:00036410       ?appendToCommand@SystemCommand@@QAEXABV?$basic_string@DU?$char_traits@D@std@@V?$allocator@D@2@@std@@@Z 00437410 f   systeminfo.obj
 0001:00036480       ?architecture@CPUInfo@@QBE?AV?$basic_string@DU?$char_traits@D@std@@V?$allocator@D@2@@std@@XZ 00437480 f   systeminfo.obj
 0001:00036510       ?architecture@OSInfo@@QBE?AV?$basic_string@DU?$char_traits@D@std@@V?$allocator@D@2@@std@@XZ 00437510 f   systeminfo.obj
 0001:000365a0       ?begin@?$initializer_list@V?$basic_string@DU?$char_traits@D@std@@V?$allocator@D@2@@std@@@std@@QBEPBV?$basic_string@DU?$char_traits@D@std@@V?$allocator@D@2@@2@XZ 004375a0 f i systeminfo.obj
 0001:00036600       ?begin@?$vector@V?$basic_string@DU?$char_traits@D@std@@V?$allocator@D@2@@std@@V?$allocator@V?$basic_string@DU?$char_traits@D@std@@V?$allocator@D@2@@std@@@2@@std@@QAE?AV?$_Vector_iterator@V?$_Vector_val@U?$_Simple_types@V?$basic_string@DU?$char_traits@D@std@@V?$allocator@D@2@@std@@@std@@@std@@@2@XZ 00437600 f i systeminfo.obj
 0001:00036690       ?begin@?$vector@V?$basic_string@DU?$char_traits@D@std@@V?$allocator@D@2@@std@@V?$allocator@V?$basic_string@DU?$char_traits@D@std@@V?$allocator@D@2@@std@@@2@@std@@QBE?AV?$_Vector_const_iterator@V?$_Vector_val@U?$_Simple_types@V?$basic_string@DU?$char_traits@D@std@@V?$allocator@D@2@@std@@@std@@@std@@@2@XZ 00437690 f i systeminfo.obj
 0001:00036720       ?bootDevice@OSInfo@@QBE?AV?$basic_string@DU?$char_traits@D@std@@V?$allocator@D@2@@std@@XZ 00437720 f   systeminfo.obj
 0001:000367b0       ?buildNumber@OSInfo@@QBE?AV?$basic_string@DU?$char_traits@D@std@@V?$allocator@D@2@@std@@XZ 004377b0 f   systeminfo.obj
 0001:00036840       ?capacity@?$vector@V?$basic_string@DU?$char_traits@D@std@@V?$allocator@D@2@@std@@V?$allocator@V?$basic_string@DU?$char_traits@D@std@@V?$allocator@D@2@@std@@@2@@std@@QBEIXZ 00437840 f i systeminfo.obj
 0001:000368c0       ?capacity@?$vector@VCPUInfo@@V?$allocator@VCPUInfo@@@std@@@std@@QBEIXZ 004378c0 f i systeminfo.obj
 0001:00036940       ?capacity@?$vector@VGPUInfo@@V?$allocator@VGPUInfo@@@std@@@std@@QBEIXZ 00437940 f i systeminfo.obj
 0001:000369c0       ?capacity@?$vector@VMotherboardInfo@@V?$allocator@VMotherboardInfo@@@std@@@std@@QBEIXZ 004379c0 f i systeminfo.obj
 0001:00036a40       ?capacity@?$vector@VOSInfo@@V?$allocator@VOSInfo@@@std@@@std@@QBEIXZ 00437a40 f i systeminfo.obj
 0001:00036ac0       ?capacity@?$vector@VRAMInfo@@V?$allocator@VRAMInfo@@@std@@@std@@QBEIXZ 00437ac0 f i systeminfo.obj
 0001:00036b40       ?capacity@RAMInfo@@QBE?AV?$basic_string@DU?$char_traits@D@std@@V?$allocator@D@2@@std@@XZ 00437b40 f   systeminfo.obj
 0001:00036bd0       ?caption@GPUInfo@@QBE?AV?$basic_string@DU?$char_traits@D@std@@V?$allocator@D@2@@std@@XZ 00437bd0 f   systeminfo.obj
 0001:00036c60       ?caption@OSInfo@@QBE?AV?$basic_string@DU?$char_traits@D@std@@V?$allocator@D@2@@std@@XZ 00437c60 f   systeminfo.obj
 0001:00036cf0       ?chipset@MotherboardInfo@@QBE?AV?$basic_string@DU?$char_traits@D@std@@V?$allocator@D@2@@std@@XZ 00437cf0 f   systeminfo.obj
 0001:00036d80       ?clear@?$vector@V?$basic_string@DU?$char_traits@D@std@@V?$allocator@D@2@@std@@V?$allocator@V?$basic_string@DU?$char_traits@D@std@@V?$allocator@D@2@@std@@@2@@std@@QAEXXZ 00437d80 f i systeminfo.obj
 0001:00036e60       ?clockSpeed@RAMInfo@@QBE?AV?$basic_string@DU?$char_traits@D@std@@V?$allocator@D@2@@std@@XZ 00437e60 f   systeminfo.obj
 0001:00036ef0       ?close@?$basic_filebuf@DU?$char_traits@D@std@@@std@@QAEPAV12@XZ 00437ef0 f i systeminfo.obj
 0001:00036fc0       ?command@SystemCommand@@QAE?AV?$basic_string@DU?$char_traits@D@std@@V?$allocator@D@2@@std@@XZ 00437fc0 f   systeminfo.obj
 0001:00037050       ?cpuInfoVector@CPUInfoDelegate@@QBE?AV?$vector@VCPUInfo@@V?$allocator@VCPUInfo@@@std@@@std@@XZ 00438050 f   systeminfo.obj
 0001:000370e0       ?cpuNumber@CPUInfo@@QBEHXZ 004380e0 f   systeminfo.obj
 0001:00037140       ?currentClockSpeed@CPUInfo@@QBE?AV?$basic_string@DU?$char_traits@D@std@@V?$allocator@D@2@@std@@XZ 00438140 f   systeminfo.obj
 0001:000376a0       ?currentDateTime@OSInfo@@QBE?AV?$basic_string@DU?$char_traits@D@std@@V?$allocator@D@2@@std@@XZ 004386a0 f   systeminfo.obj
 0001:00037ba0       ?currentTemperature@CPUInfo@@QBE?AV?$basic_string@DU?$char_traits@D@std@@V?$allocator@D@2@@std@@XZ 00438ba0 f   systeminfo.obj
 0001:00038160       ?currentUser@OSInfo@@QBE?AV?$basic_string@DU?$char_traits@D@std@@V?$allocator@D@2@@std@@XZ 00439160 f   systeminfo.obj
 0001:000381f0       ?data@?$basic_string@DU?$char_traits@D@std@@V?$allocator@D@2@@std@@QBEPBDXZ 004391f0 f i systeminfo.obj
 0001:00038250       ?deallocate@?$allocator@V?$basic_string@DU?$char_traits@D@std@@V?$allocator@D@2@@std@@@std@@QAEXQAV?$basic_string@DU?$char_traits@D@std@@V?$allocator@D@2@@2@I@Z 00439250 f i systeminfo.obj
 0001:000382c0       ?determineChipset@MotherboardInfo@@AAEXXZ 004392c0 f   systeminfo.obj
 0001:00038690       ?determineNumberOfCPUInfoItems@CPUInfoDelegate@@AAEXABV?$vector@V?$basic_string@DU?$char_traits@D@std@@V?$allocator@D@2@@std@@V?$allocator@V?$basic_string@DU?$char_traits@D@std@@V?$allocator@D@2@@std@@@2@@std@@@Z 00439690 f   systeminfo.obj
 0001:00038810       ?determineNumberOfGPUInfoItems@GPUInfoDelegate@@AAEXABV?$vector@V?$basic_string@DU?$char_traits@D@std@@V?$allocator@D@2@@std@@V?$allocator@V?$basic_string@DU?$char_traits@D@std@@V?$allocator@D@2@@std@@@2@@std@@@Z 00439810 f   systeminfo.obj
 0001:00038990       ?determineNumberOfMotherboardInfoItems@MotherboardInfoDelegate@@AAEXABV?$vector@V?$basic_string@DU?$char_traits@D@std@@V?$allocator@D@2@@std@@V?$allocator@V?$basic_string@DU?$char_traits@D@std@@V?$allocator@D@2@@std@@@2@@std@@@Z 00439990 f   systeminfo.obj
 0001:00038b10       ?determineNumberOfOSInfoItems@OSInfoDelegate@@AAEXABV?$vector@V?$basic_string@DU?$char_traits@D@std@@V?$allocator@D@2@@std@@V?$allocator@V?$basic_string@DU?$char_traits@D@std@@V?$allocator@D@2@@std@@@2@@std@@@Z 00439b10 f   systeminfo.obj
 0001:00038c90       ?determineNumberOfRAMInfoItems@RAMInfoDelegate@@AAEXABV?$vector@V?$basic_string@DU?$char_traits@D@std@@V?$allocator@D@2@@std@@V?$allocator@V?$basic_string@DU?$char_traits@D@std@@V?$allocator@D@2@@std@@@2@@std@@@Z 00439c90 f   systeminfo.obj
 0001:00038e10       ?driverVersion@GPUInfo@@QBE?AV?$basic_string@DU?$char_traits@D@std@@V?$allocator@D@2@@std@@XZ 00439e10 f   systeminfo.obj
 0001:00038ea0       ?empty@?$vector@V?$basic_string@DU?$char_traits@D@std@@V?$allocator@D@2@@std@@V?$allocator@V?$basic_string@DU?$char_traits@D@std@@V?$allocator@D@2@@std@@@2@@std@@QBE_NXZ 00439ea0 f i systeminfo.obj
 0001:00038f30       ?end@?$initializer_list@V?$basic_string@DU?$char_traits@D@std@@V?$allocator@D@2@@std@@@std@@QBEPBV?$basic_string@DU?$char_traits@D@std@@V?$allocator@D@2@@2@XZ 00439f30 f i systeminfo.obj
 0001:00038f90       ?end@?$vector@V?$basic_string@DU?$char_traits@D@std@@V?$allocator@D@2@@std@@V?$allocator@V?$basic_string@DU?$char_traits@D@std@@V?$allocator@D@2@@std@@@2@@std@@QAE?AV?$_Vector_iterator@V?$_Vector_val@U?$_Simple_types@V?$basic_string@DU?$char_traits@D@std@@V?$allocator@D@2@@std@@@std@@@std@@@2@XZ 00439f90 f i systeminfo.obj
 0001:00039020       ?end@?$vector@V?$basic_string@DU?$char_traits@D@std@@V?$allocator@D@2@@std@@V?$allocator@V?$basic_string@DU?$char_traits@D@std@@V?$allocator@D@2@@std@@@2@@std@@QBE?AV?$_Vector_const_iterator@V?$_Vector_val@U?$_Simple_types@V?$basic_string@DU?$char_traits@D@std@@V?$allocator@D@2@@std@@@std@@@std@@@2@XZ 0043a020 f i systeminfo.obj
 0001:000390b0       ?eq@?$_Narrow_char_traits@DH@std@@SA_NABD0@Z 0043a0b0 f i systeminfo.obj
 0001:00039140       ?erase@?$basic_string@DU?$char_traits@D@std@@V?$allocator@D@2@@std@@QAEAAV12@I@Z 0043a140 f i systeminfo.obj
 0001:000391c0       ?erase@?$basic_string@DU?$char_traits@D@std@@V?$allocator@D@2@@std@@QAEAAV12@II@Z 0043a1c0 f i systeminfo.obj
 0001:00039240       ?execute@SystemCommand@@QAEXXZ 0043a240 f   systeminfo.obj
 0001:000392b0       ?executeAndWaitForOutputAsString@SystemCommand@@QAE?AV?$basic_string@DU?$char_traits@D@std@@V?$allocator@D@2@@std@@XZ 0043a2b0 f   systeminfo.obj
 0001:00039350       ?executeAndWaitForOutputAsVector@SystemCommand@@QAE?AV?$vector@V?$basic_string@DU?$char_traits@D@std@@V?$allocator@D@2@@std@@V?$allocator@V?$basic_string@DU?$char_traits@D@std@@V?$allocator@D@2@@std@@@2@@std@@XZ 0043a350 f   systeminfo.obj
 0001:00039400       ?executeWithoutPipe@SystemCommand@@QAEXXZ 0043a400 f   systeminfo.obj
 0001:00039470       ?find@?$_Narrow_char_traits@DH@std@@SAPBDQBDIABD@Z 0043a470 f i systeminfo.obj
 0001:000394e0       ?find@?$basic_string@DU?$char_traits@D@std@@V?$allocator@D@2@@std@@QBEIABV12@I@Z 0043a4e0 f i systeminfo.obj
 0001:00039570       ?formFactor@RAMInfo@@QBE?AV?$basic_string@DU?$char_traits@D@std@@V?$allocator@D@2@@std@@XZ 0043a570 f   systeminfo.obj
 0001:00039600       ?freePagingFileSpace@OSInfo@@QBE?AV?$basic_string@DU?$char_traits@D@std@@V?$allocator@D@2@@std@@XZ 0043a600 f   systeminfo.obj
 0001:00039e40       ?freePhysicalMemory@OSInfo@@QBE?AV?$basic_string@DU?$char_traits@D@std@@V?$allocator@D@2@@std@@XZ 0043ae40 f   systeminfo.obj
 0001:0003a680       ?freeVirtualMemory@OSInfo@@QBE?AV?$basic_string@DU?$char_traits@D@std@@V?$allocator@D@2@@std@@XZ 0043b680 f   systeminfo.obj
 0001:0003aeb0       ?front@?$basic_string@DU?$char_traits@D@std@@V?$allocator@D@2@@std@@QAEAADXZ 0043beb0 f i systeminfo.obj
 0001:0003afa0       ?getArchitecture@CPUInfo@@ABE?AV?$basic_string@DU?$char_traits@D@std@@V?$allocator@D@2@@std@@AAV23@@Z 0043bfa0 f   systeminfo.obj
 0001:0003b190       ?getFormFactor@RAMInfo@@ABE?AV?$basic_string@DU?$char_traits@D@std@@V?$allocator@D@2@@std@@ABV23@@Z 0043c190 f   systeminfo.obj
 0001:0003b7c0       ?getMemoryType@RAMInfo@@ABE?AV?$basic_string@DU?$char_traits@D@std@@V?$allocator@D@2@@std@@ABV23@@Z 0043c7c0 f   systeminfo.obj
 0001:0003be60       ?getVideoArchitecture@GPUInfo@@ABE?AV?$basic_string@DU?$char_traits@D@std@@V?$allocator@D@2@@std@@ABV23@@Z 0043ce60 f   systeminfo.obj
 0001:0003c360       ?getVideoMemoryType@GPUInfo@@ABE?AV?$basic_string@DU?$char_traits@D@std@@V?$allocator@D@2@@std@@ABV23@@Z 0043d360 f   systeminfo.obj
 0001:0003c780       ?gpuInfoVector@GPUInfoDelegate@@QBE?AV?$vector@VGPUInfo@@V?$allocator@VGPUInfo@@@std@@@std@@XZ 0043d780 f   systeminfo.obj
 0001:0003c810       ?gpuNumber@GPUInfo@@QBEHXZ 0043d810 f   systeminfo.obj
 0001:0003c870       ?hasError@SystemCommand@@QAE_NXZ 0043d870 f   systeminfo.obj
 0001:0003c8d0       ?imbue@?$basic_filebuf@DU?$char_traits@D@std@@@std@@MAEXABVlocale@2@@Z 0043d8d0 f i systeminfo.obj
 0001:0003c940       ?insert@?$basic_string@DU?$char_traits@D@std@@V?$allocator@D@2@@std@@QAEAAV12@IABV12@@Z 0043d940 f i systeminfo.obj
 0001:0003c9c0       ?insert@?$basic_string@DU?$char_traits@D@std@@V?$allocator@D@2@@std@@QAEAAV12@IQBDI@Z 0043d9c0 f i systeminfo.obj
 0001:0003cb50       ?insertIntoCommand@SystemCommand@@QAEXHABV?$basic_string@DU?$char_traits@D@std@@V?$allocator@D@2@@std@@@Z 0043db50 f   systeminfo.obj
 0001:0003cbe0       ?insertIntoCommand@SystemCommand@@QAEXHD@Z 0043dbe0 f   systeminfo.obj
 0001:0003cd00       ?installDate@OSInfo@@QBE?AV?$basic_string@DU?$char_traits@D@std@@V?$allocator@D@2@@std@@XZ 0043dd00 f   systeminfo.obj
 0001:0003cd90       ?kelvinToCelcius@CPUInfo@@ABEHH@Z 0043dd90 f   systeminfo.obj
 0001:0003cdf0       ?lastBootUpTime@OSInfo@@QBE?AV?$basic_string@DU?$char_traits@D@std@@V?$allocator@D@2@@std@@XZ 0043ddf0 f   systeminfo.obj
 0001:0003ce80       ?length@?$basic_string@DU?$char_traits@D@std@@V?$allocator@D@2@@std@@QBEIXZ 0043de80 f i systeminfo.obj
 0001:0003cee0       ?manufacturer@CPUInfo@@QBE?AV?$basic_string@DU?$char_traits@D@std@@V?$allocator@D@2@@std@@XZ 0043dee0 f   systeminfo.obj
 0001:0003cf70       ?manufacturer@GPUInfo@@QBE?AV?$basic_string@DU?$char_traits@D@std@@V?$allocator@D@2@@std@@XZ 0043df70 f   systeminfo.obj
 0001:0003d000       ?manufacturer@MotherboardInfo@@QBE?AV?$basic_string@DU?$char_traits@D@std@@V?$allocator@D@2@@std@@XZ 0043e000 f   systeminfo.obj
 0001:0003d090       ?manufacturer@OSInfo@@QBE?AV?$basic_string@DU?$char_traits@D@std@@V?$allocator@D@2@@std@@XZ 0043e090 f   systeminfo.obj
 0001:0003d120       ?manufacturer@RAMInfo@@QBE?AV?$basic_string@DU?$char_traits@D@std@@V?$allocator@D@2@@std@@XZ 0043e120 f   systeminfo.obj
 0001:0003d1b0       ?maxOutput@SystemCommand@@QAEHXZ 0043e1b0 f   systeminfo.obj
 0001:0003d210       ?max_size@?$_Default_allocator_traits@V?$allocator@V?$basic_string@DU?$char_traits@D@std@@V?$allocator@D@2@@std@@@std@@@std@@SAIABV?$allocator@V?$basic_string@DU?$char_traits@D@std@@V?$allocator@D@2@@std@@@2@@Z 0043e210 f i systeminfo.obj
 0001:0003d270       ?max_size@?$_Default_allocator_traits@V?$allocator@VCPUInfo@@@std@@@std@@SAIABV?$allocator@VCPUInfo@@@2@@Z 0043e270 f i systeminfo.obj
 0001:0003d2d0       ?max_size@?$_Default_allocator_traits@V?$allocator@VGPUInfo@@@std@@@std@@SAIABV?$allocator@VGPUInfo@@@2@@Z 0043e2d0 f i systeminfo.obj
 0001:0003d330       ?max_size@?$_Default_allocator_traits@V?$allocator@VMotherboardInfo@@@std@@@std@@SAIABV?$allocator@VMotherboardInfo@@@2@@Z 0043e330 f i systeminfo.obj
 0001:0003d390       ?max_size@?$_Default_allocator_traits@V?$allocator@VOSInfo@@@std@@@std@@SAIABV?$allocator@VOSInfo@@@2@@Z 0043e390 f i systeminfo.obj
 0001:0003d3f0       ?max_size@?$_Default_allocator_traits@V?$allocator@VRAMInfo@@@std@@@std@@SAIABV?$allocator@VRAMInfo@@@2@@Z 0043e3f0 f i systeminfo.obj
 0001:0003d450       ?max_size@?$vector@V?$basic_string@DU?$char_traits@D@std@@V?$allocator@D@2@@std@@V?$allocator@V?$basic_string@DU?$char_traits@D@std@@V?$allocator@D@2@@std@@@2@@std@@QBEIXZ 0043e450 f i systeminfo.obj
 0001:0003d4f0       ?max_size@?$vector@VCPUInfo@@V?$allocator@VCPUInfo@@@std@@@std@@QBEIXZ 0043e4f0 f i systeminfo.obj
 0001:0003d590       ?max_size@?$vector@VGPUInfo@@V?$allocator@VGPUInfo@@@std@@@std@@QBEIXZ 0043e590 f i systeminfo.obj
 0001:0003d630       ?max_size@?$vector@VMotherboardInfo@@V?$allocator@VMotherboardInfo@@@std@@@std@@QBEIXZ 0043e630 f i systeminfo.obj
 0001:0003d6d0       ?max_size@?$vector@VOSInfo@@V?$allocator@VOSInfo@@@std@@@std@@QBEIXZ 0043e6d0 f i systeminfo.obj
 0001:0003d770       ?max_size@?$vector@VRAMInfo@@V?$allocator@VRAMInfo@@@std@@@std@@QBEIXZ 0043e770 f i systeminfo.obj
 0001:0003d810       ?memoryType@RAMInfo@@QBE?AV?$basic_string@DU?$char_traits@D@std@@V?$allocator@D@2@@std@@XZ 0043e810 f   systeminfo.obj
 0001:0003d8a0       ?motherboardInfoVector@MotherboardInfoDelegate@@QBE?AV?$vector@VMotherboardInfo@@V?$allocator@VMotherboardInfo@@@std@@@std@@XZ 0043e8a0 f   systeminfo.obj
 0001:0003d930       ?motherboardNumber@MotherboardInfo@@QBEHXZ 0043e930 f   systeminfo.obj
 0001:0003d990       ?name@CPUInfo@@QBE?AV?$basic_string@DU?$char_traits@D@std@@V?$allocator@D@2@@std@@XZ 0043e990 f   systeminfo.obj
 0001:0003da20       ?name@GPUInfo@@QBE?AV?$basic_string@DU?$char_traits@D@std@@V?$allocator@D@2@@std@@XZ 0043ea20 f   systeminfo.obj
 0001:0003dab0       ?name@MotherboardInfo@@QBE?AV?$basic_string@DU?$char_traits@D@std@@V?$allocator@D@2@@std@@XZ 0043eab0 f   systeminfo.obj
 0001:0003db40       ?name@OSInfo@@QBE?AV?$basic_string@DU?$char_traits@D@std@@V?$allocator@D@2@@std@@XZ 0043eb40 f   systeminfo.obj
 0001:0003dbd0       ?name@RAMInfo@@QBE?AV?$basic_string@DU?$char_traits@D@std@@V?$allocator@D@2@@std@@XZ 0043ebd0 f   systeminfo.obj
 0001:0003dc60       ?not_eof@?$_Narrow_char_traits@DH@std@@SAHABH@Z 0043ec60 f i systeminfo.obj
 0001:0003dd10       ?numberOfCPUInfoItems@CPUInfoDelegate@@QBEHXZ 0043ed10 f   systeminfo.obj
 0001:0003dd70       ?numberOfCores@CPUInfo@@QBE?AV?$basic_string@DU?$char_traits@D@std@@V?$allocator@D@2@@std@@XZ 0043ed70 f   systeminfo.obj
 0001:0003de00       ?numberOfGPUInfoItems@GPUInfoDelegate@@QBEHXZ 0043ee00 f   systeminfo.obj
 0001:0003de60       ?numberOfMotherboardInfoItems@MotherboardInfoDelegate@@QBEHXZ 0043ee60 f   systeminfo.obj
 0001:0003dec0       ?numberOfOSInfoItems@OSInfoDelegate@@QBEHXZ 0043eec0 f   systeminfo.obj
 0001:0003df20       ?numberOfRAMInfoItems@RAMInfoDelegate@@QBEHXZ 0043ef20 f   systeminfo.obj
 0001:0003df80       ?osInfoVector@OSInfoDelegate@@QBE?AV?$vector@VOSInfo@@V?$allocator@VOSInfo@@@std@@@std@@XZ 0043ef80 f   systeminfo.obj
 0001:0003e010       ?osNumber@OSInfo@@QBEHXZ   0043f010 f   systeminfo.obj
 0001:0003e070       ?outputAsString@SystemCommand@@QAE?AV?$basic_string@DU?$char_traits@D@std@@V?$allocator@D@2@@std@@XZ 0043f070 f   systeminfo.obj
 0001:0003e2c0       ?outputAsVector@SystemCommand@@QAE?AV?$vector@V?$basic_string@DU?$char_traits@D@std@@V?$allocator@D@2@@std@@V?$allocator@V?$basic_string@DU?$char_traits@D@std@@V?$allocator@D@2@@std@@@2@@std@@XZ 0043f2c0 f   systeminfo.obj
 0001:0003e350       ?overflow@?$basic_filebuf@DU?$char_traits@D@std@@@std@@MAEHH@Z 0043f350 f i systeminfo.obj
 0001:0003e6d0       ?overflow@?$basic_stringbuf@DU?$char_traits@D@std@@V?$allocator@D@2@@std@@MAEHH@Z 0043f6d0 f i systeminfo.obj
 0001:0003ea00       ?partNumber@RAMInfo@@QBE?AV?$basic_string@DU?$char_traits@D@std@@V?$allocator@D@2@@std@@XZ 0043fa00 f   systeminfo.obj
 0001:0003ea90       ?pbackfail@?$basic_filebuf@DU?$char_traits@D@std@@@std@@MAEHH@Z 0043fa90 f i systeminfo.obj
 0001:0003ecf0       ?pbackfail@?$basic_stringbuf@DU?$char_traits@D@std@@V?$allocator@D@2@@std@@MAEHH@Z 0043fcf0 f i systeminfo.obj
 0001:0003ee90       ?pcloseHandler@SystemCommand@@AAEHPAU_iobuf@@@Z 0043fe90 f   systeminfo.obj
 0001:0003ef10       ?pointer_to@?$pointer_traits@PAD@std@@SAPADAAD@Z 0043ff10 f i systeminfo.obj
 0001:0003ef70       ?popenHandler@SystemCommand@@AAEPAU_iobuf@@ABV?$basic_string@DU?$char_traits@D@std@@V?$allocator@D@2@@std@@0@Z 0043ff70 f   systeminfo.obj
 0001:0003eff0       ?printCommand@SystemCommand@@QAEXXZ 0043fff0 f   systeminfo.obj
 0001:0003f080       ?push_back@?$basic_string@DU?$char_traits@D@std@@V?$allocator@D@2@@std@@QAEXD@Z 00440080 f i systeminfo.obj
 0001:0003f180       ?push_back@?$vector@V?$basic_string@DU?$char_traits@D@std@@V?$allocator@D@2@@std@@V?$allocator@V?$basic_string@DU?$char_traits@D@std@@V?$allocator@D@2@@std@@@2@@std@@QAEX$$QAV?$basic_string@DU?$char_traits@D@std@@V?$allocator@D@2@@2@@Z 00440180 f i systeminfo.obj
 0001:0003f1f0       ?push_back@?$vector@V?$basic_string@DU?$char_traits@D@std@@V?$allocator@D@2@@std@@V?$allocator@V?$basic_string@DU?$char_traits@D@std@@V?$allocator@D@2@@std@@@2@@std@@QAEXABV?$basic_string@DU?$char_traits@D@std@@V?$allocator@D@2@@2@@Z 004401f0 f i systeminfo.obj
 0001:0003f260       ?ramInfoVector@RAMInfoDelegate@@QBE?AV?$vector@VRAMInfo@@V?$allocator@VRAMInfo@@@std@@@std@@XZ 00440260 f   systeminfo.obj
 0001:0003f2f0       ?ramNumber@RAMInfo@@QBEHXZ 004402f0 f   systeminfo.obj
 0001:0003f350       ?refreshRate@GPUInfo@@QBE?AV?$basic_string@DU?$char_traits@D@std@@V?$allocator@D@2@@std@@XZ 00440350 f   systeminfo.obj
 0001:0003f3e0       ?release@?$unique_ptr@V_Facet_base@std@@U?$default_delete@V_Facet_base@std@@@2@@std@@QAEPAV_Facet_base@2@XZ 004403e0 f i systeminfo.obj
 0001:0003f460       ?returnValue@SystemCommand@@QAEHXZ 00440460 f   systeminfo.obj
 0001:0003f4c0       ?seekoff@?$basic_filebuf@DU?$char_traits@D@std@@@std@@MAE?AV?$fpos@U_Mbstatet@@@2@_JHH@Z 004404c0 f i systeminfo.obj
 0001:0003f690       ?seekoff@?$basic_stringbuf@DU?$char_traits@D@std@@V?$allocator@D@2@@std@@MAE?AV?$fpos@U_Mbstatet@@@2@_JHH@Z 00440690 f i systeminfo.obj
 0001:0003f9b0       ?seekpos@?$basic_filebuf@DU?$char_traits@D@std@@@std@@MAE?AV?$fpos@U_Mbstatet@@@2@V32@H@Z 004409b0 f i systeminfo.obj
 0001:0003fb20       ?seekpos@?$basic_stringbuf@DU?$char_traits@D@std@@V?$allocator@D@2@@std@@MAE?AV?$fpos@U_Mbstatet@@@2@V32@H@Z 00440b20 f i systeminfo.obj
 0001:0003fd40       ?select_on_container_copy_construction@?$_Default_allocator_traits@V?$allocator@D@std@@@std@@SA?AV?$allocator@D@2@ABV32@@Z 00440d40 f i systeminfo.obj
 0001:0003fd90       ?select_on_container_copy_construction@?$_Default_allocator_traits@V?$allocator@V?$basic_string@DU?$char_traits@D@std@@V?$allocator@D@2@@std@@@std@@@std@@SA?AV?$allocator@V?$basic_string@DU?$char_traits@D@std@@V?$allocator@D@2@@std@@@2@ABV32@@Z 00440d90 f i systeminfo.obj
 0001:0003fde0       ?select_on_container_copy_construction@?$_Default_allocator_traits@V?$allocator@VCPUInfo@@@std@@@std@@SA?AV?$allocator@VCPUInfo@@@2@ABV32@@Z 00440de0 f i systeminfo.obj
 0001:0003fe30       ?select_on_container_copy_construction@?$_Default_allocator_traits@V?$allocator@VGPUInfo@@@std@@@std@@SA?AV?$allocator@VGPUInfo@@@2@ABV32@@Z 00440e30 f i systeminfo.obj
 0001:0003fe80       ?select_on_container_copy_construction@?$_Default_allocator_traits@V?$allocator@VMotherboardInfo@@@std@@@std@@SA?AV?$allocator@VMotherboardInfo@@@2@ABV32@@Z 00440e80 f i systeminfo.obj
 0001:0003fed0       ?select_on_container_copy_construction@?$_Default_allocator_traits@V?$allocator@VOSInfo@@@std@@@std@@SA?AV?$allocator@VOSInfo@@@2@ABV32@@Z 00440ed0 f i systeminfo.obj
 0001:0003ff20       ?select_on_container_copy_construction@?$_Default_allocator_traits@V?$allocator@VRAMInfo@@@std@@@std@@SA?AV?$allocator@VRAMInfo@@@2@ABV32@@Z 00440f20 f i systeminfo.obj
 0001:0003ff70       ?serialNumber@MotherboardInfo@@QBE?AV?$basic_string@DU?$char_traits@D@std@@V?$allocator@D@2@@std@@XZ 00440f70 f   systeminfo.obj
 0001:00040000       ?serialNumber@OSInfo@@QBE?AV?$basic_string@DU?$char_traits@D@std@@V?$allocator@D@2@@std@@XZ 00441000 f   systeminfo.obj
 0001:00040090       ?serialNumber@RAMInfo@@QBE?AV?$basic_string@DU?$char_traits@D@std@@V?$allocator@D@2@@std@@XZ 00441090 f   systeminfo.obj
 0001:00040120       ?setCommand@SystemCommand@@QAEXABV?$basic_string@DU?$char_traits@D@std@@V?$allocator@D@2@@std@@@Z 00441120 f   systeminfo.obj
 0001:000401c0       ?setMaxOutput@SystemCommand@@QAEXH@Z 004411c0 f   systeminfo.obj
 0001:00040220       ?setbuf@?$basic_filebuf@DU?$char_traits@D@std@@@std@@MAEPAV?$basic_streambuf@DU?$char_traits@D@std@@@2@PAD_J@Z 00441220 f i systeminfo.obj
 0001:00040300       ?sizeOfOutput@SystemCommand@@QAEHXZ 00441300 f   systeminfo.obj
 0001:00040360       ?state@?$fpos@U_Mbstatet@@@std@@QBE?AU_Mbstatet@@XZ 00441360 f i systeminfo.obj
 0001:000403d0       ?stoll@std@@YA_JABV?$basic_string@DU?$char_traits@D@std@@V?$allocator@D@2@@1@PAIH@Z 004413d0 f i systeminfo.obj
 0001:00040520       ?stripAllFromString@SystemCommand@@AAE?AV?$basic_string@DU?$char_traits@D@std@@V?$allocator@D@2@@std@@ABV23@0@Z 00441520 f   systeminfo.obj
 0001:00040710       ?stripFromString@SystemCommand@@AAE?AV?$basic_string@DU?$char_traits@D@std@@V?$allocator@D@2@@std@@ABV23@0@Z 00441710 f   systeminfo.obj
 0001:00040a60       ?stripPipeFromCommand@SystemCommand@@AAEXXZ 00441a60 f   systeminfo.obj
 0001:00040bf0       ?stripShellControlCharactersFromCommand@SystemCommand@@AAEXXZ 00441bf0 f   systeminfo.obj
 0001:00040c50       ?sync@?$basic_filebuf@DU?$char_traits@D@std@@@std@@MAEHXZ 00441c50 f i systeminfo.obj
 0001:00040d40       ?systemCommandLaunch@SystemCommand@@AAEX_N@Z 00441d40 f   systeminfo.obj
 0001:00041130       ?to_char_type@?$_Narrow_char_traits@DH@std@@SADABH@Z 00442130 f i systeminfo.obj
 0001:00041190       ?to_int_type@?$_Narrow_char_traits@DH@std@@SAHABD@Z 00442190 f i systeminfo.obj
 0001:000411f0       ?totalSwapSize@OSInfo@@QBE?AV?$basic_string@DU?$char_traits@D@std@@V?$allocator@D@2@@std@@XZ 004421f0 f   systeminfo.obj
 0001:00041280       ?totalVirtualMemory@OSInfo@@QBE?AV?$basic_string@DU?$char_traits@D@std@@V?$allocator@D@2@@std@@XZ 00442280 f   systeminfo.obj
 0001:00041310       ?totalVisibleMemory@OSInfo@@QBE?AV?$basic_string@DU?$char_traits@D@std@@V?$allocator@D@2@@std@@XZ 00442310 f   systeminfo.obj
 0001:000413a0       ?uflow@?$basic_filebuf@DU?$char_traits@D@std@@@std@@MAEHXZ 004423a0 f i systeminfo.obj
 0001:00041820       ?underflow@?$basic_filebuf@DU?$char_traits@D@std@@@std@@MAEHXZ 00442820 f i systeminfo.obj
 0001:000419c0       ?underflow@?$basic_stringbuf@DU?$char_traits@D@std@@V?$allocator@D@2@@std@@MAEHXZ 004429c0 f i systeminfo.obj
 0001:00041bb0       ?usedPagingFileSpace@OSInfo@@QBE?AV?$basic_string@DU?$char_traits@D@std@@V?$allocator@D@2@@std@@XZ 00442bb0 f   systeminfo.obj
 0001:000423f0       ?verifyValidMaxOutput@SystemCommand@@AAEXXZ 004433f0 f   systeminfo.obj
 0001:00042470       ?version@MotherboardInfo@@QBE?AV?$basic_string@DU?$char_traits@D@std@@V?$allocator@D@2@@std@@XZ 00443470 f   systeminfo.obj
 0001:00042500       ?version@OSInfo@@QBE?AV?$basic_string@DU?$char_traits@D@std@@V?$allocator@D@2@@std@@XZ 00443500 f   systeminfo.obj
 0001:00042590       ?videoArchitecture@GPUInfo@@QBE?AV?$basic_string@DU?$char_traits@D@std@@V?$allocator@D@2@@std@@XZ 00443590 f   systeminfo.obj
 0001:00042620       ?videoMemoryType@GPUInfo@@QBE?AV?$basic_string@DU?$char_traits@D@std@@V?$allocator@D@2@@std@@XZ 00443620 f   systeminfo.obj
 0001:000426b0       ?videoModeDescription@GPUInfo@@QBE?AV?$basic_string@DU?$char_traits@D@std@@V?$allocator@D@2@@std@@XZ 004436b0 f   systeminfo.obj
 0001:00042740       ?videoProcessor@GPUInfo@@QBE?AV?$basic_string@DU?$char_traits@D@std@@V?$allocator@D@2@@std@@XZ 00443740 f   systeminfo.obj
 0001:000427d0       ?xsgetn@?$basic_filebuf@DU?$char_traits@D@std@@@std@@MAE_JPAD_J@Z 004437d0 f i systeminfo.obj
 0001:00042a90       ?xsputn@?$basic_filebuf@DU?$char_traits@D@std@@@std@@MAE_JPBD_J@Z 00443a90 f i systeminfo.obj
 0001:00042c71       _CloseHandle@4             00443c71 f   kernel32:KERNEL32.dll
 0001:00042c77       _GetCurrentProcess@0       00443c77 f   kernel32:KERNEL32.dll
 0001:00042c7d       _OpenProcess@12            00443c7d f   kernel32:KERNEL32.dll
 0001:00042c83       _ReadProcessMemory@20      00443c83 f   kernel32:KERNEL32.dll
 0001:00042c89       _AllocConsole@0            00443c89 f   kernel32:KERNEL32.dll
 0001:00042c8f       _K32EnumProcessModules@16  00443c8f f   kernel32:KERNEL32.dll
 0001:00042c95       _K32GetModuleFileNameExA@16 00443c95 f   kernel32:KERNEL32.dll
 0001:00042c9b       _GetMessageA@16            00443c9b f   user32:USER32.dll
 0001:00042ca1       _TranslateMessage@4        00443ca1 f   user32:USER32.dll
 0001:00042ca7       _DispatchMessageA@4        00443ca7 f   user32:USER32.dll
 0001:00042cad       _DefWindowProcA@16         00443cad f   user32:USER32.dll
 0001:00042cb3       _PostQuitMessage@4         00443cb3 f   user32:USER32.dll
 0001:00042cb9       _UnregisterClassA@8        00443cb9 f   user32:USER32.dll
 0001:00042cbf       _RegisterClassExA@4        00443cbf f   user32:USER32.dll
 0001:00042cc5       _CreateWindowExA@48        00443cc5 f   user32:USER32.dll
 0001:00042ccb       _DestroyWindow@4           00443ccb f   user32:USER32.dll
 0001:00042cd1       _ShowWindow@8              00443cd1 f   user32:USER32.dll
 0001:00042cd7       _SetLayeredWindowAttributes@16 00443cd7 f   user32:USER32.dll
 0001:00042cdd       _MoveWindow@24             00443cdd f   user32:USER32.dll
 0001:00042ce3       _UpdateWindow@4            00443ce3 f   user32:USER32.dll
 0001:00042ce9       _GetForegroundWindow@0     00443ce9 f   user32:USER32.dll
 0001:00042cef       _GetWindowRect@8           00443cef f   user32:USER32.dll
 0001:00042cf5       _FindWindowA@8             00443cf5 f   user32:USER32.dll
 0001:00042cfb       _GetWindowThreadProcessId@8 00443cfb f   user32:USER32.dll
 0001:00042d01       _CreateSolidBrush@4        00443d01 f   gdi32:GDI32.dll
 0001:00042d07       _OpenProcessToken@12       00443d07 f   advapi32:ADVAPI32.dll
 0001:00042d0d       _AdjustTokenPrivileges@24  00443d0d f   advapi32:ADVAPI32.dll
 0001:00042d13       _LookupPrivilegeValueA@12  00443d13 f   advapi32:ADVAPI32.dll
 0001:00042d19       ??0_Lockit@std@@QAE@H@Z    00443d19 f   msvcprtd:MSVCP140D.dll
 0001:00042d1f       ??1_Lockit@std@@QAE@XZ     00443d1f f   msvcprtd:MSVCP140D.dll
 0001:00042d25       ?uncaught_exception@std@@YA_NXZ 00443d25 f   msvcprtd:MSVCP140D.dll
 0001:00042d2b       ?_Xinvalid_argument@std@@YAXPBD@Z 00443d2b f   msvcprtd:MSVCP140D.dll
 0001:00042d31       ?_Xlength_error@std@@YAXPBD@Z 00443d31 f   msvcprtd:MSVCP140D.dll
 0001:00042d37       ?_Xout_of_range@std@@YAXPBD@Z 00443d37 f   msvcprtd:MSVCP140D.dll
 0001:00042d3d       ?good@ios_base@std@@QBE_NXZ 00443d3d f   msvcprtd:MSVCP140D.dll
 0001:00042d43       ?flags@ios_base@std@@QBEHXZ 00443d43 f   msvcprtd:MSVCP140D.dll
 0001:00042d49       ?width@ios_base@std@@QBE_JXZ 00443d49 f   msvcprtd:MSVCP140D.dll
 0001:00042d4f       ?width@ios_base@std@@QAE_J_J@Z 00443d4f f   msvcprtd:MSVCP140D.dll
 0001:00042d55       ?sputc@?$basic_streambuf@DU?$char_traits@D@std@@@std@@QAEHD@Z 00443d55 f   msvcprtd:MSVCP140D.dll
 0001:00042d5b       ?sputn@?$basic_streambuf@DU?$char_traits@D@std@@@std@@QAE_JPBD_J@Z 00443d5b f   msvcprtd:MSVCP140D.dll
 0001:00042d61       ?setstate@?$basic_ios@DU?$char_traits@D@std@@@std@@QAEXH_N@Z 00443d61 f   msvcprtd:MSVCP140D.dll
 0001:00042d67       ?tie@?$basic_ios@DU?$char_traits@D@std@@@std@@QBEPAV?$basic_ostream@DU?$char_traits@D@std@@@2@XZ 00443d67 f   msvcprtd:MSVCP140D.dll
 0001:00042d6d       ?rdbuf@?$basic_ios@DU?$char_traits@D@std@@@std@@QBEPAV?$basic_streambuf@DU?$char_traits@D@std@@@2@XZ 00443d6d f   msvcprtd:MSVCP140D.dll
 0001:00042d73       ?fill@?$basic_ios@DU?$char_traits@D@std@@@std@@QBEDXZ 00443d73 f   msvcprtd:MSVCP140D.dll
 0001:00042d79       ?widen@?$basic_ios@DU?$char_traits@D@std@@@std@@QBEDD@Z 00443d79 f   msvcprtd:MSVCP140D.dll
 0001:00042d7f       ?_Osfx@?$basic_ostream@DU?$char_traits@D@std@@@std@@QAEXXZ 00443d7f f   msvcprtd:MSVCP140D.dll
 0001:00042d85       ??6?$basic_ostream@DU?$char_traits@D@std@@@std@@QAEAAV01@P6AAAV01@AAV01@@Z@Z 00443d85 f   msvcprtd:MSVCP140D.dll
 0001:00042d8b       ??6?$basic_ostream@DU?$char_traits@D@std@@@std@@QAEAAV01@H@Z 00443d8b f   msvcprtd:MSVCP140D.dll
 0001:00042d91       ?put@?$basic_ostream@DU?$char_traits@D@std@@@std@@QAEAAV12@D@Z 00443d91 f   msvcprtd:MSVCP140D.dll
 0001:00042d97       ?flush@?$basic_ostream@DU?$char_traits@D@std@@@std@@QAEAAV12@XZ 00443d97 f   msvcprtd:MSVCP140D.dll
 0001:00042da0       ??0_Fac_node@std@@QAE@PAU01@PAV_Facet_base@1@@Z 00443da0 f i msvcprtd:locale0_implib.obj
 0001:00042dd0       ??1_Fac_node@std@@QAE@XZ   00443dd0 f i msvcprtd:locale0_implib.obj
 0001:00042e50       ??1_Fac_tidy_reg_t@std@@QAE@XZ 00443e50 f i msvcprtd:locale0_implib.obj
 0001:00042eb0       ??2_Fac_node@std@@SAPAXI@Z 00443eb0 f i msvcprtd:locale0_implib.obj
 0001:00042f10       ??3_Fac_node@std@@SAXPAX@Z 00443f10 f i msvcprtd:locale0_implib.obj
 0001:00042f30       ??_G_Fac_node@std@@QAEPAXI@Z 00443f30 f i msvcprtd:locale0_implib.obj
 0001:00042f90       ?_Facet_Register@std@@YAXPAV_Facet_base@1@@Z 00443f90 f   msvcprtd:locale0_implib.obj
 0001:00043040       ?__empty_global_delete@@YAXPAXIW4align_val_t@std@@@Z 00444040 f i msvcprtd:locale0_implib.obj
 0001:00043050       ?__empty_global_delete@@YAXPAXW4align_val_t@std@@@Z 00444050 f i msvcprtd:locale0_implib.obj
 0001:00043055       ??Bid@locale@std@@QAEIXZ   00444055 f   msvcprtd:MSVCP140D.dll
 0001:0004305b       ?_Getgloballocale@locale@std@@CAPAV_Locimp@12@XZ 0044405b f   msvcprtd:MSVCP140D.dll
 0001:00043061       ?always_noconv@codecvt_base@std@@QBE_NXZ 00444061 f   msvcprtd:MSVCP140D.dll
 0001:00043067       ?is@?$ctype@D@std@@QBE_NFD@Z 00444067 f   msvcprtd:MSVCP140D.dll
 0001:0004306d       ?_Getcat@?$ctype@D@std@@SAIPAPBVfacet@locale@2@PBV42@@Z 0044406d f   msvcprtd:MSVCP140D.dll
 0001:00043073       ?in@?$codecvt@DDU_Mbstatet@@@std@@QBEHAAU_Mbstatet@@PBD1AAPBDPAD3AAPAD@Z 00444073 f   msvcprtd:MSVCP140D.dll
 0001:00043079       ?out@?$codecvt@DDU_Mbstatet@@@std@@QBEHAAU_Mbstatet@@PBD1AAPBDPAD3AAPAD@Z 00444079 f   msvcprtd:MSVCP140D.dll
 0001:0004307f       ?unshift@?$codecvt@DDU_Mbstatet@@@std@@QBEHAAU_Mbstatet@@PAD1AAPAD@Z 0044407f f   msvcprtd:MSVCP140D.dll
 0001:00043085       ?_Getcat@?$codecvt@DDU_Mbstatet@@@std@@SAIPAPBVfacet@locale@2@PBV42@@Z 00444085 f   msvcprtd:MSVCP140D.dll
 0001:0004308b       ?getloc@ios_base@std@@QBE?AVlocale@2@XZ 0044408b f   msvcprtd:MSVCP140D.dll
 0001:00043091       ??0?$basic_streambuf@DU?$char_traits@D@std@@@std@@IAE@XZ 00444091 f   msvcprtd:MSVCP140D.dll
 0001:00043097       ??1?$basic_streambuf@DU?$char_traits@D@std@@@std@@UAE@XZ 00444097 f   msvcprtd:MSVCP140D.dll
 0001:0004309d       ?sgetc@?$basic_streambuf@DU?$char_traits@D@std@@@std@@QAEHXZ 0044409d f   msvcprtd:MSVCP140D.dll
 0001:000430a3       ?snextc@?$basic_streambuf@DU?$char_traits@D@std@@@std@@QAEHXZ 004440a3 f   msvcprtd:MSVCP140D.dll
 0001:000430a9       ?eback@?$basic_streambuf@DU?$char_traits@D@std@@@std@@IBEPADXZ 004440a9 f   msvcprtd:MSVCP140D.dll
 0001:000430af       ?gptr@?$basic_streambuf@DU?$char_traits@D@std@@@std@@IBEPADXZ 004440af f   msvcprtd:MSVCP140D.dll
 0001:000430b5       ?pptr@?$basic_streambuf@DU?$char_traits@D@std@@@std@@IBEPADXZ 004440b5 f   msvcprtd:MSVCP140D.dll
 0001:000430bb       ?egptr@?$basic_streambuf@DU?$char_traits@D@std@@@std@@IBEPADXZ 004440bb f   msvcprtd:MSVCP140D.dll
 0001:000430c1       ?gbump@?$basic_streambuf@DU?$char_traits@D@std@@@std@@IAEXH@Z 004440c1 f   msvcprtd:MSVCP140D.dll
 0001:000430c7       ?setg@?$basic_streambuf@DU?$char_traits@D@std@@@std@@IAEXPAD00@Z 004440c7 f   msvcprtd:MSVCP140D.dll
 0001:000430cd       ?epptr@?$basic_streambuf@DU?$char_traits@D@std@@@std@@IBEPADXZ 004440cd f   msvcprtd:MSVCP140D.dll
 0001:000430d3       ?_Gndec@?$basic_streambuf@DU?$char_traits@D@std@@@std@@IAEPADXZ 004440d3 f   msvcprtd:MSVCP140D.dll
 0001:000430d9       ?_Gninc@?$basic_streambuf@DU?$char_traits@D@std@@@std@@IAEPADXZ 004440d9 f   msvcprtd:MSVCP140D.dll
 0001:000430df       ?_Gnavail@?$basic_streambuf@DU?$char_traits@D@std@@@std@@IBE_JXZ 004440df f   msvcprtd:MSVCP140D.dll
 0001:000430e5       ?pbump@?$basic_streambuf@DU?$char_traits@D@std@@@std@@IAEXH@Z 004440e5 f   msvcprtd:MSVCP140D.dll
 0001:000430eb       ?setp@?$basic_streambuf@DU?$char_traits@D@std@@@std@@IAEXPAD0@Z 004440eb f   msvcprtd:MSVCP140D.dll
 0001:000430f1       ?setp@?$basic_streambuf@DU?$char_traits@D@std@@@std@@IAEXPAD00@Z 004440f1 f   msvcprtd:MSVCP140D.dll
 0001:000430f7       ?_Pninc@?$basic_streambuf@DU?$char_traits@D@std@@@std@@IAEPADXZ 004440f7 f   msvcprtd:MSVCP140D.dll
 0001:000430fd       ?_Pnavail@?$basic_streambuf@DU?$char_traits@D@std@@@std@@IBE_JXZ 004440fd f   msvcprtd:MSVCP140D.dll
 0001:00043103       ?_Init@?$basic_streambuf@DU?$char_traits@D@std@@@std@@IAEXXZ 00444103 f   msvcprtd:MSVCP140D.dll
 0001:00043109       ?_Init@?$basic_streambuf@DU?$char_traits@D@std@@@std@@IAEXPAPAD0PAH001@Z 00444109 f   msvcprtd:MSVCP140D.dll
 0001:0004310f       ?xsgetn@?$basic_streambuf@DU?$char_traits@D@std@@@std@@MAE_JPAD_J@Z 0044410f f   msvcprtd:MSVCP140D.dll
 0001:00043115       ?xsputn@?$basic_streambuf@DU?$char_traits@D@std@@@std@@MAE_JPBD_J@Z 00444115 f   msvcprtd:MSVCP140D.dll
 0001:0004311b       ??1?$basic_ios@DU?$char_traits@D@std@@@std@@UAE@XZ 0044411b f   msvcprtd:MSVCP140D.dll
 0001:00043121       ??0?$basic_ios@DU?$char_traits@D@std@@@std@@IAE@XZ 00444121 f   msvcprtd:MSVCP140D.dll
 0001:00043127       ??6?$basic_ostream@DU?$char_traits@D@std@@@std@@QAEAAV01@_J@Z 00444127 f   msvcprtd:MSVCP140D.dll
 0001:0004312d       ??0?$basic_istream@DU?$char_traits@D@std@@@std@@QAE@PAV?$basic_streambuf@DU?$char_traits@D@std@@@1@_N@Z 0044412d f   msvcprtd:MSVCP140D.dll
 0001:00043133       ??1?$basic_istream@DU?$char_traits@D@std@@@std@@UAE@XZ 00444133 f   msvcprtd:MSVCP140D.dll
 0001:00043139       ?_Ipfx@?$basic_istream@DU?$char_traits@D@std@@@std@@QAE_N_N@Z 00444139 f   msvcprtd:MSVCP140D.dll
 0001:0004313f       ??0?$basic_iostream@DU?$char_traits@D@std@@@std@@QAE@PAV?$basic_streambuf@DU?$char_traits@D@std@@@1@@Z 0044413f f   msvcprtd:MSVCP140D.dll
 0001:00043145       ??1?$basic_iostream@DU?$char_traits@D@std@@@std@@UAE@XZ 00444145 f   msvcprtd:MSVCP140D.dll
 0001:0004314b       ?_Xbad_function_call@std@@YAXXZ 0044414b f   msvcprtd:MSVCP140D.dll
 0001:00043151       ?_Lock@?$basic_streambuf@DU?$char_traits@D@std@@@std@@UAEXXZ 00444151 f   msvcprtd:MSVCP140D.dll
 0001:00043157       ?_Unlock@?$basic_streambuf@DU?$char_traits@D@std@@@std@@UAEXXZ 00444157 f   msvcprtd:MSVCP140D.dll
 0001:0004315d       ?imbue@?$basic_streambuf@DU?$char_traits@D@std@@@std@@MAEXABVlocale@2@@Z 0044415d f   msvcprtd:MSVCP140D.dll
 0001:00043163       ?setbuf@?$basic_streambuf@DU?$char_traits@D@std@@@std@@MAEPAV12@PAD_J@Z 00444163 f   msvcprtd:MSVCP140D.dll
 0001:00043169       ?showmanyc@?$basic_streambuf@DU?$char_traits@D@std@@@std@@MAE_JXZ 00444169 f   msvcprtd:MSVCP140D.dll
 0001:0004316f       ?sync@?$basic_streambuf@DU?$char_traits@D@std@@@std@@MAEHXZ 0044416f f   msvcprtd:MSVCP140D.dll
 0001:00043175       ?uflow@?$basic_streambuf@DU?$char_traits@D@std@@@std@@MAEHXZ 00444175 f   msvcprtd:MSVCP140D.dll
 0001:0004317b       ?_Xbad_alloc@std@@YAXXZ    0044417b f   msvcprtd:MSVCP140D.dll
 0001:00043181       _Direct3DCreate9@4         00444181 f   d3d9:d3d9.dll
 0001:00043187       _D3DXCreateLine@8          00444187 f   d3dx9:d3dx9_43.dll
 0001:00043190       @_RTC_AllocaHelper@12      00444190 f   MSVCRTD:stack.obj
 0001:000431d0       @_RTC_CheckStackVars2@12   004441d0 f   MSVCRTD:stack.obj
 0001:000432e0       @_RTC_CheckStackVars@8     004442e0 f   MSVCRTD:stack.obj
 0001:00043350       __RTC_CheckEsp             00444350 f   MSVCRTD:stack.obj
 0001:00043390       @__CheckForDebuggerJustMyCode@4 00444390 f   MSVCRTD:debugger_jmc.obj
 0001:000433e0       @__security_check_cookie@4 004443e0 f   MSVCRTD:secchk.obj
 0001:00043400       __CRT_RTC_INIT             00444400 f   MSVCRTD:init.obj
 0001:00043410       __CRT_RTC_INITW            00444410 f   MSVCRTD:init.obj
 0001:00043420       __RTC_InitBase             00444420 f   MSVCRTD:init.obj
 0001:00043460       __RTC_Shutdown             00444460 f   MSVCRTD:init.obj
 0001:00043480       __chkstk                   00444480 f   MSVCRTD:chkstk.obj
 0001:00043480       __alloca_probe             00444480 f   MSVCRTD:chkstk.obj
 0001:000434c0       ??2@YAPAXI@Z               004444c0 f   MSVCRTD:new_scalar.obj
 0001:00043520       ??3@YAXPAXI@Z              00444520 f   MSVCRTD:delete_scalar_size.obj
 0001:00043540       ??1type_info@@UAE@XZ       00444540 f   MSVCRTD:std_type_info_static.obj
 0001:00043560       ??_Etype_info@@UAEPAXI@Z   00444560 f i MSVCRTD:std_type_info_static.obj
 0001:00043560       ??_Gtype_info@@UAEPAXI@Z   00444560 f i MSVCRTD:std_type_info_static.obj
 0001:000435a0       ??_M@YGXPAXIHP6EX0@Z@Z     004445a0 f   MSVCRTD:ehvecdtr.obj
 0001:000435d0       ??_M@YGXPAXIIP6EX0@Z@Z     004445d0 f   MSVCRTD:ehvecdtr.obj
 0001:00043730       ?__ArrayUnwind@@YGXPAXIIP6EX0@Z@Z 00444730 f   MSVCRTD:ehvecdtr.obj
 0001:00043810       ?configure_argv@__scrt_narrow_argv_policy@@SAHXZ 00444810 f i MSVCRTD:utility.obj
 0001:000438e0       ?initialize_environment@__scrt_narrow_environment_policy@@SAHXZ 004448e0 f i MSVCRTD:utility.obj
 0001:00043980       _NtCurrentTeb              00444980 f i MSVCRTD:utility.obj
 0001:00043990       ___scrt_acquire_startup_lock 00444990 f   MSVCRTD:utility.obj
 0001:000439f0       ___scrt_dllmain_after_initialize_c 004449f0 f   MSVCRTD:utility.obj
 0001:00043a30       ___scrt_dllmain_before_initialize_c 00444a30 f   MSVCRTD:utility.obj
 0001:00043a60       ___scrt_dllmain_crt_thread_attach 00444a60 f   MSVCRTD:utility.obj
 0001:00043aa0       ___scrt_dllmain_crt_thread_detach 00444aa0 f   MSVCRTD:utility.obj
 0001:00043ac0       ___scrt_dllmain_exception_filter 00444ac0 f   MSVCRTD:utility.obj
 0001:00043b20       ___scrt_dllmain_uninitialize_c 00444b20 f   MSVCRTD:utility.obj
 0001:00043b60       ___scrt_dllmain_uninitialize_critical 00444b60 f   MSVCRTD:utility.obj
 0001:00043b80       ___scrt_initialize_crt     00444b80 f   MSVCRTD:utility.obj
 0001:00043be0       ___scrt_initialize_onexit_tables 00444be0 f   MSVCRTD:utility.obj
 0001:00043cf0       ___scrt_is_nonwritable_in_current_image 00444cf0 f   MSVCRTD:utility.obj
 0001:00043e70       ___scrt_release_startup_lock 00444e70 f   MSVCRTD:utility.obj
 0001:00043ea0       ___scrt_uninitialize_crt   00444ea0 f   MSVCRTD:utility.obj
 0001:00043ef0       __onexit                   00444ef0 f   MSVCRTD:utility.obj
 0001:00043f70       _at_quick_exit             00444f70 f   MSVCRTD:utility.obj
 0001:00043fc0       _atexit                    00444fc0 f   MSVCRTD:utility.obj
 0001:00044000       __alldiv                   00445000 f   MSVCRTD:lldiv.obj
 0001:000444f0       ?set_app_type@__scrt_winmain_policy@@SAXXZ 004454f0 f i MSVCRTD:exe_winmain.obj
 0001:00044510       ?set_commode@__scrt_file_policy@@SAXXZ 00445510 f i MSVCRTD:exe_winmain.obj
 0001:00044530       ?set_fmode@__scrt_file_policy@@SAXXZ 00445530 f i MSVCRTD:exe_winmain.obj
 0001:00044550       _WinMainCRTStartup         00445550 f   MSVCRTD:exe_winmain.obj
 0001:00044560       @_guard_check_icall_nop@4  00445560 f i MSVCRTD:guard_support.obj
 0001:00044570       _ReadNoFence               00445570 f i MSVCRTD:guard_support.obj
 0001:00044590       _ReadPointerNoFence        00445590 f i MSVCRTD:guard_support.obj
 0001:000445b0       ___castguard_check_failure_debugbreak 004455b0 f i MSVCRTD:guard_support.obj
 0001:000445d0       ___castguard_check_failure_fastfail 004455d0 f i MSVCRTD:guard_support.obj
 0001:00044600       ___castguard_check_failure_nop 00445600 f i MSVCRTD:guard_support.obj
 0001:00044610       ___castguard_check_failure_os_handled 00445610 f i MSVCRTD:guard_support.obj
 0001:000446b0       ___castguard_slow_path_check_debugbreak 004456b0 f i MSVCRTD:guard_support.obj
 0001:000446f0       ___castguard_slow_path_check_fastfail 004456f0 f i MSVCRTD:guard_support.obj
 0001:00044740       ___castguard_slow_path_check_nop 00445740 f i MSVCRTD:guard_support.obj
 0001:00044750       ___castguard_slow_path_check_os_handled 00445750 f i MSVCRTD:guard_support.obj
 0001:00044810       __guard_icall_checks_enforced 00445810 f i MSVCRTD:guard_support.obj
 0001:00044900       ?_RTC_AllocaFailure@@YAXPAXPAU_RTC_ALLOCA_NODE@@H@Z 00445900 f   MSVCRTD:error.obj
 0001:00044a20       ?_RTC_Failure@@YAXPAXH@Z   00445a20 f   MSVCRTD:error.obj
 0001:00044a90       ?_RTC_StackFailure@@YAXPAXPBD@Z 00445a90 f   MSVCRTD:error.obj
 0001:00044f40       __RTC_UninitUse            00445f40 f   MSVCRTD:error.obj
 0001:00045020       __vsprintf_s_l             00446020 f i MSVCRTD:error.obj
 0001:00045060       _sprintf_s                 00446060 f i MSVCRTD:error.obj
 0001:00045090       ___raise_securityfailure   00446090 f   MSVCRTD:gs_report.obj
 0001:000450d0       ___report_gsfailure        004460d0 f   MSVCRTD:gs_report.obj
 0001:00045220       ___report_rangecheckfailure 00446220 f   MSVCRTD:gs_report.obj
 0001:00045230       ___report_securityfailure  00446230 f   MSVCRTD:gs_report.obj
 0001:00045340       ___report_securityfailureEx 00446340 f   MSVCRTD:gs_report.obj
 0001:000454b0       ?_RTC_GetErrorFunc@@YAP6AHHPBDH00ZZPBX@Z 004464b0 f   MSVCRTD:userapi.obj
 0001:000454c0       ?_RTC_GetErrorFuncW@@YAP6AHHPB_WH00ZZPBX@Z 004464c0 f   MSVCRTD:userapi.obj
 0001:000454d0       __RTC_GetErrDesc           004464d0 f   MSVCRTD:userapi.obj
 0001:000454f0       __RTC_NumErrors            004464f0 f   MSVCRTD:userapi.obj
 0001:00045500       __RTC_SetErrorFunc         00446500 f   MSVCRTD:userapi.obj
 0001:00045530       __RTC_SetErrorFuncW        00446530 f   MSVCRTD:userapi.obj
 0001:00045560       __RTC_SetErrorType         00446560 f   MSVCRTD:userapi.obj
 0001:00045590       ??0bad_alloc@std@@QAE@XZ   00446590 f i MSVCRTD:throw_bad_alloc.obj
 0001:000455c0       ?__scrt_throw_std_bad_alloc@@YAXXZ 004465c0 f   MSVCRTD:throw_bad_alloc.obj
 0001:000455f0       ?__scrt_throw_std_bad_array_new_length@@YAXXZ 004465f0 f   MSVCRTD:throw_bad_alloc.obj
 0001:00045620       ??3@YAXPAX@Z               00446620 f   MSVCRTD:delete_scalar.obj
 0001:00045640       __except_handler4          00446640 f   MSVCRTD:chandler4gs.obj
 0001:00045690       ___isa_available_init      00446690 f   MSVCRTD:cpu_disp.obj
 0001:00045a90       __get_startup_argv_mode    00446a90 f   MSVCRTD:argv_mode.obj
 0001:00045aa0       ___scrt_is_ucrt_dll_in_use 00446aa0 f   MSVCRTD:ucrt_detection.obj
 0001:00045ad0       ___scrt_fastfail           00446ad0 f   MSVCRTD:utility_desktop.obj
 0001:00045c60       ___scrt_get_show_window_mode 00446c60 f   MSVCRTD:utility_desktop.obj
 0001:00045cb0       ___scrt_initialize_mta     00446cb0 f   MSVCRTD:utility_desktop.obj
 0001:00045cc0       ___scrt_initialize_winrt   00446cc0 f   MSVCRTD:utility_desktop.obj
 0001:00045cd0       ___scrt_is_managed_app     00446cd0 f   MSVCRTD:utility_desktop.obj
 0001:00045d80       ___scrt_set_unhandled_exception_filter 00446d80 f   MSVCRTD:utility_desktop.obj
 0001:00045da0       ___scrt_exe_initialize_mta 00446da0 f   MSVCRTD:utility_desktop.obj
 0001:00045da0       ___scrt_stub_for_initialize_mta 00446da0 f   MSVCRTD:utility_desktop.obj
 0001:00045db0       ___scrt_unhandled_exception_filter@4 00446db0 f   MSVCRTD:utility_desktop.obj
 0001:00045e50       __crt_debugger_hook        00446e50 f   MSVCRTD:utility_desktop.obj
 0001:00045f00       ___security_init_cookie    00446f00 f   MSVCRTD:gs_support.obj
 0001:00045fa0       __matherr                  00446fa0 f   MSVCRTD:matherr.obj
 0001:00045fb0       __get_startup_commit_mode  00446fb0 f   MSVCRTD:commit_mode.obj
 0001:00045fc0       __get_startup_file_mode    00446fc0 f   MSVCRTD:file_mode.obj
 0001:00045fd0       __get_startup_new_mode     00446fd0 f   MSVCRTD:new_mode.obj
 0001:00045fe0       __get_startup_thread_locale_mode 00446fe0 f   MSVCRTD:thread_locale.obj
 0001:00045ff0       ?__scrt_initialize_type_info@@YAXXZ 00446ff0 f   MSVCRTD:tncleanup.obj
 0001:00046010       ?__scrt_uninitialize_type_info@@YAXXZ 00447010 f   MSVCRTD:tncleanup.obj
 0001:00046030       __should_initialize_environment 00447030 f   MSVCRTD:env_mode.obj
 0001:00046040       __initialize_default_precision 00447040 f   MSVCRTD:default_precision.obj
 0001:00046070       __initialize_invalid_parameter_handler 00447070 f   MSVCRTD:invalid_parameter_handler.obj
 0001:00046080       __initialize_denormal_control 00447080 f   MSVCRTD:denormal_control.obj
 0001:00046090       ___local_stdio_scanf_options 00447090 f i MSVCRTD:default_local_stdio_options.obj
 0001:000460a0       ___scrt_initialize_default_local_stdio_options 004470a0 f   MSVCRTD:default_local_stdio_options.obj
 0001:000460f0       ___scrt_is_user_matherr_present 004470f0 f   MSVCRTD:matherr_detection.obj
 0001:00046120       ___scrt_get_dyn_tls_init_callback 00447120 f   MSVCRTD:dyn_tls_init.obj
 0001:00046130       ___scrt_get_dyn_tls_dtor_callback 00447130 f   MSVCRTD:dyn_tls_dtor.obj
 0001:00046140       __RTC_Initialize           00447140 f   MSVCRTD:initsect.obj
 0001:00046180       __RTC_Terminate            00447180 f   MSVCRTD:initsect.obj
 0001:00046750       ?_RTC_GetSrcLine@@YAHPAEPA_WKPAH1K@Z 00447750 f   MSVCRTD:pdblkup.obj
 0001:00046bb0       __except_handler4_noexcept 00447bb0 f   MSVCRTD:chandler4_noexcept.obj
 0001:00046c60       _curl_easy_cleanup         00447c60 f   libcurl:easy.obj
 0001:00046c80       _curl_easy_duphandle       00447c80 f   libcurl:easy.obj
 0001:00046ee0       _curl_easy_getinfo         00447ee0 f   libcurl:easy.obj
 0001:00046f00       _curl_easy_init            00447f00 f   libcurl:easy.obj
 0001:00046f50       _curl_easy_pause           00447f50 f   libcurl:easy.obj
 0001:000471e0       _curl_easy_perform         004481e0 f   libcurl:easy.obj
 0001:00047200       _curl_easy_recv            00448200 f   libcurl:easy.obj
 0001:000472a0       _curl_easy_reset           004482a0 f   libcurl:easy.obj
 0001:00047350       _curl_easy_send            00448350 f   libcurl:easy.obj
 0001:00047410       _curl_easy_upkeep          00448410 f   libcurl:easy.obj
 0001:00047450       _curl_global_cleanup       00448450 f   libcurl:easy.obj
 0001:00047490       _curl_global_init          00448490 f   libcurl:easy.obj
 0001:000474b0       _curl_global_init_mem      004484b0 f   libcurl:easy.obj
 0001:000479f0       _Curl_setblobopt           004489f0 f   libcurl:setopt.obj
 0001:00047ab0       _Curl_setstropt            00448ab0 f   libcurl:setopt.obj
 0001:00047b40       _Curl_vsetopt              00448b40 f   libcurl:setopt.obj
 0001:0004b2d0       _curl_easy_setopt          0044c2d0 f   libcurl:setopt.obj
 0001:0004b3e0       _Curl_slist_append_nodup   0044c3e0 f   libcurl:slist.obj
 0001:0004b430       _Curl_slist_duplicate      0044c430 f   libcurl:slist.obj
 0001:0004b480       _curl_slist_append         0044c480 f   libcurl:slist.obj
 0001:0004b4d0       _curl_slist_free_all       0044c4d0 f   libcurl:slist.obj
 0001:0004b550       _Curl_attach_connnection   0044c550 f   libcurl:multi.obj
 0001:0004b590       _Curl_detach_connnection   0044c590 f   libcurl:multi.obj
 0001:0004b5d0       _Curl_expire               0044c5d0 f   libcurl:multi.obj
 0001:0004b780       _Curl_expire_clear         0044c780 f   libcurl:multi.obj
 0001:0004b840       _Curl_expire_done          0044c840 f   libcurl:multi.obj
 0001:0004b850       _Curl_is_in_callback       0044c850 f   libcurl:multi.obj
 0001:0004b890       _Curl_multi_add_perform    0044c890 f   libcurl:multi.obj
 0001:0004b900       _Curl_multi_closed         0044c900 f   libcurl:multi.obj
 0001:0004b970       _Curl_multi_handle         0044c970 f   libcurl:multi.obj
 0001:0004bb10       _Curl_multi_max_concurrent_streams 0044cb10 f   libcurl:multi.obj
 0001:0004bb30       _Curl_multi_max_host_connections 0044cb30 f   libcurl:multi.obj
 0001:0004bb50       _Curl_multi_max_total_connections 0044cb50 f   libcurl:multi.obj
 0001:0004bb70       _Curl_multiplex_wanted     0044cb70 f   libcurl:multi.obj
 0001:0004bba0       _Curl_multiuse_state       0044cba0 f   libcurl:multi.obj
 0001:0004bbd0       _Curl_preconnect           0044cbd0 f   libcurl:multi.obj
 0001:0004bc20       _Curl_set_in_callback      0044cc20 f   libcurl:multi.obj
 0001:0004bc50       _Curl_update_timer         0044cc50 f   libcurl:multi.obj
 0001:0004bd80       _Curl_updatesocket         0044cd80 f   libcurl:multi.obj
 0001:0004bf20       _curl_multi_add_handle     0044cf20 f   libcurl:multi.obj
 0001:0004c110       _curl_multi_assign         0044d110 f   libcurl:multi.obj
 0001:0004c160       _curl_multi_cleanup        0044d160 f   libcurl:multi.obj
 0001:0004c2a0       _curl_multi_fdset          0044d2a0 f   libcurl:multi.obj
 0001:0004c470       _curl_multi_info_read      0044d470 f   libcurl:multi.obj
 0001:0004c4f0       _curl_multi_init           0044d4f0 f   libcurl:multi.obj
 0001:0004c510       _curl_multi_perform        0044d510 f   libcurl:multi.obj
 0001:0004c660       _curl_multi_poll           0044d660 f   libcurl:multi.obj
 0001:0004c690       _curl_multi_remove_handle  0044d690 f   libcurl:multi.obj
 0001:0004c8d0       _curl_multi_setopt         0044d8d0 f   libcurl:multi.obj
 0001:0004caa0       _curl_multi_socket         0044daa0 f   libcurl:multi.obj
 0001:0004cb00       _curl_multi_socket_action  0044db00 f   libcurl:multi.obj
 0001:0004cb60       _curl_multi_socket_all     0044db60 f   libcurl:multi.obj
 0001:0004cbb0       _curl_multi_timeout        0044dbb0 f   libcurl:multi.obj
 0001:0004cbf0       _curl_multi_wait           0044dbf0 f   libcurl:multi.obj
 0001:0004cc20       _curl_multi_wakeup         0044dc20 f   libcurl:multi.obj
 0001:0004f670       _Curl_cookie_add           00450670 f   libcurl:cookie.obj
 0001:000506f0       _Curl_cookie_cleanup       004516f0 f   libcurl:cookie.obj
 0001:00050750       _Curl_cookie_clearall      00451750 f   libcurl:cookie.obj
 0001:000507a0       _Curl_cookie_clearsess     004517a0 f   libcurl:cookie.obj
 0001:00050840       _Curl_cookie_freelist      00451840 f   libcurl:cookie.obj
 0001:00050870       _Curl_cookie_getlist       00451870 f   libcurl:cookie.obj
 0001:00050a30       _Curl_cookie_init          00451a30 f   libcurl:cookie.obj
 0001:00050c80       _Curl_cookie_list          00451c80 f   libcurl:cookie.obj
 0001:00050cc0       _Curl_cookie_loadfiles     00451cc0 f   libcurl:cookie.obj
 0001:00050d60       _Curl_flush_cookies        00451d60 f   libcurl:cookie.obj
 0001:00051b10       _sscanf                    00452b10 f i libcurl:cookie.obj
 0001:00051bf0       _Curl_resolver_cancel      00452bf0 f   libcurl:asyn-thread.obj
 0001:00051c10       _Curl_resolver_cleanup     00452c10 f   libcurl:asyn-thread.obj
 0001:00051c20       _Curl_resolver_duphandle   00452c20 f   libcurl:asyn-thread.obj
 0001:00051c40       _Curl_resolver_getaddrinfo 00452c40 f   libcurl:asyn-thread.obj
 0001:00051d30       _Curl_resolver_getsock     00452d30 f   libcurl:asyn-thread.obj
 0001:00051e20       _Curl_resolver_global_cleanup 00452e20 f   libcurl:asyn-thread.obj
 0001:00051e30       _Curl_resolver_global_init 00452e30 f   libcurl:asyn-thread.obj
 0001:00051e40       _Curl_resolver_init        00452e40 f   libcurl:asyn-thread.obj
 0001:00051e70       _Curl_resolver_is_resolved 00452e70 f   libcurl:asyn-thread.obj
 0001:00052010       _Curl_resolver_kill        00453010 f   libcurl:asyn-thread.obj
 0001:00052050       _Curl_resolver_wait_resolv 00453050 f   libcurl:asyn-thread.obj
 0001:00052070       _Curl_set_dns_interface    00453070 f   libcurl:asyn-thread.obj
 0001:00052080       _Curl_set_dns_local_ip4    00453080 f   libcurl:asyn-thread.obj
 0001:00052090       _Curl_set_dns_local_ip6    00453090 f   libcurl:asyn-thread.obj
 0001:000520a0       _Curl_set_dns_servers      004530a0 f   libcurl:asyn-thread.obj
 0001:00052620       _Curl_dyn_add              00453620 f   libcurl:dynbuf.obj
 0001:00052660       _Curl_dyn_addf             00453660 f   libcurl:dynbuf.obj
 0001:00052680       _Curl_dyn_addn             00453680 f   libcurl:dynbuf.obj
 0001:00052690       _Curl_dyn_free             00453690 f   libcurl:dynbuf.obj
 0001:000526d0       _Curl_dyn_init             004536d0 f   libcurl:dynbuf.obj
 0001:00052700       _Curl_dyn_len              00453700 f   libcurl:dynbuf.obj
 0001:00052710       _Curl_dyn_ptr              00453710 f   libcurl:dynbuf.obj
 0001:00052720       _Curl_dyn_reset            00453720 f   libcurl:dynbuf.obj
 0001:00052740       _Curl_dyn_uptr             00453740 f   libcurl:dynbuf.obj
 0001:00052750       _Curl_dyn_vaddf            00453750 f   libcurl:dynbuf.obj
 0001:00052ea0       _Curl_mime_add_header      00453ea0 f   libcurl:mime.obj
 0001:00052f20       _Curl_mime_cleanpart       00453f20 f   libcurl:mime.obj
 0001:00052fa0       _Curl_mime_contenttype     00453fa0 f   libcurl:mime.obj
 0001:00053030       _Curl_mime_duppart         00454030 f   libcurl:mime.obj
 0001:00053270       _Curl_mime_initpart        00454270 f   libcurl:mime.obj
 0001:000532c0       _Curl_mime_prepare_headers 004542c0 f   libcurl:mime.obj
 0001:00053690       _Curl_mime_read            00454690 f   libcurl:mime.obj
 0001:000536d0       _Curl_mime_rewind          004546d0 f   libcurl:mime.obj
 0001:000536f0       _Curl_mime_set_subparts    004546f0 f   libcurl:mime.obj
 0001:000537f0       _Curl_mime_size            004547f0 f   libcurl:mime.obj
 0001:000538a0       _Curl_mime_unpause         004548a0 f   libcurl:mime.obj
 0001:00053ad0       _curl_mime_addpart         00454ad0 f   libcurl:mime.obj
 0001:00053b40       _curl_mime_data            00454b40 f   libcurl:mime.obj
 0001:00053c10       _curl_mime_data_cb         00454c10 f   libcurl:mime.obj
 0001:00053c80       _curl_mime_encoder         00454c80 f   libcurl:mime.obj
 0001:00053cf0       _curl_mime_filedata        00454cf0 f   libcurl:mime.obj
 0001:00053e50       _curl_mime_filename        00454e50 f   libcurl:mime.obj
 0001:00053eb0       _curl_mime_free            00454eb0 f   libcurl:mime.obj
 0001:00053f10       _curl_mime_headers         00454f10 f   libcurl:mime.obj
 0001:00053f70       _curl_mime_init            00454f70 f   libcurl:mime.obj
 0001:00054010       _curl_mime_name            00455010 f   libcurl:mime.obj
 0001:00054070       _curl_mime_subparts        00455070 f   libcurl:mime.obj
 0001:00054090       _curl_mime_type            00455090 f   libcurl:mime.obj
 0001:00055010       _Curl_conncache_add_conn   00456010 f   libcurl:conncache.obj
 0001:00055140       _Curl_conncache_close_all_connections 00456140 f   libcurl:conncache.obj
 0001:00055220       _Curl_conncache_destroy    00456220 f   libcurl:conncache.obj
 0001:00055240       _Curl_conncache_extract_bundle 00456240 f   libcurl:conncache.obj
 0001:00055320       _Curl_conncache_extract_oldest 00456320 f   libcurl:conncache.obj
 0001:000554a0       _Curl_conncache_find_bundle 004564a0 f   libcurl:conncache.obj
 0001:00055560       _Curl_conncache_foreach    00456560 f   libcurl:conncache.obj
 0001:00055660       _Curl_conncache_init       00456660 f   libcurl:conncache.obj
 0001:000556e0       _Curl_conncache_remove_conn 004566e0 f   libcurl:conncache.obj
 0001:00055790       _Curl_conncache_return_conn 00456790 f   libcurl:conncache.obj
 0001:00055830       _Curl_conncache_size       00456830 f   libcurl:conncache.obj
 0001:00056560       _Curl_builtin_scheme       00457560 f   libcurl:url.obj
 0001:000565b0       _Curl_close                004575b0 f   libcurl:url.obj
 0001:00056a00       _Curl_connect              00457a00 f   libcurl:url.obj
 0001:00056ae0       _Curl_disconnect           00457ae0 f   libcurl:url.obj
 0001:00056b90       _Curl_free_idnconverted_hostname 00457b90 f   libcurl:url.obj
 0001:00056ba0       _Curl_free_request_state   00457ba0 f   libcurl:url.obj
 0001:00056c20       _Curl_freeset              00457c20 f   libcurl:url.obj
 0001:00056d20       _Curl_idnconvert_hostname  00457d20 f   libcurl:url.obj
 0001:00056d60       _Curl_init_do              00457d60 f   libcurl:url.obj
 0001:00056e60       _Curl_init_userdefined     00457e60 f   libcurl:url.obj
 0001:00057140       _Curl_is_ASCII_name        00458140 f   libcurl:url.obj
 0001:00057170       _Curl_open                 00458170 f   libcurl:url.obj
 0001:00057280       _Curl_parse_login_details  00458280 f   libcurl:url.obj
 0001:00057520       _Curl_setup_conn           00458520 f   libcurl:url.obj
 0001:00057660       _Curl_uc_to_curlcode       00458660 f   libcurl:url.obj
 0001:000576a0       _Curl_verboseconnect       004586a0 f   libcurl:url.obj
 0001:0005b250       _Curl_getinfo              0045c250 f   libcurl:getinfo.obj
 0001:0005b370       _Curl_initinfo             0045c370 f   libcurl:getinfo.obj
 0001:0005c220       _Curl_memdup               0045d220 f   libcurl:strdup.obj
 0001:0005c260       _Curl_saferealloc          0045d260 f   libcurl:strdup.obj
 0001:0005c2a0       _Curl_client_write         0045d2a0 f   libcurl:sendf.obj
 0001:0005c2e0       _Curl_debug                0045d2e0 f   libcurl:sendf.obj
 0001:0005c3a0       _Curl_failf                0045d3a0 f   libcurl:sendf.obj
 0001:0005c490       _Curl_infof                0045d490 f   libcurl:sendf.obj
 0001:0005c580       _Curl_read                 0045d580 f   libcurl:sendf.obj
 0001:0005c600       _Curl_read_plain           0045d600 f   libcurl:sendf.obj
 0001:0005c660       _Curl_recv_has_postponed_data 0045d660 f   libcurl:sendf.obj
 0001:0005c6a0       _Curl_recv_plain           0045d6a0 f   libcurl:sendf.obj
 0001:0005c7d0       _Curl_send_plain           0045d7d0 f   libcurl:sendf.obj
 0001:0005c900       _Curl_write                0045d900 f   libcurl:sendf.obj
 0001:0005c980       _Curl_write_plain          0045d980 f   libcurl:sendf.obj
 0001:0005ce20       _Curl_addr2string          0045de20 f   libcurl:connect.obj
 0001:0005cee0       _Curl_closesocket          0045dee0 f   libcurl:connect.obj
 0001:0005cf80       _Curl_conn_data_pending    0045df80 f   libcurl:connect.obj
 0001:0005cfe0       _Curl_connalive            0045dfe0 f   libcurl:connect.obj
 0001:0005d030       _Curl_conncontrol          0045e030 f   libcurl:connect.obj
 0001:0005d0a0       _Curl_connecthost          0045e0a0 f   libcurl:connect.obj
 0001:0005d260       _Curl_conninfo_local       0045e260 f   libcurl:connect.obj
 0001:0005d370       _Curl_conninfo_remote      0045e370 f   libcurl:connect.obj
 0001:0005d4b0       _Curl_getconnectinfo       0045e4b0 f   libcurl:connect.obj
 0001:0005d550       _Curl_is_connected         0045e550 f   libcurl:connect.obj
 0001:0005dbd0       _Curl_persistconninfo      0045ebd0 f   libcurl:connect.obj
 0001:0005dce0       _Curl_sndbufset            0045ece0 f   libcurl:connect.obj
 0001:0005dda0       _Curl_socket               0045eda0 f   libcurl:connect.obj
 0001:0005df10       _Curl_timeleft             0045ef10 f   libcurl:connect.obj
 0001:0005e0f0       _Curl_updateconninfo       0045f0f0 f   libcurl:connect.obj
 0001:0005f260       _curlx_read                00460260 f   libcurl:warnless.obj
 0001:0005f280       _curlx_sitosk              00460280 f   libcurl:warnless.obj
 0001:0005f290       _curlx_sitouz              00460290 f   libcurl:warnless.obj
 0001:0005f2a0       _curlx_sktosi              004602a0 f   libcurl:warnless.obj
 0001:0005f2b0       _curlx_sltosi              004602b0 f   libcurl:warnless.obj
 0001:0005f2c0       _curlx_sltoui              004602c0 f   libcurl:warnless.obj
 0001:0005f2d0       _curlx_sltous              004602d0 f   libcurl:warnless.obj
 0001:0005f2e0       _curlx_sotouz              004602e0 f   libcurl:warnless.obj
 0001:0005f2f0       _curlx_sztosi              004602f0 f   libcurl:warnless.obj
 0001:0005f300       _curlx_uitous              00460300 f   libcurl:warnless.obj
 0001:0005f310       _curlx_ultouc              00460310 f   libcurl:warnless.obj
 0001:0005f320       _curlx_ultous              00460320 f   libcurl:warnless.obj
 0001:0005f330       _curlx_uztosi              00460330 f   libcurl:warnless.obj
 0001:0005f340       _curlx_uztoso              00460340 f   libcurl:warnless.obj
 0001:0005f350       _curlx_uztosz              00460350 f   libcurl:warnless.obj
 0001:0005f360       _curlx_uztoui              00460360 f   libcurl:warnless.obj
 0001:0005f370       _curlx_uztoul              00460370 f   libcurl:warnless.obj
 0001:0005f380       _curlx_write               00460380 f   libcurl:warnless.obj
 0001:0005f3a0       _Curl_http_auth_cleanup_digest 004603a0 f   libcurl:http_digest.obj
 0001:0005f3d0       _Curl_input_digest         004603d0 f   libcurl:http_digest.obj
 0001:0005f460       _Curl_output_digest        00460460 f   libcurl:http_digest.obj
 0001:0005f620       _Curl_load_library         00460620 f   libcurl:system_win32.obj
 0001:0005f7c0       _Curl_win32_cleanup        004607c0 f   libcurl:system_win32.obj
 0001:0005f810       _Curl_win32_init           00460810 f   libcurl:system_win32.obj
 0001:0005f900       _Curl_alpnid2str           00460900 f   libcurl:altsvc.obj
 0001:0005f940       _Curl_altsvc_cleanup       00460940 f   libcurl:altsvc.obj
 0001:0005f9a0       _Curl_altsvc_ctrl          004609a0 f   libcurl:altsvc.obj
 0001:0005f9d0       _Curl_altsvc_init          004609d0 f   libcurl:altsvc.obj
 0001:0005fa10       _Curl_altsvc_load          00460a10 f   libcurl:altsvc.obj
 0001:0005fa20       _Curl_altsvc_lookup        00460a20 f   libcurl:altsvc.obj
 0001:0005fae0       _Curl_altsvc_parse         00460ae0 f   libcurl:altsvc.obj
 0001:00060100       _Curl_altsvc_save          00461100 f   libcurl:altsvc.obj
 0001:000608b0       _Curl_raw_toupper          004618b0 f   libcurl:strcase.obj
 0001:000608d0       _Curl_safe_strcasecompare  004618d0 f   libcurl:strcase.obj
 0001:00060910       _Curl_strcasecompare       00461910 f   libcurl:strcase.obj
 0001:00060990       _Curl_strncasecompare      00461990 f   libcurl:strcase.obj
 0001:00060a40       _Curl_strntolower          00461a40 f   libcurl:strcase.obj
 0001:00060a90       _Curl_strntoupper          00461a90 f   libcurl:strcase.obj
 0001:00060ae0       _curl_strequal             00461ae0 f   libcurl:strcase.obj
 0001:00060af0       _curl_strnequal            00461af0 f   libcurl:strcase.obj
 0001:00060c70       _Curl_all_content_encodings 00461c70 f   libcurl:content_encoding.obj
 0001:00060da0       _Curl_build_unencoding_stack 00461da0 f   libcurl:content_encoding.obj
 0001:00060ef0       _Curl_unencode_cleanup     00461ef0 f   libcurl:content_encoding.obj
 0001:00060f40       _Curl_unencode_write       00461f40 f   libcurl:content_encoding.obj
 0001:00061070       _Curl_share_lock           00462070 f   libcurl:share.obj
 0001:000610c0       _Curl_share_unlock         004620c0 f   libcurl:share.obj
 0001:00061110       _curl_share_cleanup        00462110 f   libcurl:share.obj
 0001:000611e0       _curl_share_init           004621e0 f   libcurl:share.obj
 0001:00061230       _curl_share_setopt         00462230 f   libcurl:share.obj
 0001:000613e0       _Curl_now                  004623e0 f   libcurl:timeval.obj
 0001:000614b0       _Curl_timediff             004624b0 f   libcurl:timeval.obj
 0001:00061560       _Curl_timediff_us          00462560 f   libcurl:timeval.obj
 0001:000615f0       _Curl_llist_count          004625f0 f   libcurl:llist.obj
 0001:00061600       _Curl_llist_destroy        00462600 f   libcurl:llist.obj
 0001:00061640       _Curl_llist_init           00462640 f   libcurl:llist.obj
 0001:00061670       _Curl_llist_insert_next    00462670 f   libcurl:llist.obj
 0001:00061700       _Curl_llist_remove         00462700 f   libcurl:llist.obj
 0001:000617a0       _Curl_hash_add             004627a0 f   libcurl:hash.obj
 0001:00061860       _Curl_hash_clean           00462860 f   libcurl:hash.obj
 0001:00061880       _Curl_hash_clean_with_criterium 00462880 f   libcurl:hash.obj
 0001:00061920       _Curl_hash_delete          00462920 f   libcurl:hash.obj
 0001:000619b0       _Curl_hash_destroy         004629b0 f   libcurl:hash.obj
 0001:00061a10       _Curl_hash_init            00462a10 f   libcurl:hash.obj
 0001:00061ac0       _Curl_hash_next_element    00462ac0 f   libcurl:hash.obj
 0001:00061b40       _Curl_hash_pick            00462b40 f   libcurl:hash.obj
 0001:00061bc0       _Curl_hash_start_iterate   00462bc0 f   libcurl:hash.obj
 0001:00061bf0       _Curl_hash_str             00462bf0 f   libcurl:hash.obj
 0001:00061c50       _Curl_str_key_compare      00462c50 f   libcurl:hash.obj
 0001:00061d70       _Curl_ipv6works            00462d70 f   libcurl:hostip6.obj
 0001:00061dd0       _Curl_ipvalid              00462dd0 f   libcurl:hostip6.obj
 0001:00061e00       _Curl_cache_addr           00462e00 f   libcurl:hostip.obj
 0001:00061f60       _Curl_fetch_addr           00462f60 f   libcurl:hostip.obj
 0001:00061fc0       _Curl_hostcache_clean      00462fc0 f   libcurl:hostip.obj
 0001:00062020       _Curl_hostcache_prune      00463020 f   libcurl:hostip.obj
 0001:000620a0       _Curl_loadhostpairs        004630a0 f   libcurl:hostip.obj
 0001:00062650       _Curl_mk_dnscache          00463650 f   libcurl:hostip.obj
 0001:00062680       _Curl_num_addresses        00463680 f   libcurl:hostip.obj
 0001:000626a0       _Curl_once_resolved        004636a0 f   libcurl:hostip.obj
 0001:00062710       _Curl_printable_address    00463710 f   libcurl:hostip.obj
 0001:00062770       _Curl_resolv               00463770 f   libcurl:hostip.obj
 0001:00062a30       _Curl_resolv_check         00463a30 f   libcurl:hostip.obj
 0001:00062a60       _Curl_resolv_getsock       00463a60 f   libcurl:hostip.obj
 0001:00062a90       _Curl_resolv_timeout       00463a90 f   libcurl:hostip.obj
 0001:00062ae0       _Curl_resolv_unlock        00463ae0 f   libcurl:hostip.obj
 0001:00062b40       _Curl_resolver_error       00463b40 f   libcurl:hostip.obj
 0001:00063050       _Curl_splay                00464050 f   libcurl:splay.obj
 0001:00063210       _Curl_splaygetbest         00464210 f   libcurl:splay.obj
 0001:000632f0       _Curl_splayinsert          004642f0 f   libcurl:splay.obj
 0001:00063430       _Curl_splayremove          00464430 f   libcurl:splay.obj
 0001:00063640       _Curl_http                 00464640 f   libcurl:http.obj
 0001:00063d80       _Curl_http_done            00464d80 f   libcurl:http.obj
 0001:00063ea0       _Curl_http_connect         00464ea0 f   libcurl:http.obj
 0001:00063f40       _Curl_add_custom_headers   00464f40 f   libcurl:http.obj
 0001:00064340       _Curl_add_timecondition    00465340 f   libcurl:http.obj
 0001:000644d0       _Curl_buffer_send          004654d0 f   libcurl:http.obj
 0001:000647f0       _Curl_checkProxyheaders    004657f0 f   libcurl:http.obj
 0001:00064890       _Curl_compareheader        00465890 f   libcurl:http.obj
 0001:00064990       _Curl_copy_header_value    00465990 f   libcurl:http.obj
 0001:00064a90       _Curl_http_auth_act        00465a90 f   libcurl:http.obj
 0001:00064d30       _Curl_http_body            00465d30 f   libcurl:http.obj
 0001:00064f90       _Curl_http_bodysend        00465f90 f   libcurl:http.obj
 0001:000658a0       _Curl_http_compile_trailers 004668a0 f   libcurl:http.obj
 0001:00065950       _Curl_http_cookies         00466950 f   libcurl:http.obj
 0001:00065b40       _Curl_http_firstwrite      00466b40 f   libcurl:http.obj
 0001:00065c90       _Curl_http_header          00466c90 f   libcurl:http.obj
 0001:00066510       _Curl_http_host            00467510 f   libcurl:http.obj
 0001:000667c0       _Curl_http_input_auth      004677c0 f   libcurl:http.obj
 0001:00066a00       _Curl_http_method          00467a00 f   libcurl:http.obj
 0001:00066ae0       _Curl_http_output_auth     00467ae0 f   libcurl:http.obj
 0001:00066c80       _Curl_http_range           00467c80 f   libcurl:http.obj
 0001:00066e10       _Curl_http_readwrite_headers 00467e10 f   libcurl:http.obj
 0001:000678d0       _Curl_http_resume          004688d0 f   libcurl:http.obj
 0001:00067b30       _Curl_http_statusline      00468b30 f   libcurl:http.obj
 0001:00067ca0       _Curl_http_target          00468ca0 f   libcurl:http.obj
 0001:00067f00       _Curl_http_useragent       00468f00 f   libcurl:http.obj
 0001:00068ba0       _Curl_wildcard_dtor        00469ba0 f   libcurl:wildcard.obj
 0001:00068c20       _Curl_wildcard_init        00469c20 f   libcurl:wildcard.obj
 0001:00068c70       _Curl_socketpair           00469c70 f   libcurl:socketpair.obj
 0001:00068ed0       _Curl_checkheaders         00469ed0 f   libcurl:transfer.obj
 0001:00068f40       _Curl_done_sending         00469f40 f   libcurl:transfer.obj
 0001:00068f80       _Curl_fillreadbuffer       00469f80 f   libcurl:transfer.obj
 0001:00069420       _Curl_follow               0046a420 f   libcurl:transfer.obj
 0001:00069860       _Curl_get_upload_buffer    0046a860 f   libcurl:transfer.obj
 0001:000698b0       _Curl_init_CONNECT         0046a8b0 f   libcurl:transfer.obj
 0001:000698e0       _Curl_meets_timecondition  0046a8e0 f   libcurl:transfer.obj
 0001:00069970       _Curl_posttransfer         0046a970 f   libcurl:transfer.obj
 0001:00069980       _Curl_pretransfer          0046a980 f   libcurl:transfer.obj
 0001:00069d60       _Curl_readrewind           0046ad60 f   libcurl:transfer.obj
 0001:00069f30       _Curl_readwrite            0046af30 f   libcurl:transfer.obj
 0001:0006a310       _Curl_retry_request        0046b310 f   libcurl:transfer.obj
 0001:0006a4d0       _Curl_setup_transfer       0046b4d0 f   libcurl:transfer.obj
 0001:0006a6d0       _Curl_single_getsock       0046b6d0 f   libcurl:transfer.obj
 0001:0006b530       _curlx_nonblock            0046c530 f   libcurl:nonblock.obj
 0001:0006b560       _Curl_pgrsDone             0046c560 f   libcurl:progress.obj
 0001:0006b5e0       _Curl_pgrsLimitWaitTime    0046c5e0 f   libcurl:progress.obj
 0001:0006b6f0       _Curl_pgrsResetTransferSizes 0046c6f0 f   libcurl:progress.obj
 0001:0006b720       _Curl_pgrsSetDownloadCounter 0046c720 f   libcurl:progress.obj
 0001:0006b740       _Curl_pgrsSetDownloadSize  0046c740 f   libcurl:progress.obj
 0001:0006b7a0       _Curl_pgrsSetUploadCounter 0046c7a0 f   libcurl:progress.obj
 0001:0006b7c0       _Curl_pgrsSetUploadSize    0046c7c0 f   libcurl:progress.obj
 0001:0006b820       _Curl_pgrsStartNow         0046c820 f   libcurl:progress.obj
 0001:0006b8e0       _Curl_pgrsTime             0046c8e0 f   libcurl:progress.obj
 0001:0006baa0       _Curl_pgrsUpdate           0046caa0 f   libcurl:progress.obj
 0001:0006bca0       _Curl_ratelimit            0046cca0 f   libcurl:progress.obj
 0001:0006cbb0       _Curl_poll                 0046dbb0 f   libcurl:select.obj
 0001:0006cf00       _Curl_socket_check         0046df00 f   libcurl:select.obj
 0001:0006d060       _Curl_wait_ms              0046e060 f   libcurl:select.obj
 0001:0006d240       _Curl_speedcheck           0046e240 f   libcurl:speedcheck.obj
 0001:0006d380       _Curl_speedinit            0046e380 f   libcurl:speedcheck.obj
 0001:0006df70       _Curl_connect_complete     0046ef70 f   libcurl:http_proxy.obj
 0001:0006dfa0       _Curl_connect_free         0046efa0 f   libcurl:http_proxy.obj
 0001:0006dfe0       _Curl_connect_ongoing      0046efe0 f   libcurl:http_proxy.obj
 0001:0006e010       _Curl_proxyCONNECT         0046f010 f   libcurl:http_proxy.obj
 0001:0006e080       _Curl_proxy_connect        0046f080 f   libcurl:http_proxy.obj
 0001:0006e2f0       _Curl_SOCKS4               0046f2f0 f   libcurl:socks.obj
 0001:0006eb10       _Curl_SOCKS5               0046fb10 f   libcurl:socks.obj
 0001:0006f9e0       _Curl_SOCKS_getsock        004709e0 f   libcurl:socks.obj
 0001:0006fa70       _Curl_dyn_vprintf          00470a70 f   libcurl:mprintf.obj
 0001:0006fb40       _curl_maprintf             00470b40 f   libcurl:mprintf.obj
 0001:0006fb60       _curl_mfprintf             00470b60 f   libcurl:mprintf.obj
 0001:0006fb90       _curl_mprintf              00470b90 f   libcurl:mprintf.obj
 0001:0006fbc0       _curl_msnprintf            00470bc0 f   libcurl:mprintf.obj
 0001:0006fbe0       _curl_msprintf             00470be0 f   libcurl:mprintf.obj
 0001:0006fc10       _curl_mvaprintf            00470c10 f   libcurl:mprintf.obj
 0001:0006fcb0       _curl_mvfprintf            00470cb0 f   libcurl:mprintf.obj
 0001:0006fce0       _curl_mvprintf             00470ce0 f   libcurl:mprintf.obj
 0001:0006fd10       _curl_mvsnprintf           00470d10 f   libcurl:mprintf.obj
 0001:0006fd80       _curl_mvsprintf            00470d80 f   libcurl:mprintf.obj
 0001:00071630       _curlx_convert_UTF8_to_wchar 00472630 f   libcurl:curl_multibyte.obj
 0001:000716c0       _curlx_convert_wchar_to_UTF8 004726c0 f   libcurl:curl_multibyte.obj
 0001:00071750       _curlx_win32_access        00472750 f   libcurl:curl_multibyte.obj
 0001:00071760       _curlx_win32_fopen         00472760 f   libcurl:curl_multibyte.obj
 0001:00071770       _curlx_win32_open          00472770 f   libcurl:curl_multibyte.obj
 0001:000717a0       _curlx_win32_stat          004727a0 f   libcurl:curl_multibyte.obj
 0001:000717b0       _Curl_strtok_r             004727b0 f   libcurl:strtok.obj
 0001:00071850       _curlx_strtoofft           00472850 f   libcurl:strtoofft.obj
 0001:00071930       _Curl_get_line             00472930 f   libcurl:curl_get_line.obj
 0001:000719b0       _Curl_memrchr              004729b0 f   libcurl:curl_memrchr.obj
 0001:000719e0       _Curl_inet_pton            004729e0 f   libcurl:inet_pton.obj
 0001:00071db0       _Curl_getdate_capped       00472db0 f   libcurl:parsedate.obj
 0001:00071e30       _Curl_gmtime               00472e30 f   libcurl:parsedate.obj
 0001:00071fc0       _curl_getdate              00472fc0 f   libcurl:parsedate.obj
 0001:00072710       _Curl_rand                 00473710 f   libcurl:rand.obj
 0001:00072780       _Curl_rand_hex             00473780 f   libcurl:rand.obj
 0001:00072900       _Curl_rename               00473900 f   libcurl:rename.obj
 0001:00072a10       _Curl_freeaddrinfo         00473a10 f   libcurl:curl_addrinfo.obj
 0001:00072a40       _Curl_getaddrinfo_ex       00473a40 f   libcurl:curl_addrinfo.obj
 0001:00072c30       _Curl_he2ai                00473c30 f   libcurl:curl_addrinfo.obj
 0001:00072dc0       _Curl_ip2addr              00473dc0 f   libcurl:curl_addrinfo.obj
 0001:00072ec0       _Curl_str2addr             00473ec0 f   libcurl:curl_addrinfo.obj
 0001:00072f70       _Curl_unix2addr            00473f70 f   libcurl:curl_addrinfo.obj
 0001:00073050       _Curl_addrinfo_callback    00474050 f   libcurl:hostasyn.obj
 0001:00073100       _Curl_getaddrinfo          00474100 f   libcurl:hostasyn.obj
 0001:00073110       _Curl_thread_create        00474110 f   libcurl:curl_threads.obj
 0001:00073140       _Curl_thread_destroy       00474140 f   libcurl:curl_threads.obj
 0001:00073160       _Curl_thread_join          00474160 f   libcurl:curl_threads.obj
 0001:00076100       _Curl_pop3_write           00477100 f   libcurl:pop3.obj
 0001:00077950       _Curl_smtp_escape_eob      00478950 f   libcurl:smtp.obj
 0001:0007a4c0       _Curl_GetFTPResponse       0047b4c0 f   libcurl:ftp.obj
 0001:00085e40       _Curl_rtsp_parseheader     00486e40 f   libcurl:rtsp.obj
 0001:00088530       _curl_getenv               00489530 f   libcurl:getenv.obj
 0001:00088540       _Curl_is_absolute_url      00489540 f   libcurl:urlapi.obj
 0001:00088a50       _curl_url                  00489a50 f   libcurl:urlapi.obj
 0001:00088a70       _curl_url_cleanup          00489a70 f   libcurl:urlapi.obj
 0001:00088aa0       _curl_url_dup              00489aa0 f   libcurl:urlapi.obj
 0001:00088c10       _curl_url_get              00489c10 f   libcurl:urlapi.obj
 0001:00089260       _curl_url_set              0048a260 f   libcurl:urlapi.obj
 0001:0008a7c0       _Curl_isalnum              0048b7c0 f   libcurl:curl_ctype.obj
 0001:0008a7f0       _Curl_isalpha              0048b7f0 f   libcurl:curl_ctype.obj
 0001:0008a820       _Curl_iscntrl              0048b820 f   libcurl:curl_ctype.obj
 0001:0008a850       _Curl_isdigit              0048b850 f   libcurl:curl_ctype.obj
 0001:0008a880       _Curl_isgraph              0048b880 f   libcurl:curl_ctype.obj
 0001:0008a8b0       _Curl_islower              0048b8b0 f   libcurl:curl_ctype.obj
 0001:0008a8e0       _Curl_isprint              0048b8e0 f   libcurl:curl_ctype.obj
 0001:0008a910       _Curl_isspace              0048b910 f   libcurl:curl_ctype.obj
 0001:0008a940       _Curl_isupper              0048b940 f   libcurl:curl_ctype.obj
 0001:0008a970       _Curl_isxdigit             0048b970 f   libcurl:curl_ctype.obj
 0001:0008a9a0       _Curl_parsenetrc           0048b9a0 f   libcurl:netrc.obj
 0001:0008b050       _Curl_clone_primary_ssl_config 0048c050 f   libcurl:vtls.obj
 0001:0008b250       _Curl_free_primary_ssl_config 0048c250 f   libcurl:vtls.obj
 0001:0008b330       _Curl_ssl_backend          0048c330 f   libcurl:vtls.obj
 0001:0008b340       _Curl_ssl_config_matches   0048c340 f   libcurl:vtls.obj
 0001:0008b5d0       _curl_global_sslset        0048c5d0 f   libcurl:vtls.obj
 0001:0008b5e0       _Curl_isunreserved         0048c5e0 f   libcurl:escape.obj
 0001:0008b690       _Curl_urldecode            0048c690 f   libcurl:escape.obj
 0001:0008b7f0       _curl_easy_escape          0048c7f0 f   libcurl:escape.obj
 0001:0008b8f0       _curl_easy_unescape        0048c8f0 f   libcurl:escape.obj
 0001:0008b980       _curl_escape               0048c980 f   libcurl:escape.obj
 0001:0008b9a0       _curl_free                 0048c9a0 f   libcurl:escape.obj
 0001:0008b9b0       _curl_unescape             0048c9b0 f   libcurl:escape.obj
 0001:0008b9d0       _Curl_http_auth_cleanup_ntlm 0048c9d0 f   libcurl:http_ntlm.obj
 0001:0008ba00       _Curl_input_ntlm           0048ca00 f   libcurl:http_ntlm.obj
 0001:0008bb50       _Curl_output_ntlm          0048cb50 f   libcurl:http_ntlm.obj
 0001:0008bde0       _Curl_strerror             0048cde0 f   libcurl:strerror.obj
 0001:0008bf20       _Curl_winapi_strerror      0048cf20 f   libcurl:strerror.obj
 0001:0008bfd0       _curl_easy_strerror        0048cfd0 f   libcurl:strerror.obj
 0001:0008c4f0       _curl_multi_strerror       0048d4f0 f   libcurl:strerror.obj
 0001:0008c5c0       _curl_share_strerror       0048d5c0 f   libcurl:strerror.obj
 0001:0008cb50       _Curl_if2ip                0048db50 f   libcurl:if2ip.obj
 0001:0008cb60       _Curl_ipv6_scope           0048db60 f   libcurl:if2ip.obj
 0001:0008cc20       _Curl_inet_ntop            0048dc20 f   libcurl:inet_ntop.obj
 0001:0008d020       _curlx_verify_windows_version 0048e020 f   libcurl:version_win32.obj
 0001:0008d1e0       _Curl_auth_create_digest_http_message 0048e1e0 f   libcurl:digest.obj
 0001:0008d270       _Curl_auth_create_digest_md5_message 0048e270 f   libcurl:digest.obj
 0001:0008d920       _Curl_auth_decode_digest_http_message 0048e920 f   libcurl:digest.obj
 0001:0008df10       _Curl_auth_digest_cleanup  0048ef10 f   libcurl:digest.obj
 0001:0008dfb0       _Curl_auth_digest_get_pair 0048efb0 f   libcurl:digest.obj
 0001:0008e130       _Curl_auth_is_digest_supported 0048f130 f   libcurl:digest.obj
 0001:0008ea90       _Curl_chunked_strerror     0048fa90 f   libcurl:http_chunks.obj
 0001:0008eb10       _Curl_httpchunk_init       0048fb10 f   libcurl:http_chunks.obj
 0001:0008eb50       _Curl_httpchunk_read       0048fb50 f   libcurl:http_chunks.obj
 0001:0008efd0       _Curl_doh                  0048ffd0 f   libcurl:doh.obj
 0001:0008f130       _Curl_doh_is_resolved      00490130 f   libcurl:doh.obj
 0001:00090bc0       _Curl_getformdata          00491bc0 f   libcurl:formdata.obj
 0001:00091830       _curl_formadd              00492830 f   libcurl:formdata.obj
 0001:00091850       _curl_formfree             00492850 f   libcurl:formdata.obj
 0001:000918d0       _curl_formget              004928d0 f   libcurl:formdata.obj
 0001:00091a80       _Curl_base64_decode        00492a80 f   libcurl:base64.obj
 0001:00091bc0       _Curl_base64_encode        00492bc0 f   libcurl:base64.obj
 0001:00091bf0       _Curl_base64url_encode     00492bf0 f   libcurl:base64.obj
 0001:00091f30       _Curl_auth_cleanup_ntlm    00492f30 f   libcurl:ntlm.obj
 0001:00091f60       _Curl_auth_create_ntlm_type1_message 00492f60 f   libcurl:ntlm.obj
 0001:00092030       _Curl_auth_create_ntlm_type3_message 00493030 f   libcurl:ntlm.obj
 0001:00092740       _Curl_auth_decode_ntlm_type2_message 00493740 f   libcurl:ntlm.obj
 0001:000928d0       _Curl_auth_is_ntlm_supported 004938d0 f   libcurl:ntlm.obj
 0001:00092a00       _Curl_output_aws_sigv4     00493a00 f   libcurl:http_aws_sigv4.obj
 0001:00093690       _Curl_fileinfo_alloc       00494690 f   libcurl:fileinfo.obj
 0001:000936b0       _Curl_fileinfo_cleanup     004946b0 f   libcurl:fileinfo.obj
 0001:000936f0       _Curl_pp_disconnect        004946f0 f   libcurl:pingpong.obj
 0001:00093720       _Curl_pp_flushsend         00494720 f   libcurl:pingpong.obj
 0001:000937c0       _Curl_pp_getsock           004947c0 f   libcurl:pingpong.obj
 0001:00093800       _Curl_pp_init              00494800 f   libcurl:pingpong.obj
 0001:00093850       _Curl_pp_moredata          00494850 f   libcurl:pingpong.obj
 0001:00093880       _Curl_pp_readresp          00494880 f   libcurl:pingpong.obj
 0001:00093bf0       _Curl_pp_sendf             00494bf0 f   libcurl:pingpong.obj
 0001:00093c10       _Curl_pp_setup             00494c10 f   libcurl:pingpong.obj
 0001:00093c30       _Curl_pp_state_timeout     00494c30 f   libcurl:pingpong.obj
 0001:00093d30       _Curl_pp_statemach         00494d30 f   libcurl:pingpong.obj
 0001:00093ed0       _Curl_pp_vsendf            00494ed0 f   libcurl:pingpong.obj
 0001:00094010       _Curl_sasl_can_authenticate 00495010 f   libcurl:curl_sasl.obj
 0001:00094050       _Curl_sasl_cleanup         00495050 f   libcurl:curl_sasl.obj
 0001:00094080       _Curl_sasl_continue        00495080 f   libcurl:curl_sasl.obj
 0001:00094660       _Curl_sasl_decode_mech     00495660 f   libcurl:curl_sasl.obj
 0001:000947a0       _Curl_sasl_init            004957a0 f   libcurl:curl_sasl.obj
 0001:000947e0       _Curl_sasl_parse_url_auth_option 004957e0 f   libcurl:curl_sasl.obj
 0001:00094880       _Curl_sasl_start           00495880 f   libcurl:curl_sasl.obj
 0001:00094e40       _Curl_MD5_final            00495e40 f   libcurl:md5.obj
 0001:00094e80       _Curl_MD5_init             00495e80 f   libcurl:md5.obj
 0001:00094ef0       _Curl_MD5_update           00495ef0 f   libcurl:md5.obj
 0001:00094f20       _Curl_md5it                00495f20 f   libcurl:md5.obj
 0001:00094f70       _Curl_gethostname          00495f70 f   libcurl:curl_gethostname.obj
 0001:00094fc0       _Curl_ftp_parselist        00495fc0 f   libcurl:ftplistparser.obj
 0001:00095e50       _Curl_ftp_parselist_data_alloc 00496e50 f   libcurl:ftplistparser.obj
 0001:00095e70       _Curl_ftp_parselist_data_free 00496e70 f   libcurl:ftplistparser.obj
 0001:00095eb0       _Curl_ftp_parselist_geterror 00496eb0 f   libcurl:ftplistparser.obj
 0001:000961a0       _Curl_range                004971a0 f   libcurl:curl_range.obj
 0001:00096360       _Curl_ntlm_core_lm_resp    00497360 f   libcurl:curl_ntlm_core.obj
 0001:000963b0       _Curl_ntlm_core_mk_lm_hash 004973b0 f   libcurl:curl_ntlm_core.obj
 0001:00096480       _Curl_ntlm_core_mk_lmv2_resp 00497480 f   libcurl:curl_ntlm_core.obj
 0001:00096520       _Curl_ntlm_core_mk_nt_hash 00497520 f   libcurl:curl_ntlm_core.obj
 0001:000965d0       _Curl_ntlm_core_mk_ntlmv2_hash 004975d0 f   libcurl:curl_ntlm_core.obj
 0001:00096680       _Curl_ntlm_core_mk_ntlmv2_resp 00497680 f   libcurl:curl_ntlm_core.obj
 0001:00096af0       _Curl_read16_be            00497af0 f   libcurl:curl_endian.obj
 0001:00096b10       _Curl_read16_le            00497b10 f   libcurl:curl_endian.obj
 0001:00096b30       _Curl_read32_le            00497b30 f   libcurl:curl_endian.obj
 0001:00096b60       _Curl_write64_le           00497b60 f   libcurl:curl_endian.obj
 0001:00096bd0       _Curl_dedotdotify          00497bd0 f   libcurl:dotdot.obj
 0001:00096ef0       _Curl_auth_build_spn       00497ef0 f   libcurl:vauth.obj
 0001:00096f60       _Curl_auth_user_contains_domain 00497f60 f   libcurl:vauth.obj
 0001:000970b0       _Curl_sha256it             004980b0 f   libcurl:sha256.obj
 0001:00097100       _Curl_HMAC_final           00498100 f   libcurl:hmac.obj
 0001:00097160       _Curl_HMAC_init            00498160 f   libcurl:hmac.obj
 0001:000972c0       _Curl_HMAC_update          004982c0 f   libcurl:hmac.obj
 0001:000972f0       _Curl_hmacit               004982f0 f   libcurl:hmac.obj
 0001:00097350       _Curl_auth_create_external_message 00498350 f   libcurl:cleartext.obj
 0001:00097360       _Curl_auth_create_login_message 00498360 f   libcurl:cleartext.obj
 0001:000973e0       _Curl_auth_create_plain_message 004983e0 f   libcurl:cleartext.obj
 0001:00097530       _Curl_auth_create_cram_md5_message 00498530 f   libcurl:cram.obj
 0001:000976d0       _Curl_auth_decode_cram_md5_message 004986d0 f   libcurl:cram.obj
 0001:00097730       _Curl_auth_create_oauth_bearer_message 00498730 f   libcurl:oauth2.obj
 0001:000977d0       _Curl_auth_create_xoauth_bearer_message 004987d0 f   libcurl:oauth2.obj
 0001:00097840       _Curl_fnmatch              00498840 f   libcurl:curl_fnmatch.obj
 0001:00098390       _Curl_des_set_odd_parity   00499390 f   libcurl:curl_des.obj
 0001:000983f0       _Curl_md4it                004993f0 f   libcurl:md4.obj
 0001:0009853f       _closesocket@4             0049953f f   ws2_32:WS2_32.dll
 0001:00098545       _recv@16                   00499545 f   ws2_32:WS2_32.dll
 0001:0009854b       _send@16                   0049954b f   ws2_32:WS2_32.dll
 0001:00098551       _WSAGetLastError@0         00499551 f   ws2_32:WS2_32.dll
 0001:00098557       _bind@12                   00499557 f   ws2_32:WS2_32.dll
 0001:0009855d       _connect@12                0049955d f   ws2_32:WS2_32.dll
 0001:00098563       _getpeername@12            00499563 f   ws2_32:WS2_32.dll
 0001:00098569       _getsockname@12            00499569 f   ws2_32:WS2_32.dll
 0001:0009856f       _getsockopt@20             0049956f f   ws2_32:WS2_32.dll
 0001:00098575       _htons@4                   00499575 f   ws2_32:WS2_32.dll
 0001:0009857b       _ntohs@4                   0049957b f   ws2_32:WS2_32.dll
 0001:00098581       _setsockopt@20             00499581 f   ws2_32:WS2_32.dll
 0001:00098587       _socket@12                 00499587 f   ws2_32:WS2_32.dll
 0001:0009858d       _WSASetLastError@4         0049958d f   ws2_32:WS2_32.dll
 0001:00098593       _WSAIoctl@36               00499593 f   ws2_32:WS2_32.dll
 0001:00098599       _WSAStartup@8              00499599 f   ws2_32:WS2_32.dll
 0001:0009859f       _WSACleanup@0              0049959f f   ws2_32:WS2_32.dll
 0001:000985a5       _accept@12                 004995a5 f   ws2_32:WS2_32.dll
 0001:000985ab       _htonl@4                   004995ab f   ws2_32:WS2_32.dll
 0001:000985b1       _listen@8                  004995b1 f   ws2_32:WS2_32.dll
 0001:000985b7       _ioctlsocket@12            004995b7 f   ws2_32:WS2_32.dll
 0001:000985bd       ___WSAFDIsSet@8            004995bd f   ws2_32:WS2_32.dll
 0001:000985c3       _select@20                 004995c3 f   ws2_32:WS2_32.dll
 0001:000985c9       _getaddrinfo@16            004995c9 f   ws2_32:WS2_32.dll
 0001:000985cf       _freeaddrinfo@4            004995cf f   ws2_32:WS2_32.dll
 0001:000985d5       _WSACloseEvent@4           004995d5 f   ws2_32:WS2_32.dll
 0001:000985db       _WSACreateEvent@0          004995db f   ws2_32:WS2_32.dll
 0001:000985e1       _WSAEnumNetworkEvents@12   004995e1 f   ws2_32:WS2_32.dll
 0001:000985e7       _WSAEventSelect@12         004995e7 f   ws2_32:WS2_32.dll
 0001:000985ed       _recvfrom@24               004995ed f   ws2_32:WS2_32.dll
 0001:000985f3       _sendto@24                 004995f3 f   ws2_32:WS2_32.dll
 0001:000985f9       _gethostname@8             004995f9 f   ws2_32:WS2_32.dll
 0001:000985ff       _ldap_init                 004995ff f   wldap32:WLDAP32.dll
 0001:00098605       _ldap_sslinit              00499605 f   wldap32:WLDAP32.dll
 0001:0009860b       _ldap_unbind_s             0049960b f   wldap32:WLDAP32.dll
 0001:00098611       _ldap_set_option           00499611 f   wldap32:WLDAP32.dll
 0001:00098617       _ldap_simple_bind_s        00499617 f   wldap32:WLDAP32.dll
 0001:0009861d       _ldap_search_s             0049961d f   wldap32:WLDAP32.dll
 0001:00098623       _ldap_msgfree              00499623 f   wldap32:WLDAP32.dll
 0001:00098629       _ldap_err2string           00499629 f   wldap32:WLDAP32.dll
 0001:0009862f       _ldap_first_entry          0049962f f   wldap32:WLDAP32.dll
 0001:00098635       _ldap_next_entry           00499635 f   wldap32:WLDAP32.dll
 0001:0009863b       _ldap_first_attribute      0049963b f   wldap32:WLDAP32.dll
 0001:00098641       _ldap_next_attribute       00499641 f   wldap32:WLDAP32.dll
 0001:00098647       _ldap_get_values_len       00499647 f   wldap32:WLDAP32.dll
 0001:0009864d       _ldap_value_free_len       0049964d f   wldap32:WLDAP32.dll
 0001:00098653       _ldap_get_dn               00499653 f   wldap32:WLDAP32.dll
 0001:00098659       _ldap_memfree              00499659 f   wldap32:WLDAP32.dll
 0001:0009865f       _ber_free                  0049965f f   wldap32:WLDAP32.dll
 0001:00098670       __ftoui3                   00499670 f   msvcrt:ftol3.obj
 0001:000986d0       __ftoul3                   004996d0 f   msvcrt:ftol3.obj
 0001:00098760       __ftol3                    00499760 f   msvcrt:ftol3.obj
 0001:000987f0       __dtoui3                   004997f0 f   msvcrt:ftol3.obj
 0001:00098890       __dtoul3                   00499890 f   msvcrt:ftol3.obj
 0001:00098960       __dtol3                    00499960 f   msvcrt:ftol3.obj
 0001:00098a40       __ultod3                   00499a40 f   msvcrt:ftol3.obj
 0001:00098ab0       __ltod3                    00499ab0 f   msvcrt:ftol3.obj
 0001:00098b10       __alldvrm                  00499b10 f   msvcrt:lldvrm.obj
 0001:00098c30       __allmul                   00499c30 f   msvcrt:llmul.obj
 0001:00098c80       __allrem                   00499c80 f   msvcrt:llrem.obj
 0001:00098d60       __aulldvrm                 00499d60 f   msvcrt:ulldvrm.obj
 0001:00098e1a       _memset                    00499e1a f   vcruntimed:VCRUNTIME140D.dll
 0001:00098e20       _strstr                    00499e20 f   vcruntimed:VCRUNTIME140D.dll
 0001:00098e26       _memcmp                    00499e26 f   vcruntimed:VCRUNTIME140D.dll
 0001:00098e2c       _memcpy                    00499e2c f   vcruntimed:VCRUNTIME140D.dll
 0001:00098e32       _memmove                   00499e32 f   vcruntimed:VCRUNTIME140D.dll
 0001:00098e38       ___std_exception_copy      00499e38 f   vcruntimed:VCRUNTIME140D.dll
 0001:00098e3e       ___std_exception_destroy   00499e3e f   vcruntimed:VCRUNTIME140D.dll
 0001:00098e44       __CxxThrowException@8      00499e44 f   vcruntimed:VCRUNTIME140D.dll
 0001:00098e4a       ___CxxFrameHandler3        00499e4a f   vcruntimed:VCRUNTIME140D.dll
 0001:00098e50       _memchr                    00499e50 f   vcruntimed:VCRUNTIME140D.dll
 0001:00098e56       ___current_exception       00499e56 f   vcruntimed:VCRUNTIME140D.dll
 0001:00098e5c       ___current_exception_context 00499e5c f   vcruntimed:VCRUNTIME140D.dll
 0001:00098e62       __except_handler4_common   00499e62 f   vcruntimed:VCRUNTIME140D.dll
 0001:00098e68       ___std_type_info_destroy_list 00499e68 f   vcruntimed:VCRUNTIME140D.dll
 0001:00098e6e       ___vcrt_GetModuleFileNameW 00499e6e f   vcruntimed:VCRUNTIME140D.dll
 0001:00098e74       ___vcrt_GetModuleHandleW   00499e74 f   vcruntimed:VCRUNTIME140D.dll
 0001:00098e7a       ___vcrt_LoadLibraryExW     00499e7a f   vcruntimed:VCRUNTIME140D.dll
 0001:00098e80       _strchr                    00499e80 f   vcruntimed:VCRUNTIME140D.dll
 0001:00098e86       _strrchr                   00499e86 f   vcruntimed:VCRUNTIME140D.dll
 0001:00098e8c       ___acrt_iob_func           00499e8c f   ucrtd:ucrtbased.dll
 0001:00098e92       _freopen_s                 00499e92 f   ucrtd:ucrtbased.dll
 0001:00098e98       __invalid_parameter        00499e98 f   ucrtd:ucrtbased.dll
 0001:00098e9e       __errno                    00499e9e f   ucrtd:ucrtbased.dll
 0001:00098ea4       _strlen                    00499ea4 f   ucrtd:ucrtbased.dll
 0001:00098eaa       _strtol                    00499eaa f   ucrtd:ucrtbased.dll
 0001:00098eb0       __CrtDbgReport             00499eb0 f   ucrtd:ucrtbased.dll
 0001:00098eb6       ___stdio_common_vsprintf   00499eb6 f   ucrtd:ucrtbased.dll
 0001:00098ebc       __localtime64              00499ebc f   ucrtd:ucrtbased.dll
 0001:00098ec2       _strtoll                   00499ec2 f   ucrtd:ucrtbased.dll
 0001:00098ec8       _system                    00499ec8 f   ucrtd:ucrtbased.dll
 0001:00098ece       __get_stream_buffer_pointers 00499ece f   ucrtd:ucrtbased.dll
 0001:00098ed4       _fclose                    00499ed4 f   ucrtd:ucrtbased.dll
 0001:00098eda       _fflush                    00499eda f   ucrtd:ucrtbased.dll
 0001:00098ee0       _fgetc                     00499ee0 f   ucrtd:ucrtbased.dll
 0001:00098ee6       _fgetpos                   00499ee6 f   ucrtd:ucrtbased.dll
 0001:00098eec       _fgets                     00499eec f   ucrtd:ucrtbased.dll
 0001:00098ef2       _fputc                     00499ef2 f   ucrtd:ucrtbased.dll
 0001:00098ef8       _fread                     00499ef8 f   ucrtd:ucrtbased.dll
 0001:00098efe       _fsetpos                   00499efe f   ucrtd:ucrtbased.dll
 0001:00098f04       __fseeki64                 00499f04 f   ucrtd:ucrtbased.dll
 0001:00098f0a       _fwrite                    00499f0a f   ucrtd:ucrtbased.dll
 0001:00098f10       __pclose                   00499f10 f   ucrtd:ucrtbased.dll
 0001:00098f16       __popen                    00499f16 f   ucrtd:ucrtbased.dll
 0001:00098f1c       _setvbuf                   00499f1c f   ucrtd:ucrtbased.dll
 0001:00098f22       _ungetc                    00499f22 f   ucrtd:ucrtbased.dll
 0001:00098f28       __lock_file                00499f28 f   ucrtd:ucrtbased.dll
 0001:00098f2e       __unlock_file              00499f2e f   ucrtd:ucrtbased.dll
 0001:00098f34       __free_dbg                 00499f34 f   ucrtd:ucrtbased.dll
 0001:00098f3a       __malloc_dbg               00499f3a f   ucrtd:ucrtbased.dll
 0001:00098f40       __CrtDbgReportW            00499f40 f   ucrtd:ucrtbased.dll
 0001:00098f46       __callnewh                 00499f46 f   ucrtd:ucrtbased.dll
 0001:00098f4c       _malloc                    00499f4c f   ucrtd:ucrtbased.dll
 0001:00098f52       _terminate                 00499f52 f   ucrtd:ucrtbased.dll
 0001:00098f58       __seh_filter_dll           00499f58 f   ucrtd:ucrtbased.dll
 0001:00098f5e       __configure_narrow_argv    00499f5e f   ucrtd:ucrtbased.dll
 0001:00098f64       __initialize_narrow_environment 00499f64 f   ucrtd:ucrtbased.dll
 0001:00098f6a       __initialize_onexit_table  00499f6a f   ucrtd:ucrtbased.dll
 0001:00098f70       __register_onexit_function 00499f70 f   ucrtd:ucrtbased.dll
 0001:00098f76       __execute_onexit_table     00499f76 f   ucrtd:ucrtbased.dll
 0001:00098f7c       __crt_atexit               00499f7c f   ucrtd:ucrtbased.dll
 0001:00098f82       __crt_at_quick_exit        00499f82 f   ucrtd:ucrtbased.dll
 0001:00098f88       __cexit                    00499f88 f   ucrtd:ucrtbased.dll
 0001:00098f8e       __seh_filter_exe           00499f8e f   ucrtd:ucrtbased.dll
 0001:00098f94       __set_app_type             00499f94 f   ucrtd:ucrtbased.dll
 0001:00098f9a       ___setusermatherr          00499f9a f   ucrtd:ucrtbased.dll
 0001:00098fa0       __get_narrow_winmain_command_line 00499fa0 f   ucrtd:ucrtbased.dll
 0001:00098fa6       __initterm                 00499fa6 f   ucrtd:ucrtbased.dll
 0001:00098fac       __initterm_e               00499fac f   ucrtd:ucrtbased.dll
 0001:00098fb2       _exit                      00499fb2 f   ucrtd:ucrtbased.dll
 0001:00098fb8       __exit                     00499fb8 f   ucrtd:ucrtbased.dll
 0001:00098fbe       __set_fmode                00499fbe f   ucrtd:ucrtbased.dll
 0001:00098fc4       __c_exit                   00499fc4 f   ucrtd:ucrtbased.dll
 0001:00098fca       __register_thread_local_exe_atexit_callback 00499fca f   ucrtd:ucrtbased.dll
 0001:00098fd0       __configthreadlocale       00499fd0 f   ucrtd:ucrtbased.dll
 0001:00098fd6       __set_new_mode             00499fd6 f   ucrtd:ucrtbased.dll
 0001:00098fdc       ___p__commode              00499fdc f   ucrtd:ucrtbased.dll
 0001:00098fe2       _strcpy_s                  00499fe2 f   ucrtd:ucrtbased.dll
 0001:00098fe8       _strcat_s                  00499fe8 f   ucrtd:ucrtbased.dll
 0001:00098fee       ___stdio_common_vsprintf_s 00499fee f   ucrtd:ucrtbased.dll
 0001:00098ff4       __controlfp_s              00499ff4 f   ucrtd:ucrtbased.dll
 0001:00098ffa       __wmakepath_s              00499ffa f   ucrtd:ucrtbased.dll
 0001:00099000       __wsplitpath_s             0049a000 f   ucrtd:ucrtbased.dll
 0001:00099006       _wcscpy_s                  0049a006 f   ucrtd:ucrtbased.dll
 0001:0009900c       _free                      0049a00c f   ucrtd:ucrtbased.dll
 0001:00099012       _realloc                   0049a012 f   ucrtd:ucrtbased.dll
 0001:00099018       _calloc                    0049a018 f   ucrtd:ucrtbased.dll
 0001:0009901e       _strncmp                   0049a01e f   ucrtd:ucrtbased.dll
 0001:00099024       _fputs                     0049a024 f   ucrtd:ucrtbased.dll
 0001:0009902a       ___stdio_common_vsscanf    0049a02a f   ucrtd:ucrtbased.dll
 0001:00099030       __time64                   0049a030 f   ucrtd:ucrtbased.dll
 0001:00099036       _qsort                     0049a036 f   ucrtd:ucrtbased.dll
 0001:0009903c       _feof                      0049a03c f   ucrtd:ucrtbased.dll
 0001:00099042       _fseek                     0049a042 f   ucrtd:ucrtbased.dll
 0001:00099048       _tolower                   0049a048 f   ucrtd:ucrtbased.dll
 0001:0009904e       _strerror                  0049a04e f   ucrtd:ucrtbased.dll
 0001:00099054       _strtoul                   0049a054 f   ucrtd:ucrtbased.dll
 0001:0009905a       _atoi                      0049a05a f   ucrtd:ucrtbased.dll
 0001:00099060       __mbspbrk                  0049a060 f   ucrtd:ucrtbased.dll
 0001:00099066       _fopen                     0049a066 f   ucrtd:ucrtbased.dll
 0001:0009906c       __access                   0049a06c f   ucrtd:ucrtbased.dll
 0001:00099072       __open                     0049a072 f   ucrtd:ucrtbased.dll
 0001:00099078       __stat64                   0049a078 f   ucrtd:ucrtbased.dll
 0001:0009907e       __gmtime64                 0049a07e f   ucrtd:ucrtbased.dll
 0001:00099084       __beginthreadex            0049a084 f   ucrtd:ucrtbased.dll
 0001:0009908a       _strpbrk                   0049a08a f   ucrtd:ucrtbased.dll
 0001:00099090       _strncpy                   0049a090 f   ucrtd:ucrtbased.dll
 0001:00099096       __lseeki64                 0049a096 f   ucrtd:ucrtbased.dll
 0001:0009909c       __fstat64                  0049a09c f   ucrtd:ucrtbased.dll
 0001:000990a2       __getpid                   0049a0a2 f   ucrtd:ucrtbased.dll
 0001:000990a8       _strcspn                   0049a0a8 f   ucrtd:ucrtbased.dll
 0001:000990ae       _strspn                    0049a0ae f   ucrtd:ucrtbased.dll
 0001:000990b4       ___sys_nerr                0049a0b4 f   ucrtd:ucrtbased.dll
 0001:000990ba       _wcstombs                  0049a0ba f   ucrtd:ucrtbased.dll
 0001:000990c0       _strftime                  0049a0c0 f   ucrtd:ucrtbased.dll
 0001:000990c6       __except1                  0049a0c6 f   ucrtd:ucrtbased.dll
 0001:000990cc       _GetCurrentThreadId@0      0049a0cc f   kernel32:KERNEL32.dll
 0001:000990d2       _IsDebuggerPresent@0       0049a0d2 f   kernel32:KERNEL32.dll
 0001:000990d8       _RaiseException@16         0049a0d8 f   kernel32:KERNEL32.dll
 0001:000990de       _MultiByteToWideChar@24    0049a0de f   kernel32:KERNEL32.dll
 0001:000990e4       _WideCharToMultiByte@32    0049a0e4 f   kernel32:KERNEL32.dll
 0001:000990ea       _UnhandledExceptionFilter@4 0049a0ea f   kernel32:KERNEL32.dll
 0001:000990f0       _SetUnhandledExceptionFilter@4 0049a0f0 f   kernel32:KERNEL32.dll
 0001:000990f6       _TerminateProcess@8        0049a0f6 f   kernel32:KERNEL32.dll
 0001:000990fc       _IsProcessorFeaturePresent@4 0049a0fc f   kernel32:KERNEL32.dll
 0001:00099102       _GetStartupInfoW@4         0049a102 f   kernel32:KERNEL32.dll
 0001:00099108       _GetModuleHandleW@4        0049a108 f   kernel32:KERNEL32.dll
 0001:0009910e       _QueryPerformanceCounter@4 0049a10e f   kernel32:KERNEL32.dll
 0001:00099114       _GetCurrentProcessId@0     0049a114 f   kernel32:KERNEL32.dll
 0001:0009911a       _GetSystemTimeAsFileTime@4 0049a11a f   kernel32:KERNEL32.dll
 0001:00099120       _InitializeSListHead@4     0049a120 f   kernel32:KERNEL32.dll
 0001:00099126       _GetLastError@0            0049a126 f   kernel32:KERNEL32.dll
 0001:0009912c       _HeapAlloc@12              0049a12c f   kernel32:KERNEL32.dll
 0001:00099132       _HeapFree@12               0049a132 f   kernel32:KERNEL32.dll
 0001:00099138       _GetProcessHeap@0          0049a138 f   kernel32:KERNEL32.dll
 0001:0009913e       _VirtualQuery@12           0049a13e f   kernel32:KERNEL32.dll
 0001:00099144       _FreeLibrary@4             0049a144 f   kernel32:KERNEL32.dll
 0001:0009914a       _GetProcAddress@8          0049a14a f   kernel32:KERNEL32.dll
 0001:00099150       _EnterCriticalSection@4    0049a150 f   kernel32:KERNEL32.dll
 0001:00099156       _LeaveCriticalSection@4    0049a156 f   kernel32:KERNEL32.dll
 0001:0009915c       _InitializeCriticalSectionEx@12 0049a15c f   kernel32:KERNEL32.dll
 0001:00099162       _DeleteCriticalSection@4   0049a162 f   kernel32:KERNEL32.dll
 0001:00099168       _SleepEx@8                 0049a168 f   kernel32:KERNEL32.dll
 0001:0009916e       _QueryPerformanceFrequency@4 0049a16e f   kernel32:KERNEL32.dll
 0001:00099174       _GetSystemDirectoryA@8     0049a174 f   kernel32:KERNEL32.dll
 0001:0009917a       _GetModuleHandleA@4        0049a17a f   kernel32:KERNEL32.dll
 0001:00099180       _LoadLibraryA@4            0049a180 f   kernel32:KERNEL32.dll
 0001:00099186       _GetTickCount@0            0049a186 f   kernel32:KERNEL32.dll
 0001:0009918c       _Sleep@4                   0049a18c f   kernel32:KERNEL32.dll
 0001:00099192       _MoveFileExA@12            0049a192 f   kernel32:KERNEL32.dll
 0001:00099198       _WaitForSingleObjectEx@12  0049a198 f   kernel32:KERNEL32.dll
 0001:0009919e       _GetStdHandle@4            0049a19e f   kernel32:KERNEL32.dll
 0001:000991a4       _GetFileType@4             0049a1a4 f   kernel32:KERNEL32.dll
 0001:000991aa       _ReadFile@20               0049a1aa f   kernel32:KERNEL32.dll
 0001:000991b0       _PeekNamedPipe@24          0049a1b0 f   kernel32:KERNEL32.dll
 0001:000991b6       _WaitForMultipleObjects@16 0049a1b6 f   kernel32:KERNEL32.dll
 0001:000991bc       _GetEnvironmentVariableA@12 0049a1bc f   kernel32:KERNEL32.dll
 0001:000991c2       _SetLastError@4            0049a1c2 f   kernel32:KERNEL32.dll
 0001:000991c8       _FormatMessageW@28         0049a1c8 f   kernel32:KERNEL32.dll
 0001:000991ce       _VerSetConditionMask@16    0049a1ce f   kernel32:KERNEL32.dll
 0001:000991d4       _VerifyVersionInfoA@16     0049a1d4 f   kernel32:KERNEL32.dll
 0001:000991da       _CryptAcquireContextA@20   0049a1da f   advapi32:ADVAPI32.dll
 0001:000991e0       _CryptReleaseContext@8     0049a1e0 f   advapi32:ADVAPI32.dll
 0001:000991e6       _CryptGetHashParam@20      0049a1e6 f   advapi32:ADVAPI32.dll
 0001:000991ec       _CryptCreateHash@20        0049a1ec f   advapi32:ADVAPI32.dll
 0001:000991f2       _CryptHashData@16          0049a1f2 f   advapi32:ADVAPI32.dll
 0001:000991f8       _CryptDestroyHash@4        0049a1f8 f   advapi32:ADVAPI32.dll
 0001:000991fe       _CryptDestroyKey@4         0049a1fe f   advapi32:ADVAPI32.dll
 0001:00099204       _CryptImportKey@24         0049a204 f   advapi32:ADVAPI32.dll
 0001:0009920a       _CryptEncrypt@28           0049a20a f   advapi32:ADVAPI32.dll
 0001:00099210       __strdup                   0049a210 f   ucrtd:ucrtbased.dll
 0001:00099210       _strdup                    0049a210 f   ucrtd:ucrtbased.dll
 0001:00099216       __unlink                   0049a216 f   ucrtd:ucrtbased.dll
 0001:0009921c       __read                     0049a21c f   ucrtd:ucrtbased.dll
 0001:00099222       __write                    0049a222 f   ucrtd:ucrtbased.dll
 0001:00099228       __close                    0049a228 f   ucrtd:ucrtbased.dll
 0001:00099230       ___vcrt_initialize         0049a230 f   MSVCRTD:ucrt_stubs.obj
 0001:00099230       ___scrt_stub_for_acrt_initialize 0049a230 f   MSVCRTD:ucrt_stubs.obj
 0001:00099230       ___acrt_initialize         0049a230 f   MSVCRTD:ucrt_stubs.obj
 0001:00099240       ___scrt_stub_for_acrt_thread_attach 0049a240 f   MSVCRTD:ucrt_stubs.obj
 0001:00099240       ___acrt_thread_attach      0049a240 f   MSVCRTD:ucrt_stubs.obj
 0001:00099240       ___vcrt_thread_attach      0049a240 f   MSVCRTD:ucrt_stubs.obj
 0001:00099250       ___vcrt_thread_detach      0049a250 f   MSVCRTD:ucrt_stubs.obj
 0001:00099250       ___acrt_thread_detach      0049a250 f   MSVCRTD:ucrt_stubs.obj
 0001:00099250       ___scrt_stub_for_acrt_thread_detach 0049a250 f   MSVCRTD:ucrt_stubs.obj
 0001:00099260       ___vcrt_uninitialize       0049a260 f   MSVCRTD:ucrt_stubs.obj
 0001:00099260       ___scrt_stub_for_acrt_uninitialize 0049a260 f   MSVCRTD:ucrt_stubs.obj
 0001:00099260       ___acrt_uninitialize       0049a260 f   MSVCRTD:ucrt_stubs.obj
 0001:00099270       ___vcrt_uninitialize_critical 0049a270 f   MSVCRTD:ucrt_stubs.obj
 0001:00099270       ___scrt_stub_for_acrt_uninitialize_critical 0049a270 f   MSVCRTD:ucrt_stubs.obj
 0001:00099270       ___acrt_uninitialize_critical 0049a270 f   MSVCRTD:ucrt_stubs.obj
 0001:00099280       ___scrt_stub_for_is_c_termination_complete 0049a280 f   MSVCRTD:ucrt_stubs.obj
 0001:00099280       __is_c_termination_complete 0049a280 f   MSVCRTD:ucrt_stubs.obj
 0001:00099290       __filter_x86_sse2_floating_point_exception_default 0049a290 f   MSVCRTD:x86_exception_filter.obj
 0001:00099290       __filter_x86_sse2_floating_point_exception 0049a290 f   MSVCRTD:x86_exception_filter.obj
 0002:00000000       ___xc_a                    004a4000     MSVCRTD:initializers.obj
 0002:00000594       ___xc_z                    004a4594     MSVCRTD:initializers.obj
 0002:00000698       ___xi_a                    004a4698     MSVCRTD:initializers.obj
 0002:000009a4       ___xi_z                    004a49a4     MSVCRTD:initializers.obj
 0002:00000aa8       ___xp_a                    004a4aa8     MSVCRTD:initializers.obj
 0002:00000bac       ___xp_z                    004a4bac     MSVCRTD:initializers.obj
 0002:00000cb0       ___xt_a                    004a4cb0     MSVCRTD:initializers.obj
 0002:00000db4       ___xt_z                    004a4db4     MSVCRTD:initializers.obj
 0002:00000ec0       ??_C@_0EK@MNEKPPON@11070123112E8880181D0381091D038@ 004a4ec0     Main.obj
 0002:00000f18       ??_C@_0N@GIPHPLLM@Warcraft?5III@ 004a4f18     Main.obj
 0002:00000f28       ??_C@_01NOFIACDB@w@        004a4f28     Main.obj
 0002:00000f2c       ??_C@_07GPDNMNG@CONOUT$@   004a4f2c     Main.obj
 0002:00000f38       ??_C@_05JLNEMJLN@dummy@    004a4f38     Main.obj
 0002:00000f40       ??_C@_0BB@ICFLKOPM@SeDebugPrivilege@ 004a4f40     Main.obj
 0002:00000f54       ??_C@_08EPCMHBKI@Game?4dll@ 004a4f54     Main.obj
 0002:00000f60       __real@3c23d70a            004a4f60     Main.obj
 0002:00000f64       __real@3f800000            004a4f64     Main.obj
 0002:00000f68       __real@3faccccd            004a4f68     Main.obj
 0002:00000f6c       __real@40000000            004a4f6c     Main.obj
 0002:00000f70       __real@40a00000            004a4f70     Main.obj
 0002:00000f74       __real@41a00000            004a4f74     Main.obj
 0002:00000f78       __real@420a0000            004a4f78     Main.obj
 0002:00000f7c       __real@42480000            004a4f7c     Main.obj
 0002:00000f80       __real@42a00000            004a4f80     Main.obj
 0002:00000f90       __xmm@80000000800000008000000080000000 004a4f90     Main.obj
 0002:00000fa8       ??_7exception@std@@6B@     004a4fa8     protect.obj
 0002:00000fb4       ??_C@_0BC@EOODALEL@Unknown?5exception@ 004a4fb4     protect.obj
 0002:00000fd0       ??_7bad_alloc@std@@6B@     004a4fd0     protect.obj
 0002:00000fe0       ??_7bad_array_new_length@std@@6B@ 004a4fe0     protect.obj
 0002:00000fec       ??_C@_0BF@KINCDENJ@bad?5array?5new?5length@ 004a4fec     protect.obj
 0002:00001008       ??_C@_0BB@FCMFBGOM@invalid?5argument@ 004a5008     protect.obj
 0002:0000101c       ??_C@_02DKCKIIND@?$CFs@    004a501c     protect.obj
 0002:00001020       ??_C@_0GL@GMNLCECP@C?3?2Program?5Files?5?$CIx86?$CJ?2Microsof@ 004a5020     protect.obj
 0002:000010a0       ??_C@_1NG@BHPDNEN@?$AAC?$AA?3?$AA?2?$AAP?$AAr?$AAo?$AAg?$AAr?$AAa?$AAm?$AA?5?$AAF?$AAi?$AAl?$AAe@ 004a50a0     protect.obj
 0002:000011a0       ??_C@_1EK@NIFDJFDG@?$AAs?$AAt?$AAd?$AA?3?$AA?3?$AA_?$AAA?$AAd?$AAj?$AAu?$AAs?$AAt?$AA_?$AAm?$AAa@ 004a51a0     protect.obj
 0002:000011f8       ??_C@_1CG@JNLFBNGN@?$AA?$CC?$AAi?$AAn?$AAv?$AAa?$AAl?$AAi?$AAd?$AA?5?$AAa?$AAr?$AAg?$AAu?$AAm?$AAe@ 004a51f8     protect.obj
 0002:00001228       ??_C@_0BJ@LFDBABJJ@ITERATOR?5LIST?5CORRUPTED?$CB@ 004a5228     protect.obj
 0002:00001248       ??_C@_1EE@KLDMFDFL@?$AAs?$AAt?$AAd?$AA?3?$AA?3?$AA_?$AAI?$AAt?$AAe?$AAr?$AAa?$AAt?$AAo?$AAr?$AA_@ 004a5248     protect.obj
 0002:0000129c       ??_C@_1DG@PLBPCAEM@?$AA?$CC?$AAI?$AAT?$AAE?$AAR?$AAA?$AAT?$AAO?$AAR?$AA?5?$AAL?$AAI?$AAS?$AAT?$AA?5@ 004a529c     protect.obj
 0002:000012dc       ??_C@_0BA@JFNIOLAK@string?5too?5long@ 004a52dc     protect.obj
 0002:000012f0       ??_C@_0BG@HGEDEDEC@invalid?5stoi?5argument@ 004a52f0     protect.obj
 0002:0000130c       ??_C@_0BL@MFFNMGGC@stoi?5argument?5out?5of?5range@ 004a530c     protect.obj
 0002:0000132c       ??_C@_00CNPNBAHC@@         004a532c     protect.obj
 0002:00001330       ??_C@_04JHBMAIMM@?$CF01X@  004a5330     protect.obj
 0002:00001338       ??_C@_05NADPPHDM@Key?3?5@  004a5338     protect.obj
 0002:00001340       ??_C@_0DP@JMIKLEIH@http?3?1?1showcase?4api?4linx?4twenty@ 004a5340     protect.obj
 0002:0000138c       ??_C@_01JLIPDDHJ@?3@       004a538c     protect.obj
 0002:00001390       ??_C@_01CLKCMJKC@?5@       004a5390     protect.obj
 0002:00001394       ??_C@_01LFCBOECM@?4@       004a5394     protect.obj
 0002:00001398       ??_C@_0DE@CHADHGFF@can?8t?5dereference?5value?9initial@ 004a5398     protect.obj
 0002:000013d8       ??_C@_0GK@OKFFBPEJ@C?3?2Program?5Files?5?$CIx86?$CJ?2Microsof@ 004a53d8     protect.obj
 0002:00001458       ??_C@_1NE@MAAPJHOA@?$AAC?$AA?3?$AA?2?$AAP?$AAr?$AAo?$AAg?$AAr?$AAa?$AAm?$AA?5?$AAF?$AAi?$AAl?$AAe@ 004a5458     protect.obj
 0002:00001558       ??_C@_1NI@FPJBBLEF@?$AAs?$AAt?$AAd?$AA?3?$AA?3?$AA_?$AAV?$AAe?$AAc?$AAt?$AAo?$AAr?$AA_?$AAc?$AAo@ 004a5558     protect.obj
 0002:00001660       ??_C@_1GM@FNBFNBEL@?$AA?$CC?$AAc?$AAa?$AAn?$AA?8?$AAt?$AA?5?$AAd?$AAe?$AAr?$AAe?$AAf?$AAe?$AAr?$AAe@ 004a5660     protect.obj
 0002:000016e4       ??_C@_0CP@MDHADBHN@can?8t?5dereference?5out?5of?5range?5@ 004a56e4     protect.obj
 0002:00001720       ??_C@_1GC@JDCKOLAC@?$AA?$CC?$AAc?$AAa?$AAn?$AA?8?$AAt?$AA?5?$AAd?$AAe?$AAr?$AAe?$AAf?$AAe?$AAr?$AAe@ 004a5720     protect.obj
 0002:00001798       ??_C@_1NK@EOENPLAA@?$AAs?$AAt?$AAd?$AA?3?$AA?3?$AA_?$AAV?$AAe?$AAc?$AAt?$AAo?$AAr?$AA_?$AAc?$AAo@ 004a5798     protect.obj
 0002:000018a0       ??_C@_1NK@IAKGCEKC@?$AAs?$AAt?$AAd?$AA?3?$AA?3?$AA_?$AAV?$AAe?$AAc?$AAt?$AAo?$AAr?$AA_?$AAc?$AAo@ 004a58a0     protect.obj
 0002:000019a8       ??_C@_1OK@CDJFAPNN@?$AAs?$AAt?$AAd?$AA?3?$AA?3?$AA_?$AAV?$AAe?$AAc?$AAt?$AAo?$AAr?$AA_?$AAc?$AAo@ 004a59a8     protect.obj
 0002:00001ac0       ??_C@_1NK@DCAPANHF@?$AAs?$AAt?$AAd?$AA?3?$AA?3?$AA_?$AAV?$AAe?$AAc?$AAt?$AAo?$AAr?$AA_?$AAc?$AAo@ 004a5ac0     protect.obj
 0002:00001bc8       ??_C@_0BO@LFGPDMIB@string?5subscript?5out?5of?5range@ 004a5bc8     protect.obj
 0002:00001bf0       ??_C@_0GL@JFBGCIMG@C?3?2Program?5Files?5?$CIx86?$CJ?2Microsof@ 004a5bf0     protect.obj
 0002:00001c70       ??_C@_1NG@OPPDMEJM@?$AAC?$AA?3?$AA?2?$AAP?$AAr?$AAo?$AAg?$AAr?$AAa?$AAm?$AA?5?$AAF?$AAi?$AAl?$AAe@ 004a5c70     protect.obj
 0002:00001d70       ??_C@_1EA@OADAPGGK@?$AA?$CC?$AAs?$AAt?$AAr?$AAi?$AAn?$AAg?$AA?5?$AAs?$AAu?$AAb?$AAs?$AAc?$AAr?$AAi@ 004a5d70     protect.obj
 0002:00001dc0       ??_C@_1LO@NPPEKPAI@?$AAs?$AAt?$AAd?$AA?3?$AA?3?$AAb?$AAa?$AAs?$AAi?$AAc?$AA_?$AAs?$AAt?$AAr?$AAi@ 004a5dc0     protect.obj
 0002:00001ea4       ??_C@_0DC@KEKNBAEB@can?8t?5increment?5value?9initializ@ 004a5ea4     protect.obj
 0002:00001ee0       ??_C@_1NI@OOAPFPPF@?$AAs?$AAt?$AAd?$AA?3?$AA?3?$AA_?$AAV?$AAe?$AAc?$AAt?$AAo?$AAr?$AA_?$AAc?$AAo@ 004a5ee0     protect.obj
 0002:00001fe8       ??_C@_1GI@EDCILPL@?$AA?$CC?$AAc?$AAa?$AAn?$AA?8?$AAt?$AA?5?$AAi?$AAn?$AAc?$AAr?$AAe?$AAm?$AAe?$AAn@ 004a5fe8     protect.obj
 0002:00002064       ??_C@_0CJ@OAAAAGPM@can?8t?5increment?5vector?5iterator@ 004a6064     protect.obj
 0002:00002098       ??_C@_1FG@LDPPKMGP@?$AA?$CC?$AAc?$AAa?$AAn?$AA?8?$AAt?$AA?5?$AAi?$AAn?$AAc?$AAr?$AAe?$AAm?$AAe?$AAn@ 004a6098     protect.obj
 0002:00002100       ??_C@_1NK@PPNDLPLA@?$AAs?$AAt?$AAd?$AA?3?$AA?3?$AA_?$AAV?$AAe?$AAc?$AAt?$AAo?$AAr?$AA_?$AAc?$AAo@ 004a6100     protect.obj
 0002:00002208       ??_C@_1NK@DBDIGABC@?$AAs?$AAt?$AAd?$AA?3?$AA?3?$AA_?$AAV?$AAe?$AAc?$AAt?$AAo?$AAr?$AA_?$AAc?$AAo@ 004a6208     protect.obj
 0002:00002310       ??_C@_1OK@JCALELGN@?$AAs?$AAt?$AAd?$AA?3?$AA?3?$AA_?$AAV?$AAe?$AAc?$AAt?$AAo?$AAr?$AA_?$AAc?$AAo@ 004a6310     protect.obj
 0002:00002428       ??_C@_1NK@IDJBEJMF@?$AAs?$AAt?$AAd?$AA?3?$AA?3?$AA_?$AAV?$AAe?$AAc?$AAt?$AAo?$AAr?$AA_?$AAc?$AAo@ 004a6428     protect.obj
 0002:00002530       ??_C@_0BO@CAOBBIOC@vector?5iterators?5incompatible@ 004a6530     protect.obj
 0002:00002558       ??_C@_1NA@NEJDOGHO@?$AAs?$AAt?$AAd?$AA?3?$AA?3?$AA_?$AAV?$AAe?$AAc?$AAt?$AAo?$AAr?$AA_?$AAc?$AAo@ 004a6558     protect.obj
 0002:00002658       ??_C@_1EA@DJDGNIII@?$AA?$CC?$AAv?$AAe?$AAc?$AAt?$AAo?$AAr?$AA?5?$AAi?$AAt?$AAe?$AAr?$AAa?$AAt?$AAo@ 004a6658     protect.obj
 0002:000026a8       ??_C@_1NC@EPHCDAIF@?$AAs?$AAt?$AAd?$AA?3?$AA?3?$AA_?$AAV?$AAe?$AAc?$AAt?$AAo?$AAr?$AA_?$AAc?$AAo@ 004a66a8     protect.obj
 0002:000027a8       ??_C@_1NC@DOHBAKAN@?$AAs?$AAt?$AAd?$AA?3?$AA?3?$AA_?$AAV?$AAe?$AAc?$AAt?$AAo?$AAr?$AA_?$AAc?$AAo@ 004a67a8     protect.obj
 0002:000028a8       ??_C@_1OC@PNJPKPBI@?$AAs?$AAt?$AAd?$AA?3?$AA?3?$AA_?$AAV?$AAe?$AAc?$AAt?$AAo?$AAr?$AA_?$AAc?$AAo@ 004a68a8     protect.obj
 0002:000029b8       ??_C@_1NC@OHNCNBAN@?$AAs?$AAt?$AAd?$AA?3?$AA?3?$AA_?$AAV?$AAe?$AAc?$AAt?$AAo?$AAr?$AA_?$AAc?$AAo@ 004a69b8     protect.obj
 0002:00002ab4       ??_C@_0BI@CFPLBAOH@invalid?5string?5position@ 004a6ab4     protect.obj
 0002:00002ad0       ??_C@_0BJ@HAJGEHKO@transposed?5pointer?5range@ 004a6ad0     protect.obj
 0002:00002af0       ??_C@_0GM@GIEGOCCN@C?3?2Program?5Files?5?$CIx86?$CJ?2Microsof@ 004a6af0     protect.obj
 0002:00002b78       ??_C@_1NI@BAHPFBCE@?$AAC?$AA?3?$AA?2?$AAP?$AAr?$AAo?$AAg?$AAr?$AAa?$AAm?$AA?5?$AAF?$AAi?$AAl?$AAe@ 004a6b78     protect.obj
 0002:00002c7c       ??_C@_1CG@LJCPDKEJ@?$AAs?$AAt?$AAd?$AA?3?$AA?3?$AA_?$AAV?$AAe?$AAr?$AAi?$AAf?$AAy?$AA_?$AAr?$AAa@ 004a6c7c     protect.obj
 0002:00002cac       ??_C@_1DG@FJIKMGFD@?$AA?$CC?$AAt?$AAr?$AAa?$AAn?$AAs?$AAp?$AAo?$AAs?$AAe?$AAd?$AA?5?$AAp?$AAo?$AAi@ 004a6cac     protect.obj
 0002:00002cf0       ??_C@_1EO@GFNCMDLA@?$AAs?$AAt?$AAd?$AA?3?$AA?3?$AA_?$AAA?$AAl?$AAl?$AAo?$AAc?$AAa?$AAt?$AAe?$AA_@ 004a6cf0     protect.obj
 0002:00002d50       ?_DEFAULT_MAX_OUTPUT@SystemCommand@@0HB 004a6d50     systeminfo.obj
 0002:00002d54       ?KILOBYTES_PER_MEGABYTE@OSInfo@@0HB 004a6d54     systeminfo.obj
 0002:00002d58       ?BYTES_PER_MEGABYTE@RAMInfo@@0HB 004a6d58     systeminfo.obj
 0002:00002d60       ??_C@_0BH@KOGMOJCH@invalid?5stoll?5argument@ 004a6d60     systeminfo.obj
 0002:00002d7c       ??_C@_0BM@BPCBEBLO@stoll?5argument?5out?5of?5range@ 004a6d7c     systeminfo.obj
 0002:00002da4       ??_7bad_cast@std@@6B@      004a6da4     systeminfo.obj
 0002:00002db0       ??_C@_08EPJLHIJG@bad?5cast@ 004a6db0     systeminfo.obj
 0002:00002dbc       ??_C@_01GFHCPBMG@C@        004a6dbc     systeminfo.obj
 0002:00002dc4       ??_7?$basic_filebuf@DU?$char_traits@D@std@@@std@@6B@ 004a6dc4     systeminfo.obj
 0002:00002e10       ??_7?$basic_ifstream@DU?$char_traits@D@std@@@std@@6B@ 004a6e10     systeminfo.obj
 0002:00002e18       ??_8?$basic_ifstream@DU?$char_traits@D@std@@@std@@7B@ 004a6e18     systeminfo.obj
 0002:00002e28       ??_7?$basic_stringbuf@DU?$char_traits@D@std@@V?$allocator@D@2@@std@@6B@ 004a6e28     systeminfo.obj
 0002:00002e74       ??_7?$basic_stringstream@DU?$char_traits@D@std@@V?$allocator@D@2@@std@@6B@ 004a6e74     systeminfo.obj
 0002:00002e7c       ??_8?$basic_stringstream@DU?$char_traits@D@std@@V?$allocator@D@2@@std@@7B?$basic_istream@DU?$char_traits@D@std@@@1@@ 004a6e7c     systeminfo.obj
 0002:00002e88       ??_8?$basic_stringstream@DU?$char_traits@D@std@@V?$allocator@D@2@@std@@7B?$basic_ostream@DU?$char_traits@D@std@@@1@@ 004a6e88     systeminfo.obj
 0002:00002e98       ??_C@_0FF@ODEOEJDF@wmic?5?1namespace?3?2?2root?2wmi?5PATH@ 004a6e98     systeminfo.obj
 0002:00002f00       ??_C@_06PONDCDME@ERROR?3@  004a6f00     systeminfo.obj
 0002:00002f08       ??_C@_0DN@ILJDKAAO@wmic?5cpu?5get?5?1format?3list?5?$HM?5fin@ 004a6f08     systeminfo.obj
 0002:00002f54       ??_C@_0BD@PGHEEDII@CurrentClockSpeed?$DN@ 004a6f54     systeminfo.obj
 0002:00002f6c       ??_C@_05DCIFAFBG@Name?$DN@ 004a6f6c     systeminfo.obj
 0002:00002f74       ??_C@_0P@BHLKPIPI@NumberOfCores?$DN@ 004a6f74     systeminfo.obj
 0002:00002f88       ??_C@_0O@HNEOCNDC@Manufacturer?$DN@ 004a6f88     systeminfo.obj
 0002:00002f98       ??_C@_0L@BAIIMEAH@DataWidth?$DN@ 004a6f98     systeminfo.obj
 0002:00002fa8       ??_C@_0N@NPABCCND@L2CacheSize?$DN@ 004a6fa8     systeminfo.obj
 0002:00002fb8       ??_C@_0N@EEKEGOLM@L3CacheSize?$DN@ 004a6fb8     systeminfo.obj
 0002:00002fc8       ??_C@_02LODOGJEL@KB@       004a6fc8     systeminfo.obj
 0002:00002fcc       ??_C@_07NBCGADJA@Unknown@  004a6fcc     systeminfo.obj
 0002:00002fd8       ??_C@_03BMJMONAH@MHz@      004a6fd8     systeminfo.obj
 0002:00002fdc       ??_C@_03NDFEINMN@x86@      004a6fdc     systeminfo.obj
 0002:00002fe0       ??_C@_06HDPOADAK@x86_64@   004a6fe0     systeminfo.obj
 0002:00002fe8       ??_C@_0BL@LFOFMABP@wmic?5cpu?5get?5?1format?3?5list@ 004a6fe8     systeminfo.obj
 0002:00003008       ??_C@_09KGLINCJH@AssetTag?$DN@ 004a7008     systeminfo.obj
 0002:00003014       ??_C@_0N@JEAIMEKG@VoltageCaps?$DN@ 004a7014     systeminfo.obj
 0002:00003024       ??_C@_01LIIJDEN@?$AN@      004a7024     systeminfo.obj
 0002:00003028       ??_C@_06HLMMPIBG@NVIDIA@   004a7028     systeminfo.obj
 0002:00003030       ??_C@_05OPFLDEAH@INTEL@    004a7030     systeminfo.obj
 0002:00003038       ??_C@_03BBEEILCJ@AMD@      004a7038     systeminfo.obj
 0002:0000303c       ??_C@_0BG@JEIDHDPM@AdapterCompatibility?$DN@ 004a703c     systeminfo.obj
 0002:00003058       ??_C@_0M@MFMICOBC@AdapterRAM?$DN@ 004a7058     systeminfo.obj
 0002:00003068       ??_C@_0BE@HFKIHEFN@CurrentRefreshRate?$DN@ 004a7068     systeminfo.obj
 0002:00003080       ??_C@_0P@ECEAHKCA@DriverVersion?$DN@ 004a7080     systeminfo.obj
 0002:00003094       ??_C@_0BD@PJIEMGDB@VideoArchitecture?$DN@ 004a7094     systeminfo.obj
 0002:000030ac       ??_C@_0BA@COFLHODM@VideoMemoryType@ 004a70ac     systeminfo.obj
 0002:000030c0       ??_C@_0BG@KAJCOKNL@VideoModeDescription?$DN@ 004a70c0     systeminfo.obj
 0002:000030dc       ??_C@_0BA@IDIFCJOL@VideoProcessor?$DN@ 004a70dc     systeminfo.obj
 0002:000030f0       ??_C@_08EBLFLHLH@Caption?$DN@ 004a70f0     systeminfo.obj
 0002:000030fc       ??_C@_07IOEJHCEF@?5Bytes?$CJ@ 004a70fc     systeminfo.obj
 0002:00003108       ??_C@_04MNLDOMOG@MB?5?$CI@ 004a7108     systeminfo.obj
 0002:00003110       ??_C@_06LFCPCEPB@?5Bytes@  004a7110     systeminfo.obj
 0002:00003118       ??_C@_05BBOGGNLJ@Other@    004a7118     systeminfo.obj
 0002:00003120       ??_C@_03MLKNDCDB@CGA@      004a7120     systeminfo.obj
 0002:00003124       ??_C@_03OOMGGNON@EGA@      004a7124     systeminfo.obj
 0002:00003128       ??_C@_03KMGKJFJM@VGA@      004a7128     systeminfo.obj
 0002:0000312c       ??_C@_04DELPAIIG@SVGA@     004a712c     systeminfo.obj
 0002:00003134       ??_C@_03CJDEPLFL@MDA@      004a7134     systeminfo.obj
 0002:00003138       ??_C@_03COJKNHLC@HGC@      004a7138     systeminfo.obj
 0002:0000313c       ??_C@_04IMKIIGMI@MCGA@     004a713c     systeminfo.obj
 0002:00003144       ??_C@_05ENECEAKG@8514A@    004a7144     systeminfo.obj
 0002:0000314c       ??_C@_03EMLFOCKP@XGA@      004a714c     systeminfo.obj
 0002:00003150       ??_C@_0BE@HCJIGBPB@Linear?5Frame?5Buffer@ 004a7150     systeminfo.obj
 0002:00003168       ??_C@_07BIPCJPON@PC?5?9?598@ 004a7168     systeminfo.obj
 0002:00003174       ??_C@_04NLAFCDBP@VRAM@     004a7174     systeminfo.obj
 0002:0000317c       ??_C@_04MBCFOHPN@DRAM@     004a717c     systeminfo.obj
 0002:00003184       ??_C@_04BDOFKMGP@SRAM@     004a7184     systeminfo.obj
 0002:0000318c       ??_C@_04OGGFAKKP@WRAM@     004a718c     systeminfo.obj
 0002:00003194       ??_C@_07FKCCEMEA@EDO_RAM@  004a7194     systeminfo.obj
 0002:000031a0       ??_C@_0BH@DEHCDIJM@Burst?5Synchronous?5DRAM@ 004a71a0     systeminfo.obj
 0002:000031bc       ??_C@_0BF@IJELNNLE@Pipelined?5Burst?5SRAM@ 004a71bc     systeminfo.obj
 0002:000031d8       ??_C@_05DPAJMJIB@CDRAM@    004a71d8     systeminfo.obj
 0002:000031e0       ??_C@_05DECLMEEA@3DRAM@    004a71e0     systeminfo.obj
 0002:000031e8       ??_C@_05DMNPMLBK@SDRAM@    004a71e8     systeminfo.obj
 0002:000031f0       ??_C@_05HLHPLBMK@SGRAM@    004a71f0     systeminfo.obj
 0002:000031f8       ??_C@_0DC@PMLGMCKE@wmic?5path?5Win32_VideoController@ 004a71f8     systeminfo.obj
 0002:00003234       ??_C@_0BF@MNNLIBBB@CurrentBitsPerPixel?$DN@ 004a7234     systeminfo.obj
 0002:00003250       ??_C@_0EF@JNOHMMK@wmic?5path?5Win32_PnPEntity?5get?5?1@ 004a7250     systeminfo.obj
 0002:000032a4       ??_C@_08EKPLPCOK@Product?$DN@ 004a72a4     systeminfo.obj
 0002:000032b0       ??_C@_0N@NCLCEBBL@Description?$DN@ 004a72b0     systeminfo.obj
 0002:000032c0       ??_C@_07CPHKODAM@Chipset@  004a72c0     systeminfo.obj
 0002:000032cc       ??_C@_0O@OFNCEPFA@SerialNumber?$DN@ 004a72cc     systeminfo.obj
 0002:000032dc       ??_C@_08KJDCJPOC@Version?$DN@ 004a72dc     systeminfo.obj
 0002:000032e8       ??_C@_0CB@BDBEEPBD@wmic?5baseboard?5get?5?1format?3?5lis@ 004a72e8     systeminfo.obj
 0002:00003310       ??_C@_0BH@BLPEBJGK@RequiresDaughterBoard?$DN@ 004a7310     systeminfo.obj
 0002:0000332c       ??_C@_06PNJJNEK@Width?$DN@ 004a732c     systeminfo.obj
 0002:00003334       ??_C@_0BA@HJFKPBCC@OSArchitecture?$DN@ 004a7334     systeminfo.obj
 0002:00003348       ??_C@_0BA@INGADHEL@RegisteredUser?$DN@ 004a7348     systeminfo.obj
 0002:0000335c       ??_C@_0N@ODOKOKID@InstallDate?$DN@ 004a735c     systeminfo.obj
 0002:0000336c       ??_C@_0N@JEMEBDNJ@BuildNumber?$DN@ 004a736c     systeminfo.obj
 0002:0000337c       ??_C@_0BA@GCBFFF@LastBootUpTime?$DN@ 004a737c     systeminfo.obj
 0002:00003390       ??_C@_0M@CGJKPCAI@BootDevice?$DN@ 004a7390     systeminfo.obj
 0002:000033a0       ??_C@_0BI@PMGAEKHL@TotalVirtualMemorySize?$DN@ 004a73a0     systeminfo.obj
 0002:000033bc       ??_C@_0BI@HLKHBHBJ@TotalVisibleMemorySize?$DN@ 004a73bc     systeminfo.obj
 0002:000033d8       ??_C@_0P@GNHCPJKN@TotalSwapSize?$DN@ 004a73d8     systeminfo.obj
 0002:000033ec       ??_C@_0BE@DEHHBEC@FreePhysicalMemory?$DN@ 004a73ec     systeminfo.obj
 0002:00003404       ??_C@_0DN@FMHPDIHB@wmic?5os?5get?5?1format?3list?5?$HM?5find@ 004a7404     systeminfo.obj
 0002:00003450       ??_C@_0BD@LBCHCOMB@FreeVirtualMemory?$DN@ 004a7450     systeminfo.obj
 0002:00003468       ??_C@_0DM@IMOGBFPI@wmic?5os?5get?5?1format?3list?5?$HM?5find@ 004a7468     systeminfo.obj
 0002:000034b0       ??_C@_0BI@JAIEFCLJ@FreeSpaceInPagingFiles?$DN@ 004a74b0     systeminfo.obj
 0002:000034d0       ??_C@_0EB@OBBKEDCH@wmic?5os?5get?5?1format?3list?5?$HM?5find@ 004a74d0     systeminfo.obj
 0002:00003520       ??_C@_0BJ@FNCKOEAK@SizeStoredInPagingFiles?$DN@ 004a7520     systeminfo.obj
 0002:00003540       ??_C@_0EC@EKOMMEFI@wmic?5os?5get?5?1format?3list?5?$HM?5find@ 004a7540     systeminfo.obj
 0002:00003590       ??_C@_0P@OEDDHIDF@LocalDateTime?$DN@ 004a7590     systeminfo.obj
 0002:000035a4       ??_C@_0DI@PPLPAHM@wmic?5os?5get?5?1format?3list?5?$HM?5find@ 004a75a4     systeminfo.obj
 0002:000035e8       ??_C@_04IDFBDOJP@?5KB?$CJ@ 004a75e8     systeminfo.obj
 0002:000035f0       ??_C@_03MAAJMAHL@?5KB@     004a75f0     systeminfo.obj
 0002:000035f4       ??_C@_0BJ@PEOICEGE@wmic?5os?5get?5?1format?3list@ 004a75f4     systeminfo.obj
 0002:00003614       ??_C@_0BJ@BADAMLNJ@PortableOperatingSystem?$DN@ 004a7614     systeminfo.obj
 0002:00003634       ??_C@_0BC@KMGAAGMI@WindowsDirectory?$DN@ 004a7634     systeminfo.obj
 0002:0000364c       ??_C@_0P@CLNGFENG@DeviceLocator?$DN@ 004a764c     systeminfo.obj
 0002:00003660       ??_C@_09GMKGCMGO@Capacity?$DN@ 004a7660     systeminfo.obj
 0002:0000366c       ??_C@_0M@NJBBNODN@FormFactor?$DN@ 004a766c     systeminfo.obj
 0002:0000367c       ??_C@_0M@JCECAJFD@PartNumber?$DN@ 004a767c     systeminfo.obj
 0002:0000368c       ??_C@_0M@BHDFFOOC@MemoryType?$DN@ 004a768c     systeminfo.obj
 0002:0000369c       ??_C@_0BG@HOKNLHKH@ConfiguredClockSpeed?$DN@ 004a769c     systeminfo.obj
 0002:000036b8       ??_C@_06DJAAKCE@Speed?$DN@ 004a76b8     systeminfo.obj
 0002:000036c0       ??_C@_0BA@PHEJNBIO@Syncronous?5DRAM@ 004a76c0     systeminfo.obj
 0002:000036d4       ??_C@_0L@KFMNNBLH@Cache?5DRAM@ 004a76d4     systeminfo.obj
 0002:000036e4       ??_C@_03HCADPODK@EDO@      004a76e4     systeminfo.obj
 0002:000036e8       ??_C@_05OJFACKJM@EDRAM@    004a76e8     systeminfo.obj
 0002:000036f0       ??_C@_03ILDADBHF@RAM@      004a76f0     systeminfo.obj
 0002:000036f4       ??_C@_03IBKOBMHP@ROM@      004a76f4     systeminfo.obj
 0002:000036f8       ??_C@_05LDPHIKKB@Flash@    004a76f8     systeminfo.obj
 0002:00003700       ??_C@_06EMDDBCNH@EEPROM@   004a7700     systeminfo.obj
 0002:00003708       ??_C@_06HNNLAIEK@FEPROM@   004a7708     systeminfo.obj
 0002:00003710       ??_C@_05HGKODGNE@EPROM@    004a7710     systeminfo.obj
 0002:00003718       ??_C@_05PHIDBILP@RDRAM@    004a7718     systeminfo.obj
 0002:00003720       ??_C@_04CJLNMEGN@DDR1@     004a7720     systeminfo.obj
 0002:00003728       ??_C@_04CJAJHKO@DDR2@      004a7728     systeminfo.obj
 0002:00003730       ??_C@_0O@HNAHBKBC@DDR2?5?9?5FBDIMM@ 004a7730     systeminfo.obj
 0002:00003740       ??_C@_04BLILKGOP@DDR3@     004a7740     systeminfo.obj
 0002:00003748       ??_C@_04EFJAEENA@FBD2@     004a7748     systeminfo.obj
 0002:00003750       ??_C@_03MCPDGLLE@SIP@      004a7750     systeminfo.obj
 0002:00003754       ??_C@_03PDNAEJC@DIP@       004a7754     systeminfo.obj
 0002:00003758       ??_C@_03LPPLCEDO@ZIP@      004a7758     systeminfo.obj
 0002:0000375c       ??_C@_03HGFDONNN@SOJ@      004a775c     systeminfo.obj
 0002:00003760       ??_C@_0M@EAHCLNFM@Proprietary@ 004a7760     systeminfo.obj
 0002:00003770       ??_C@_04JNOHIFJF@SIMM@     004a7770     systeminfo.obj
 0002:00003778       ??_C@_04EPCHMOAH@DIMM@     004a7778     systeminfo.obj
 0002:00003780       ??_C@_04OMILFGAM@TSOP@     004a7780     systeminfo.obj
 0002:00003788       ??_C@_03IJABMKEA@PGA@      004a7788     systeminfo.obj
 0002:0000378c       ??_C@_04KAIHKMCF@RIMM@     004a778c     systeminfo.obj
 0002:00003794       ??_C@_06PIFKKNPH@SODIMM@   004a7794     systeminfo.obj
 0002:0000379c       ??_C@_05FNHNIAMC@SRIMM@    004a779c     systeminfo.obj
 0002:000037a4       ??_C@_03OLFEBEDN@SMD@      004a77a4     systeminfo.obj
 0002:000037a8       ??_C@_04FNCPFOHC@SSMP@     004a77a8     systeminfo.obj
 0002:000037b0       ??_C@_03ENAIDDFH@QFD@      004a77b0     systeminfo.obj
 0002:000037b4       ??_C@_04EJFDKFAI@TQFP@     004a77b4     systeminfo.obj
 0002:000037bc       ??_C@_04CBAGFPBL@SOIC@     004a77bc     systeminfo.obj
 0002:000037c4       ??_C@_03KGPBOIDJ@LCC@      004a77c4     systeminfo.obj
 0002:000037c8       ??_C@_04HJIEAPPD@PLCC@     004a77c8     systeminfo.obj
 0002:000037d0       ??_C@_03HDBBFFFE@BGA@      004a77d0     systeminfo.obj
 0002:000037d4       ??_C@_05CIFANFB@FPBGA@     004a77d4     systeminfo.obj
 0002:000037dc       ??_C@_03JDMOCCGH@LGA@      004a77dc     systeminfo.obj
 0002:000037e0       ??_C@_0CC@FIPGLJJI@wmic?5memorychip?5get?5?1format?3?5li@ 004a77e0     systeminfo.obj
 0002:00003808       ??_C@_04IFFFBHG@2?$DO?$CG1@ 004a7808     systeminfo.obj
 0002:00003810       ??_C@_01PPODPGHN@?$DO@     004a7810     systeminfo.obj
 0002:00003814       ??_C@_02PCIJFNDE@?$AN?6@   004a7814     systeminfo.obj
 0002:00003818       ??_C@_02LIIHNNHG@?6?$AN@   004a7818     systeminfo.obj
 0002:0000381c       ??_C@_01EEMJAFIK@?6@       004a781c     systeminfo.obj
 0002:00003820       ??_C@_05HIBJACPO@?52?$DO?$CG1@ 004a7820     systeminfo.obj
 0002:00003828       ??_C@_01KDCPPGHE@r@        004a7828     systeminfo.obj
 0002:0000382c       ??_C@_01BJJEKLCA@?$CC@     004a782c     systeminfo.obj
 0002:00003830       ??_C@_0CD@LHOMMFEI@ERROR?3?5Failed?5to?5execute?5comman@ 004a7830     systeminfo.obj
 0002:00003860       ??_C@_1BHA@LNOGLNAE@?$AAs?$AAt?$AAd?$AA?3?$AA?3?$AA_?$AAV?$AAe?$AAc?$AAt?$AAo?$AAr?$AA_?$AAc?$AAo@ 004a7860     systeminfo.obj
 0002:00003a20       ??_C@_1BGO@ENKEMOHL@?$AAs?$AAt?$AAd?$AA?3?$AA?3?$AA_?$AAV?$AAe?$AAc?$AAt?$AAo?$AAr?$AA_?$AAc?$AAo@ 004a7a20     systeminfo.obj
 0002:00003bd8       ??_C@_1BHA@MHIPJLE@?$AAs?$AAt?$AAd?$AA?3?$AA?3?$AA_?$AAV?$AAe?$AAc?$AAt?$AAo?$AAr?$AA_?$AAc?$AAo@ 004a7bd8     systeminfo.obj
 0002:00003d94       ??_C@_0BP@PFIPNLNI@front?$CI?$CJ?5called?5on?5empty?5string@ 004a7d94     systeminfo.obj
 0002:00003dc0       ??_C@_1LC@BJDDPGPA@?$AAs?$AAt?$AAd?$AA?3?$AA?3?$AAb?$AAa?$AAs?$AAi?$AAc?$AA_?$AAs?$AAt?$AAr?$AAi@ 004a7dc0     systeminfo.obj
 0002:00003e98       ??_C@_1EC@DINNLDHA@?$AA?$CC?$AAf?$AAr?$AAo?$AAn?$AAt?$AA?$CI?$AA?$CJ?$AA?5?$AAc?$AAa?$AAl?$AAl?$AAe?$AAd@ 004a7e98     systeminfo.obj
 0002:00003ee8       ??_C@_1BGI@CFILNOOP@?$AAs?$AAt?$AAd?$AA?3?$AA?3?$AA_?$AAV?$AAe?$AAc?$AAt?$AAo?$AAr?$AA_?$AAc?$AAo@ 004a7ee8     systeminfo.obj
 0002:00004098       ??_C@_0CO@LHPFLLJB@cannot?5seek?5value?9initialized?5v@ 004a8098     systeminfo.obj
 0002:000040d0       ??_C@_1BHG@CACGJPPI@?$AAs?$AAt?$AAd?$AA?3?$AA?3?$AA_?$AAV?$AAe?$AAc?$AAt?$AAo?$AAr?$AA_?$AAc?$AAo@ 004a80d0     systeminfo.obj
 0002:00004290       ??_C@_1GA@EIHBFEJD@?$AA?$CC?$AAc?$AAa?$AAn?$AAn?$AAo?$AAt?$AA?5?$AAs?$AAe?$AAe?$AAk?$AA?5?$AAv?$AAa@ 004a8290     systeminfo.obj
 0002:00004304       ??_C@_0CJ@DIFMEJBE@cannot?5seek?5vector?5iterator?5bef@ 004a8304     systeminfo.obj
 0002:00004338       ??_C@_1FG@JCGKNFIB@?$AA?$CC?$AAc?$AAa?$AAn?$AAn?$AAo?$AAt?$AA?5?$AAs?$AAe?$AAe?$AAk?$AA?5?$AAv?$AAe@ 004a8338     systeminfo.obj
 0002:000043a0       ??_C@_0CG@JDIOCKHH@cannot?5seek?5vector?5iterator?5aft@ 004a83a0     systeminfo.obj
 0002:000043d0       ??_C@_1FA@LCODAPOP@?$AA?$CC?$AAc?$AAa?$AAn?$AAn?$AAo?$AAt?$AA?5?$AAs?$AAe?$AAe?$AAk?$AA?5?$AAv?$AAe@ 004a83d0     systeminfo.obj
 0002:00004430       ??_C@_0PC@KBJGOMJG@You?5cannot?5concatenate?5the?5same@ 004a8430     systeminfo.obj
 0002:00004554       ??_C@_1CA@DFIMIFBJ@?$AAs?$AAt?$AAd?$AA?3?$AA?3?$AAo?$AAp?$AAe?$AAr?$AAa?$AAt?$AAo?$AAr?$AA?5?$AA?$CL@ 004a8554     systeminfo.obj
 0002:00004580       ??_C@_1BPK@IDOEFEOL@?$AA?$CC?$AAY?$AAo?$AAu?$AA?5?$AAc?$AAa?$AAn?$AAn?$AAo?$AAt?$AA?5?$AAc?$AAo?$AAn@ 004a8580     systeminfo.obj
 0002:000047e0       ??_C@_0BA@FOIKENOD@vector?5too?5long@ 004a87e0     systeminfo.obj
 0002:00004818       ??_C@_0DO@MINOPJNL@d?3?2agent?2_work?23?2s?2src?2vctools?2@ 004a8818     msvcprtd:locale0_implib.obj
 0002:00004868       ??_7type_info@@6B@         004a8868     MSVCRTD:std_type_info_static.obj
 0002:00004930       ??_C@_0NN@JMPELKLB@The?5value?5of?5ESP?5was?5not?5proper@ 004a8930     MSVCRTD:error.obj
 0002:00004a40       ??_C@_0BBN@ELNNILBE@A?5cast?5to?5a?5smaller?5data?5type?5h@ 004a8a40     MSVCRTD:error.obj
 0002:00004b98       ??_C@_0BN@BPOGFMJL@Stack?5memory?5was?5corrupted?$AN?6@ 004a8b98     MSVCRTD:error.obj
 0002:00004bbc       ??_C@_0DG@DAJCDLPN@A?5local?5variable?5was?5used?5befor@ 004a8bbc     MSVCRTD:error.obj
 0002:00004bfc       ??_C@_0CM@JMIDGKLA@Stack?5memory?5around?5_alloca?5was@ 004a8bfc     MSVCRTD:error.obj
 0002:00004c30       ??_C@_0BO@CHIONIOI@Unknown?5Runtime?5Check?5Error?$AN?6@ 004a8c30     MSVCRTD:error.obj
 0002:00004c58       ??_C@_1GM@CNOOJIHC@?$AAR?$AAu?$AAn?$AAt?$AAi?$AAm?$AAe?$AA?5?$AAC?$AAh?$AAe?$AAc?$AAk?$AA?5?$AAE@ 004a8c58     MSVCRTD:error.obj
 0002:00004ce0       ??_C@_1EA@NFKNIFJP@?$AAR?$AAu?$AAn?$AA?9?$AAT?$AAi?$AAm?$AAe?$AA?5?$AAC?$AAh?$AAe?$AAc?$AAk?$AA?5@ 004a8ce0     MSVCRTD:error.obj
 0002:00004d2c       ??_C@_0BB@PFFGGCJP@Unknown?5Filename@ 004a8d2c     MSVCRTD:error.obj
 0002:00004d40       ??_C@_0BE@GNBOBNCK@Unknown?5Module?5Name@ 004a8d40     MSVCRTD:error.obj
 0002:00004d58       ??_C@_0CA@IODNCDPG@Run?9Time?5Check?5Failure?5?$CD?$CFd?5?9?5?$CFs@ 004a8d58     MSVCRTD:error.obj
 0002:00004d80       ??_C@_0CG@IAFNJNEE@Stack?5corrupted?5near?5unknown?5va@ 004a8d80     MSVCRTD:error.obj
 0002:00004db0       ??_C@_05MKKEDADM@?$CF?42X?5@ 004a8db0     MSVCRTD:error.obj
 0002:00004db8       ??_C@_0EJ@LJKNEOLN@Stack?5area?5around?5_alloca?5memor@ 004a8db8     MSVCRTD:error.obj
 0002:00004e10       ??_C@_02LLMPMKNF@?$DO?5@   004a8e10     MSVCRTD:error.obj
 0002:00004e14       ??_C@_08OMAHNMHJ@?6Data?3?5?$DM@ 004a8e14     MSVCRTD:error.obj
 0002:00004e20       ??_C@_0CK@DKGBICFE@?6Allocation?5number?5within?5this?5@ 004a8e20     MSVCRTD:error.obj
 0002:00004e54       ??_C@_07DFDJCKFN@?6Size?3?5@ 004a8e54     MSVCRTD:error.obj
 0002:00004e60       ??_C@_0N@MHFFIMFG@?6Address?3?50x@ 004a8e60     MSVCRTD:error.obj
 0002:00004e70       ??_C@_0EI@CLEPFNGI@Stack?5area?5around?5_alloca?5memor@ 004a8e70     MSVCRTD:error.obj
 0002:00004ec8       ??_C@_0BK@ODNDAGKB@?$CFs?$CFs?$CFp?$CFs?$CFzd?$CFs?$CFd?$CFs?$CFs?$CFs?$CFs?$CFs@ 004a8ec8     MSVCRTD:error.obj
 0002:00004ee8       ??_C@_0DE@OHJBPMBP@A?5variable?5is?5being?5used?5withou@ 004a8ee8     MSVCRTD:error.obj
 0002:00004f4c       ??_C@_0BJ@HEGAHDFO@Stack?5pointer?5corruption@ 004a8f4c     MSVCRTD:userapi.obj
 0002:00004f6c       ??_C@_0CK@FEGOIOPB@Cast?5to?5smaller?5type?5causing?5lo@ 004a8f6c     MSVCRTD:userapi.obj
 0002:00004fa0       ??_C@_0BI@CIGMDCBH@Stack?5memory?5corruption@ 004a8fa0     MSVCRTD:userapi.obj
 0002:00004fbc       ??_C@_0CK@CNLNOEPB@Local?5variable?5used?5before?5init@ 004a8fbc     MSVCRTD:userapi.obj
 0002:00004ff0       ??_C@_0BP@OGBCLIBO@Stack?5around?5_alloca?5corrupted@ 004a8ff0     MSVCRTD:userapi.obj
 0002:00005018       ??_C@_0P@GHFPNOJB@bad?5allocation@ 004a9018     MSVCRTD:throw_bad_alloc.obj
 0002:00005088       ??_C@_1EI@MLPKHBGE@?$AAa?$AAp?$AAi?$AA?9?$AAm?$AAs?$AA?9?$AAw?$AAi?$AAn?$AA?9?$AAc?$AAo?$AAr?$AAe@ 004a9088     MSVCRTD:pdblkup.obj
 0002:000050e0       ??_C@_1BK@JHLNAEJL@?$AAa?$AAd?$AAv?$AAa?$AAp?$AAi?$AA3?$AA2?$AA?4?$AAd?$AAl?$AAl@ 004a90e0     MSVCRTD:pdblkup.obj
 0002:00005100       ??_C@_0O@COHOBMLB@RegOpenKeyExW@ 004a9100     MSVCRTD:pdblkup.obj
 0002:00005110       ??_C@_0BB@GLNAEDBD@RegQueryValueExW@ 004a9110     MSVCRTD:pdblkup.obj
 0002:00005124       ??_C@_0M@HLOHPNFA@RegCloseKey@ 004a9124     MSVCRTD:pdblkup.obj
 0002:00005138       ??_C@_1HE@EBEAGLFB@?$AAS?$AAO?$AAF?$AAT?$AAW?$AAA?$AAR?$AAE?$AA?2?$AAW?$AAo?$AAw?$AA6?$AA4?$AA3@ 004a9138     MSVCRTD:pdblkup.obj
 0002:000051c4       ??_C@_1BG@EABPBLLF@?$AAP?$AAr?$AAo?$AAd?$AAu?$AAc?$AAt?$AAD?$AAi?$AAr@ 004a91c4     MSVCRTD:pdblkup.obj
 0002:00005204       ??_C@_1BC@JINFINNJ@?$AAM?$AAS?$AAP?$AAD?$AAB?$AA1?$AA4?$AA0@ 004a9204     MSVCRTD:pdblkup.obj
 0002:0000521c       ??_C@_0BB@KCIACLNC@PDBOpenValidate5@ 004a921c     MSVCRTD:pdblkup.obj
 0002:00005230       ??_C@_0CJ@FAHCKHJA@easy?5handle?5already?5used?5in?5mult@ 004a9230     libcurl:easy.obj
 0002:00005264       ??_C@_0BK@PCFMLBDD@CONNECT_ONLY?5is?5required?$CB?$AA@ 004a9264     libcurl:easy.obj
 0002:00005284       ??_C@_0BM@FOILHPGN@Failed?5to?5get?5recent?5socket?$AA@ 004a9284     libcurl:easy.obj
 0002:000052a5       ??_C@_00CNPNBAHC@?$AA@     004a92a5     libcurl:setopt.obj
 0002:000052a8       ??_C@_03NIFPGLBG@ALL?$AA@  004a92a8     libcurl:setopt.obj
 0002:000052ac       ??_C@_04BFMIILII@SESS?$AA@ 004a92ac     libcurl:setopt.obj
 0002:000052b4       ??_C@_05KALGKIBB@FLUSH?$AA@ 004a92b4     libcurl:setopt.obj
 0002:000052bc       ??_C@_06DCHFNDBF@RELOAD?$AA@ 004a92bc     libcurl:setopt.obj
 0002:000052c4       ??_C@_0M@ICGHKGOK@Set?9Cookie?3?$AA@ 004a92c4     libcurl:setopt.obj
 0002:00005344       ??_C@_0CH@LECELJNK@Connection?5?$CD?$CFld?5to?5host?5?$CFs?5left?5@ 004a9344     libcurl:multi.obj
 0002:00005374       ??_C@_03OFAPEBGM@?$CFs?6?$AA@ 004a9374     libcurl:multi.obj
 0002:00005378       ??_C@_0CN@BEDJOLPM@Resolving?5timed?5out?5after?5?$CFI64d?5@ 004a9378     libcurl:multi.obj
 0002:000053b0       ??_C@_0CO@PINFDPJN@Connection?5timed?5out?5after?5?$CFI64d@ 004a93b0     libcurl:multi.obj
 0002:000053e8       ??_C@_0FE@NBLGEINA@Operation?5timed?5out?5after?5?$CFI64d?5@ 004a93e8     libcurl:multi.obj
 0002:00005450       ??_C@_0EH@GJEAMCHA@Operation?5timed?5out?5after?5?$CFI64d?5@ 004a9450     libcurl:multi.obj
 0002:000054a8       ??_C@_0CH@NOKKCOPP@Transfer?5was?5pending?0?5now?5try?5an@ 004a94a8     libcurl:multi.obj
 0002:000054d8       ??_C@_0CG@EBAFLAEC@Hostname?5?8?$CFs?8?5was?5found?5in?5DNS?5c@ 004a94d8     libcurl:multi.obj
 0002:00005508       ??_C@_0CJ@OALAEPML@Internal?5error?5removing?5splay?5no@ 004a9508     libcurl:multi.obj
 0002:0000553c       ??_C@_0CJ@EHKACPHP@Internal?5error?5clearing?5splay?5no@ 004a953c     libcurl:multi.obj
 0002:00005570       ??_C@_01KMDKNFGN@?1?$AA@   004a9570     libcurl:cookie.obj
 0002:00005574       ??_C@_0CE@BBKJHKDF@ignoring?5failed?5cookie_init?5for?5@ 004a9574     libcurl:cookie.obj
 0002:000055a0       ??_C@_09IPAEKDAI@localhost?$AA@ 004a95a0     libcurl:cookie.obj
 0002:000055ac       ??_C@_0BK@IIFEHJP@?$CF4095?$FL?$FO?$DL?$AN?6?$DN?$FN?5?$DN?$CF4095?$FL?$FO?$DL?$AN?6?$FN?$AA@ 004a95ac     libcurl:cookie.obj
 0002:000055cc       ??_C@_0DE@IBKAGOK@oversized?5cookie?5dropped?0?5name?1v@ 004a95cc     libcurl:cookie.obj
 0002:0000560c       ??_C@_09OLPEHKPE@__Secure?9?$AA@ 004a960c     libcurl:cookie.obj
 0002:00005618       ??_C@_07DBHHKFCO@__Host?9?$AA@ 004a9618     libcurl:cookie.obj
 0002:00005624       ??_C@_06CKKGAKDB@secure?$AA@ 004a9624     libcurl:cookie.obj
 0002:0000562c       ??_C@_08LKPJDOCJ@httponly?$AA@ 004a962c     libcurl:cookie.obj
 0002:00005638       ??_C@_04LNEJFJGI@path?$AA@ 004a9638     libcurl:cookie.obj
 0002:00005640       ??_C@_06LKIIGAOE@domain?$AA@ 004a9640     libcurl:cookie.obj
 0002:00005648       ??_C@_01JLIPDDHJ@?3?$AA@   004a9648     libcurl:cookie.obj
 0002:0000564c       ??_C@_0CO@IPHLIEKA@skipped?5cookie?5with?5bad?5tailmatc@ 004a964c     libcurl:cookie.obj
 0002:00005684       ??_C@_07CPCPJPKL@version?$AA@ 004a9684     libcurl:cookie.obj
 0002:00005690       ??_C@_07PEFKGEJF@max?9age?$AA@ 004a9690     libcurl:cookie.obj
 0002:0000569c       ??_C@_07MJGJEDBB@expires?$AA@ 004a969c     libcurl:cookie.obj
 0002:000056a8       ??_C@_0L@KAKJBGGD@?$CDHttpOnly_?$AA@ 004a96a8     libcurl:cookie.obj
 0002:000056b8       ??_C@_01GPOEFGEJ@?7?$AA@   004a96b8     libcurl:cookie.obj
 0002:000056bc       ??_C@_04HCDDPBNL@TRUE?$AA@ 004a96bc     libcurl:cookie.obj
 0002:000056c4       ??_C@_05MAJJAKPI@FALSE?$AA@ 004a96c4     libcurl:cookie.obj
 0002:000056cc       ??_C@_08IMELJCAM@Replaced?$AA@ 004a96cc     libcurl:cookie.obj
 0002:000056d8       ??_C@_05BNECJBCE@Added?$AA@ 004a96d8     libcurl:cookie.obj
 0002:000056e0       ??_C@_0DI@KHDIKDMI@?$CFs?5cookie?5?$CFs?$DN?$CC?$CFs?$CC?5for?5domain?5?$CFs?0@ 004a96e0     libcurl:cookie.obj
 0002:00005724       ??_C@_04CGFJFPFD@none?$AA@ 004a9724     libcurl:cookie.obj
 0002:0000572c       ??_C@_01JOAMLHOP@?9?$AA@   004a972c     libcurl:cookie.obj
 0002:00005730       ??_C@_02BMJICGCB@rt?$AA@   004a9730     libcurl:cookie.obj
 0002:00005734       ??_C@_07CIFAGBMG@unknown?$AA@ 004a9734     libcurl:cookie.obj
 0002:00005740       ??_C@_01LFCBOECM@?4?$AA@   004a9740     libcurl:cookie.obj
 0002:00005744       ??_C@_0BM@FIJJOLNN@?$CFs?$CFs?$CFs?7?$CFs?7?$CFs?7?$CFs?7?$CFI64d?7?$CFs?7?$CFs?$AA@ 004a9744     libcurl:cookie.obj
 0002:00005768       ??_C@_09HFHMDOBG@?$CFs?4?$CFs?4tmp?$AA@ 004a9768     libcurl:cookie.obj
 0002:00005774       ??_C@_02BKFDOEMK@wt?$AA@   004a9774     libcurl:cookie.obj
 0002:00005778       ??_C@_0IE@HIOMJDLH@?$CD?5Netscape?5HTTP?5Cookie?5File?6?$CD?5ht@ 004a9778     libcurl:cookie.obj
 0002:00005818       ??_C@_0BJ@LMHKHCLE@?$CD?6?$CD?5Fatal?5libcurl?5error?6?$AA@ 004a9818     libcurl:cookie.obj
 0002:00005838       ??_C@_0CH@EIDBEPEM@WARNING?3?5failed?5to?5save?5cookies?5@ 004a9838     libcurl:cookie.obj
 0002:00005868       ??_C@_02DPKJAMEF@?$CFd?$AA@ 004a9868     libcurl:asyn-thread.obj
 0002:0000586c       ??_C@_0CF@DENKCHCB@getaddrinfo?$CI?$CJ?5thread?5failed?5to?5s@ 004a986c     libcurl:asyn-thread.obj
 0002:00005aec       ??_C@_04JFHMGKLD@?4gif?$AA@ 004a9aec     libcurl:mime.obj
 0002:00005af4       ??_C@_09HADNJIG@image?1gif?$AA@ 004a9af4     libcurl:mime.obj
 0002:00005b00       ??_C@_04GNPKBLNA@?4jpg?$AA@ 004a9b00     libcurl:mime.obj
 0002:00005b08       ??_C@_0L@PJKHLKFB@image?1jpeg?$AA@ 004a9b08     libcurl:mime.obj
 0002:00005b18       ??_C@_05KPIGABMB@?4jpeg?$AA@ 004a9b18     libcurl:mime.obj
 0002:00005b20       ??_C@_04EEOGCCFB@?4png?$AA@ 004a9b20     libcurl:mime.obj
 0002:00005b28       ??_C@_09NGJJJBGE@image?1png?$AA@ 004a9b28     libcurl:mime.obj
 0002:00005b34       ??_C@_04EEGGHPHH@?4svg?$AA@ 004a9b34     libcurl:mime.obj
 0002:00005b3c       ??_C@_0O@MMMFMLNF@image?1svg?$CLxml?$AA@ 004a9b3c     libcurl:mime.obj
 0002:00005b4c       ??_C@_04LCMACLFG@?4txt?$AA@ 004a9b4c     libcurl:mime.obj
 0002:00005b54       ??_C@_0L@NPNLKGOJ@text?1plain?$AA@ 004a9b54     libcurl:mime.obj
 0002:00005b64       ??_C@_04DKBFJDAN@?4htm?$AA@ 004a9b64     libcurl:mime.obj
 0002:00005b6c       ??_C@_09KABDMIOB@text?1html?$AA@ 004a9b6c     libcurl:mime.obj
 0002:00005b78       ??_C@_05LHMDENIF@?4html?$AA@ 004a9b78     libcurl:mime.obj
 0002:00005b80       ??_C@_04FAGKJGMG@?4pdf?$AA@ 004a9b80     libcurl:mime.obj
 0002:00005b88       ??_C@_0BA@MHMDKHOF@application?1pdf?$AA@ 004a9b88     libcurl:mime.obj
 0002:00005b9c       ??_C@_04GAOAGNCM@?4xml?$AA@ 004a9b9c     libcurl:mime.obj
 0002:00005ba4       ??_C@_0BA@PHEJFMAP@application?1xml?$AA@ 004a9ba4     libcurl:mime.obj
 0002:00005bb8       ??_C@_06FNFBAEBE@binary?$AA@ 004a9bb8     libcurl:mime.obj
 0002:00005bc0       ??_C@_04DFPGIIHA@8bit?$AA@ 004a9bc0     libcurl:mime.obj
 0002:00005bc8       ??_C@_04LHKGBPKB@7bit?$AA@ 004a9bc8     libcurl:mime.obj
 0002:00005bd0       ??_C@_06JEFEFGEJ@base64?$AA@ 004a9bd0     libcurl:mime.obj
 0002:00005bd8       ??_C@_0BB@CAHAECFA@quoted?9printable?$AA@ 004a9bd8     libcurl:mime.obj
 0002:00005bec       ??_C@_03COMNHLEG@?$DN?$AN?6?$AA@ 004a9bec     libcurl:mime.obj
 0002:00005bf0       ??_C@_02JDPG@rb?$AA@       004a9bf0     libcurl:mime.obj
 0002:00005bf4       ??_C@_0N@LAFFMKKA@Content?9Type?$AA@ 004a9bf4     libcurl:mime.obj
 0002:00005c04       ??_C@_02PCIJFNDE@?$AN?6?$AA@ 004a9c04     libcurl:mime.obj
 0002:00005c08       ??_C@_04LOEPKDGL@?$AN?6?9?9?$AA@ 004a9c08     libcurl:mime.obj
 0002:00005c10       ??_C@_04KAODOPGN@?9?9?$AN?6?$AA@ 004a9c10     libcurl:mime.obj
 0002:00005c18       ??_C@_0BP@IAECJDB@Can?8t?5add?5itself?5as?5a?5subpart?$CB?$AA@ 004a9c18     libcurl:mime.obj
 0002:00005c40       ??_C@_0M@MJDFHGPO@?$DL?5boundary?$DN?$AA@ 004a9c40     libcurl:mime.obj
 0002:00005c50       ??_C@_0BF@JGMBPGGP@Content?9Type?3?5?$CFs?$CFs?$CFs?$AA@ 004a9c50     libcurl:mime.obj
 0002:00005c6c       ??_C@_0BA@LBPJGHIO@multipart?1mixed?$AA@ 004a9c6c     libcurl:mime.obj
 0002:00005c80       ??_C@_0BJ@JDCJMJCJ@application?1octet?9stream?$AA@ 004a9c80     libcurl:mime.obj
 0002:00005ca0       ??_C@_0BE@LMOOGHBG@Content?9Disposition?$AA@ 004a9ca0     libcurl:mime.obj
 0002:00005cb8       ??_C@_0L@LMJJPMNG@multipart?1?$AA@ 004a9cb8     libcurl:mime.obj
 0002:00005cc8       ??_C@_0L@HBDHCFKP@attachment?$AA@ 004a9cc8     libcurl:mime.obj
 0002:00005cd8       ??_C@_01BJJEKLCA@?$CC?$AA@ 004a9cd8     libcurl:mime.obj
 0002:00005cdc       ??_C@_0N@EBLPPAMO@?$DL?5filename?$DN?$CC?$AA@ 004a9cdc     libcurl:mime.obj
 0002:00005cec       ??_C@_08LCJOLIGB@?$DL?5name?$DN?$CC?$AA@ 004a9cec     libcurl:mime.obj
 0002:00005cf8       ??_C@_0CE@DDNMPDM@Content?9Disposition?3?5?$CFs?$CFs?$CFs?$CFs?$CFs?$CF@ 004a9cf8     libcurl:mime.obj
 0002:00005d24       ??_C@_0BK@MJFMDPAI@Content?9Transfer?9Encoding?$AA@ 004a9d24     libcurl:mime.obj
 0002:00005d44       ??_C@_0BO@GPACEDCJ@Content?9Transfer?9Encoding?3?5?$CFs?$AA@ 004a9d44     libcurl:mime.obj
 0002:00005d68       ??_C@_0BE@PILCJFLE@multipart?1form?9data?$AA@ 004a9d68     libcurl:mime.obj
 0002:00005d80       ??_C@_09DMEGNLGK@form?9data?$AA@ 004a9d80     libcurl:mime.obj
 0002:00005d90       __xmm@2d2d2d2d2d2d2d2d2d2d2d2d2d2d2d2d 004a9d90     libcurl:mime.obj
 0002:00005da4       ??_C@_05MLEOJOPP@?$CFld?$CFs?$AA@ 004a9da4     libcurl:conncache.obj
 0002:00005dac       ??_C@_0DD@OLONMPCM@Connection?5cache?5is?5full?0?5closin@ 004a9dac     libcurl:conncache.obj
 0002:00005e98       ??_C@_0O@PKKFKPHL@?$DMno?5protocol?$DO?$AA@ 004a9e98     libcurl:url.obj
 0002:00005ea8       ??_C@_0BI@DDGGAIOA@Closing?5connection?5?$CFld?6?$AA@ 004a9ea8     libcurl:url.obj
 0002:00005ec4       ??_C@_0DB@DJFDJCOE@Too?5old?5connection?5?$CI?$CFld?5seconds?$CJ@ 004a9ec4     libcurl:url.obj
 0002:00005f00       ??_C@_0CC@JFLBHGMD@Connection?5?$CFld?5seems?5to?5be?5dead?$CB@ 004a9f00     libcurl:url.obj
 0002:00005f28       ??_C@_0O@EFAPFLJF@can?5multiplex?$AA@ 004a9f28     libcurl:url.obj
 0002:00005f38       ??_C@_08HGENMDLD@serially?$AA@ 004a9f38     libcurl:url.obj
 0002:00005f44       ??_C@_0CD@OCDJOGEP@Found?5bundle?5for?5host?5?$CFs?3?5?$CFp?5?$FL?$CFs@ 004a9f44     libcurl:url.obj
 0002:00005f70       ??_C@_0CM@DIEBCPAL@Server?5doesn?8t?5support?5multiplex@ 004a9f70     libcurl:url.obj
 0002:00005fa4       ??_C@_0CI@GFGFLNAA@Server?5doesn?8t?5support?5multiplex@ 004a9fa4     libcurl:url.obj
 0002:00005fd4       ??_C@_0CE@OANFFLBC@Could?5multiplex?0?5but?5not?5asked?5t@ 004a9fd4     libcurl:url.obj
 0002:00006000       ??_C@_0CK@OJMDJFJB@Can?5not?5multiplex?0?5even?5if?5we?5wa@ 004aa000     libcurl:url.obj
 0002:00006034       ??_C@_0DG@ICACGPNK@Connection?5?$CD?$CFld?5is?5still?5name?5re@ 004aa034     libcurl:url.obj
 0002:00006074       ??_C@_0DA@HEGJMKAL@Connection?5?$CD?$CFld?5isn?8t?5open?5enoug@ 004aa074     libcurl:url.obj
 0002:000060b0       ??_C@_0BP@IJOBPHC@Multiplexed?5connection?5found?$CB?6?$AA@ 004aa0b0     libcurl:url.obj
 0002:000060d8       ??_C@_0DP@IINEECKA@Found?5pending?5candidate?5for?5reus@ 004aa0d8     libcurl:url.obj
 0002:00006124       ??_C@_0CG@GIJHGMPJ@Connected?5to?5?$CFs?5?$CI?$CFs?$CJ?5port?5?$CFld?5?$CI?$CD@ 004aa124     libcurl:url.obj
 0002:00006154       ??_C@_0DG@OJGGOHOC@IDN?5support?5not?5present?0?5can?8t?5p@ 004aa154     libcurl:url.obj
 0002:00006194       ??_C@_0DD@CPLPHJPM@Protocol?5?$CC?$CFs?$CC?5not?5supported?5or?5d@ 004aa194     libcurl:url.obj
 0002:000061d4       ??_C@_0BI@BEHOBPHB@Invalid?5zoneid?3?5?$CFs?$DL?5?$CFs?6?$AA@ 004aa1d4     libcurl:url.obj
 0002:000061f0       ??_C@_07NCHOALFK@?$CFs?3?1?1?$CFs?$AA@ 004aa1f0     libcurl:url.obj
 0002:000061fc       ??_C@_04DAMGJPCA@file?$AA@ 004aa1fc     libcurl:url.obj
 0002:00006204       ??_C@_06OJJNHGNN@?$CFI64d?9?$AA@ 004aa204     libcurl:url.obj
 0002:0000620c       ??_C@_02KEGNLNML@?0?5?$AA@ 004aa20c     libcurl:url.obj
 0002:00006210       ??_C@_01NBENCBCI@?$CK?$AA@ 004aa210     libcurl:url.obj
 0002:00006214       ??_C@_06PIGEBLLD@_proxy?$AA@ 004aa214     libcurl:url.obj
 0002:0000621c       ??_C@_0L@BKCFCEPH@http_proxy?$AA@ 004aa21c     libcurl:url.obj
 0002:0000622c       ??_C@_09IFLEAELB@all_proxy?$AA@ 004aa22c     libcurl:url.obj
 0002:00006238       ??_C@_09HKPIAANK@ALL_PROXY?$AA@ 004aa238     libcurl:url.obj
 0002:00006244       ??_C@_0CE@MLGGMLP@Uses?5proxy?5env?5variable?5?$CFs?5?$DN?$DN?5?8?$CF@ 004aa244     libcurl:url.obj
 0002:00006270       ??_C@_05BCHGOAMK@https?$AA@ 004aa270     libcurl:url.obj
 0002:00006278       ??_C@_07FDHAHIOH@socks5h?$AA@ 004aa278     libcurl:url.obj
 0002:00006284       ??_C@_06IAICDOJI@socks5?$AA@ 004aa284     libcurl:url.obj
 0002:0000628c       ??_C@_07IDHAKJJJ@socks4a?$AA@ 004aa28c     libcurl:url.obj
 0002:00006298       ??_C@_06JJJJAPNJ@socks4?$AA@ 004aa298     libcurl:url.obj
 0002:000062a0       ??_C@_05LBOKJHLG@socks?$AA@ 004aa2a0     libcurl:url.obj
 0002:000062a8       ??_C@_04IAFLKNP@http?$AA@  004aa2a8     libcurl:url.obj
 0002:000062b0       ??_C@_0CC@CEKBDKLM@Unsupported?5proxy?5scheme?5for?5?8?$CFs@ 004aa2b0     libcurl:url.obj
 0002:000062d8       ??_C@_0CB@HLNKMBJD@Unsupported?5proxy?5syntax?5in?5?8?$CFs?8@ 004aa2d8     libcurl:url.obj
 0002:00006300       ??_C@_0EK@MGMANAOF@Unsupported?5proxy?5?8?$CFs?8?0?5libcurl?5@ 004aa300     libcurl:url.obj
 0002:00006358       ??_C@_0BA@GJPPEADO@memory?5shortage?$AA@ 004aa358     libcurl:url.obj
 0002:0000636c       ??_C@_08BOGLDIEC@no_proxy?$AA@ 004aa36c     libcurl:url.obj
 0002:00006378       ??_C@_08KOHKDPPJ@NO_PROXY?$AA@ 004aa378     libcurl:url.obj
 0002:00006384       ??_C@_0DG@MFBPPKBC@Couldn?8t?5find?5host?5?$CFs?5in?5the?5?$CFs?5@ 004aa384     libcurl:url.obj
 0002:000063c4       ??_C@_09BMFBKPHA@anonymous?$AA@ 004aa3c4     libcurl:url.obj
 0002:000063d0       ??_C@_0BA@LJIKBFGM@ftp?$EAexample?4com?$AA@ 004aa3d0     libcurl:url.obj
 0002:000063e4       ??_C@_03MMIJIMKH@?$CF25?$AA@ 004aa3e4     libcurl:url.obj
 0002:000063e8       ??_C@_0CN@NDBDIMOC@Please?5URL?5encode?5?$CF?$CF?5as?5?$CF?$CF25?0?5se@ 004aa3e8     libcurl:url.obj
 0002:00006420       ??_C@_0BN@IHHAEPKG@Invalid?5IPv6?5address?5format?6?$AA@ 004aa420     libcurl:url.obj
 0002:00006444       ??_C@_0DF@IONEKJDD@No?5valid?5port?5number?5in?5connect?5@ 004aa444     libcurl:url.obj
 0002:00006484       ??_C@_01LBDDMOBJ@?$FN?$AA@ 004aa484     libcurl:url.obj
 0002:00006488       ??_C@_01OHGJGJJP@?$FL?$AA@ 004aa488     libcurl:url.obj
 0002:0000648c       ??_C@_06DIJPEION@?$CFs?$CFs?$CFs?$AA@ 004aa48c     libcurl:url.obj
 0002:00006494       ??_C@_0BM@PMENCPCA@Connecting?5to?5hostname?3?5?$CFs?6?$AA@ 004aa494     libcurl:url.obj
 0002:000064b8       ??_C@_0BI@BICCPIEJ@Connecting?5to?5port?3?5?$CFd?6?$AA@ 004aa4b8     libcurl:url.obj
 0002:000064d4       ??_C@_0DA@NFHFFFEO@Alt?9svc?5connecting?5from?5?$FL?$CFs?$FN?$CFs?3?$CF@ 004aa4d4     libcurl:url.obj
 0002:00006510       ??_C@_0CA@PCHAHPEF@Unix?5socket?5path?5too?5long?3?5?8?$CFs?8?$AA@ 004aa510     libcurl:url.obj
 0002:00006538       ??_C@_0BL@CBGJLMGC@Could?5not?5resolve?5host?3?5?$CFs?$AA@ 004aa538     libcurl:url.obj
 0002:00006558       ??_C@_0BM@PBLGFFN@Couldn?8t?5resolve?5proxy?5?8?$CFs?8?$AA@ 004aa558     libcurl:url.obj
 0002:0000657c       ??_C@_05BFHPMDA@proxy?$AA@ 004aa57c     libcurl:url.obj
 0002:00006584       ??_C@_04OODOLJMA@host?$AA@ 004aa584     libcurl:url.obj
 0002:0000658c       ??_C@_0DB@KBMGPDLF@Re?9using?5existing?5connection?$CB?5?$CI?$CD@ 004aa58c     libcurl:url.obj
 0002:000065c8       ??_C@_0CN@MPPLPHGC@No?5more?5connections?5allowed?5to?5h@ 004aa5c8     libcurl:url.obj
 0002:00006600       ??_C@_0CD@DJOOMEOI@No?5connections?5available?5in?5cach@ 004aa600     libcurl:url.obj
 0002:0000662c       ??_C@_0BL@LKODOMNP@No?5connections?5available?4?6?$AA@ 004aa62c     libcurl:url.obj
 0002:0000664c       ??_C@_0CO@KHIJKMHA@NTLM?5picked?5AND?5auth?5done?5set?0?5c@ 004aa64c     libcurl:url.obj
 0002:00006684       ??_C@_0DE@GICFFDLJ@NTLM?9proxy?5picked?5AND?5auth?5done?5@ 004aa684     libcurl:url.obj
 0002:000066c4       ??_C@_04BINJNOJD@HEAD?$AA@ 004aa6c4     libcurl:getinfo.obj
 0002:000066cc       ??_C@_04HCJEIHPL@POST?$AA@ 004aa6cc     libcurl:getinfo.obj
 0002:000066d4       ??_C@_03KBBGFLEK@PUT?$AA@  004aa6d4     libcurl:getinfo.obj
 0002:000066d8       ??_C@_03HAPOJHBM@GET?$AA@  004aa6d8     libcurl:getinfo.obj
 0002:000066e0       __real@412e848000000000    004aa6e0     libcurl:getinfo.obj
 0002:000066f0       __real@bff0000000000000    004aa6f0     libcurl:getinfo.obj
 0002:00006718       ??_C@_04MPPNMCOK@?4?4?4?6?$AA@ 004aa718     libcurl:sendf.obj
 0002:00006720       ??_C@_03KHICJKCI@?4?4?4?$AA@ 004aa720     libcurl:sendf.obj
 0002:00006724       ??_C@_0BB@JCBOFDKN@Send?5failure?3?5?$CFs?$AA@ 004aa724     libcurl:sendf.obj
 0002:00006738       ??_C@_0BB@GOGKBCCD@Recv?5failure?3?5?$CFs?$AA@ 004aa738     libcurl:sendf.obj
 0002:0000674c       ??_C@_0DD@KHGMOPKJ@Write?5callback?5asked?5for?5PAUSE?5w@ 004aa74c     libcurl:sendf.obj
 0002:0000678c       ??_C@_0CG@EMCHOAAB@Failure?5writing?5output?5to?5destin@ 004aa78c     libcurl:sendf.obj
 0002:000067bc       ??_C@_0BG@OFFCIDAN@Failed?5writing?5header?$AA@ 004aa7bc     libcurl:sendf.obj
 0002:000067d8       ??_C@_0CF@PEMBPPBD@Failed?5to?5set?5SO_KEEPALIVE?5on?5fd@ 004aa7d8     libcurl:connect.obj
 0002:00006804       ??_C@_0CP@NKGEMNPP@Failed?5to?5set?5SIO_KEEPALIVE_VALS@ 004aa804     libcurl:connect.obj
 0002:0000683c       ??_C@_03FIFADKBL@if?$CB?$AA@ 004aa83c     libcurl:connect.obj
 0002:00006840       ??_C@_05BHBFOJOK@host?$CB?$AA@ 004aa840     libcurl:connect.obj
 0002:00006848       ??_C@_0CA@NNLJLENH@Couldn?8t?5bind?5to?5interface?5?8?$CFs?8?$AA@ 004aa848     libcurl:connect.obj
 0002:00006870       ??_C@_0DF@GKHAKMGC@Local?5Interface?5?$CFs?5is?5ip?5?$CFs?5usin@ 004aa870     libcurl:connect.obj
 0002:000068b0       ??_C@_0DA@OPBJKDFD@Name?5?8?$CFs?8?5family?5?$CFi?5resolved?5to?5@ 004aa8b0     libcurl:connect.obj
 0002:000068ec       ??_C@_0BG@CIMNBOAN@Couldn?8t?5bind?5to?5?8?$CFs?8?$AA@ 004aa8ec     libcurl:connect.obj
 0002:00006908       ??_C@_0CH@DDKDPEAI@getsockname?$CI?$CJ?5failed?5with?5errno?5@ 004aa908     libcurl:connect.obj
 0002:00006938       ??_C@_0BB@PLFEKLHG@Local?5port?3?5?$CFhu?6?$AA@ 004aa938     libcurl:connect.obj
 0002:0000694c       ??_C@_0CM@IFAJKKEJ@Bind?5to?5local?5port?5?$CFhu?5failed?0?5t@ 004aa94c     libcurl:connect.obj
 0002:00006980       ??_C@_0BO@NNMFENBA@bind?5failed?5with?5errno?5?$CFd?3?5?$CFs?$AA@ 004aa980     libcurl:connect.obj
 0002:000069a4       ??_C@_0CH@IBJKPDAO@getpeername?$CI?$CJ?5failed?5with?5errno?5@ 004aa9a4     libcurl:connect.obj
 0002:000069d4       ??_C@_0CL@PFOECMOH@ssrem?5inet_ntop?$CI?$CJ?5failed?5with?5er@ 004aa9d4     libcurl:connect.obj
 0002:00006a08       ??_C@_0CL@FJICKPK@ssloc?5inet_ntop?$CI?$CJ?5failed?5with?5er@ 004aaa08     libcurl:connect.obj
 0002:00006a3c       ??_C@_0BP@FBEALKHG@unknown?5proxytype?5option?5given?$AA@ 004aaa3c     libcurl:connect.obj
 0002:00006a64       ??_C@_0BE@GAEGKOEF@Connection?5time?9out?$AA@ 004aaa64     libcurl:connect.obj
 0002:00006a7c       ??_C@_0CG@OOKPFHPB@After?5?$CFI64dms?5connect?5time?0?5move@ 004aaa7c     libcurl:connect.obj
 0002:00006aac       ??_C@_0CD@INOOPIKI@connect?5to?5?$CFs?5port?5?$CFld?5failed?3?5?$CF@ 004aaaac     libcurl:connect.obj
 0002:00006ad8       ??_C@_0CF@PFFPOJAN@Failed?5to?5connect?5to?5?$CFs?5port?5?$CFld@ 004aaad8     libcurl:connect.obj
 0002:00006b04       ??_C@_0BP@MAILANNH@Could?5not?5set?5TCP_NODELAY?3?5?$CFs?6?$AA@ 004aab04     libcurl:connect.obj
 0002:00006b2c       ??_C@_0CN@NLCIOFFH@sa_addr?5inet_ntop?$CI?$CJ?5failed?5with?5@ 004aab2c     libcurl:connect.obj
 0002:00006b64       ??_C@_0BD@MPJNDNNC@?5?5Trying?5?$CFs?3?$CFd?4?4?4?6?$AA@ 004aab64     libcurl:connect.obj
 0002:00006b7c       ??_C@_0CD@EAMEJFBB@Immediate?5connect?5fail?5for?5?$CFs?3?5?$CF@ 004aab7c     libcurl:connect.obj
 0002:00006ba8       ??_C@_06MHCCOJOO@Digest?$AA@ 004aaba8     libcurl:http_digest.obj
 0002:00006bb0       ??_C@_04EBNJJJJI@?$CF?4?$CKs?$AA@ 004aabb0     libcurl:http_digest.obj
 0002:00006bb8       ??_C@_06MJEPAECD@Proxy?9?$AA@ 004aabb8     libcurl:http_digest.obj
 0002:00006bc0       ??_C@_0BN@NPMGGCBO@?$CFsAuthorization?3?5Digest?5?$CFs?$AN?6?$AA@ 004aabc0     libcurl:http_digest.obj
 0002:00006be4       ??_C@_0N@BBCKHBCL@iphlpapi?4dll?$AA@ 004aabe4     libcurl:system_win32.obj
 0002:00006bf4       ??_C@_0P@GFPCJLDD@if_nametoindex?$AA@ 004aabf4     libcurl:system_win32.obj
 0002:00006c08       ??_C@_08PNLNEKOB@kernel32?$AA@ 004aac08     libcurl:system_win32.obj
 0002:00006c14       ??_C@_0P@GILJFMCJ@LoadLibraryExA?$AA@ 004aac14     libcurl:system_win32.obj
 0002:00006c28       ??_C@_02HHAEMJFE@?2?1?$AA@ 004aac28     libcurl:system_win32.obj
 0002:00006c2c       ??_C@_0BA@NMFGOKJN@AddDllDirectory?$AA@ 004aac2c     libcurl:system_win32.obj
 0002:00006c40       ??_C@_02IACHLLMH@h1?$AA@   004aac40     libcurl:altsvc.obj
 0002:00006c44       ??_C@_02KLAKOIAE@h2?$AA@   004aac44     libcurl:altsvc.obj
 0002:00006c48       ??_C@_02LCBBNJEF@h3?$AA@   004aac48     libcurl:altsvc.obj
 0002:00006c4c       ??_C@_0CM@DAEANJFD@?$CF10s?5?$CF512s?5?$CFu?5?$CF10s?5?$CF512s?5?$CFu?5?$CC?$CF64@ 004aac4c     libcurl:altsvc.obj
 0002:00006c80       ??_C@_0DF@DAAFPCNG@?$CFs?5?$CFs?5?$CFu?5?$CFs?5?$CFs?5?$CFu?5?$CC?$CFd?$CF02d?$CF02d?5?$CF0@ 004aac80     libcurl:altsvc.obj
 0002:00006cc0       ??_C@_0HG@JDCLPEEL@?$CD?5Your?5alt?9svc?5cache?4?5https?3?1?1cu@ 004aacc0     libcurl:altsvc.obj
 0002:00006d50       ??_C@_0CH@GNONCAKC@Excessive?5alt?9svc?5header?0?5ignori@ 004aad50     libcurl:altsvc.obj
 0002:00006d80       ??_C@_05MEHLAELG@clear?$AA@ 004aad80     libcurl:altsvc.obj
 0002:00006d88       ??_C@_0CK@IFODLHOH@Excessive?5alt?9svc?5host?5name?0?5ign@ 004aad88     libcurl:altsvc.obj
 0002:00006dbc       ??_C@_0CK@IIDJBGKI@Unknown?5alt?9svc?5port?5number?0?5ign@ 004aadbc     libcurl:altsvc.obj
 0002:00006df0       ??_C@_02DMFHCEHI@ma?$AA@   004aadf0     libcurl:altsvc.obj
 0002:00006df4       ??_C@_07EMFBDGOD@persist?$AA@ 004aadf4     libcurl:altsvc.obj
 0002:00006e00       ??_C@_0BO@EALCHFOF@Added?5alt?9svc?3?5?$CFs?3?$CFd?5over?5?$CFs?6?$AA@ 004aae00     libcurl:altsvc.obj
 0002:00006e24       ??_C@_0CM@MLGGHAPD@Unknown?5alt?9svc?5protocol?5?$CC?$CFs?$CC?0?5s@ 004aae24     libcurl:altsvc.obj
 0002:00006eb8       ??_C@_08LBJOIDDC@identity?$AA@ 004aaeb8     libcurl:content_encoding.obj
 0002:00006ec8       ??_C@_0EO@CHCFCBOE@Unrecognized?5content?5encoding?5ty@ 004aaec8     libcurl:content_encoding.obj
 0002:00006f28       ??_C@_07KCKHAHHI@chunked?$AA@ 004aaf28     libcurl:content_encoding.obj
 0002:00006f34       ??_C@_03CNODDBJO@?3?$CFu?$AA@ 004aaf34     libcurl:hostip.obj
 0002:00006f38       ??_C@_0CJ@BHEFAGPN@Hostname?5in?5DNS?5cache?5was?5stale?0@ 004aaf38     libcurl:hostip.obj
 0002:00006f6c       ??_C@_0BH@EAPFBJAK@Shuffling?5?$CFi?5addresses?$AA@ 004aaf6c     libcurl:hostip.obj
 0002:00006f88       ??_C@_0CE@NGLGBBNH@Hostname?5?$CFs?5was?5found?5in?5DNS?5cac@ 004aaf88     libcurl:hostip.obj
 0002:00006fb4       ??_C@_0M@CAIHMLOC@?$CF255?$FL?$FO?3?$FN?3?$CFd?$AA@ 004aafb4     libcurl:hostip.obj
 0002:00006fc4       ??_C@_0DE@ELJFMFMM@Couldn?8t?5parse?5CURLOPT_RESOLVE?5r@ 004aafc4     libcurl:hostip.obj
 0002:00007004       ??_C@_0CF@FMMIAGMF@Resolve?5address?5?8?$CFs?8?5found?5illeg@ 004ab004     libcurl:hostip.obj
 0002:00007030       ??_C@_0CM@LICJDDJG@Couldn?8t?5parse?5CURLOPT_RESOLVE?5e@ 004ab030     libcurl:hostip.obj
 0002:00007064       ??_C@_0CN@JHBOBPLC@RESOLVE?5?$CFs?3?$CFd?5is?5?9?5old?5addresses@ 004ab064     libcurl:hostip.obj
 0002:0000709c       ??_C@_0BB@KFONHPNE@?5?$CInon?9permanent?$CJ?$AA@ 004ab09c     libcurl:hostip.obj
 0002:000070b0       ??_C@_0BP@KGHHPNAO@Added?5?$CFs?3?$CFd?3?$CFs?5to?5DNS?5cache?$CFs?6?$AA@ 004ab0b0     libcurl:hostip.obj
 0002:000070d8       ??_C@_0DF@FGOBCBFC@RESOLVE?5?$CFs?3?$CFd?5is?5wildcard?0?5enabl@ 004ab0d8     libcurl:hostip.obj
 0002:00007118       ??_C@_0BJ@MIAHLHBF@Could?5not?5resolve?5?$CFs?3?5?$CFs?$AA@ 004ab118     libcurl:hostip.obj
 0002:0000714c       ??_C@_04MEDPFIKH@HTTP?$AA@ 004ab14c     libcurl:http.obj
 0002:00007154       ??_C@_0CD@KELEPDPB@HTTP?13?5requested?5for?5non?9HTTPS?5U@ 004ab154     libcurl:http.obj
 0002:00007180       _Curl_handler_http         004ab180     libcurl:http.obj
 0002:000071dc       ??_C@_05CCMOGDN@?$CFs?3?$CFs?$AA@ 004ab1dc     libcurl:http.obj
 0002:000071e4       ??_C@_0BM@NMNAGCIL@?$CFsAuthorization?3?5Basic?5?$CFs?$AN?6?$AA@ 004ab1e4     libcurl:http.obj
 0002:00007208       ??_C@_0BL@JHLMAFGM@Authorization?3?5Bearer?5?$CFs?$AN?6?$AA@ 004ab208     libcurl:http.obj
 0002:00007228       ??_C@_0BK@HOMHMGOD@Rewind?5stream?5after?5send?6?$AA@ 004ab228     libcurl:http.obj
 0002:00007248       ??_C@_0DB@DNAPMGHO@NTLM?5send?0?5close?5instead?5of?5send@ 004ab248     libcurl:http.obj
 0002:00007284       ??_C@_0BK@CMMBNKGD@Forcing?5HTTP?11?41?5for?5NTLM?$AA@ 004ab284     libcurl:http.obj
 0002:000072a4       ??_C@_0CF@BBGENOPF@The?5requested?5URL?5returned?5error@ 004ab2a4     libcurl:http.obj
 0002:000072d0       ??_C@_09HPCLDLMD@AWS_SIGV4?$AA@ 004ab2d0     libcurl:http.obj
 0002:000072dc       ??_C@_04KGCGDDND@NTLM?$AA@ 004ab2dc     libcurl:http.obj
 0002:000072e4       ??_C@_0BE@PPNONACO@Proxy?9authorization?$AA@ 004ab2e4     libcurl:http.obj
 0002:000072fc       ??_C@_0O@NAFGPKMI@Authorization?$AA@ 004ab2fc     libcurl:http.obj
 0002:0000730c       ??_C@_05NIKDGMHP@Basic?$AA@ 004ab30c     libcurl:http.obj
 0002:00007314       ??_C@_0P@LAMGMCAB@Authorization?3?$AA@ 004ab314     libcurl:http.obj
 0002:00007328       ??_C@_06NPEPPOGN@Bearer?$AA@ 004ab328     libcurl:http.obj
 0002:00007330       ??_C@_05GPLPJAG@Proxy?$AA@ 004ab330     libcurl:http.obj
 0002:00007338       ??_C@_06LGMEBDBC@Server?$AA@ 004ab338     libcurl:http.obj
 0002:00007340       ??_C@_0CB@BNDOODNM@?$CFs?5auth?5using?5?$CFs?5with?5user?5?8?$CFs?8?6@ 004ab340     libcurl:http.obj
 0002:00007368       ??_C@_0CI@DKAENECE@Authentication?5problem?4?5Ignoring@ 004ab368     libcurl:http.obj
 0002:00007398       ??_C@_0CI@DIJIGOJK@Ignoring?5duplicate?5digest?5auth?5h@ 004ab398     libcurl:http.obj
 0002:000073c8       ??_C@_04JIEPCJPP@TCP6?$AA@ 004ab3c8     libcurl:http.obj
 0002:000073d0       ??_C@_04KKHJELHN@TCP4?$AA@ 004ab3d0     libcurl:http.obj
 0002:000073d8       ??_C@_0BH@GGJGKPOP@PROXY?5?$CFs?5?$CFs?5?$CFs?5?$CFi?5?$CFi?$AN?6?$AA@ 004ab3d8     libcurl:http.obj
 0002:000073f4       ??_C@_0BI@KEPAADBC@Empty?5reply?5from?5server?$AA@ 004ab3f4     libcurl:http.obj
 0002:00007410       ??_C@_03GCKCNDHP@1?41?$AA@ 004ab410     libcurl:http.obj
 0002:00007414       ??_C@_03HLLJOCDO@1?40?$AA@ 004ab414     libcurl:http.obj
 0002:00007418       ??_C@_06GHDJNLIG@Expect?$AA@ 004ab418     libcurl:http.obj
 0002:00007420       ??_C@_0N@IOPAKPOD@100?9continue?$AA@ 004ab420     libcurl:http.obj
 0002:00007430       ??_C@_07CBBFMBLH@Expect?3?$AA@ 004ab430     libcurl:http.obj
 0002:0000743c       ??_C@_0BH@JCEGEJFB@Expect?3?5100?9continue?$AN?6?$AA@ 004ab43c     libcurl:http.obj
 0002:00007458       ??_C@_01EEMJAFIK@?6?$AA@   004ab458     libcurl:http.obj
 0002:0000745c       ??_C@_0DB@KNJCCOIM@Malformatted?5trailing?5header?5?$CB?5S@ 004ab45c     libcurl:http.obj
 0002:00007498       ??_C@_05LJIPCHEG@Host?3?$AA@ 004ab498     libcurl:http.obj
 0002:000074a0       ??_C@_0O@PDMPCIFL@Content?9Type?3?$AA@ 004ab4a0     libcurl:http.obj
 0002:000074b0       ??_C@_0BA@DIGAFIOK@Content?9Length?3?$AA@ 004ab4b0     libcurl:http.obj
 0002:000074c4       ??_C@_0M@HJBFCNNB@Connection?3?$AA@ 004ab4c4     libcurl:http.obj
 0002:000074d4       ??_C@_0BD@DNFFOCFM@Transfer?9Encoding?3?$AA@ 004ab4d4     libcurl:http.obj
 0002:000074ec       ??_C@_07HKOKENHM@Cookie?3?$AA@ 004ab4ec     libcurl:http.obj
 0002:000074f8       ??_C@_04LLEBNMDN@?$CFs?$AN?6?$AA@ 004ab4f8     libcurl:http.obj
 0002:00007500       ??_C@_0BC@PCIFJBEC@Invalid?5TIMEVALUE?$AA@ 004ab500     libcurl:http.obj
 0002:00007518       ??_C@_0BC@GJLFBBBL@If?9Modified?9Since?$AA@ 004ab518     libcurl:http.obj
 0002:00007530       ??_C@_0BE@DDBHAKNF@If?9Unmodified?9Since?$AA@ 004ab530     libcurl:http.obj
 0002:00007548       ??_C@_0O@FICEOEAF@Last?9Modified?$AA@ 004ab548     libcurl:http.obj
 0002:00007558       ??_C@_0CJ@PBKGCGNN@?$CFs?3?5?$CFs?0?5?$CF02d?5?$CFs?5?$CF4d?5?$CF02d?3?$CF02d?3?$CF0@ 004ab558     libcurl:http.obj
 0002:0000758c       ??_C@_0L@DMPACEMJ@User?9Agent?$AA@ 004ab58c     libcurl:http.obj
 0002:0000759c       ??_C@_04CPPPJGME@Host?$AA@ 004ab59c     libcurl:http.obj
 0002:000075a4       ??_C@_09PEHAMPH@Host?3?$CFs?$AN?6?$AA@ 004ab5a4     libcurl:http.obj
 0002:000075b0       ??_C@_0P@CKOLCGKA@Host?3?5?$CFs?$CFs?$CFs?$AN?6?$AA@ 004ab5b0     libcurl:http.obj
 0002:000075c4       ??_C@_0BC@DBODHBND@Host?3?5?$CFs?$CFs?$CFs?3?$CFd?$AN?6?$AA@ 004ab5c4     libcurl:http.obj
 0002:000075dc       ??_C@_03LMDBDBEG@ftp?$AA@  004ab5dc     libcurl:http.obj
 0002:000075e0       ??_C@_06ODENPNKJ@?$DLtype?$DN?$AA@ 004ab5e0     libcurl:http.obj
 0002:000075e8       ??_C@_08MMJPNGCD@?$DLtype?$DN?$CFc?$AA@ 004ab5e8     libcurl:http.obj
 0002:000075f4       ??_C@_03EMGHGGCK@?$DP?$CFs?$AA@ 004ab5f4     libcurl:http.obj
 0002:000075f8       ??_C@_0BC@ELHLFCNH@Transfer?9Encoding?$AA@ 004ab5f8     libcurl:http.obj
 0002:00007610       ??_C@_0CL@OGPNFEKJ@Chunky?5upload?5is?5not?5supported?5b@ 004ab610     libcurl:http.obj
 0002:00007644       ??_C@_0BN@HCMGFBOG@Transfer?9Encoding?3?5chunked?$AN?6?$AA@ 004ab644     libcurl:http.obj
 0002:00007668       ??_C@_0P@HOJGPHBA@Content?9Length?$AA@ 004ab668     libcurl:http.obj
 0002:0000767c       ??_C@_0BI@LJIKFNCE@Content?9Length?3?5?$CFI64d?$AN?6?$AA@ 004ab67c     libcurl:http.obj
 0002:00007698       ??_C@_0BL@KJBPLOOA@Failed?5sending?5PUT?5request?$AA@ 004ab698     libcurl:http.obj
 0002:000076b8       ??_C@_0BG@DPJOPI@Content?9Length?3?50?$AN?6?$AN?6?$AA@ 004ab6b8     libcurl:http.obj
 0002:000076d4       ??_C@_0BM@OJEBFGIF@Failed?5sending?5POST?5request?$AA@ 004ab6d4     libcurl:http.obj
 0002:000076f8       ??_C@_0DC@DMFLICKC@Content?9Type?3?5application?1x?9www?9@ 004ab6f8     libcurl:http.obj
 0002:00007734       ??_C@_04GMEAFLDM@?$CFx?$AN?6?$AA@ 004ab734     libcurl:http.obj
 0002:0000773c       ??_C@_05CPFNAGPN@0?$AN?6?$AN?6?$AA@ 004ab73c     libcurl:http.obj
 0002:00007744       ??_C@_0CB@KDDFLMMJ@Failed?5sending?5HTTP?5POST?5request@ 004ab744     libcurl:http.obj
 0002:0000776c       ??_C@_0BM@FKBPNPDJ@Failed?5sending?5HTTP?5request?$AA@ 004ab76c     libcurl:http.obj
 0002:00007790       ??_C@_06EGBLANDJ@Cookie?$AA@ 004ab790     libcurl:http.obj
 0002:00007798       ??_C@_08MMENPDPI@Cookie?3?5?$AA@ 004ab798     libcurl:http.obj
 0002:000077a4       ??_C@_02LNAEAIDO@?$DL?5?$AA@ 004ab7a4     libcurl:http.obj
 0002:000077a8       ??_C@_07CHANAGMK@?$CFs?$CFs?$DN?$CFs?$AA@ 004ab7a8     libcurl:http.obj
 0002:000077b4       ??_C@_04HDOCAJNK@?$CFs?$CFs?$AA@ 004ab7b4     libcurl:http.obj
 0002:000077bc       ??_C@_05CFMCGLCK@Range?$AA@ 004ab7bc     libcurl:http.obj
 0002:000077c4       ??_C@_0BC@MAJANMND@Range?3?5bytes?$DN?$CFs?$AN?6?$AA@ 004ab7c4     libcurl:http.obj
 0002:000077dc       ??_C@_0O@PLGHKCFM@Content?9Range?$AA@ 004ab7dc     libcurl:http.obj
 0002:000077ec       ??_C@_0CF@GOIFFLMO@Content?9Range?3?5bytes?50?9?$CFI64d?1?$CFI6@ 004ab7ec     libcurl:http.obj
 0002:00007818       ??_C@_0CF@JBBBEEAB@Content?9Range?3?5bytes?5?$CFs?$CFI64d?1?$CFI6@ 004ab818     libcurl:http.obj
 0002:00007844       ??_C@_0CA@KGFKCJEO@Content?9Range?3?5bytes?5?$CFs?1?$CFI64d?$AN?6?$AA@ 004ab844     libcurl:http.obj
 0002:0000786c       ??_C@_0BG@FAJPNPNB@Could?5not?5seek?5stream?$AA@ 004ab86c     libcurl:http.obj
 0002:00007888       ??_C@_0CL@LFKAINMC@Could?5only?5read?5?$CFI64d?5bytes?5from@ 004ab888     libcurl:http.obj
 0002:000078bc       ??_C@_0CB@BPNMMFKO@File?5already?5completely?5uploaded@ 004ab8bc     libcurl:http.obj
 0002:000078e4       ??_C@_0BM@KNDLFPLE@Ignoring?5the?5response?9body?6?$AA@ 004ab8e4     libcurl:http.obj
 0002:00007908       ??_C@_0CK@ELFDNGAB@The?5entire?5document?5is?5already?5d@ 004ab908     libcurl:http.obj
 0002:00007940       ??_C@_0EA@PGICDNJG@HTTP?5server?5doesn?8t?5seem?5to?5supp@ 004ab940     libcurl:http.obj
 0002:0000798c       ??_C@_0BP@BDCHAEKO@Simulate?5a?5HTTP?5304?5response?$CB?6?$AA@ 004ab98c     libcurl:http.obj
 0002:000079b4       ??_C@_05DFPCBGAP@?$CFs?$DP?$CFs?$AA@ 004ab9b4     libcurl:http.obj
 0002:000079bc       ??_C@_07EJAMNJLN@Referer?$AA@ 004ab9bc     libcurl:http.obj
 0002:000079c8       ??_C@_0O@JOAPDPIB@Referer?3?5?$CFs?$AN?6?$AA@ 004ab9c8     libcurl:http.obj
 0002:000079d8       ??_C@_0BA@KDJCHKHJ@Accept?9Encoding?$AA@ 004ab9d8     libcurl:http.obj
 0002:000079ec       ??_C@_0BG@NKBLEFIE@Accept?9Encoding?3?5?$CFs?$AN?6?$AA@ 004ab9ec     libcurl:http.obj
 0002:00007a08       ??_C@_06MDEHPNLG@Accept?$AA@ 004aba08     libcurl:http.obj
 0002:00007a10       ??_C@_0O@GHCMGJMD@Accept?3?5?$CK?1?$CK?$AN?6?$AA@ 004aba10     libcurl:http.obj
 0002:00007a20       ??_C@_03IKGEINEE@?$CFs?5?$AA@ 004aba20     libcurl:http.obj
 0002:00007a24       ??_C@_08DCLKEDJA@Alt?9Used?$AA@ 004aba24     libcurl:http.obj
 0002:00007a30       ??_C@_0BC@NLLFJIJM@Alt?9Used?3?5?$CFs?3?$CFd?$AN?6?$AA@ 004aba30     libcurl:http.obj
 0002:00007a48       ??_C@_0BB@MLFPABGO@Proxy?9Connection?$AA@ 004aba48     libcurl:http.obj
 0002:00007a5c       ??_C@_0BP@HADNPFIL@Proxy?9Connection?3?5Keep?9Alive?$AN?6?$AA@ 004aba5c     libcurl:http.obj
 0002:00007a84       ??_C@_0CD@NHMGHKMA@?5HTTP?1?$CFs?$AN?6?$CFs?$CFs?$CFs?$CFs?$CFs?$CFs?$CFs?$CFs?$CFs?$CFs?$CFs@ 004aba84     libcurl:http.obj
 0002:00007ab0       ??_C@_0DG@MEACOPGN@upload?5completely?5sent?5off?3?5?$CFI64@ 004abab0     libcurl:http.obj
 0002:00007af0       ??_C@_05FKGKDBHO@HTTP?1?$AA@ 004abaf0     libcurl:http.obj
 0002:00007af8       ??_C@_05GFPACIDK@RTSP?1?$AA@ 004abaf8     libcurl:http.obj
 0002:00007b00       ??_C@_0BL@GFBKPFMO@Maximum?5file?5size?5exceeded?$AA@ 004abb00     libcurl:http.obj
 0002:00007b20       ??_C@_0CB@KGLAHIH@Overflow?5Content?9Length?3?5value?$CB?6@ 004abb20     libcurl:http.obj
 0002:00007b48       ??_C@_0BO@DIBNEJMM@Invalid?5Content?9Length?3?5value?$AA@ 004abb48     libcurl:http.obj
 0002:00007b6c       ??_C@_0L@FFDPOIEG@keep?9alive?$AA@ 004abb6c     libcurl:http.obj
 0002:00007b7c       ??_C@_0BC@IPGIMNCH@Proxy?9Connection?3?$AA@ 004abb7c     libcurl:http.obj
 0002:00007b94       ??_C@_0CO@NNECKAAI@HTTP?11?40?5proxy?5connection?5set?5to@ 004abb94     libcurl:http.obj
 0002:00007bcc       ??_C@_05LBOHBHFK@close?$AA@ 004abbcc     libcurl:http.obj
 0002:00007bd4       ??_C@_0CG@GBJOIAPM@HTTP?11?41?5proxy?5connection?5set?5cl@ 004abbd4     libcurl:http.obj
 0002:00007c04       ??_C@_0CI@DLONMNKD@HTTP?11?40?5connection?5set?5to?5keep?5@ 004abc04     libcurl:http.obj
 0002:00007c34       ??_C@_0BC@FGDKEGD@Content?9Encoding?3?$AA@ 004abc34     libcurl:http.obj
 0002:00007c4c       ??_C@_0N@OFDPOHHB@Retry?9After?3?$AA@ 004abc4c     libcurl:http.obj
 0002:00007c5c       ??_C@_0P@EHIPKEAE@Content?9Range?3?$AA@ 004abc5c     libcurl:http.obj
 0002:00007c70       ??_C@_0P@FFJLAOBC@Last?9Modified?3?$AA@ 004abc70     libcurl:http.obj
 0002:00007c84       ??_C@_0BC@EALNDOCH@WWW?9Authenticate?3?$AA@ 004abc84     libcurl:http.obj
 0002:00007c9c       ??_C@_0BE@IHHLHIBG@Proxy?9authenticate?3?$AA@ 004abc9c     libcurl:http.obj
 0002:00007cb4       ??_C@_09GILIFLDG@Location?3?$AA@ 004abcb4     libcurl:http.obj
 0002:00007cc0       ??_C@_08KKJBEKGK@Alt?9Svc?3?$AA@ 004abcc0     libcurl:http.obj
 0002:00007ccc       ??_C@_0CD@KMCBNFEI@HTTP?51?40?0?5assume?5close?5after?5bod@ 004abccc     libcurl:http.obj
 0002:00007cf8       ??_C@_0CD@KCIPCEBM@Received?5HTTP?10?49?5when?5not?5allow@ 004abcf8     libcurl:http.obj
 0002:00007d24       ??_C@_0O@HIILDMIH@Received?5101?6?$AA@ 004abd24     libcurl:http.obj
 0002:00007d34       ??_C@_0DJ@MIHKJEOL@no?5chunk?0?5no?5close?0?5no?5size?4?5Ass@ 004abd34     libcurl:http.obj
 0002:00007d78       ??_C@_0DH@BADDOKJP@Connection?5closure?5while?5negotia@ 004abd78     libcurl:http.obj
 0002:00007dbc       ??_C@_0CB@CMHNBKGH@Got?5417?5while?5waiting?5for?5a?5100?6@ 004abdbc     libcurl:http.obj
 0002:00007de4       ??_C@_0CN@PJJLOEM@HTTP?5error?5before?5end?5of?5send?0?5k@ 004abde4     libcurl:http.obj
 0002:00007e1c       ??_C@_0CN@NJNEALCI@HTTP?5error?5before?5end?5of?5send?0?5s@ 004abe1c     libcurl:http.obj
 0002:00007e54       ??_C@_0CH@COOIMIHN@Keep?5sending?5data?5to?5get?5tossed?5@ 004abe54     libcurl:http.obj
 0002:00007e84       ??_C@_0BD@MJKOHCIC@?5HTTP?1?$CF1d?4?$CF1d?$CFc?$CF3d?$AA@ 004abe84     libcurl:http.obj
 0002:00007e9c       ??_C@_0BA@KFEEPMFA@?5HTTP?1?$CF1?$FL23?$FN?5?$CFd?$AA@ 004abe9c     libcurl:http.obj
 0002:00007eb0       ??_C@_0CN@OHBDOBD@Unsupported?5HTTP?5version?5?$CI?$CFu?4?$CFd?$CJ@ 004abeb0     libcurl:http.obj
 0002:00007ee8       ??_C@_0CC@JKBOGHFA@Lying?5server?0?5not?5serving?5HTTP?12@ 004abee8     libcurl:http.obj
 0002:00007f10       ??_C@_0CI@LFNOECD@Mark?5bundle?5as?5not?5supporting?5mu@ 004abf10     libcurl:http.obj
 0002:00007f40       ??_C@_09ENILIIEL@?5HTTP?5?$CF3d?$AA@ 004abf40     libcurl:http.obj
 0002:00007f4c       ??_C@_0CF@HNNLNLIA@Unsupported?5HTTP?5version?5in?5resp@ 004abf4c     libcurl:http.obj
 0002:00007f78       ??_C@_0BD@IHBBDGA@?5RTSP?1?$CF1d?4?$CF1d?$CFc?$CF3d?$AA@ 004abf78     libcurl:http.obj
 0002:00007f90       ??_C@_02BBAHNLBA@?$CFp?$AA@ 004abf90     libcurl:socketpair.obj
 0002:00007f94       ??_C@_0DM@ENEANEJF@Moving?5trailers?5state?5machine?5fr@ 004abf94     libcurl:transfer.obj
 0002:00007fdc       ??_C@_0CP@HJNKABJC@operation?5aborted?5by?5trailing?5he@ 004abfdc     libcurl:transfer.obj
 0002:00008014       ??_C@_0CC@PPBDDFKE@Successfully?5compiled?5trailers?4?$AN@ 004ac014     libcurl:transfer.obj
 0002:0000803c       ??_C@_0BO@MMBEFIGJ@operation?5aborted?5by?5callback?$AA@ 004ac03c     libcurl:transfer.obj
 0002:00008060       ??_C@_0DC@KLEIDKKI@Read?5callback?5asked?5for?5PAUSE?5wh@ 004ac060     libcurl:transfer.obj
 0002:0000809c       ??_C@_0CD@HAMJCOCA@read?5function?5returned?5funny?5val@ 004ac09c     libcurl:transfer.obj
 0002:000080c8       ??_C@_05DOCBBEPK@?$CFzx?$CFs?$AA@ 004ac0c8     libcurl:transfer.obj
 0002:000080d0       ??_C@_0DB@OHDOBAMJ@Signaling?5end?5of?5chunked?5upload?5@ 004ac0d0     libcurl:transfer.obj
 0002:0000810c       ??_C@_0DI@GAABNBIG@Signaling?5end?5of?5chunked?5upload?5@ 004ac10c     libcurl:transfer.obj
 0002:00008150       ??_C@_0BN@LINFGIKF@Cannot?5rewind?5mime?1post?5data?$AA@ 004ac150     libcurl:transfer.obj
 0002:00008174       ??_C@_0CA@DIJIHPOF@seek?5callback?5returned?5error?5?$CFd?$AA@ 004ac174     libcurl:transfer.obj
 0002:0000819c       ??_C@_0CA@FAMFIPII@the?5ioctl?5callback?5returned?5?$CFd?6?$AA@ 004ac19c     libcurl:transfer.obj
 0002:000081c4       ??_C@_0CB@KPKNOGEG@ioctl?5callback?5returned?5error?5?$CFd@ 004ac1c4     libcurl:transfer.obj
 0002:000081ec       ??_C@_0CG@CHEKEDLE@necessary?5data?5rewind?5wasn?8t?5pos@ 004ac1ec     libcurl:transfer.obj
 0002:0000821c       ??_C@_0CK@FAJPFEAA@The?5requested?5document?5is?5not?5ne@ 004ac21c     libcurl:transfer.obj
 0002:00008250       ??_C@_0CK@HMOOBMAB@The?5requested?5document?5is?5not?5ol@ 004ac250     libcurl:transfer.obj
 0002:00008284       ??_C@_0DI@LKBFDFDE@Excess?5found?3?5excess?5?$DN?5?$CFzd?5url?5?$DN@ 004ac284     libcurl:transfer.obj
 0002:000082c8       ??_C@_0CK@CJJBEGPJ@Failed?5reading?5the?5chunked?9encod@ 004ac2c8     libcurl:transfer.obj
 0002:000082fc       ??_C@_0BH@ONNJJKOC@?$CFs?5in?5chunked?9encoding?$AA@ 004ac2fc     libcurl:transfer.obj
 0002:00008318       ??_C@_0CJ@LNLGBBHG@Leftovers?5after?5chunking?3?5?$CF?5I64d@ 004ac318     libcurl:transfer.obj
 0002:00008350       ??_C@_0FM@BBNOIMMG@Excess?5found?5in?5a?5read?3?5excess?5?$DN@ 004ac350     libcurl:transfer.obj
 0002:000083c0       ??_C@_0DJ@GJLMKBJF@we?5are?5done?5reading?5and?5this?5is?5@ 004ac3c0     libcurl:transfer.obj
 0002:00008404       ??_C@_0CA@FDBKFCML@Failed?5to?5alloc?5scratch?5buffer?$CB?$AA@ 004ac404     libcurl:transfer.obj
 0002:0000842c       ??_C@_0CF@KMDHNAMD@We?5are?5completely?5uploaded?5and?5f@ 004ac42c     libcurl:transfer.obj
 0002:00008458       ??_C@_0BL@EMJDLKIE@select?1poll?5returned?5error?$AA@ 004ac458     libcurl:transfer.obj
 0002:00008478       ??_C@_0BP@GGMDICAN@Done?5waiting?5for?5100?9continue?6?$AA@ 004ac478     libcurl:transfer.obj
 0002:000084a0       ??_C@_0DD@EDBBFLBK@transfer?5closed?5with?5?$CFI64d?5bytes@ 004ac4a0     libcurl:transfer.obj
 0002:000084e0       ??_C@_0DF@NKPPDLKD@transfer?5closed?5with?5outstanding@ 004ac4e0     libcurl:transfer.obj
 0002:00008520       ??_C@_0M@BHCFJOKI@No?5URL?5set?$CB?$AA@ 004ac520     libcurl:transfer.obj
 0002:00008530       ??_C@_0BB@CAJCOHBO@User?9Agent?3?5?$CFs?$AN?6?$AA@ 004ac530     libcurl:transfer.obj
 0002:00008544       ??_C@_0CB@MELNCDNE@Maximum?5?$CI?$CFld?$CJ?5redirects?5followed@ 004ac544     libcurl:transfer.obj
 0002:0000856c       ??_C@_0CJ@KJEMPLIM@Issue?5another?5request?5to?5this?5UR@ 004ac56c     libcurl:transfer.obj
 0002:000085a0       ??_C@_0BJ@HBHELCBA@Switch?5from?5POST?5to?5GET?6?$AA@ 004ac5a0     libcurl:transfer.obj
 0002:000085c0       ??_C@_0O@HGEEJMOP@Switch?5to?5?$CFs?6?$AA@ 004ac5c0     libcurl:transfer.obj
 0002:000085d0       ??_C@_0CK@CDCMFBLO@REFUSED_STREAM?0?5retrying?5a?5fresh@ 004ac5d0     libcurl:transfer.obj
 0002:00008604       ??_C@_0DB@JBFLNIDB@Connection?5died?0?5tried?5?$CFd?5times?5@ 004ac604     libcurl:transfer.obj
 0002:00008640       ??_C@_0DM@GDKKDADD@Connection?5died?0?5retrying?5a?5fres@ 004ac640     libcurl:transfer.obj
 0002:00008688       ??_C@_08JGCGJPK@?9?9?3?9?9?3?9?9?$AA@ 004ac688     libcurl:progress.obj
 0002:00008694       ??_C@_0BH@DDKMEPEA@?$CF2I64d?3?$CF02I64d?3?$CF02I64d?$AA@ 004ac694     libcurl:progress.obj
 0002:000086b0       ??_C@_0BB@HBEGKPFM@?$CF3I64dd?5?$CF02I64dh?$AA@ 004ac6b0     libcurl:progress.obj
 0002:000086c4       ??_C@_07HBLPGDFD@?$CF7I64dd?$AA@ 004ac6c4     libcurl:progress.obj
 0002:000086d0       ??_C@_06JPBNOAO@?$CF5I64d?$AA@ 004ac6d0     libcurl:progress.obj
 0002:000086d8       ??_C@_07MHMPGFAB@?$CF4I64dk?$AA@ 004ac6d8     libcurl:progress.obj
 0002:000086e4       ??_C@_0P@HINFNDLG@?$CF2I64d?4?$CF0I64dM?$AA@ 004ac6e4     libcurl:progress.obj
 0002:000086f8       ??_C@_07EBBOGCF@?$CF4I64dM?$AA@ 004ac6f8     libcurl:progress.obj
 0002:00008704       ??_C@_0P@ICDKDLDM@?$CF2I64d?4?$CF0I64dG?$AA@ 004ac704     libcurl:progress.obj
 0002:00008718       ??_C@_07POPOAOKP@?$CF4I64dG?$AA@ 004ac718     libcurl:progress.obj
 0002:00008724       ??_C@_07JPBBEPDN@?$CF4I64dT?$AA@ 004ac724     libcurl:progress.obj
 0002:00008730       ??_C@_07PLHNIKDJ@?$CF4I64dP?$AA@ 004ac730     libcurl:progress.obj
 0002:0000873c       ??_C@_0CP@JLABFKHL@?$CK?$CK?5Resuming?5transfer?5from?5byte?5p@ 004ac73c     libcurl:progress.obj
 0002:00008778       ??_C@_0KC@DNGKHLLM@?5?5?$CF?$CF?5Total?5?5?5?5?$CF?$CF?5Received?5?$CF?$CF?5Xfe@ 004ac778     libcurl:progress.obj
 0002:0000883c       ??_C@_0DF@JLDNJIPD@?$AN?$CF3I64d?5?$CFs?5?5?$CF3I64d?5?$CFs?5?5?$CF3I64d?5?$CFs@ 004ac83c     libcurl:progress.obj
 0002:0000887c       ??_C@_0BB@GAJGHPCC@Callback?5aborted?$AA@ 004ac87c     libcurl:progress.obj
 0002:00008890       __real@408f400000000000    004ac890     libcurl:progress.obj
 0002:000088a0       ??_C@_0EN@COANIBDN@Operation?5too?5slow?4?5Less?5than?5?$CFl@ 004ac8a0     libcurl:speedcheck.obj
 0002:000088fc       ??_C@_0BK@PNKMNPKO@allocate?5connect?5buffer?$CB?6?$AA@ 004ac8fc     libcurl:http_proxy.obj
 0002:0000891c       ??_C@_0BK@OHJCNBEA@CONNECT?5phase?5completed?$CB?6?$AA@ 004ac91c     libcurl:http_proxy.obj
 0002:0000893c       ??_C@_09FJKLDKHO@?$CFs?$CFs?$CFs?3?$CFd?$AA@ 004ac93c     libcurl:http_proxy.obj
 0002:00008948       ??_C@_0L@LAAIKCML@Host?3?5?$CFs?$AN?6?$AA@ 004ac948     libcurl:http_proxy.obj
 0002:00008958       ??_C@_0CG@JIEEDFAF@Establish?5HTTP?5proxy?5tunnel?5to?5?$CF@ 004ac958     libcurl:http_proxy.obj
 0002:00008988       ??_C@_07FNNMGOPK@CONNECT?$AA@ 004ac988     libcurl:http_proxy.obj
 0002:00008994       ??_C@_0BN@HGHMBOED@CONNECT?5?$CFs?5HTTP?1?$CFs?$AN?6?$CFs?$CFs?$CFs?$CFs?$AA@ 004ac994     libcurl:http_proxy.obj
 0002:000089b8       ??_C@_0CA@KCBNIFEI@Failed?5sending?5CONNECT?5to?5proxy?$AA@ 004ac9b8     libcurl:http_proxy.obj
 0002:000089e0       ??_C@_0CF@KOLJOBP@Proxy?5CONNECT?5aborted?5due?5to?5tim@ 004ac9e0     libcurl:http_proxy.obj
 0002:00008a0c       ??_C@_0CB@DICNFOOE@Proxy?5CONNECT?5connection?5closed?6@ 004aca0c     libcurl:http_proxy.obj
 0002:00008a34       ??_C@_0BG@JFLKGDIG@Proxy?5CONNECT?5aborted?$AA@ 004aca34     libcurl:http_proxy.obj
 0002:00008a50       ??_C@_0BE@LIFOKNAI@chunk?5reading?5DONE?6?$AA@ 004aca50     libcurl:http_proxy.obj
 0002:00008a68       ??_C@_0BM@LDKBIKH@CONNECT?5response?5too?5large?$CB?$AA@ 004aca68     libcurl:http_proxy.obj
 0002:00008a8c       ??_C@_0CF@EGEEKEED@Ignore?5?$CFI64d?5bytes?5of?5response?9b@ 004aca8c     libcurl:http_proxy.obj
 0002:00008ab8       ??_C@_0BO@ECLLDHEE@Ignore?5chunked?5response?9body?6?$AA@ 004acab8     libcurl:http_proxy.obj
 0002:00008adc       ??_C@_0DC@KNKBLKEG@Ignoring?5Content?9Length?5in?5CONNE@ 004acadc     libcurl:http_proxy.obj
 0002:00008b18       ??_C@_0DF@HKNKCFIL@Ignoring?5Transfer?9Encoding?5in?5CO@ 004acb18     libcurl:http_proxy.obj
 0002:00008b58       ??_C@_0BL@FDNFJOM@CONNECT?5responded?5chunked?6?$AA@ 004acb58     libcurl:http_proxy.obj
 0002:00008b78       ??_C@_0N@HGFACOOI@HTTP?11?4?$CFd?5?$CFd?$AA@ 004acb78     libcurl:http_proxy.obj
 0002:00008b88       ??_C@_0BJ@KOKGPDEF@Connect?5me?5again?5please?6?$AA@ 004acb88     libcurl:http_proxy.obj
 0002:00008ba8       ??_C@_0CP@GIFMMFLA@Received?5HTTP?5code?5?$CFd?5from?5proxy@ 004acba8     libcurl:http_proxy.obj
 0002:00008be0       ??_C@_0CF@LHCLBLEC@Proxy?5replied?5?$CFd?5to?5CONNECT?5requ@ 004acbe0     libcurl:http_proxy.obj
 0002:00008c0c       ??_C@_01MCMALHOG@a?$AA@    004acc0c     libcurl:socks.obj
 0002:00008c10       ??_C@_0CP@GODCGMBP@SOCKS4?$CFs?3?5connecting?5to?5HTTP?5pro@ 004acc10     libcurl:socks.obj
 0002:00008c48       ??_C@_0BP@BFLNLLPD@SOCKS4?5communication?5to?5?$CFs?3?$CFd?6?$AA@ 004acc48     libcurl:socks.obj
 0002:00008c70       ??_C@_0CD@BBPIICAB@SOCKS4?5non?9blocking?5resolve?5of?5?$CF@ 004acc70     libcurl:socks.obj
 0002:00008c9c       ??_C@_0BJ@HAGKBMCP@Hostname?5?8?$CFs?8?5was?5found?6?$AA@ 004acc9c     libcurl:socks.obj
 0002:00008cbc       ??_C@_0CO@JJCMGPBJ@SOCKS4?5connect?5to?5IPv4?5?$CFs?5?$CIlocal@ 004accbc     libcurl:socks.obj
 0002:00008cf4       ??_C@_0CG@NKAIHKN@SOCKS4?5connection?5to?5?$CFs?5not?5supp@ 004accf4     libcurl:socks.obj
 0002:00008d24       ??_C@_0CL@BDNFEDCD@Failed?5to?5resolve?5?$CC?$CFs?$CC?5for?5SOCKS@ 004acd24     libcurl:socks.obj
 0002:00008d58       ??_C@_0CL@MCOGLIGC@Too?5long?5SOCKS?5proxy?5user?5name?0?5@ 004acd58     libcurl:socks.obj
 0002:00008d8c       ??_C@_0BL@JJKDFGHD@SOCKS4?3?5too?5long?5host?5name?$AA@ 004acd8c     libcurl:socks.obj
 0002:00008dac       ??_C@_0CH@MHLMDCGL@Failed?5to?5send?5SOCKS4?5connect?5re@ 004acdac     libcurl:socks.obj
 0002:00008ddc       ??_C@_0DB@OIJFDGGK@SOCKS4?3?5Failed?5receiving?5connect@ 004acddc     libcurl:socks.obj
 0002:00008e18       ??_C@_0BL@EDONHKIC@connection?5to?5proxy?5closed?$AA@ 004ace18     libcurl:socks.obj
 0002:00008e38       ??_C@_0DF@PDFOFKGI@SOCKS4?5reply?5has?5wrong?5version?0?5@ 004ace38     libcurl:socks.obj
 0002:00008e78       ??_C@_0BL@KEGECNIK@SOCKS4?$CFs?5request?5granted?4?6?$AA@ 004ace78     libcurl:socks.obj
 0002:00008e98       ??_C@_0FG@CLNHBPIC@Can?8t?5complete?5SOCKS4?5connection@ 004ace98     libcurl:socks.obj
 0002:00008f00       ??_C@_0II@IBODGEP@Can?8t?5complete?5SOCKS4?5connection@ 004acf00     libcurl:socks.obj
 0002:00008fa8       ??_C@_0IM@JGJMKCMN@Can?8t?5complete?5SOCKS4?5connection@ 004acfa8     libcurl:socks.obj
 0002:00009050       ??_C@_0ED@LEIEKNLE@Can?8t?5complete?5SOCKS4?5connection@ 004ad050     libcurl:socks.obj
 0002:000090cc       ??_C@_0CN@HPHFPLLC@SOCKS5?3?5connecting?5to?5HTTP?5proxy@ 004ad0cc     libcurl:socks.obj
 0002:00009108       ??_C@_0FC@NMNHLDOO@SOCKS5?3?5server?5resolving?5disable@ 004ad108     libcurl:socks.obj
 0002:0000916c       ??_C@_0DP@BIGHPBCP@warning?3?5unsupported?5value?5passe@ 004ad16c     libcurl:socks.obj
 0002:000091b8       ??_C@_0CH@GMDFCCKK@Unable?5to?5send?5initial?5SOCKS5?5re@ 004ad1b8     libcurl:socks.obj
 0002:000091e8       ??_C@_0CL@JAKJLHBC@Unable?5to?5receive?5initial?5SOCKS5@ 004ad1e8     libcurl:socks.obj
 0002:0000921c       ??_C@_0BL@PPAECMCI@Connection?5to?5proxy?5closed?$AA@ 004ad21c     libcurl:socks.obj
 0002:0000923c       ??_C@_0DF@KPPCOMKD@Received?5invalid?5version?5in?5init@ 004ad23c     libcurl:socks.obj
 0002:0000927c       ??_C@_0DL@FCEPENBN@SOCKS5?5GSSAPI?5per?9message?5authen@ 004ad27c     libcurl:socks.obj
 0002:000092c4       ??_C@_0CJ@CHHGJDNO@No?5authentication?5method?5was?5acc@ 004ad2c4     libcurl:socks.obj
 0002:000092f8       ??_C@_0DJ@GEDKBFPH@Undocumented?5SOCKS5?5mode?5attempt@ 004ad2f8     libcurl:socks.obj
 0002:0000933c       ??_C@_0CK@NCDGADEO@Excessive?5user?5name?5length?5for?5p@ 004ad33c     libcurl:socks.obj
 0002:00009370       ??_C@_0CJ@LKBHCEIE@Excessive?5password?5length?5for?5pr@ 004ad370     libcurl:socks.obj
 0002:000093a4       ??_C@_0CP@CMDGNMCE@Failed?5to?5send?5SOCKS5?5sub?9negoti@ 004ad3a4     libcurl:socks.obj
 0002:000093dc       ??_C@_0DD@BOLKPAMM@Unable?5to?5receive?5SOCKS5?5sub?9neg@ 004ad3dc     libcurl:socks.obj
 0002:0000941c       ??_C@_0DA@CLHHICIG@User?5was?5rejected?5by?5the?5SOCKS5?5@ 004ad41c     libcurl:socks.obj
 0002:00009458       ??_C@_0BN@BFPKMOIA@SOCKS5?3?5hostname?5?8?$CFs?8?5found?6?$AA@ 004ad458     libcurl:socks.obj
 0002:0000947c       ??_C@_0CL@NCFLJMOD@Failed?5to?5resolve?5?$CC?$CFs?$CC?5for?5SOCKS@ 004ad47c     libcurl:socks.obj
 0002:000094b0       ??_C@_03HODKBCIO@?3?$CFd?$AA@ 004ad4b0     libcurl:socks.obj
 0002:000094b4       ??_C@_0CO@HBDLPPLI@SOCKS5?5connect?5to?5IPv4?5?$CFs?5?$CIlocal@ 004ad4b4     libcurl:socks.obj
 0002:000094ec       ??_C@_0CO@OBFNNJOF@SOCKS5?5connect?5to?5IPv6?5?$CFs?5?$CIlocal@ 004ad4ec     libcurl:socks.obj
 0002:00009524       ??_C@_0CG@DLFCBHFO@SOCKS5?5connection?5to?5?$CFs?5not?5supp@ 004ad524     libcurl:socks.obj
 0002:00009554       ??_C@_0CN@FPICFOPM@SOCKS5?5connect?5to?5?$CFs?3?$CFd?5?$CIremotel@ 004ad554     libcurl:socks.obj
 0002:0000958c       ??_C@_0CH@BAFOLCDD@Failed?5to?5send?5SOCKS5?5connect?5re@ 004ad58c     libcurl:socks.obj
 0002:000095bc       ??_C@_0CO@HHLOPEDO@Failed?5to?5receive?5SOCKS5?5connect@ 004ad5bc     libcurl:socks.obj
 0002:000095f4       ??_C@_0DF@MICEHEFP@SOCKS5?5reply?5has?5wrong?5version?0?5@ 004ad5f4     libcurl:socks.obj
 0002:00009634       ??_C@_0CN@LLAFNAAA@Can?8t?5complete?5SOCKS5?5connection@ 004ad634     libcurl:socks.obj
 0002:0000966c       ??_C@_0CF@NJGGJEDC@SOCKS5?5reply?5has?5wrong?5address?5t@ 004ad66c     libcurl:socks.obj
 0002:00009698       ??_C@_0BJ@DJFGPDDE@SOCKS5?5request?5granted?4?6?$AA@ 004ad698     libcurl:socks.obj
 0002:00009728       ??_C@_03PDPKDIOM@I32?$AA@  004ad728     libcurl:mprintf.obj
 0002:0000972c       ??_C@_03KDGLFNIB@I64?$AA@  004ad72c     libcurl:mprintf.obj
 0002:00009730       ??_C@_03JALODAI@?$CFld?$AA@ 004ad730     libcurl:mprintf.obj
 0002:00009734       ??_C@_04JAJMFKGM@?4?$CFld?$AA@ 004ad734     libcurl:mprintf.obj
 0002:00009740       __real@4024000000000000    004ad740     libcurl:mprintf.obj
 0002:00009788       _Curl_wkday                004ad788     libcurl:parsedate.obj
 0002:000097a4       _Curl_month                004ad7a4     libcurl:parsedate.obj
 0002:00009c20       ??_C@_03PDAGKDH@Mon?$AA@   004adc20     libcurl:parsedate.obj
 0002:00009c24       ??_C@_03NAGEINEP@Tue?$AA@  004adc24     libcurl:parsedate.obj
 0002:00009c28       ??_C@_03MHOMLAJA@Wed?$AA@  004adc28     libcurl:parsedate.obj
 0002:00009c2c       ??_C@_03IOFIKPDN@Thu?$AA@  004adc2c     libcurl:parsedate.obj
 0002:00009c30       ??_C@_03IDIOELNC@Fri?$AA@  004adc30     libcurl:parsedate.obj
 0002:00009c34       ??_C@_03FEFJNEK@Sat?$AA@   004adc34     libcurl:parsedate.obj
 0002:00009c38       ??_C@_03KOEHGMDN@Sun?$AA@  004adc38     libcurl:parsedate.obj
 0002:00009c3c       ??_C@_03JIHJHPIE@Jan?$AA@  004adc3c     libcurl:parsedate.obj
 0002:00009c40       ??_C@_03HJBDCHOM@Feb?$AA@  004adc40     libcurl:parsedate.obj
 0002:00009c44       ??_C@_03ODNJBKGA@Mar?$AA@  004adc44     libcurl:parsedate.obj
 0002:00009c48       ??_C@_03LEOLGMJP@Apr?$AA@  004adc48     libcurl:parsedate.obj
 0002:00009c4c       ??_C@_03CNMDKL@May?$AA@    004adc4c     libcurl:parsedate.obj
 0002:00009c50       ??_C@_03IDFGHECI@Jun?$AA@  004adc50     libcurl:parsedate.obj
 0002:00009c54       ??_C@_03LBGABGKK@Jul?$AA@  004adc54     libcurl:parsedate.obj
 0002:00009c58       ??_C@_03IFJFEIGA@Aug?$AA@  004adc58     libcurl:parsedate.obj
 0002:00009c5c       ??_C@_03GGCAPAJC@Sep?$AA@  004adc5c     libcurl:parsedate.obj
 0002:00009c60       ??_C@_03BMAOKBAD@Oct?$AA@  004adc60     libcurl:parsedate.obj
 0002:00009c64       ??_C@_03JPJOFNIA@Nov?$AA@  004adc64     libcurl:parsedate.obj
 0002:00009c68       ??_C@_03MKABNOCG@Dec?$AA@  004adc68     libcurl:parsedate.obj
 0002:00009c6c       ??_C@_06JLEDEDGH@Monday?$AA@ 004adc6c     libcurl:parsedate.obj
 0002:00009c74       ??_C@_07BAAGCFCM@Tuesday?$AA@ 004adc74     libcurl:parsedate.obj
 0002:00009c80       ??_C@_09DLIGFAKA@Wednesday?$AA@ 004adc80     libcurl:parsedate.obj
 0002:00009c8c       ??_C@_08HACCIKIA@Thursday?$AA@ 004adc8c     libcurl:parsedate.obj
 0002:00009c98       ??_C@_06JECMNKMI@Friday?$AA@ 004adc98     libcurl:parsedate.obj
 0002:00009ca0       ??_C@_08INBOOONO@Saturday?$AA@ 004adca0     libcurl:parsedate.obj
 0002:00009cac       ??_C@_06OOPIFAJ@Sunday?$AA@ 004adcac     libcurl:parsedate.obj
 0002:00009cb4       ??_C@_0DK@DJOHIPMC@?$CF31?$FLABCDEFGHIJKLMNOPQRSTUVWXYZab@ 004adcb4     libcurl:parsedate.obj
 0002:00009cfc       ??_C@_0BB@DDKNHMEG@?$CF02d?3?$CF02d?3?$CF02d?$CFn?$AA@ 004adcfc     libcurl:parsedate.obj
 0002:00009d10       ??_C@_0M@GGPEELHK@?$CF02d?3?$CF02d?$CFn?$AA@ 004add10     libcurl:parsedate.obj
 0002:00009d20       ??_C@_0CB@GKOJBLCO@WARNING?3?5Using?5weak?5random?5seed?6@ 004add20     libcurl:rand.obj
 0002:00009d48       ??_C@_0BB@JCEFLFJE@0123456789abcdef?$AA@ 004add48     libcurl:rand.obj
 0002:00009d60       _Curl_handler_gopher       004add60     libcurl:gopher.obj
 0002:00009dbc       ??_C@_06IFFOBMCL@GOPHER?$AA@ 004addbc     libcurl:gopher.obj
 0002:00009dc4       ??_C@_0BO@PBGBECFJ@Failed?5sending?5Gopher?5request?$AA@ 004addc4     libcurl:gopher.obj
 0002:00009de8       ??_C@_04MOKDAIJJ@IMAP?$AA@ 004adde8     libcurl:imap.obj
 0002:00009e10       _Curl_handler_imap         004ade10     libcurl:imap.obj
 0002:00009e74       ??_C@_04CJJOKOB@imap?$AA@  004ade74     libcurl:imap.obj
 0002:00009e7c       ??_C@_02GIPFHKNO@OK?$AA@   004ade7c     libcurl:imap.obj
 0002:00009e80       ??_C@_07OOHBHNBJ@PREAUTH?$AA@ 004ade80     libcurl:imap.obj
 0002:00009e8c       ??_C@_02KAOAMBHJ@?$CK?5?$AA@ 004ade8c     libcurl:imap.obj
 0002:00009e90       ??_C@_0L@LNNPCDBM@CAPABILITY?$AA@ 004ade90     libcurl:imap.obj
 0002:00009ea0       ??_C@_04PCOPKCKE@LIST?$AA@ 004adea0     libcurl:imap.obj
 0002:00009ea8       ??_C@_05CIPFEEPL@STORE?$AA@ 004adea8     libcurl:imap.obj
 0002:00009eb0       ??_C@_05JDMAOHF@FETCH?$AA@ 004adeb0     libcurl:imap.obj
 0002:00009eb8       ??_C@_06LCPJPOPK@SELECT?$AA@ 004adeb8     libcurl:imap.obj
 0002:00009ec0       ??_C@_07JOOLACMD@EXAMINE?$AA@ 004adec0     libcurl:imap.obj
 0002:00009ecc       ??_C@_06GBNAAIDA@SEARCH?$AA@ 004adecc     libcurl:imap.obj
 0002:00009ed4       ??_C@_07JEPHAMII@EXPUNGE?$AA@ 004aded4     libcurl:imap.obj
 0002:00009ee0       ??_C@_04NFFONMDK@LSUB?$AA@ 004adee0     libcurl:imap.obj
 0002:00009ee8       ??_C@_03MJDGODDN@UID?$AA@  004adee8     libcurl:imap.obj
 0002:00009eec       ??_C@_04NMBEDBAI@NOOP?$AA@ 004adeec     libcurl:imap.obj
 0002:00009ef4       ??_C@_02KBCCKLEO@?$CL?5?$AA@ 004adef4     libcurl:imap.obj
 0002:00009ef8       ??_C@_0CB@FHOJFP@Unexpected?5continuation?5response@ 004adef8     libcurl:imap.obj
 0002:00009f20       ??_C@_08EBJFDHCC@STARTTLS?$AA@ 004adf20     libcurl:imap.obj
 0002:00009f2c       ??_C@_0M@HKLLGBJE@LOGIN?5?$CFs?5?$CFs?$AA@ 004adf2c     libcurl:imap.obj
 0002:00009f3c       ??_C@_0BD@HAAFOLAI@AUTHENTICATE?5?$CFs?5?$CFs?$AA@ 004adf3c     libcurl:imap.obj
 0002:00009f54       ??_C@_0BA@MBJBMJEE@AUTHENTICATE?5?$CFs?$AA@ 004adf54     libcurl:imap.obj
 0002:00009f68       ??_C@_02DKCKIIND@?$CFs?$AA@ 004adf68     libcurl:imap.obj
 0002:00009f6c       ??_C@_0CP@IMHCGJPM@No?5known?5authentication?5mechanis@ 004adf6c     libcurl:imap.obj
 0002:00009fa4       ??_C@_0M@HEIBGALO@LIST?5?$CC?$CFs?$CC?5?$CK?$AA@ 004adfa4     libcurl:imap.obj
 0002:00009fb4       ??_C@_0CB@CNPLJHNG@Cannot?5SELECT?5without?5a?5mailbox?4@ 004adfb4     libcurl:imap.obj
 0002:00009fdc       ??_C@_09GMKLHBDP@SELECT?5?$CFs?$AA@ 004adfdc     libcurl:imap.obj
 0002:00009fe8       ??_C@_0BK@HINEGIBC@UID?5FETCH?5?$CFs?5BODY?$FL?$CFs?$FN?$DM?$CFs?$DO?$AA@ 004adfe8     libcurl:imap.obj
 0002:0000a008       ??_C@_0BG@MFEJGEMK@UID?5FETCH?5?$CFs?5BODY?$FL?$CFs?$FN?$AA@ 004ae008     libcurl:imap.obj
 0002:0000a024       ??_C@_0BG@KDICJLOA@FETCH?5?$CFs?5BODY?$FL?$CFs?$FN?$DM?$CFs?$DO?$AA@ 004ae024     libcurl:imap.obj
 0002:0000a040       ??_C@_0BC@DBBDHOGD@FETCH?5?$CFs?5BODY?$FL?$CFs?$FN?$AA@ 004ae040     libcurl:imap.obj
 0002:0000a058       ??_C@_0BM@MDAKNOLA@Cannot?5FETCH?5without?5a?5UID?4?$AA@ 004ae058     libcurl:imap.obj
 0002:0000a07c       ??_C@_0CB@OJIMGEKK@Cannot?5APPEND?5without?5a?5mailbox?4@ 004ae07c     libcurl:imap.obj
 0002:0000a0a4       ??_C@_0N@CMGFLCKF@Mime?9Version?$AA@ 004ae0a4     libcurl:imap.obj
 0002:0000a0b4       ??_C@_0BC@LJLDDNIA@Mime?9Version?3?51?40?$AA@ 004ae0b4     libcurl:imap.obj
 0002:0000a0cc       ??_C@_0CL@KHDECIDD@Cannot?5APPEND?5with?5unknown?5input@ 004ae0cc     libcurl:imap.obj
 0002:0000a100       ??_C@_0BK@BLHEIJNH@APPEND?5?$CFs?5?$CI?2Seen?$CJ?5?$HL?$CFI64d?$HN?$AA@ 004ae100     libcurl:imap.obj
 0002:0000a120       ??_C@_0CG@GFOCBLJM@Cannot?5SEARCH?5without?5a?5query?5st@ 004ae120     libcurl:imap.obj
 0002:0000a150       ??_C@_09PAMHLMCN@SEARCH?5?$CFs?$AA@ 004ae150     libcurl:imap.obj
 0002:0000a15c       ??_C@_06ICDCDPAM@LOGOUT?$AA@ 004ae15c     libcurl:imap.obj
 0002:0000a164       ??_C@_0CM@LEKNMHGJ@PREAUTH?5connection?0?5already?5auth@ 004ae164     libcurl:imap.obj
 0002:0000a198       ??_C@_0CE@FKNEKFDD@Got?5unexpected?5imap?9server?5respo@ 004ae198     libcurl:imap.obj
 0002:0000a1c4       ??_C@_0O@MEFIGCNE@LOGINDISABLED?$AA@ 004ae1c4     libcurl:imap.obj
 0002:0000a1d4       ??_C@_07BBIPJLBF@SASL?9IR?$AA@ 004ae1d4     libcurl:imap.obj
 0002:0000a1e0       ??_C@_05CKMEMLBN@AUTH?$DN?$AA@ 004ae1e0     libcurl:imap.obj
 0002:0000a1e8       ??_C@_0BI@BIKPOJKH@STARTTLS?5not?5supported?4?$AA@ 004ae1e8     libcurl:imap.obj
 0002:0000a204       ??_C@_0BA@IKAEMKBM@STARTTLS?5denied?$AA@ 004ae204     libcurl:imap.obj
 0002:0000a218       ??_C@_0BJ@KPCPDCOC@Authentication?5cancelled?$AA@ 004ae218     libcurl:imap.obj
 0002:0000a238       ??_C@_0BC@GNMNACJK@Access?5denied?4?5?$CFc?$AA@ 004ae238     libcurl:imap.obj
 0002:0000a250       ??_C@_0CB@HHPEICDC@OK?5?$FLUIDVALIDITY?5?$CF19?$FL0123456789?$FN?$FN@ 004ae250     libcurl:imap.obj
 0002:0000a278       ??_C@_0CA@GGNJMECP@Mailbox?5UIDVALIDITY?5has?5changed?$AA@ 004ae278     libcurl:imap.obj
 0002:0000a2a0       ??_C@_0O@IFFBAKPD@Select?5failed?$AA@ 004ae2a0     libcurl:imap.obj
 0002:0000a2b0       ??_C@_0BP@GLMKNCNJ@Found?5?$CFI64d?5bytes?5to?5download?6?$AA@ 004ae2b0     libcurl:imap.obj
 0002:0000a2d8       ??_C@_0DG@HDINJNJA@Written?5?$CFzu?5bytes?0?5?$CFI64u?5bytes?5a@ 004ae2d8     libcurl:imap.obj
 0002:0000a318       ??_C@_0CA@GCPCMMJK@Failed?5to?5parse?5FETCH?5response?4?$AA@ 004ae318     libcurl:imap.obj
 0002:0000a340       ??_C@_06KPMAOGPB@?$CFc?$CF03d?$AA@ 004ae340     libcurl:imap.obj
 0002:0000a348       ??_C@_05DNIIFBMG@?$CFs?5?$CFs?$AA@ 004ae348     libcurl:imap.obj
 0002:0000a350       ??_C@_07OHGMEIBP@?$CI?$CJ?$HL?5?$CF?$CK?$FN?$AA@ 004ae350     libcurl:imap.obj
 0002:0000a35c       ??_C@_0M@BOIGKDFF@UIDVALIDITY?$AA@ 004ae35c     libcurl:imap.obj
 0002:0000a36c       ??_C@_09NEHACAIH@MAILINDEX?$AA@ 004ae36c     libcurl:imap.obj
 0002:0000a378       ??_C@_07OADICAGF@SECTION?$AA@ 004ae378     libcurl:imap.obj
 0002:0000a384       ??_C@_07GKNKJNCD@PARTIAL?$AA@ 004ae384     libcurl:imap.obj
 0002:0000a390       ??_C@_04FKGOMEMC@POP3?$AA@ 004ae390     libcurl:pop3.obj
 0002:0000a3b8       _Curl_handler_pop3         004ae3b8     libcurl:pop3.obj
 0002:0000a41c       ??_C@_03NJDAHFJE@pop?$AA@  004ae41c     libcurl:pop3.obj
 0002:0000a420       ??_C@_04ELPDIOFA@?9ERR?$AA@ 004ae420     libcurl:pop3.obj
 0002:0000a428       ??_C@_03MBMDFEOP@?$CLOK?$AA@ 004ae428     libcurl:pop3.obj
 0002:0000a42c       ??_C@_04IAPIEFNH@CAPA?$AA@ 004ae42c     libcurl:pop3.obj
 0002:0000a434       ??_C@_04OKBHFPDP@STLS?$AA@ 004ae434     libcurl:pop3.obj
 0002:0000a43c       ??_C@_07BCMGCIGK@USER?5?$CFs?$AA@ 004ae43c     libcurl:pop3.obj
 0002:0000a448       ??_C@_04NOJCDH@?$CF02x?$AA@ 004ae448     libcurl:pop3.obj
 0002:0000a450       ??_C@_0L@NCKPAHGC@APOP?5?$CFs?5?$CFs?$AA@ 004ae450     libcurl:pop3.obj
 0002:0000a460       ??_C@_0L@LFENDKBE@AUTH?5?$CFs?5?$CFs?$AA@ 004ae460     libcurl:pop3.obj
 0002:0000a470       ??_C@_07GLDNHMJM@AUTH?5?$CFs?$AA@ 004ae470     libcurl:pop3.obj
 0002:0000a47c       ??_C@_04DEPMIFPM@RETR?$AA@ 004ae47c     libcurl:pop3.obj
 0002:0000a484       ??_C@_04GBOBDPBG@QUIT?$AA@ 004ae484     libcurl:pop3.obj
 0002:0000a48c       ??_C@_0CE@PFHNFNOL@Got?5unexpected?5pop3?9server?5respo@ 004ae48c     libcurl:pop3.obj
 0002:0000a4b8       ??_C@_04OOEKJIOI@USER?$AA@ 004ae4b8     libcurl:pop3.obj
 0002:0000a4c0       ??_C@_05JEAIKFLG@SASL?5?$AA@ 004ae4c0     libcurl:pop3.obj
 0002:0000a4c8       ??_C@_0BE@NGBFBFLB@STLS?5not?5supported?4?$AA@ 004ae4c8     libcurl:pop3.obj
 0002:0000a4e0       ??_C@_0BK@FLOCGBM@Authentication?5failed?3?5?$CFd?$AA@ 004ae4e0     libcurl:pop3.obj
 0002:0000a500       ??_C@_07ECIIGDNP@PASS?5?$CFs?$AA@ 004ae500     libcurl:pop3.obj
 0002:0000a50c       ??_C@_05EMLFECFL@?$CLAPOP?$AA@ 004ae50c     libcurl:pop3.obj
 0002:0000a514       ??_C@_05KMJPGPH@?$AN?6?4?$AN?6?$AA@ 004ae514     libcurl:pop3.obj
 0002:0000a51c       ??_C@_04POBOOGCB@SMTP?$AA@ 004ae51c     libcurl:smtp.obj
 0002:0000a548       _Curl_handler_smtp         004ae548     libcurl:smtp.obj
 0002:0000a5ac       ??_C@_04DCCEAEFJ@smtp?$AA@ 004ae5ac     libcurl:smtp.obj
 0002:0000a5b4       ??_C@_07LENLNDIO@EHLO?5?$CFs?$AA@ 004ae5b4     libcurl:smtp.obj
 0002:0000a5c0       ??_C@_07EOAJKHJP@HELO?5?$CFs?$AA@ 004ae5c0     libcurl:smtp.obj
 0002:0000a5cc       ??_C@_09KGGPGOEC@?5SMTPUTF8?$AA@ 004ae5cc     libcurl:smtp.obj
 0002:0000a5d8       ??_C@_01EOFPKCAF@?$EA?$AA@ 004ae5d8     libcurl:smtp.obj
 0002:0000a5dc       ??_C@_0O@LLBOEPLL@VRFY?5?$CFs?$CFs?$CFs?$CFs?$AA@ 004ae5dc     libcurl:smtp.obj
 0002:0000a5ec       ??_C@_04KFDBLEKN@EXPN?$AA@ 004ae5ec     libcurl:smtp.obj
 0002:0000a5f4       ??_C@_07LLFIICBM@?$CFs?5?$CFs?$CFs?$AA@ 004ae5f4     libcurl:smtp.obj
 0002:0000a600       ??_C@_04DOKPJKJF@HELP?$AA@ 004ae600     libcurl:smtp.obj
 0002:0000a608       ??_C@_07IAOBMFMB@?$DM?$CFs?$EA?$CFs?$DO?$AA@ 004ae608     libcurl:smtp.obj
 0002:0000a614       ??_C@_04NNJCMPBN@?$DM?$CFs?$DO?$AA@ 004ae614     libcurl:smtp.obj
 0002:0000a61c       ??_C@_02GMAKCBGE@?$DM?$DO?$AA@ 004ae61c     libcurl:smtp.obj
 0002:0000a620       ??_C@_05LLAMLEHD@?$CFI64d?$AA@ 004ae620     libcurl:smtp.obj
 0002:0000a628       ??_C@_06MKNOLBCP@?5SIZE?$DN?$AA@ 004ae628     libcurl:smtp.obj
 0002:0000a630       ??_C@_06MJNHIMFM@?5AUTH?$DN?$AA@ 004ae630     libcurl:smtp.obj
 0002:0000a638       ??_C@_0BH@CCDJIIDH@MAIL?5FROM?3?$CFs?$CFs?$CFs?$CFs?$CFs?$CFs?$AA@ 004ae638     libcurl:smtp.obj
 0002:0000a654       ??_C@_0BA@HHMHFILL@RCPT?5TO?3?$DM?$CFs?$EA?$CFs?$DO?$AA@ 004ae654     libcurl:smtp.obj
 0002:0000a668       ??_C@_0N@LGJBDMGK@RCPT?5TO?3?$DM?$CFs?$DO?$AA@ 004ae668     libcurl:smtp.obj
 0002:0000a678       ??_C@_0CI@FJFEAKAL@Got?5unexpected?5smtp?9server?5respo@ 004ae678     libcurl:smtp.obj
 0002:0000a6a8       ??_C@_0BJ@EDGODDHJ@STARTTLS?5denied?0?5code?5?$CFd?$AA@ 004ae6a8     libcurl:smtp.obj
 0002:0000a6c8       ??_C@_0BJ@DNMHCFHF@Remote?5access?5denied?3?5?$CFd?$AA@ 004ae6c8     libcurl:smtp.obj
 0002:0000a6e8       ??_C@_04EMFHLKGI@SIZE?$AA@ 004ae6e8     libcurl:smtp.obj
 0002:0000a6f0       ??_C@_08OMLBBBEK@SMTPUTF8?$AA@ 004ae6f0     libcurl:smtp.obj
 0002:0000a6fc       ??_C@_05NFKIKHAB@AUTH?5?$AA@ 004ae6fc     libcurl:smtp.obj
 0002:0000a704       ??_C@_0CB@HKFOBCB@Unexpectedly?5short?5EHLO?5response@ 004ae704     libcurl:smtp.obj
 0002:0000a72c       ??_C@_0BD@COCKJOPI@Command?5failed?3?5?$CFd?$AA@ 004ae72c     libcurl:smtp.obj
 0002:0000a744       ??_C@_0BA@FIAGOBAE@MAIL?5failed?3?5?$CFd?$AA@ 004ae744     libcurl:smtp.obj
 0002:0000a758       ??_C@_0BA@LOKNLPKK@RCPT?5failed?3?5?$CFd?$AA@ 004ae758     libcurl:smtp.obj
 0002:0000a76c       ??_C@_0BN@DILLHMBG@RCPT?5failed?3?5?$CFd?5?$CIlast?5error?$CJ?$AA@ 004ae76c     libcurl:smtp.obj
 0002:0000a790       ??_C@_04DFNBDBBL@DATA?$AA@ 004ae790     libcurl:smtp.obj
 0002:0000a798       ??_C@_0BA@BDBJMDJD@DATA?5failed?3?5?$CFd?$AA@ 004ae798     libcurl:smtp.obj
 0002:0000a7ac       ??_C@_04JHCEEOPB@?$AN?6?4?4?$AA@ 004ae7ac     libcurl:smtp.obj
 0002:0000a7b4       ??_C@_0BJ@NPJPFJML@?$CF04d?$CF02d?$CF02d?$CF02d?$CF02d?$CF02d?$AA@ 004ae7b4     libcurl:ftp.obj
 0002:0000a7d4       ??_C@_0CA@CJAAICLH@?$CF04d?$CF02d?$CF02d?5?$CF02d?3?$CF02d?3?$CF02d?5GMT?$AA@ 004ae7d4     libcurl:ftp.obj
 0002:0000a7fc       ??_C@_0DE@GKBAFMFA@Last?9Modified?3?5?$CFs?0?5?$CF02d?5?$CFs?5?$CF4d?5?$CF@ 004ae7fc     libcurl:ftp.obj
 0002:0000a83c       ??_C@_0BP@EOJCADGH@unsupported?5MDTM?5reply?5format?6?$AA@ 004ae83c     libcurl:ftp.obj
 0002:0000a864       ??_C@_0BK@JLENJKNN@Given?5file?5does?5not?5exist?$AA@ 004ae864     libcurl:ftp.obj
 0002:0000a884       ??_C@_0BK@LIEJIOFD@Skipping?5time?5comparison?6?$AA@ 004ae884     libcurl:ftp.obj
 0002:0000a8a4       ??_C@_0BK@DEMDJAEI@Couldn?8t?5set?5desired?5mode?$AA@ 004ae8a4     libcurl:ftp.obj
 0002:0000a8c4       ??_C@_0DF@NIKHFCK@Got?5a?5?$CF03d?5response?5code?5instead@ 004ae8c4     libcurl:ftp.obj
 0002:0000a904       ??_C@_0CB@IDOEMMGJ@ftp?5server?5doesn?8t?5support?5SIZE?6@ 004ae904     libcurl:ftp.obj
 0002:0000a92c       ??_C@_0CM@HFMKHHME@Offset?5?$CI?$CFI64d?$CJ?5was?5beyond?5file?5s@ 004ae92c     libcurl:ftp.obj
 0002:0000a960       ??_C@_0CE@DDNCLNDJ@File?5already?5completely?5download@ 004ae960     libcurl:ftp.obj
 0002:0000a98c       ??_C@_0CO@NFEHDDGP@Instructs?5server?5to?5resume?5from?5@ 004ae98c     libcurl:ftp.obj
 0002:0000a9c4       ??_C@_0L@GMAGLFCO@REST?5?$CFI64d?$AA@ 004ae9c4     libcurl:ftp.obj
 0002:0000a9d4       ??_C@_0BI@DFLKJFAC@The?5file?5does?5not?5exist?$AA@ 004ae9d4     libcurl:ftp.obj
 0002:0000a9f0       ??_C@_0BH@OONDMNFK@Accept?9ranges?3?5bytes?$AN?6?$AA@ 004ae9f0     libcurl:ftp.obj
 0002:0000aa0c       ??_C@_0BC@MLOKPHOJ@Couldn?8t?5use?5REST?$AA@ 004aea0c     libcurl:ftp.obj
 0002:0000aa24       ??_C@_0BH@NAGIDHLA@Failed?5FTP?5upload?3?5?$CF0d?$AA@ 004aea24     libcurl:ftp.obj
 0002:0000aa40       ??_C@_0CJ@KNNCCANJ@Data?5conn?5was?5not?5available?5imme@ 004aea40     libcurl:ftp.obj
 0002:0000aa74       ??_C@_06LCIDCBMH@?5bytes?$AA@ 004aea74     libcurl:ftp.obj
 0002:0000aa7c       ??_C@_0BF@OJNOJFMB@Maxdownload?5?$DN?5?$CFI64d?6?$AA@ 004aea7c     libcurl:ftp.obj
 0002:0000aa98       ??_C@_0BP@JBOHHHEF@Getting?5file?5with?5size?3?5?$CFI64d?6?$AA@ 004aea98     libcurl:ftp.obj
 0002:0000aac0       ??_C@_0BE@IHDENKLC@RETR?5response?3?5?$CF03d?$AA@ 004aeac0     libcurl:ftp.obj
 0002:0000aad8       ??_C@_07HLPDJPKF@PBSZ?5?$CFd?$AA@ 004aead8     libcurl:ftp.obj
 0002:0000aae4       ??_C@_03LBMKPMDK@FTP?$AA@  004aeae4     libcurl:ftp.obj
 0002:0000aae8       ??_C@_07NEPAJNMI@ACCT?5?$CFs?$AA@ 004aeae8     libcurl:ftp.obj
 0002:0000aaf4       ??_C@_0CC@FIJBPOPC@ACCT?5requested?5but?5none?5availabl@ 004aeaf4     libcurl:ftp.obj
 0002:0000ab1c       ??_C@_0BE@IDFIDIK@Access?5denied?3?5?$CF03d?$AA@ 004aeb1c     libcurl:ftp.obj
 0002:0000ab34       ??_C@_0BO@KPCJJKDD@ACCT?5rejected?5by?5server?3?5?$CF03d?$AA@ 004aeb34     libcurl:ftp.obj
 0002:0000ab60       _Curl_handler_ftp          004aeb60     libcurl:ftp.obj
 0002:0000abd8       ??_C@_0CB@MGPFOKOC@Error?5accept?$CI?$CJing?5server?5connect@ 004aebd8     libcurl:ftp.obj
 0002:0000ac00       ??_C@_0CB@CHFILBBG@Connection?5accepted?5from?5server?6@ 004aec00     libcurl:ftp.obj
 0002:0000ac28       ??_C@_0BN@OADDFOLF@Checking?5for?5server?5connect?6?$AA@ 004aec28     libcurl:ftp.obj
 0002:0000ac4c       ??_C@_0DF@ECKOGFBG@Accept?5timeout?5occurred?5while?5wa@ 004aec4c     libcurl:ftp.obj
 0002:0000ac8c       ??_C@_0DI@EHJDBFKM@There?5is?5negative?5response?5in?5ca@ 004aec8c     libcurl:ftp.obj
 0002:0000acd0       ??_C@_0DF@BCDKPLJO@Got?5a?5?$CF03d?5ftp?9server?5response?5w@ 004aecd0     libcurl:ftp.obj
 0002:0000ad10       ??_C@_0CH@IPEAPKCM@Error?5while?5waiting?5for?5server?5c@ 004aed10     libcurl:ftp.obj
 0002:0000ad40       ??_C@_0CN@DICMJIKG@Ready?5to?5accept?5data?5connection?5@ 004aed40     libcurl:ftp.obj
 0002:0000ad78       ??_C@_0DA@LIJFNFEC@unsupported?5parameter?5to?5CURLOPT@ 004aed78     libcurl:ftp.obj
 0002:0000adb4       ??_C@_0DA@FIFPKHDL@Ctrl?5conn?5has?5data?5while?5waiting@ 004aedb4     libcurl:ftp.obj
 0002:0000adf0       ??_C@_0DA@NKJCHCEC@Doing?5the?5SSL?1TLS?5handshake?5on?5t@ 004aedf0     libcurl:ftp.obj
 0002:0000ae2c       ??_C@_07JIEIOJCN@PROT?5?$CFc?$AA@ 004aee2c     libcurl:ftp.obj
 0002:0000ae38       ??_C@_0CN@HIFIJJNN@Preparing?5for?5accepting?5server?5o@ 004aee38     libcurl:ftp.obj
 0002:0000ae70       ??_C@_03POJCPIGP@CCC?$AA@  004aee70     libcurl:ftp.obj
 0002:0000ae74       ??_C@_0CK@DIEJGCGD@Failed?5to?5clear?5the?5command?5chan@ 004aee74     libcurl:ftp.obj
 0002:0000aea8       ??_C@_04EAEGPFGI@SYST?$AA@ 004aeea8     libcurl:ftp.obj
 0002:0000aeb0       ??_C@_0BE@OCHIMCLN@Entry?5path?5is?5?8?$CFs?8?6?$AA@ 004aeeb0     libcurl:ftp.obj
 0002:0000aec8       ??_C@_0BL@LGIJMHED@Failed?5to?5figure?5out?5path?6?$AA@ 004aeec8     libcurl:ftp.obj
 0002:0000aee8       ??_C@_06JNDPFLAI@OS?1400?$AA@ 004aeee8     libcurl:ftp.obj
 0002:0000aef0       ??_C@_0P@JBGEGJKJ@SITE?5NAMEFMT?51?$AA@ 004aeef0     libcurl:ftp.obj
 0002:0000af04       ??_C@_0BO@OHEGJEDF@QUOT?5command?5failed?5with?5?$CF03d?$AA@ 004aef04     libcurl:ftp.obj
 0002:0000af28       ??_C@_06BFAFDBBO@MKD?5?$CFs?$AA@ 004aef28     libcurl:ftp.obj
 0002:0000af30       ??_C@_0DD@PPJPGINE@Server?5denied?5you?5to?5change?5to?5t@ 004aef30     libcurl:ftp.obj
 0002:0000af70       ??_C@_0BI@BHKLDLGC@Failed?5to?5MKD?5dir?3?5?$CF03d?$AA@ 004aef70     libcurl:ftp.obj
 0002:0000af8c       ??_C@_0CA@MIHDFENK@PRET?5command?5not?5accepted?3?5?$CF03d?$AA@ 004aef8c     libcurl:ftp.obj
 0002:0000afb4       ??_C@_03OIFAJNHF@PWD?$AA@  004aefb4     libcurl:ftp.obj
 0002:0000afb8       ??_C@_0CA@BPKLCDMI@Remembering?5we?5are?5in?5dir?5?$CC?$CFs?$CC?6?$AA@ 004aefb8     libcurl:ftp.obj
 0002:0000afe0       ??_C@_04JOBIBMIG@ABOR?$AA@ 004aefe0     libcurl:ftp.obj
 0002:0000afe8       ??_C@_0CB@ELHFDEFP@Failure?5sending?5ABOR?5command?3?5?$CFs@ 004aefe8     libcurl:ftp.obj
 0002:0000b010       ??_C@_0BO@IBJECBBL@control?5connection?5looks?5dead?$AA@ 004af010     libcurl:ftp.obj
 0002:0000b034       ??_C@_06DBCOIIKD@CWD?5?$CFs?$AA@ 004af034     libcurl:ftp.obj
 0002:0000b03c       ??_C@_0DA@LKDFHHHG@partial?5download?5completed?0?5clos@ 004af03c     libcurl:ftp.obj
 0002:0000b078       ??_C@_0BM@KBMOAOIH@Exceeded?5storage?5allocation?$AA@ 004af078     libcurl:ftp.obj
 0002:0000b09c       ??_C@_0CB@MBIEKFAL@server?5did?5not?5report?5OK?0?5got?5?$CFd@ 004af09c     libcurl:ftp.obj
 0002:0000b0c4       ??_C@_0DI@GGNLIACP@Uploaded?5unaligned?5file?5size?5?$CI?$CFI@ 004af0c4     libcurl:ftp.obj
 0002:0000b108       ??_C@_0CI@BFHFHKBK@Received?5only?5partial?5file?3?5?$CFI64@ 004af108     libcurl:ftp.obj
 0002:0000b138       ??_C@_0BG@JNDKCNAF@No?5data?5was?5received?$CB?$AA@ 004af138     libcurl:ftp.obj
 0002:0000b154       ??_C@_0BN@KKEKOBII@QUOT?5string?5not?5accepted?3?5?$CFs?$AA@ 004af154     libcurl:ftp.obj
 0002:0000b178       ??_C@_07LBAFLNFB@TYPE?5?$CFc?$AA@ 004af178     libcurl:ftp.obj
 0002:0000b184       ??_C@_0BP@PDGEBKHD@Connecting?5to?5?$CFs?5?$CI?$CFs?$CJ?5port?5?$CFd?6?$AA@ 004af184     libcurl:ftp.obj
 0002:0000b1ac       ??_C@_0BJ@KBDKIMG@getsockname?$CI?$CJ?5failed?3?5?$CFs?$AA@ 004af1ac     libcurl:ftp.obj
 0002:0000b1cc       ??_C@_0DD@DMEJNKPI@failed?5to?5resolve?5the?5address?5pr@ 004af1cc     libcurl:ftp.obj
 0002:0000b20c       ??_C@_0BD@OKODOHGG@socket?5failure?3?5?$CFs?$AA@ 004af20c     libcurl:ftp.obj
 0002:0000b224       ??_C@_0DA@CIIHINBN@bind?$CIport?$DN?$CFhu?$CJ?5on?5non?9local?5addr@ 004af224     libcurl:ftp.obj
 0002:0000b260       ??_C@_0BK@PGDLCBEF@bind?$CIport?$DN?$CFhu?$CJ?5failed?3?5?$CFs?$AA@ 004af260     libcurl:ftp.obj
 0002:0000b280       ??_C@_0CE@CGKJCPDM@bind?$CI?$CJ?5failed?0?5we?5ran?5out?5of?5por@ 004af280     libcurl:ftp.obj
 0002:0000b2ac       ??_C@_0CF@BIADGCCG@ftp_perform?5ends?5with?5SECONDARY?3@ 004af2ac     libcurl:ftp.obj
 0002:0000b2d8       ??_C@_0P@JIPLFCKK@?$CFs?5?$HM?$CFd?$HM?$CFs?$HM?$CFhu?$HM?$AA@ 004af2d8     libcurl:ftp.obj
 0002:0000b2ec       ??_C@_0CB@BJFEKOJI@Failure?5sending?5EPRT?5command?3?5?$CFs@ 004af2ec     libcurl:ftp.obj
 0002:0000b314       ??_C@_06IEKOAMEP@?0?$CFd?0?$CFd?$AA@ 004af314     libcurl:ftp.obj
 0002:0000b31c       ??_C@_0CB@JCGGICMN@Failure?5sending?5PORT?5command?3?5?$CFs@ 004af31c     libcurl:ftp.obj
 0002:0000b344       ??_C@_0BP@PMBCHHFK@Connect?5data?5stream?5passively?6?$AA@ 004af344     libcurl:ftp.obj
 0002:0000b36c       ??_C@_0BM@CBMMJPAN@Wildcard?5?9?5Parsing?5started?6?$AA@ 004af36c     libcurl:ftp.obj
 0002:0000b390       ??_C@_04LPPBABPG@NLST?$AA@ 004af390     libcurl:ftp.obj
 0002:0000b398       ??_C@_07HDBBNIBK@PRET?5?$CFs?$AA@ 004af398     libcurl:ftp.obj
 0002:0000b3a4       ??_C@_0N@JGBIEHDA@PRET?5STOR?5?$CFs?$AA@ 004af3a4     libcurl:ftp.obj
 0002:0000b3b4       ??_C@_0N@PCAKCCIM@PRET?5RETR?5?$CFs?$AA@ 004af3b4     libcurl:ftp.obj
 0002:0000b3c4       ??_C@_07EDEBBIDH@REST?5?$CFd?$AA@ 004af3c4     libcurl:ftp.obj
 0002:0000b3d0       ??_C@_0BK@EBFHJJOJ@Wildcard?5?9?5START?5of?5?$CC?$CFs?$CC?6?$AA@ 004af3d0     libcurl:ftp.obj
 0002:0000b3f0       ??_C@_0CB@HPHNJDIO@Wildcard?5?9?5?$CC?$CFs?$CC?5skipped?5by?5user?6@ 004af3f0     libcurl:ftp.obj
 0002:0000b418       ??_C@_07DHEHBJLB@SIZE?5?$CFs?$AA@ 004af418     libcurl:ftp.obj
 0002:0000b424       ??_C@_01CLKCMJKC@?5?$AA@   004af424     libcurl:ftp.obj
 0002:0000b428       ??_C@_0CB@JNMCPEIN@Failure?5sending?5QUIT?5command?3?5?$CFs@ 004af428     libcurl:ftp.obj
 0002:0000b450       ??_C@_07DFNLHBNJ@MDTM?5?$CFs?$AA@ 004af450     libcurl:ftp.obj
 0002:0000b45c       ??_C@_0BE@KEOJEJGI@Failed?5to?5read?5data?$AA@ 004af45c     libcurl:ftp.obj
 0002:0000b474       ??_C@_0CC@MLJOLKKA@File?5already?5completely?5uploaded@ 004af474     libcurl:ftp.obj
 0002:0000b49c       ??_C@_07FKAENFJM@APPE?5?$CFs?$AA@ 004af49c     libcurl:ftp.obj
 0002:0000b4a8       ??_C@_07LAJFDMAF@STOR?5?$CFs?$AA@ 004af4a8     libcurl:ftp.obj
 0002:0000b4b4       ??_C@_0CI@FGKDODBE@Uploading?5to?5a?5URL?5without?5a?5fil@ 004af4b4     libcurl:ftp.obj
 0002:0000b4e4       ??_C@_0CM@BBAADEII@Request?5has?5same?5path?5as?5previou@ 004af4e4     libcurl:ftp.obj
 0002:0000b518       ??_C@_07NEIHFJLJ@RETR?5?$CFs?$AA@ 004af518     libcurl:ftp.obj
 0002:0000b524       ??_C@_0BN@DGOLGMBJ@Failed?5EPSV?5attempt?0?5exiting?$AA@ 004af524     libcurl:ftp.obj
 0002:0000b548       ??_C@_0CF@LLFCDFKE@Failed?5EPSV?5attempt?4?5Disabling?5E@ 004af548     libcurl:ftp.obj
 0002:0000b574       ??_C@_04KAHNJCEK@PASV?$AA@ 004af574     libcurl:ftp.obj
 0002:0000b57c       ??_C@_0L@PJBCJFDL@?$CFc?$CFc?$CFc?$CFu?$CFc?$AA@ 004af57c     libcurl:ftp.obj
 0002:0000b58c       ??_C@_0CC@DPAPDPDE@Illegal?5port?5number?5in?5EPSV?5repl@ 004af58c     libcurl:ftp.obj
 0002:0000b5b4       ??_C@_0BN@NDEBJJDH@Weirdly?5formatted?5EPSV?5reply?$AA@ 004af5b4     libcurl:ftp.obj
 0002:0000b5d8       ??_C@_0BC@GDCBJEOP@?$CFu?0?$CFu?0?$CFu?0?$CFu?0?$CFu?0?$CFu?$AA@ 004af5d8     libcurl:ftp.obj
 0002:0000b5f0       ??_C@_0CE@JAKPPKFJ@Couldn?8t?5interpret?5the?5227?9respo@ 004af5f0     libcurl:ftp.obj
 0002:0000b61c       ??_C@_0DJ@BDPONOCF@Skip?5?$CFu?4?$CFu?4?$CFu?4?$CFu?5for?5data?5connec@ 004af61c     libcurl:ftp.obj
 0002:0000b660       ??_C@_0M@CDHNGIPM@?$CFu?4?$CFu?4?$CFu?4?$CFu?$AA@ 004af660     libcurl:ftp.obj
 0002:0000b670       ??_C@_0BN@NLMHLNCJ@Bad?5PASV?1EPSV?5response?3?5?$CF03d?$AA@ 004af670     libcurl:ftp.obj
 0002:0000b694       ??_C@_0CA@JCGDHCDD@Can?8t?5resolve?5proxy?5host?5?$CFs?3?$CFhu?$AA@ 004af694     libcurl:ftp.obj
 0002:0000b6bc       ??_C@_0BO@IFBOOOND@Can?8t?5resolve?5new?5host?5?$CFs?3?$CFhu?$AA@ 004af6bc     libcurl:ftp.obj
 0002:0000b6e0       ??_C@_0BG@GHLIGHGL@disabling?5EPRT?5usage?6?$AA@ 004af6e0     libcurl:ftp.obj
 0002:0000b6fc       ??_C@_0BC@GNDMALEK@Failed?5to?5do?5PORT?$AA@ 004af6fc     libcurl:ftp.obj
 0002:0000b714       ??_C@_0BO@NCOMJOLE@Connect?5data?5stream?5actively?6?$AA@ 004af714     libcurl:ftp.obj
 0002:0000b738       ??_C@_0BJ@DGDBOHFM@We?5got?5a?5421?5?9?5timeout?$CB?6?$AA@ 004af738     libcurl:ftp.obj
 0002:0000b758       ??_C@_0BF@LJJJLKGP@FTP?5response?5timeout?$AA@ 004af758     libcurl:ftp.obj
 0002:0000b774       ??_C@_0DC@FEDHDEPK@FTP?5response?5aborted?5due?5to?5sele@ 004af774     libcurl:ftp.obj
 0002:0000b7b0       ??_C@_04PMPMHNFI@FILE?$AA@ 004af7b0     libcurl:file.obj
 0002:0000b7b8       _Curl_handler_file         004af7b8     libcurl:file.obj
 0002:0000b814       ??_C@_0BG@EMIMEGKB@Couldn?8t?5open?5file?5?$CFs?$AA@ 004af814     libcurl:file.obj
 0002:0000b830       ??_C@_0BK@BBIJKCFE@Can?8t?5open?5?$CFs?5for?5writing?$AA@ 004af830     libcurl:file.obj
 0002:0000b850       ??_C@_0BJ@PBDLFGHG@Can?8t?5get?5the?5size?5of?5?$CFs?$AA@ 004af850     libcurl:file.obj
 0002:0000b870       ??_C@_0DG@OCPCIEKF@Last?9Modified?3?5?$CFs?0?5?$CF02d?5?$CFs?5?$CF4d?5?$CF@ 004af870     libcurl:file.obj
 0002:0000b8b0       ??_C@_0BM@JKOBLIFI@Can?8t?5get?5the?5size?5of?5file?4?$AA@ 004af8b0     libcurl:file.obj
 0002:0000b8d4       ??_C@_0CC@BFDLBKLP@failed?5to?5resume?5file?3?1?1?5transfe@ 004af8d4     libcurl:file.obj
 0002:0000b900       _Curl_handler_dict         004af900     libcurl:dict.obj
 0002:0000b95c       ??_C@_04NOLJEKBF@DICT?$AA@ 004af95c     libcurl:dict.obj
 0002:0000b964       ??_C@_07EEEBABMF@?1MATCH?3?$AA@ 004af964     libcurl:dict.obj
 0002:0000b970       ??_C@_03HLABFPGB@?1M?3?$AA@ 004af970     libcurl:dict.obj
 0002:0000b974       ??_C@_06POHFGONG@?1FIND?3?$AA@ 004af974     libcurl:dict.obj
 0002:0000b97c       ??_C@_0BI@HCFEFF@lookup?5word?5is?5missing?6?$AA@ 004af97c     libcurl:dict.obj
 0002:0000b998       ??_C@_07DLHCIBDH@default?$AA@ 004af998     libcurl:dict.obj
 0002:0000b9a4       ??_C@_01DCLJPIOD@?$CB?$AA@ 004af9a4     libcurl:dict.obj
 0002:0000b9a8       ??_C@_0CO@LOIPPG@CLIENT?5libcurl?57?476?41?$AN?6MATCH?5?$CFs?5@ 004af9a8     libcurl:dict.obj
 0002:0000b9e0       ??_C@_0BM@NMDEPLOC@Failed?5sending?5DICT?5request?$AA@ 004af9e0     libcurl:dict.obj
 0002:0000ba04       ??_C@_08FLILFNPP@?1DEFINE?3?$AA@ 004afa04     libcurl:dict.obj
 0002:0000ba10       ??_C@_03HENAGEOO@?1D?3?$AA@ 004afa10     libcurl:dict.obj
 0002:0000ba14       ??_C@_08OMCEKKKJ@?1LOOKUP?3?$AA@ 004afa14     libcurl:dict.obj
 0002:0000ba20       ??_C@_0CM@LFFEFHLL@CLIENT?5libcurl?57?476?41?$AN?6DEFINE?5?$CFs@ 004afa20     libcurl:dict.obj
 0002:0000ba54       ??_C@_0CC@MBNAKKIG@CLIENT?5libcurl?57?476?41?$AN?6?$CFs?$AN?6QUIT?$AN@ 004afa54     libcurl:dict.obj
 0002:0000ba7c       ??_C@_0BH@HDMBNBNK@Width?3?5?$CFd?5?$DL?5Height?3?5?$CFd?$AA@ 004afa7c     libcurl:telnet.obj
 0002:0000ba98       ??_C@_03JAFEDHAF@?5IS?$AA@ 004afa98     libcurl:telnet.obj
 0002:0000ba9c       ??_C@_05HEPJGMLF@?5SEND?$AA@ 004afa9c     libcurl:telnet.obj
 0002:0000baa4       ??_C@_0M@NNAMPCHG@?5INFO?1REPLY?$AA@ 004afaa4     libcurl:telnet.obj
 0002:0000bab4       ??_C@_05HILGCHMJ@?5NAME?$AA@ 004afab4     libcurl:telnet.obj
 0002:0000babc       ??_C@_05JEHJOICL@?5?$CC?$CFs?$CC?$AA@ 004afabc     libcurl:telnet.obj
 0002:0000bac4       ??_C@_03MHLONNLM@?5?$DN?5?$AA@ 004afac4     libcurl:telnet.obj
 0002:0000bac8       ??_C@_02HAOIJKIC@?$CFc?$AA@ 004afac8     libcurl:telnet.obj
 0002:0000bacc       ??_C@_05MAFEOBBD@?5?$CF?42x?$AA@ 004afacc     libcurl:telnet.obj
 0002:0000bad4       ??_C@_07FIBAJHNC@USER?0?$CFs?$AA@ 004afad4     libcurl:telnet.obj
 0002:0000bae0       ??_C@_0BF@FKHAOHNG@?$CF127?$FL?$FO?$DN?5?$FN?$CF?$CK?$FL?5?$DN?$FN?$CF255s?$AA@ 004afae0     libcurl:telnet.obj
 0002:0000bafc       ??_C@_05EDAGKIGO@TTYPE?$AA@ 004afafc     libcurl:telnet.obj
 0002:0000bb04       ??_C@_07CBBODINF@NEW_ENV?$AA@ 004afb04     libcurl:telnet.obj
 0002:0000bb10       ??_C@_02PINLBAEP@WS?$AA@   004afb10     libcurl:telnet.obj
 0002:0000bb14       ??_C@_0N@DFKPNNGO@?$CFhu?$CF?$CK?$FLxX?$FN?$CFhu?$AA@ 004afb14     libcurl:telnet.obj
 0002:0000bb24       ??_C@_0CC@NJCHGDLJ@Syntax?5error?5in?5telnet?5option?3?5?$CF@ 004afb24     libcurl:telnet.obj
 0002:0000bb4c       ??_C@_0BJ@EPEDNNHH@Unknown?5telnet?5option?5?$CFs?$AA@ 004afb4c     libcurl:telnet.obj
 0002:0000bb6c       ??_C@_0P@IJIBEBBB@?$CFc?$CFc?$CFc?$CFc?$CFs?$CFc?$CFc?$AA@ 004afb6c     libcurl:telnet.obj
 0002:0000bb80       ??_C@_08MMPFKENM@?$CFc?$CFc?$CFc?$CFc?$AA@ 004afb80     libcurl:telnet.obj
 0002:0000bb8c       ??_C@_0P@EIKOJKEK@?$CF127?$FL?$FO?0?$FN?0?$CF127s?$AA@ 004afb8c     libcurl:telnet.obj
 0002:0000bba0       ??_C@_08IFOBLEBG@?$CFc?$CFs?$CFc?$CFs?$AA@ 004afba0     libcurl:telnet.obj
 0002:0000bbac       ??_C@_04GJDJEMBE@?$CFc?$CFc?$AA@ 004afbac     libcurl:telnet.obj
 0002:0000bbb8       _Curl_handler_telnet       004afbb8     libcurl:telnet.obj
 0002:0000bd38       ??_C@_0BO@FGKIEAKL@In?5SUBOPTION?5processing?0?5RCVD?$AA@ 004afd38     libcurl:telnet.obj
 0002:0000bd5c       ??_C@_06FJHKNKMG@BINARY?$AA@ 004afd5c     libcurl:telnet.obj
 0002:0000bd64       ??_C@_04CJAHKHLK@ECHO?$AA@ 004afd64     libcurl:telnet.obj
 0002:0000bd6c       ??_C@_03HHNIIJAH@RCP?$AA@  004afd6c     libcurl:telnet.obj
 0002:0000bd70       ??_C@_0BC@PNOFGINB@SUPPRESS?5GO?5AHEAD?$AA@ 004afd70     libcurl:telnet.obj
 0002:0000bd88       ??_C@_04IPKHEEB@NAME?$AA@  004afd88     libcurl:telnet.obj
 0002:0000bd90       ??_C@_06DNKMJCIK@STATUS?$AA@ 004afd90     libcurl:telnet.obj
 0002:0000bd98       ??_C@_0M@EKEOBHGL@TIMING?5MARK?$AA@ 004afd98     libcurl:telnet.obj
 0002:0000bda8       ??_C@_04BEBEFOLG@RCTE?$AA@ 004afda8     libcurl:telnet.obj
 0002:0000bdb0       ??_C@_04NKLMBLGG@NAOL?$AA@ 004afdb0     libcurl:telnet.obj
 0002:0000bdb8       ??_C@_04DMMLEGDL@NAOP?$AA@ 004afdb8     libcurl:telnet.obj
 0002:0000bdc0       ??_C@_06BKIMLPPI@NAOCRD?$AA@ 004afdc0     libcurl:telnet.obj
 0002:0000bdc8       ??_C@_06MMIDMANN@NAOHTS?$AA@ 004afdc8     libcurl:telnet.obj
 0002:0000bdd0       ??_C@_06MJAAEEEL@NAOHTD?$AA@ 004afdd0     libcurl:telnet.obj
 0002:0000bdd8       ??_C@_06DGHNEEGG@NAOFFD?$AA@ 004afdd8     libcurl:telnet.obj
 0002:0000bde0       ??_C@_06HMEFOAHB@NAOVTS?$AA@ 004afde0     libcurl:telnet.obj
 0002:0000bde8       ??_C@_06HJMGGEOH@NAOVTD?$AA@ 004afde8     libcurl:telnet.obj
 0002:0000bdf0       ??_C@_06FJMAKEAC@NAOLFD?$AA@ 004afdf0     libcurl:telnet.obj
 0002:0000bdf8       ??_C@_0BL@IAGBODFB@WSACreateEvent?5failed?5?$CI?$CFd?$CJ?$AA@ 004afdf8     libcurl:telnet.obj
 0002:0000be18       ??_C@_0N@MCHGCBGJ@EXTEND?5ASCII?$AA@ 004afe18     libcurl:telnet.obj
 0002:0000be28       ??_C@_0L@JJAOJAFM@BYTE?5MACRO?$AA@ 004afe28     libcurl:telnet.obj
 0002:0000be38       ??_C@_0M@BFPOMMHF@DE?5TERMINAL?$AA@ 004afe38     libcurl:telnet.obj
 0002:0000be48       ??_C@_06NAEEPLEB@SUPDUP?$AA@ 004afe48     libcurl:telnet.obj
 0002:0000be50       ??_C@_0O@LDEGDMCH@SUPDUP?5OUTPUT?$AA@ 004afe50     libcurl:telnet.obj
 0002:0000be60       ??_C@_0O@GCFNAHCA@SEND?5LOCATION?$AA@ 004afe60     libcurl:telnet.obj
 0002:0000be70       ??_C@_09JHNIKOBE@TERM?5TYPE?$AA@ 004afe70     libcurl:telnet.obj
 0002:0000be7c       ??_C@_0O@OOFFLMHN@END?5OF?5RECORD?$AA@ 004afe7c     libcurl:telnet.obj
 0002:0000be8c       ??_C@_0L@GPKIIPN@TACACS?5UID?$AA@ 004afe8c     libcurl:telnet.obj
 0002:0000be9c       ??_C@_0P@MGPJDEPO@OUTPUT?5MARKING?$AA@ 004afe9c     libcurl:telnet.obj
 0002:0000beb0       ??_C@_06GGEFDLMA@TTYLOC?$AA@ 004afeb0     libcurl:telnet.obj
 0002:0000beb8       ??_C@_0M@NIKPEBAA@3270?5REGIME?$AA@ 004afeb8     libcurl:telnet.obj
 0002:0000bec8       ??_C@_06BPMGLPAC@X3?5PAD?$AA@ 004afec8     libcurl:telnet.obj
 0002:0000bed0       ??_C@_04FNDOHDA@NAWS?$AA@  004afed0     libcurl:telnet.obj
 0002:0000bed8       ??_C@_0L@PJIKHDLG@TERM?5SPEED?$AA@ 004afed8     libcurl:telnet.obj
 0002:0000bee8       ??_C@_05LOOKNPEJ@LFLOW?$AA@ 004afee8     libcurl:telnet.obj
 0002:0000bef0       ??_C@_08MFKKBNLA@LINEMODE?$AA@ 004afef0     libcurl:telnet.obj
 0002:0000befc       ??_C@_08GPGBHAKO@XDISPLOC?$AA@ 004afefc     libcurl:telnet.obj
 0002:0000bf08       ??_C@_0M@HACFCEDH@OLD?9ENVIRON?$AA@ 004aff08     libcurl:telnet.obj
 0002:0000bf18       ??_C@_0P@LGIMEOHB@AUTHENTICATION?$AA@ 004aff18     libcurl:telnet.obj
 0002:0000bf2c       ??_C@_0CB@LGFLAPBC@WSAEnumNetworkEvents?5failed?5?$CI?$CFd?$CJ@ 004aff2c     libcurl:telnet.obj
 0002:0000bf54       ??_C@_07CAOFPAJK@ENCRYPT?$AA@ 004aff54     libcurl:telnet.obj
 0002:0000bf60       ??_C@_0M@FMFEGMDG@NEW?9ENVIRON?$AA@ 004aff60     libcurl:telnet.obj
 0002:0000bf70       ??_C@_03KPJEKKJC@EOF?$AA@  004aff70     libcurl:telnet.obj
 0002:0000bf74       ??_C@_04GOPMIPNE@SUSP?$AA@ 004aff74     libcurl:telnet.obj
 0002:0000bf7c       ??_C@_05NKJCKGFJ@ABORT?$AA@ 004aff7c     libcurl:telnet.obj
 0002:0000bf84       ??_C@_03IBDKHNMH@EOR?$AA@  004aff84     libcurl:telnet.obj
 0002:0000bf88       ??_C@_02ODEKANEE@SE?$AA@   004aff88     libcurl:telnet.obj
 0002:0000bf8c       ??_C@_03GEANJIEE@NOP?$AA@  004aff8c     libcurl:telnet.obj
 0002:0000bf90       ??_C@_05CFIKNJJG@DMARK?$AA@ 004aff90     libcurl:telnet.obj
 0002:0000bf98       ??_C@_03JDBDNMEF@BRK?$AA@  004aff98     libcurl:telnet.obj
 0002:0000bf9c       ??_C@_02MFEOMNPG@IP?$AA@   004aff9c     libcurl:telnet.obj
 0002:0000bfa0       ??_C@_08IMJOJNO@Time?9out?$AA@ 004affa0     libcurl:telnet.obj
 0002:0000bfac       ??_C@_02GAHJCNA@AO?$AA@    004affac     libcurl:telnet.obj
 0002:0000bfb0       ??_C@_03EAKJJCNE@AYT?$AA@  004affb0     libcurl:telnet.obj
 0002:0000bfb4       ??_C@_0BK@CECPJKBH@WSACloseEvent?5failed?5?$CI?$CFd?$CJ?$AA@ 004affb4     libcurl:telnet.obj
 0002:0000bfd4       ??_C@_02KNLLHFAA@EC?$AA@   004affd4     libcurl:telnet.obj
 0002:0000bfd8       ??_C@_02CKCDGJMP@EL?$AA@   004affd8     libcurl:telnet.obj
 0002:0000bfdc       ??_C@_02JMAJMDOM@GA?$AA@   004affdc     libcurl:telnet.obj
 0002:0000bfe0       ??_C@_02KMALJLID@SB?$AA@   004affe0     libcurl:telnet.obj
 0002:0000bfe4       ??_C@_04HALOHICD@WILL?$AA@ 004affe4     libcurl:telnet.obj
 0002:0000bfec       ??_C@_04NEEKGLMI@WONT?$AA@ 004affec     libcurl:telnet.obj
 0002:0000bff4       ??_C@_02MMFADL@DO?$AA@     004afff4     libcurl:telnet.obj
 0002:0000bff8       ??_C@_04PDAKIGJK@DONT?$AA@ 004afff8     libcurl:telnet.obj
 0002:0000c000       ??_C@_03JCKLMMGF@IAC?$AA@  004b0000     libcurl:telnet.obj
 0002:0000c004       ??_C@_06KENCDLMH@TELNET?$AA@ 004b0004     libcurl:telnet.obj
 0002:0000c00c       ??_C@_0L@FLCLEAPM@?$CFs?5IAC?5?$CFs?6?$AA@ 004b000c     libcurl:telnet.obj
 0002:0000c01c       ??_C@_0L@ECECPFAJ@?$CFs?5IAC?5?$CFd?6?$AA@ 004b001c     libcurl:telnet.obj
 0002:0000c02c       ??_C@_05OKMMCHFL@EXOPL?$AA@ 004b002c     libcurl:telnet.obj
 0002:0000c034       ??_C@_09GPBPOFIE@?$CFs?5?$CFs?5?$CFs?6?$AA@ 004b0034     libcurl:telnet.obj
 0002:0000c040       ??_C@_09HGHGFAHB@?$CFs?5?$CFs?5?$CFd?6?$AA@ 004b0040     libcurl:telnet.obj
 0002:0000c04c       ??_C@_09GIKFGCFC@?$CFs?5?$CFd?5?$CFd?6?$AA@ 004b004c     libcurl:telnet.obj
 0002:0000c058       ??_C@_0BJ@GCKINNGG@Sending?5data?5failed?5?$CI?$CFd?$CJ?$AA@ 004b0058     libcurl:telnet.obj
 0002:0000c078       ??_C@_04EOHHCNGM@SENT?$AA@ 004b0078     libcurl:telnet.obj
 0002:0000c080       ??_C@_04OILLLJJ@RCVD?$AA@  004b0080     libcurl:telnet.obj
 0002:0000c088       ??_C@_0L@FPLNPMDD@?$CFs?5IAC?5SB?5?$AA@ 004b0088     libcurl:telnet.obj
 0002:0000c098       ??_C@_0BA@MMHHHFDG@?$CIterminated?5by?5?$AA@ 004b0098     libcurl:telnet.obj
 0002:0000c0ac       ??_C@_03IOOJPBPG@?$CFu?5?$AA@ 004b00ac     libcurl:telnet.obj
 0002:0000c0b0       ??_C@_0BA@IHPPDJFF@?0?5not?5IAC?5SE?$CB?$CJ?5?$AA@ 004b00b0     libcurl:telnet.obj
 0002:0000c0c4       ??_C@_0BD@CLPAOCOB@?$CIEmpty?5suboption?$DP?$CJ?$AA@ 004b00c4     libcurl:telnet.obj
 0002:0000c0dc       ??_C@_0BB@BBIGPKKK@?$CFs?5?$CIunsupported?$CJ?$AA@ 004b00dc     libcurl:telnet.obj
 0002:0000c0f0       ??_C@_0N@IAAHJJEB@?$CFd?5?$CIunknown?$CJ?$AA@ 004b00f0     libcurl:telnet.obj
 0002:0000c100       ??_C@_0CL@NOIDGMJA@Received?5last?5DATA?5packet?5block?5@ 004b0100     libcurl:tftp.obj
 0002:0000c134       ??_C@_0DO@LHJHEMEL@Received?5unexpected?5DATA?5packet?5@ 004b0134     libcurl:tftp.obj
 0002:0000c180       ??_C@_0DB@CJGPFEOC@Timeout?5waiting?5for?5block?5?$CFd?5ACK@ 004b0180     libcurl:tftp.obj
 0002:0000c1bc       ??_C@_0BI@BHFNNNHL@tftp_rx?3?5internal?5error?$AA@ 004b01bc     libcurl:tftp.obj
 0002:0000c1d8       ??_C@_0CJ@LBPPEMJL@Received?5ACK?5for?5block?5?$CFd?0?5expec@ 004b01d8     libcurl:tftp.obj
 0002:0000c20c       ??_C@_0CM@BNMFOENM@tftp_tx?3?5giving?5up?5waiting?5for?5b@ 004b020c     libcurl:tftp.obj
 0002:0000c240       ??_C@_0CD@DGDGOEOE@tftp_tx?3?5internal?5error?0?5event?3?5@ 004b0240     libcurl:tftp.obj
 0002:0000c26c       ??_C@_0O@BONHPLEA@TFTP?5finished?$AA@ 004b026c     libcurl:tftp.obj
 0002:0000c27c       ??_C@_0BN@LMNCOGNC@Internal?5state?5machine?5error?$AA@ 004b027c     libcurl:tftp.obj
 0002:0000c2a0       _Curl_handler_tftp         004b02a0     libcurl:tftp.obj
 0002:0000c2fc       ??_C@_0BC@JMLCPALC@bind?$CI?$CJ?5failed?$DL?5?$CFs?$AA@ 004b02fc     libcurl:tftp.obj
 0002:0000c314       ??_C@_0BK@KEKALNLH@Received?5too?5short?5packet?$AA@ 004b0314     libcurl:tftp.obj
 0002:0000c334       ??_C@_0BA@OIPDKKBA@TFTP?5error?3?5?$CFs?6?$AA@ 004b0334     libcurl:tftp.obj
 0002:0000c348       ??_C@_0CC@GGFBEDBJ@Internal?5error?3?5Unexpected?5packe@ 004b0348     libcurl:tftp.obj
 0002:0000c370       ??_C@_0BG@GPKMDEIC@TFTP?5response?5timeout?$AA@ 004b0370     libcurl:tftp.obj
 0002:0000c38c       ??_C@_06PHEPAMBA@?$DLmode?$DN?$AA@ 004b038c     libcurl:tftp.obj
 0002:0000c394       ??_C@_04JLDPLNDA@TFTP?$AA@ 004b0394     libcurl:tftp.obj
 0002:0000c39c       ??_C@_0DN@DDJEILNF@set?5timeouts?5for?5state?5?$CFd?$DL?5Total@ 004b039c     libcurl:tftp.obj
 0002:0000c3e8       ??_C@_0CA@PGCHPLAI@Malformed?5ACK?5packet?0?5rejecting?$AA@ 004b03e8     libcurl:tftp.obj
 0002:0000c410       ??_C@_0BM@GELOOIAH@got?5option?$DN?$CI?$CFs?$CJ?5value?$DN?$CI?$CFs?$CJ?6?$AA@ 004b0410     libcurl:tftp.obj
 0002:0000c434       ??_C@_07JPIGAOKK@blksize?$AA@ 004b0434     libcurl:tftp.obj
 0002:0000c440       ??_C@_0CH@GOMNMHP@invalid?5blocksize?5value?5in?5OACK?5@ 004b0440     libcurl:tftp.obj
 0002:0000c470       ??_C@_0CF@EKACJECO@blksize?5is?5larger?5than?5max?5suppo@ 004b0470     libcurl:tftp.obj
 0002:0000c49c       ??_C@_07JMKCEEPK@?$CFs?5?$CI?$CFd?$CJ?$AA@ 004b049c     libcurl:tftp.obj
 0002:0000c4a8       ??_C@_0CG@BNJFBJFK@blksize?5is?5smaller?5than?5min?5supp@ 004b04a8     libcurl:tftp.obj
 0002:0000c4d8       ??_C@_0CP@HBGJMNNA@server?5requested?5blksize?5larger?5@ 004b04d8     libcurl:tftp.obj
 0002:0000c510       ??_C@_08KEEEBANB@?$CFs?5?$CI?$CFld?$CJ?$AA@ 004b0510     libcurl:tftp.obj
 0002:0000c51c       ??_C@_09GLAMPMBA@requested?$AA@ 004b051c     libcurl:tftp.obj
 0002:0000c528       ??_C@_0BJ@PECOFDN@blksize?5parsed?5from?5OACK?$AA@ 004b0528     libcurl:tftp.obj
 0002:0000c548       ??_C@_0BB@OFCPCICB@?$CFs?5?$CI?$CFd?$CJ?5?$CFs?5?$CI?$CFd?$CJ?6?$AA@ 004b0548     libcurl:tftp.obj
 0002:0000c55c       ??_C@_05GHDOEBHJ@tsize?$AA@ 004b055c     libcurl:tftp.obj
 0002:0000c564       ??_C@_0BH@BLDLMHGE@tsize?5parsed?5from?5OACK?$AA@ 004b0564     libcurl:tftp.obj
 0002:0000c580       ??_C@_09LJPEONI@?$CFs?5?$CI?$CFld?$CJ?6?$AA@ 004b0580     libcurl:tftp.obj
 0002:0000c58c       ??_C@_0CK@LPILMKIM@invalid?5tsize?5?9?3?$CFs?3?9?5value?5in?5OA@ 004b058c     libcurl:tftp.obj
 0002:0000c5c0       ??_C@_0BH@NFEFKEBL@Connected?5for?5transmit?$AA@ 004b05c0     libcurl:tftp.obj
 0002:0000c5dc       ??_C@_0BG@KPOBMFLM@Connected?5for?5receive?$AA@ 004b05dc     libcurl:tftp.obj
 0002:0000c5f8       ??_C@_05IIBPGMLM@octet?$AA@ 004b05f8     libcurl:tftp.obj
 0002:0000c600       ??_C@_08KKALNFMM@netascii?$AA@ 004b0600     libcurl:tftp.obj
 0002:0000c60c       ??_C@_0BI@BPHCFCIJ@TFTP?5file?5name?5too?5long?$AA@ 004b060c     libcurl:tftp.obj
 0002:0000c628       ??_C@_08OAFHMCGI@?$CFs?$CFc?$CFs?$CFc?$AA@ 004b0628     libcurl:tftp.obj
 0002:0000c634       ??_C@_01GBGANLPD@0?$AA@    004b0634     libcurl:tftp.obj
 0002:0000c638       ??_C@_07DDHNKDGP@timeout?$AA@ 004b0638     libcurl:tftp.obj
 0002:0000c644       ??_C@_0CC@KFGMHGKB@TFTP?5buffer?5too?5small?5for?5option@ 004b0644     libcurl:tftp.obj
 0002:0000c66c       ??_C@_0CA@EOCLEEDH@tftp_send_first?3?5internal?5error?$AA@ 004b066c     libcurl:tftp.obj
 0002:0000c698       _Curl_handler_ldap         004b0698     libcurl:ldap.obj
 0002:0000c6e8       _Curl_handler_ldaps        004b06e8     libcurl:ldap.obj
 0002:0000c754       ??_C@_04HLELMIGD@LDAP?$AA@ 004b0754     libcurl:ldap.obj
 0002:0000c75c       ??_C@_05EFFGHFLN@LDAPS?$AA@ 004b075c     libcurl:ldap.obj
 0002:0000c764       ??_C@_0BH@BDPOFBOA@Microsoft?5Corporation?4?$AA@ 004b0764     libcurl:ldap.obj
 0002:0000c780       ??_C@_0DC@DDHGKLDE@LDAP?5local?3?5LDAP?5Vendor?5?$DN?5?$CFs?5?$DL?5L@ 004b0780     libcurl:ldap.obj
 0002:0000c7bc       ??_C@_0BA@HJNHPBP@LDAP?5local?3?5?$CFs?6?$AA@ 004b07bc     libcurl:ldap.obj
 0002:0000c7d0       ??_C@_0P@BAGOOPBK@LDAP?5local?3?5?$CFs?$AA@ 004b07d0     libcurl:ldap.obj
 0002:0000c7e4       ??_C@_09OEKGEILE@encrypted?$AA@ 004b07e4     libcurl:ldap.obj
 0002:0000c7f0       ??_C@_09HOMJNLCK@cleartext?$AA@ 004b07f0     libcurl:ldap.obj
 0002:0000c7fc       ??_C@_0CP@FAIPPKFC@LDAP?5local?3?5trying?5to?5establish?5@ 004b07fc     libcurl:ldap.obj
 0002:0000c834       ??_C@_0CF@JGNKKLCE@LDAP?5local?3?5Cannot?5connect?5to?5?$CFs@ 004b0834     libcurl:ldap.obj
 0002:0000c860       ??_C@_0CG@CNFHGIPC@LDAP?5local?3?5bind?5via?5ldap_win_bi@ 004b0860     libcurl:ldap.obj
 0002:0000c890       ??_C@_0BA@BDNMEOJM@LDAP?5remote?3?5?$CFs?$AA@ 004b0890     libcurl:ldap.obj
 0002:0000c8a4       ??_C@_04FDBNJNIB@DN?3?5?$AA@ 004b08a4     libcurl:ldap.obj
 0002:0000c8ac       ??_C@_02LMMGGCAJ@?3?5?$AA@ 004b08ac     libcurl:ldap.obj
 0002:0000c8b0       ??_C@_07HNLIELCI@?$DLbinary?$AA@ 004b08b0     libcurl:ldap.obj
 0002:0000c8bc       ??_C@_0CA@LPADKPML@There?5are?5more?5than?5?$CFd?5entries?6?$AA@ 004b08bc     libcurl:ldap.obj
 0002:0000c8e4       ??_C@_03OHDNLOHO@one?$AA@  004b08e4     libcurl:ldap.obj
 0002:0000c8e8       ??_C@_07ILFEIDOB@onetree?$AA@ 004b08e8     libcurl:ldap.obj
 0002:0000c8f4       ??_C@_04BHIIPFEC@base?$AA@ 004b08f4     libcurl:ldap.obj
 0002:0000c8fc       ??_C@_03KCMAIMAP@sub?$AA@  004b08fc     libcurl:ldap.obj
 0002:0000c900       ??_C@_07NIJMFPAJ@subtree?$AA@ 004b0900     libcurl:ldap.obj
 0002:0000c90c       ??_C@_01IHBHIGKO@?0?$AA@   004b090c     libcurl:ldap.obj
 0002:0000c910       ??_C@_0BI@PJGIPNBN@Failed?5writing?5RTP?5data?$AA@ 004b0910     libcurl:rtsp.obj
 0002:0000c92c       ??_C@_04OLCAMBAB@RTSP?$AA@ 004b092c     libcurl:rtsp.obj
 0002:0000c934       ??_C@_0DM@GEFBOCAL@The?5CSeq?5of?5this?5request?5?$CFld?5did@ 004b0934     libcurl:rtsp.obj
 0002:0000c97c       ??_C@_0CH@PLNGLCEI@Got?5an?5RTP?5Receive?5with?5a?5CSeq?5o@ 004b097c     libcurl:rtsp.obj
 0002:0000c9b0       _Curl_handler_rtsp         004b09b0     libcurl:rtsp.obj
 0002:0000ca0c       ??_C@_0BJ@IIOCCFNL@Got?5invalid?5RTSP?5request?$AA@ 004b0a0c     libcurl:rtsp.obj
 0002:0000ca2c       ??_C@_07KDKMIPIP@OPTIONS?$AA@ 004b0a2c     libcurl:rtsp.obj
 0002:0000ca38       ??_C@_08DKNLJHMJ@DESCRIBE?$AA@ 004b0a38     libcurl:rtsp.obj
 0002:0000ca44       ??_C@_08HCNIHNDL@ANNOUNCE?$AA@ 004b0a44     libcurl:rtsp.obj
 0002:0000ca50       ??_C@_05MAJHNKMG@SETUP?$AA@ 004b0a50     libcurl:rtsp.obj
 0002:0000ca58       ??_C@_04MKCNCBEG@PLAY?$AA@ 004b0a58     libcurl:rtsp.obj
 0002:0000ca60       ??_C@_05DIAHPDGL@PAUSE?$AA@ 004b0a60     libcurl:rtsp.obj
 0002:0000ca68       ??_C@_08JNACAMMP@TEARDOWN?$AA@ 004b0a68     libcurl:rtsp.obj
 0002:0000ca74       ??_C@_0O@GCENIMNJ@GET_PARAMETER?$AA@ 004b0a74     libcurl:rtsp.obj
 0002:0000ca84       ??_C@_0O@BNFDDPKO@SET_PARAMETER?$AA@ 004b0a84     libcurl:rtsp.obj
 0002:0000ca94       ??_C@_06KOEFFJON@RECORD?$AA@ 004b0a94     libcurl:rtsp.obj
 0002:0000ca9c       ??_C@_0CH@PJHKLBD@Got?5invalid?5RTSP?5request?3?5RTSPRE@ 004b0a9c     libcurl:rtsp.obj
 0002:0000cacc       ??_C@_0DN@HHEKACHB@Refusing?5to?5issue?5an?5RTSP?5reques@ 004b0acc     libcurl:rtsp.obj
 0002:0000cb18       ??_C@_09LOBALFEM@Transport?$AA@ 004b0b18     libcurl:rtsp.obj
 0002:0000cb24       ??_C@_0BA@LGEHOCAD@Transport?3?5?$CFs?$AN?6?$AA@ 004b0b24     libcurl:rtsp.obj
 0002:0000cb38       ??_C@_0DN@KLGPNCLM@Refusing?5to?5issue?5an?5RTSP?5SETUP?5@ 004b0b38     libcurl:rtsp.obj
 0002:0000cb84       ??_C@_0BK@PJBJHPJP@Accept?3?5application?1sdp?$AN?6?$AA@ 004b0b84     libcurl:rtsp.obj
 0002:0000cba4       ??_C@_0M@CDDEOJHP@Range?3?5?$CFs?$AN?6?$AA@ 004b0ba4     libcurl:rtsp.obj
 0002:0000cbb4       ??_C@_04IHAOMLEL@CSeq?$AA@ 004b0bb4     libcurl:rtsp.obj
 0002:0000cbbc       ??_C@_0CH@ONHNBNNP@CSeq?5cannot?5be?5set?5as?5a?5custom?5h@ 004b0bbc     libcurl:rtsp.obj
 0002:0000cbec       ??_C@_07FFOFCADM@Session?$AA@ 004b0bec     libcurl:rtsp.obj
 0002:0000cbf8       ??_C@_0CN@HJLGEJGN@Session?5ID?5cannot?5be?5set?5as?5a?5cu@ 004b0bf8     libcurl:rtsp.obj
 0002:0000cc30       ??_C@_0BM@GGGCCKFL@?$CFs?5?$CFs?5RTSP?11?40?$AN?6CSeq?3?5?$CFld?$AN?6?$AA@ 004b0c30     libcurl:rtsp.obj
 0002:0000cc54       ??_C@_0O@LAIMJOHG@Session?3?5?$CFs?$AN?6?$AA@ 004b0c54     libcurl:rtsp.obj
 0002:0000cc64       ??_C@_0BB@JAHKEOEL@?$CFs?$CFs?$CFs?$CFs?$CFs?$CFs?$CFs?$CFs?$AA@ 004b0c64     libcurl:rtsp.obj
 0002:0000cc78       ??_C@_0CA@DANBHCCB@Content?9Type?3?5text?1parameters?$AN?6?$AA@ 004b0c78     libcurl:rtsp.obj
 0002:0000cca0       ??_C@_0CA@NAIPKPJL@Content?9Type?3?5application?1sdp?$AN?6?$AA@ 004b0ca0     libcurl:rtsp.obj
 0002:0000ccc8       ??_C@_0BM@PNHMAKEG@Failed?5sending?5RTSP?5request?$AA@ 004b0cc8     libcurl:rtsp.obj
 0002:0000ccec       ??_C@_0CD@OOIHJNBP@Got?5an?5error?5writing?5an?5RTP?5pack@ 004b0cec     libcurl:rtsp.obj
 0002:0000cd18       ??_C@_0CC@GKOAKHDG@Cannot?5write?5a?50?5size?5RTP?5packet@ 004b0d18     libcurl:rtsp.obj
 0002:0000cd40       ??_C@_0BB@GCCOHJON@Cannot?5pause?5RTP?$AA@ 004b0d40     libcurl:rtsp.obj
 0002:0000cd54       ??_C@_05MECAEIKK@CSeq?3?$AA@ 004b0d54     libcurl:rtsp.obj
 0002:0000cd5c       ??_C@_05PNKNJGHI@?3?5?$CFld?$AA@ 004b0d5c     libcurl:rtsp.obj
 0002:0000cd64       ??_C@_0CF@LBAGGOHD@Unable?5to?5read?5the?5CSeq?5header?3?5@ 004b0d64     libcurl:rtsp.obj
 0002:0000cd90       ??_C@_08KJDEHNO@Session?3?$AA@ 004b0d90     libcurl:rtsp.obj
 0002:0000cd9c       ??_C@_0BH@GCDEOPPG@Got?5a?5blank?5Session?5ID?$AA@ 004b0d9c     libcurl:rtsp.obj
 0002:0000cdb8       ??_C@_0DC@HDNNNEDB@Got?5RTSP?5Session?5ID?5Line?5?$FL?$CFs?$FN?0?5b@ 004b0db8     libcurl:rtsp.obj
 0002:0000cdf4       ??_C@_03LNAOLDLL@SMB?$AA@  004b0df4     libcurl:smb.obj
 0002:0000cdf8       ??_C@_04JAAMFMDG@?$PPSMB?$AA@ 004b0df8     libcurl:smb.obj
 0002:0000ce00       ??_C@_0P@CNIFBIKC@?$AA?$AM?$AA?$ACNT?5LM?50?412?$AA@ 004b0e00     libcurl:smb.obj
 0002:0000ce14       ??_C@_0O@EMCJKFGJ@i386?9pc?9win32?$AA@ 004b0e14     libcurl:smb.obj
 0002:0000ce24       ??_C@_04CFJDMNEE@curl?$AA@ 004b0e24     libcurl:smb.obj
 0002:0000ce2c       ??_C@_02HDBGODGB@?2?2?$AA@ 004b0e2c     libcurl:smb.obj
 0002:0000ce30       ??_C@_01KICIPPFI@?2?$AA@   004b0e30     libcurl:smb.obj
 0002:0000ce34       ??_C@_05EHMBKEBF@?$DP?$DP?$DP?$DP?$DP?$AA@ 004b0e34     libcurl:smb.obj
 0002:0000ce3c       ??_C@_0BF@MGOADBKP@Invalid?5input?5packet?$AA@ 004b0e3c     libcurl:smb.obj
 0002:0000ce58       _Curl_handler_smb          004b0e58     libcurl:smb.obj
 0002:0000ceb4       ??_C@_04FPGNOCOB@MQTT?$AA@ 004b0eb4     libcurl:mqtt.obj
 0002:0000cebc       ??_C@_0BG@MNJJKFG@Using?5client?5id?5?8?$CFs?8?6?$AA@ 004b0ebc     libcurl:mqtt.obj
 0002:0000ced8       ??_C@_02KJFMPGEN@?$OA?$AA?$AA@ 004b0ed8     libcurl:mqtt.obj
 0002:0000cedc       ??_C@_0CD@NLBEEENO@Expected?5?$CF02x?$CF02x?5but?5got?5?$CF02x?$CF0@ 004b0edc     libcurl:mqtt.obj
 0002:0000cf08       ??_C@_0BL@DNONOMHF@Error?3?5No?5topic?5specified?4?$AA@ 004b0f08     libcurl:mqtt.obj
 0002:0000cf28       ??_C@_0BA@OEKHBJOJ@Got?5DISCONNECT?6?$AA@ 004b0f28     libcurl:mqtt.obj
 0002:0000cf3c       ??_C@_0BN@MGHEPCAC@Remaining?5length?3?5?$CFzd?5bytes?6?$AA@ 004b0f3c     libcurl:mqtt.obj
 0002:0000cf60       ??_C@_0P@DEFHBOED@EEEE?5AAAAGAIN?6?$AA@ 004b0f60     libcurl:mqtt.obj
 0002:0000cf74       ??_C@_0BF@GACMGODJ@server?5disconnected?6?$AA@ 004b0f74     libcurl:mqtt.obj
 0002:0000cf90       ??_C@_0CD@OJHBBMOE@Error?5?$CFd?5sending?5MQTT?5CONN?5reque@ 004b0f90     libcurl:mqtt.obj
 0002:0000cfc0       _Curl_handler_mqtt         004b0fc0     libcurl:mqtt.obj
 0002:0000d01c       ??_C@_0BI@BABCFLCJ@mqtt_doing?3?5state?5?$FL?$CFd?$FN?6?$AA@ 004b101c     libcurl:mqtt.obj
 0002:0000d038       ??_C@_0BG@OAAPNLCI@State?5not?5handled?5yet?$AA@ 004b1038     libcurl:mqtt.obj
 0002:0000d07c       ??_C@_02CBLDBPFN@?1?1?$AA@ 004b107c     libcurl:urlapi.obj
 0002:0000d080       ??_C@_06JBHEDIOK@?$CF?$CF?$CF02x?$AA@ 004b1080     libcurl:urlapi.obj
 0002:0000d088       ??_C@_0CE@LAJONJKD@?$FL?$CF?$CK45?$FL0123456789abcdefABCDEF?3?4?$FN?$CF@ 004b1088     libcurl:urlapi.obj
 0002:0000d0b4       ??_C@_0L@JMDPGJCF@?$CF?$CK?$FL?$FO?$FN?$FN?$CFc?$CFn?$AA@ 004b10b4     libcurl:urlapi.obj
 0002:0000d0c4       ??_C@_0BJ@GCDIHJFL@0123456789abcdefABCDEF?3?4?$AA@ 004b10c4     libcurl:urlapi.obj
 0002:0000d0e4       ??_C@_02IFGANFKF@25?$AA@   004b10e4     libcurl:urlapi.obj
 0002:0000d0e8       ??_C@_0L@BMEILEPM@localhost?1?$AA@ 004b10e8     libcurl:urlapi.obj
 0002:0000d0f8       ??_C@_0L@PEIKEDOA@127?40?40?41?1?$AA@ 004b10f8     libcurl:urlapi.obj
 0002:0000d108       ??_C@_04JEAENMLI@ftp?4?$AA@ 004b1108     libcurl:urlapi.obj
 0002:0000d110       ??_C@_05DIBGJHGB@dict?4?$AA@ 004b1110     libcurl:urlapi.obj
 0002:0000d118       ??_C@_04BCIDKIGN@dict?$AA@ 004b1118     libcurl:urlapi.obj
 0002:0000d120       ??_C@_05IBNFLBOK@ldap?4?$AA@ 004b1120     libcurl:urlapi.obj
 0002:0000d128       ??_C@_04LHHBCKBL@ldap?$AA@ 004b1128     libcurl:urlapi.obj
 0002:0000d130       ??_C@_05NMAIECCI@imap?4?$AA@ 004b1130     libcurl:urlapi.obj
 0002:0000d138       ??_C@_05BJICMEHI@smtp?4?$AA@ 004b1138     libcurl:urlapi.obj
 0002:0000d140       ??_C@_05BIGIEBHI@pop3?4?$AA@ 004b1140     libcurl:urlapi.obj
 0002:0000d148       ??_C@_04DNAACBI@pop3?$AA@  004b1148     libcurl:urlapi.obj
 0002:0000d150       ??_C@_01IPJKGB@?$CD?$AA@   004b1150     libcurl:urlapi.obj
 0002:0000d154       ??_C@_0O@IHCFMOPH@file?3?1?1?$CFs?$CFs?$CFs?$AA@ 004b1154     libcurl:urlapi.obj
 0002:0000d164       ??_C@_07FIPDGBND@?$CF?$CF25?$CFs?$FN?$AA@ 004b1164     libcurl:urlapi.obj
 0002:0000d170       ??_C@_01OGPIMHDM@?$DP?$AA@ 004b1170     libcurl:urlapi.obj
 0002:0000d174       ??_C@_01ICJEACDI@?$DL?$AA@ 004b1174     libcurl:urlapi.obj
 0002:0000d178       ??_C@_0CE@OBDBGLCL@?$CFs?3?1?1?$CFs?$CFs?$CFs?$CFs?$CFs?$CFs?$CFs?$CFs?$CFs?$CFs?$CFs?$CFs?$CFs?$CF@ 004b1178     libcurl:urlapi.obj
 0002:0000d244       ??_C@_03ILLHFMNI@?5?7?6?$AA@ 004b1244     libcurl:netrc.obj
 0002:0000d248       ??_C@_07MHDNFCJE@machine?$AA@ 004b1248     libcurl:netrc.obj
 0002:0000d254       ??_C@_05DAOAAINN@login?$AA@ 004b1254     libcurl:netrc.obj
 0002:0000d25c       ??_C@_08NLHBPEGP@password?$AA@ 004b125c     libcurl:netrc.obj
 0002:0000d268       ??_C@_04GHGFPGNC@HOME?$AA@ 004b1268     libcurl:netrc.obj
 0002:0000d270       ??_C@_0L@JFCCGFMF@?$CFs?$CFs?4netrc?$AA@ 004b1270     libcurl:netrc.obj
 0002:0000d280       ??_C@_0L@NPDNLOFK@?$CFs?$CFs_netrc?$AA@ 004b1280     libcurl:netrc.obj
 0002:0000d290       ??_C@_06EPABMEI@?$CF?$CF?$CF02X?$AA@ 004b1290     libcurl:escape.obj
 0002:0000d298       ??_C@_0BF@HLLGBJGK@NTLM?5auth?5restarted?6?$AA@ 004b1298     libcurl:http_ntlm.obj
 0002:0000d2b4       ??_C@_0BJ@HCCPNMOH@NTLM?5handshake?5rejected?6?$AA@ 004b12b4     libcurl:http_ntlm.obj
 0002:0000d2d4       ??_C@_0CJ@MLNEPBAC@NTLM?5handshake?5failure?5?$CIinternal@ 004b12d4     libcurl:http_ntlm.obj
 0002:0000d308       ??_C@_0BL@EBFLOACM@?$CFsAuthorization?3?5NTLM?5?$CFs?$AN?6?$AA@ 004b1308     libcurl:http_ntlm.obj
 0002:0000d328       ??_C@_08INEPGKHH@No?5error?$AA@ 004b1328     libcurl:strerror.obj
 0002:0000d334       ??_C@_0BF@MEALNKLO@Unsupported?5protocol?$AA@ 004b1334     libcurl:strerror.obj
 0002:0000d350       ??_C@_0BG@JPNCGCLF@Failed?5initialization?$AA@ 004b1350     libcurl:strerror.obj
 0002:0000d36c       ??_C@_0CM@JDMFNFNN@URL?5using?5bad?1illegal?5format?5or?5@ 004b136c     libcurl:strerror.obj
 0002:0000d3a0       ??_C@_0GN@KLBPDHPC@A?5requested?5feature?0?5protocol?5or@ 004b13a0     libcurl:strerror.obj
 0002:0000d424       ??_C@_0BM@JKHJDDPC@Couldn?8t?5resolve?5proxy?5name?$AA@ 004b1424     libcurl:strerror.obj
 0002:0000d448       ??_C@_0BL@CLPICHFB@Couldn?8t?5resolve?5host?5name?$AA@ 004b1448     libcurl:strerror.obj
 0002:0000d468       ??_C@_0BL@BDHAOFN@Couldn?8t?5connect?5to?5server?$AA@ 004b1468     libcurl:strerror.obj
 0002:0000d488       ??_C@_0BD@GDNMKEAK@Weird?5server?5reply?$AA@ 004b1488     libcurl:strerror.obj
 0002:0000d4a0       ??_C@_0CB@NKJGLEPP@Access?5denied?5to?5remote?5resource@ 004b14a0     libcurl:strerror.obj
 0002:0000d4c8       ??_C@_0CP@GDKINGFF@FTP?3?5The?5server?5failed?5to?5connec@ 004b14c8     libcurl:strerror.obj
 0002:0000d500       ??_C@_0CM@JHMKLKFK@FTP?3?5Accepting?5server?5connect?5ha@ 004b1500     libcurl:strerror.obj
 0002:0000d534       ??_C@_0DB@DKHIAOH@FTP?3?5The?5server?5did?5not?5accept?5t@ 004b1534     libcurl:strerror.obj
 0002:0000d570       ??_C@_0BI@CNGAPMMH@FTP?3?5unknown?5PASS?5reply?$AA@ 004b1570     libcurl:strerror.obj
 0002:0000d58c       ??_C@_0BI@GFIAPCKD@FTP?3?5unknown?5PASV?5reply?$AA@ 004b158c     libcurl:strerror.obj
 0002:0000d5a8       ??_C@_0CB@PEGAMKPE@FTP?3?5unknown?5227?5response?5format@ 004b15a8     libcurl:strerror.obj
 0002:0000d5d0       ??_C@_0DE@KGBALKDA@FTP?3?5can?8t?5figure?5out?5the?5host?5i@ 004b15d0     libcurl:strerror.obj
 0002:0000d610       ??_C@_0CB@HOOHONND@Error?5in?5the?5HTTP2?5framing?5layer@ 004b1610     libcurl:strerror.obj
 0002:0000d638       ??_C@_0BM@OGPMHHJ@FTP?3?5couldn?8t?5set?5file?5type?$AA@ 004b1638     libcurl:strerror.obj
 0002:0000d65c       ??_C@_0BL@ODNPPPLA@Transferred?5a?5partial?5file?$AA@ 004b165c     libcurl:strerror.obj
 0002:0000d67c       ??_C@_0DI@LLJCFNFF@FTP?3?5couldn?8t?5retrieve?5?$CIRETR?5fai@ 004b167c     libcurl:strerror.obj
 0002:0000d6c0       ??_C@_0BN@GGHOIADB@Quote?5command?5returned?5error?$AA@ 004b16c0     libcurl:strerror.obj
 0002:0000d6e4       ??_C@_0BO@BCKEJEKM@HTTP?5response?5code?5said?5error?$AA@ 004b16e4     libcurl:strerror.obj
 0002:0000d708       ??_C@_0DB@IMNDCIAA@Failed?5writing?5received?5data?5to?5@ 004b1708     libcurl:strerror.obj
 0002:0000d744       ??_C@_0CM@GACCEIFL@Upload?5failed?5?$CIat?5start?1before?5i@ 004b1744     libcurl:strerror.obj
 0002:0000d778       ??_C@_0DF@NBDLHGLH@Failed?5to?5open?1read?5local?5data?5f@ 004b1778     libcurl:strerror.obj
 0002:0000d7b8       ??_C@_0O@NALGGDJF@Out?5of?5memory?$AA@ 004b17b8     libcurl:strerror.obj
 0002:0000d7c8       ??_C@_0BE@EKAJAHAD@Timeout?5was?5reached?$AA@ 004b17c8     libcurl:strerror.obj
 0002:0000d7e0       ??_C@_0BJ@IDOBBECI@FTP?3?5command?5PORT?5failed?$AA@ 004b17e0     libcurl:strerror.obj
 0002:0000d800       ??_C@_0BJ@GCLHLJAN@FTP?3?5command?5REST?5failed?$AA@ 004b1800     libcurl:strerror.obj
 0002:0000d820       ??_C@_0DA@JICMAFCG@Requested?5range?5was?5not?5delivere@ 004b1820     libcurl:strerror.obj
 0002:0000d85c       ??_C@_0CF@HBEMJAO@Internal?5problem?5setting?5up?5the?5@ 004b185c     libcurl:strerror.obj
 0002:0000d888       ??_C@_0BC@BFLONMCD@SSL?5connect?5error?$AA@ 004b1888     libcurl:strerror.obj
 0002:0000d8a0       ??_C@_0BJ@PKKEKELC@Couldn?8t?5resume?5download?$AA@ 004b18a0     libcurl:strerror.obj
 0002:0000d8c0       ??_C@_0BN@LDKECGHJ@Couldn?8t?5read?5a?5file?3?1?1?5file?$AA@ 004b18c0     libcurl:strerror.obj
 0002:0000d8e4       ??_C@_0BC@LBJDCDKB@LDAP?3?5cannot?5bind?$AA@ 004b18e4     libcurl:strerror.obj
 0002:0000d8fc       ??_C@_0BE@BFMFHGMM@LDAP?3?5search?5failed?$AA@ 004b18fc     libcurl:strerror.obj
 0002:0000d914       ??_C@_0DB@KKNDLNIK@A?5required?5function?5in?5the?5libra@ 004b1914     libcurl:strerror.obj
 0002:0000d950       ??_C@_0DB@KJJLMJOB@Operation?5was?5aborted?5by?5an?5appl@ 004b1950     libcurl:strerror.obj
 0002:0000d98c       ??_C@_0CM@GEPFAHDP@A?5libcurl?5function?5was?5given?5a?5b@ 004b198c     libcurl:strerror.obj
 0002:0000d9c0       ??_C@_0CE@NLIKOML@Failed?5binding?5local?5connection?5@ 004b19c0     libcurl:strerror.obj
 0002:0000d9ec       ??_C@_0CH@DFMKCAJO@Number?5of?5redirects?5hit?5maximum?5@ 004b19ec     libcurl:strerror.obj
 0002:0000da1c       ??_C@_0CL@GBAGOIGJ@An?5unknown?5option?5was?5passed?5in?5@ 004b1a1c     libcurl:strerror.obj
 0002:0000da50       ??_C@_0BI@GPIPAJAH@Malformed?5telnet?5option?$AA@ 004b1a50     libcurl:strerror.obj
 0002:0000da6c       ??_C@_0CO@JJKEOCN@Server?5returned?5nothing?5?$CIno?5head@ 004b1a6c     libcurl:strerror.obj
 0002:0000daa4       ??_C@_0BM@GLLPPMBF@SSL?5crypto?5engine?5not?5found?$AA@ 004b1aa4     libcurl:strerror.obj
 0002:0000dac8       ??_C@_0CJ@HENCHBOB@Can?5not?5set?5SSL?5crypto?5engine?5as@ 004b1ac8     libcurl:strerror.obj
 0002:0000dafc       ??_C@_0CH@DINFHAAN@Failed?5to?5initialise?5SSL?5crypto?5@ 004b1afc     libcurl:strerror.obj
 0002:0000db2c       ??_C@_0CA@CBOACNIE@Failed?5sending?5data?5to?5the?5peer?$AA@ 004b1b2c     libcurl:strerror.obj
 0002:0000db54       ??_C@_0CK@JABNOBEN@Failure?5when?5receiving?5data?5from@ 004b1b54     libcurl:strerror.obj
 0002:0000db88       ??_C@_0CH@IGBGAMEJ@Problem?5with?5the?5local?5SSL?5certi@ 004b1b88     libcurl:strerror.obj
 0002:0000dbb8       ??_C@_0CC@IOEMABMM@Couldn?8t?5use?5specified?5SSL?5ciphe@ 004b1bb8     libcurl:strerror.obj
 0002:0000dbe0       ??_C@_0DC@MAPCLGNF@SSL?5peer?5certificate?5or?5SSH?5remo@ 004b1be0     libcurl:strerror.obj
 0002:0000dc1c       ??_C@_0DE@DEFDNJHO@Problem?5with?5the?5SSL?5CA?5cert?5?$CIpa@ 004b1c1c     libcurl:strerror.obj
 0002:0000dc5c       ??_C@_0DG@BCBHMDOA@Unrecognized?5or?5bad?5HTTP?5Content@ 004b1c5c     libcurl:strerror.obj
 0002:0000dc9c       ??_C@_0BB@NNNAEHGN@Invalid?5LDAP?5URL?$AA@ 004b1c9c     libcurl:strerror.obj
 0002:0000dcb0       ??_C@_0BL@CJHAPGCI@Requested?5SSL?5level?5failed?$AA@ 004b1cb0     libcurl:strerror.obj
 0002:0000dcd0       ??_C@_0CH@HOHNDJFI@Failed?5to?5shut?5down?5the?5SSL?5conn@ 004b1cd0     libcurl:strerror.obj
 0002:0000dd00       ??_C@_0DI@OEDDMGMA@Failed?5to?5load?5CRL?5file?5?$CIpath?$DP?5a@ 004b1d00     libcurl:strerror.obj
 0002:0000dd44       ??_C@_0CN@PNDCIOI@Issuer?5check?5against?5peer?5certif@ 004b1d44     libcurl:strerror.obj
 0002:0000dd7c       ??_C@_0DG@HNNLFELE@Send?5failed?5since?5rewinding?5of?5t@ 004b1d7c     libcurl:strerror.obj
 0002:0000ddbc       ??_C@_0N@LMNBNGOH@Login?5denied?$AA@ 004b1dbc     libcurl:strerror.obj
 0002:0000ddcc       ??_C@_0BF@MMMLEDNM@TFTP?3?5File?5Not?5Found?$AA@ 004b1dcc     libcurl:strerror.obj
 0002:0000dde8       ??_C@_0BH@CPEHAKGC@TFTP?3?5Access?5Violation?$AA@ 004b1de8     libcurl:strerror.obj
 0002:0000de04       ??_C@_0CB@HICDEKOD@Disk?5full?5or?5allocation?5exceeded@ 004b1e04     libcurl:strerror.obj
 0002:0000de2c       ??_C@_0BI@FHLDKMPM@TFTP?3?5Illegal?5operation?$AA@ 004b1e2c     libcurl:strerror.obj
 0002:0000de48       ??_C@_0BK@FHGNFCEK@TFTP?3?5Unknown?5transfer?5ID?$AA@ 004b1e48     libcurl:strerror.obj
 0002:0000de68       ??_C@_0BL@LCPLBBDI@Remote?5file?5already?5exists?$AA@ 004b1e68     libcurl:strerror.obj
 0002:0000de88       ??_C@_0BD@HHOJBMKC@TFTP?3?5No?5such?5user?$AA@ 004b1e88     libcurl:strerror.obj
 0002:0000dea0       ??_C@_0BC@CGNMGHHJ@Conversion?5failed?$AA@ 004b1ea0     libcurl:strerror.obj
 0002:0000deb8       ??_C@_0DE@HIBGAHH@Caller?5must?5register?5CURLOPT_CON@ 004b1eb8     libcurl:strerror.obj
 0002:0000def8       ??_C@_0BG@IGAJKGEI@Remote?5file?5not?5found?$AA@ 004b1ef8     libcurl:strerror.obj
 0002:0000df14       ??_C@_0BH@LIBGKEPA@Error?5in?5the?5SSH?5layer?$AA@ 004b1f14     libcurl:strerror.obj
 0002:0000df30       ??_C@_0BP@PKAGPAKC@Socket?5not?5ready?5for?5send?1recv?$AA@ 004b1f30     libcurl:strerror.obj
 0002:0000df58       ??_C@_0CD@KOGOJFPD@RTSP?5CSeq?5mismatch?5or?5invalid?5CS@ 004b1f58     libcurl:strerror.obj
 0002:0000df84       ??_C@_0BD@JIDDONAN@RTSP?5session?5error?$AA@ 004b1f84     libcurl:strerror.obj
 0002:0000df9c       ??_C@_0BO@DHDGALJN@Unable?5to?5parse?5FTP?5file?5list?$AA@ 004b1f9c     libcurl:strerror.obj
 0002:0000dfc0       ??_C@_0BG@NNCCNDKN@Chunk?5callback?5failed?$AA@ 004b1fc0     libcurl:strerror.obj
 0002:0000dfdc       ??_C@_0CE@LHGEKMEA@The?5max?5connection?5limit?5is?5reac@ 004b1fdc     libcurl:strerror.obj
 0002:0000e008       ??_C@_0DA@PMPKPBFL@SSL?5public?5key?5does?5not?5match?5pi@ 004b2008     libcurl:strerror.obj
 0002:0000e044       ??_C@_0DC@PMBIKFPE@SSL?5server?5certificate?5status?5ve@ 004b2044     libcurl:strerror.obj
 0002:0000e080       ??_C@_0CJ@PHNFPMLB@Stream?5error?5in?5the?5HTTP?12?5frami@ 004b2080     libcurl:strerror.obj
 0002:0000e0b4       ??_C@_0CJ@IFPPFNBC@API?5function?5called?5from?5within?5@ 004b20b4     libcurl:strerror.obj
 0002:0000e0e8       ??_C@_0CN@PKGNGNMF@An?5authentication?5function?5retur@ 004b20e8     libcurl:strerror.obj
 0002:0000e120       ??_C@_0N@IECDEAGO@HTTP?13?5error?$AA@ 004b2120     libcurl:strerror.obj
 0002:0000e130       ??_C@_0BG@PCGCKLBM@QUIC?5connection?5error?$AA@ 004b2130     libcurl:strerror.obj
 0002:0000e14c       ??_C@_0BG@DPKHLLKF@proxy?5handshake?5error?$AA@ 004b214c     libcurl:strerror.obj
 0002:0000e168       ??_C@_0O@NIPGCINC@Unknown?5error?$AA@ 004b2168     libcurl:strerror.obj
 0002:0000e178       ??_C@_0CG@DCOKOKML@Please?5call?5curl_multi_perform?$CI?$CJ@ 004b2178     libcurl:strerror.obj
 0002:0000e1a8       ??_C@_0BF@MFLIJEAO@Invalid?5multi?5handle?$AA@ 004b21a8     libcurl:strerror.obj
 0002:0000e1c4       ??_C@_0BE@FELLPHLO@Invalid?5easy?5handle?$AA@ 004b21c4     libcurl:strerror.obj
 0002:0000e1dc       ??_C@_0P@DHEBFDOP@Internal?5error?$AA@ 004b21dc     libcurl:strerror.obj
 0002:0000e1f0       ??_C@_0BI@LBJFGLOL@Invalid?5socket?5argument?$AA@ 004b21f0     libcurl:strerror.obj
 0002:0000e20c       ??_C@_0P@MEBGGHOD@Unknown?5option?$AA@ 004b220c     libcurl:strerror.obj
 0002:0000e220       ??_C@_0DD@IDKBMDCN@The?5easy?5handle?5is?5already?5added@ 004b2220     libcurl:strerror.obj
 0002:0000e260       ??_C@_0CA@FPELAOIE@Wakeup?5is?5unavailable?5or?5failed?$AA@ 004b2260     libcurl:strerror.obj
 0002:0000e288       ??_C@_0BF@FBDMDNCF@Unknown?5share?5option?$AA@ 004b2288     libcurl:strerror.obj
 0002:0000e2a4       ??_C@_0BH@NIJAKIEK@Share?5currently?5in?5use?$AA@ 004b22a4     libcurl:strerror.obj
 0002:0000e2c0       ??_C@_0BF@DJFABMCC@Invalid?5share?5handle?$AA@ 004b22c0     libcurl:strerror.obj
 0002:0000e2dc       ??_C@_0CE@IMAFGLMH@Feature?5not?5enabled?5in?5this?5libr@ 004b22dc     libcurl:strerror.obj
 0002:0000e308       ??_C@_0BD@EPEOJDOK@CURLSHcode?5unknown?$AA@ 004b2308     libcurl:strerror.obj
 0002:0000e320       ??_C@_0BB@HPBICEIN@Call?5interrupted?$AA@ 004b2320     libcurl:strerror.obj
 0002:0000e334       ??_C@_08IEJNJKPH@Bad?5file?$AA@ 004b2334     libcurl:strerror.obj
 0002:0000e340       ??_C@_0L@PPOOPPLI@Bad?5access?$AA@ 004b2340     libcurl:strerror.obj
 0002:0000e350       ??_C@_0N@OFCOFIJG@Bad?5argument?$AA@ 004b2350     libcurl:strerror.obj
 0002:0000e360       ??_C@_0BC@PALKPJEA@Invalid?5arguments?$AA@ 004b2360     libcurl:strerror.obj
 0002:0000e378       ??_C@_0BI@OFCJJGOL@Out?5of?5file?5descriptors?$AA@ 004b2378     libcurl:strerror.obj
 0002:0000e394       ??_C@_0BB@KJIOCALL@Call?5would?5block?$AA@ 004b2394     libcurl:strerror.obj
 0002:0000e3a8       ??_C@_0BK@LAFJNHKK@Blocking?5call?5in?5progress?$AA@ 004b23a8     libcurl:strerror.obj
 0002:0000e3c8       ??_C@_0BL@BCCPNPNK@Descriptor?5is?5not?5a?5socket?$AA@ 004b23c8     libcurl:strerror.obj
 0002:0000e3e8       ??_C@_0BJ@PJJDHGPA@Need?5destination?5address?$AA@ 004b23e8     libcurl:strerror.obj
 0002:0000e408       ??_C@_0BB@FIFBBOKN@Bad?5message?5size?$AA@ 004b2408     libcurl:strerror.obj
 0002:0000e41c       ??_C@_0N@HKFEGNLE@Bad?5protocol?$AA@ 004b241c     libcurl:strerror.obj
 0002:0000e42c       ??_C@_0BP@CMLHIFII@Protocol?5option?5is?5unsupported?$AA@ 004b242c     libcurl:strerror.obj
 0002:0000e454       ??_C@_0BI@KIGPDANH@Protocol?5is?5unsupported?$AA@ 004b2454     libcurl:strerror.obj
 0002:0000e470       ??_C@_0BG@PJCKEJGL@Socket?5is?5unsupported?$AA@ 004b2470     libcurl:strerror.obj
 0002:0000e48c       ??_C@_0BI@EDJAHLMH@Operation?5not?5supported?$AA@ 004b248c     libcurl:strerror.obj
 0002:0000e4a8       ??_C@_0BN@GMEBDOHK@Address?5family?5not?5supported?$AA@ 004b24a8     libcurl:strerror.obj
 0002:0000e4cc       ??_C@_0BO@EBCCBLCJ@Protocol?5family?5not?5supported?$AA@ 004b24cc     libcurl:strerror.obj
 0002:0000e4f0       ??_C@_0BH@LOKACPE@Address?5already?5in?5use?$AA@ 004b24f0     libcurl:strerror.obj
 0002:0000e50c       ??_C@_0BG@LPGNEDFC@Address?5not?5available?$AA@ 004b250c     libcurl:strerror.obj
 0002:0000e528       ??_C@_0N@BLPKELHL@Network?5down?$AA@ 004b2528     libcurl:strerror.obj
 0002:0000e538       ??_C@_0BE@BCKBHKGP@Network?5unreachable?$AA@ 004b2538     libcurl:strerror.obj
 0002:0000e550       ??_C@_0BH@IGDKJAJA@Network?5has?5been?5reset?$AA@ 004b2550     libcurl:strerror.obj
 0002:0000e56c       ??_C@_0BH@CAGNAMLD@Connection?5was?5aborted?$AA@ 004b256c     libcurl:strerror.obj
 0002:0000e588       ??_C@_0BF@ONIPBLIH@Connection?5was?5reset?$AA@ 004b2588     libcurl:strerror.obj
 0002:0000e5a4       ??_C@_0BA@OCGNHFCH@No?5buffer?5space?$AA@ 004b25a4     libcurl:strerror.obj
 0002:0000e5b8       ??_C@_0BM@CCONNCKE@Socket?5is?5already?5connected?$AA@ 004b25b8     libcurl:strerror.obj
 0002:0000e5dc       ??_C@_0BI@ILAOGBJJ@Socket?5is?5not?5connected?$AA@ 004b25dc     libcurl:strerror.obj
 0002:0000e5f8       ??_C@_0BK@KFOKKGHA@Socket?5has?5been?5shut?5down?$AA@ 004b25f8     libcurl:strerror.obj
 0002:0000e618       ??_C@_0BE@JFIGGPOD@Too?5many?5references?$AA@ 004b2618     libcurl:strerror.obj
 0002:0000e630       ??_C@_09OGKCMDDI@Timed?5out?$AA@ 004b2630     libcurl:strerror.obj
 0002:0000e63c       ??_C@_0BD@NPDMPPFP@Connection?5refused?$AA@ 004b263c     libcurl:strerror.obj
 0002:0000e654       ??_C@_06BPCOEKJC@Loop?$DP?$DP?$AA@ 004b2654     libcurl:strerror.obj
 0002:0000e65c       ??_C@_0O@CGIEAMHJ@Name?5too?5long?$AA@ 004b265c     libcurl:strerror.obj
 0002:0000e66c       ??_C@_09IKKBPHPB@Host?5down?$AA@ 004b266c     libcurl:strerror.obj
 0002:0000e678       ??_C@_0BB@BJPAGEMG@Host?5unreachable?$AA@ 004b2678     libcurl:strerror.obj
 0002:0000e68c       ??_C@_09HNKMHKD@Not?5empty?$AA@ 004b268c     libcurl:strerror.obj
 0002:0000e698       ??_C@_0BG@HNPEDFFM@Process?5limit?5reached?$AA@ 004b2698     libcurl:strerror.obj
 0002:0000e6b4       ??_C@_0P@DAFGFIDC@Too?5many?5users?$AA@ 004b26b4     libcurl:strerror.obj
 0002:0000e6c8       ??_C@_09OLCJIOMK@Bad?5quota?$AA@ 004b26c8     libcurl:strerror.obj
 0002:0000e6d4       ??_C@_0BD@OAJEPCAF@Something?5is?5stale?$AA@ 004b26d4     libcurl:strerror.obj
 0002:0000e6ec       ??_C@_0N@CMGGHDDP@Remote?5error?$AA@ 004b26ec     libcurl:strerror.obj
 0002:0000e6fc       ??_C@_0N@NFBNFHML@Disconnected?$AA@ 004b26fc     libcurl:strerror.obj
 0002:0000e70c       ??_C@_0BN@NBHIJNDO@Winsock?5library?5is?5not?5ready?$AA@ 004b270c     libcurl:strerror.obj
 0002:0000e730       ??_C@_0CA@GOKMBGKE@Winsock?5library?5not?5initialised?$AA@ 004b2730     libcurl:strerror.obj
 0002:0000e758       ??_C@_0BO@CMBHKIGC@Winsock?5version?5not?5supported?$AA@ 004b2758     libcurl:strerror.obj
 0002:0000e77c       ??_C@_0P@CAFMJNJH@Host?5not?5found?$AA@ 004b277c     libcurl:strerror.obj
 0002:0000e790       ??_C@_0BK@LIMDACMA@Host?5not?5found?0?5try?5again?$AA@ 004b2790     libcurl:strerror.obj
 0002:0000e7b0       ??_C@_0CK@PHGIEDKM@Unrecoverable?5error?5in?5call?5to?5n@ 004b27b0     libcurl:strerror.obj
 0002:0000e7e4       ??_C@_0CB@PAPDILAI@No?5data?5record?5of?5requested?5type@ 004b27e4     libcurl:strerror.obj
 0002:0000e80c       ??_C@_0BH@LLHLFDOA@Unknown?5error?5?$CFd?5?$CI?$CF?$CDx?$CJ?$AA@ 004b280c     libcurl:strerror.obj
 0002:0000e828       ??_C@_0BK@ELMEDBEG@Unknown?5error?5?$CFu?5?$CI0x?$CF08X?$CJ?$AA@ 004b2828     libcurl:strerror.obj
 0002:0000e848       ??_C@_0M@PCENNPGA@?$CFd?4?$CFd?4?$CFd?4?$CFd?$AA@ 004b2848     libcurl:inet_ntop.obj
 0002:0000e858       ??_C@_03OPHMLOFF@?$CFlx?$AA@ 004b2858     libcurl:inet_ntop.obj
 0002:0000e85c       ??_C@_04DPLCCHJC@auth?$AA@ 004b285c     libcurl:digest.obj
 0002:0000e864       ??_C@_08DMLLJBKJ@auth?9int?$AA@ 004b2864     libcurl:digest.obj
 0002:0000e870       ??_C@_09HPCMDFJO@auth?9conf?$AA@ 004b2870     libcurl:digest.obj
 0002:0000e87c       ??_C@_07EJNHPKHG@nonce?$DN?$CC?$AA@ 004b287c     libcurl:digest.obj
 0002:0000e888       ??_C@_07HAABIMLH@realm?$DN?$CC?$AA@ 004b2888     libcurl:digest.obj
 0002:0000e894       ??_C@_0L@HDBLKLNB@algorithm?$DN?$AA@ 004b2894     libcurl:digest.obj
 0002:0000e8a4       ??_C@_05HFBPPANL@qop?$DN?$CC?$AA@ 004b28a4     libcurl:digest.obj
 0002:0000e8ac       ??_C@_08KNCPHIAE@00000001?$AA@ 004b28ac     libcurl:digest.obj
 0002:0000e8b8       ??_C@_0N@PMNNBFMH@AUTHENTICATE?$AA@ 004b28b8     libcurl:digest.obj
 0002:0000e8c8       ??_C@_08EBDNNOOM@md5?9sess?$AA@ 004b28c8     libcurl:digest.obj
 0002:0000e8d8       ??_C@_0FL@LNDBMOBB@username?$DN?$CC?$CFs?$CC?0realm?$DN?$CC?$CFs?$CC?0nonce?$DN?$CC@ 004b28d8     libcurl:digest.obj
 0002:0000e948       ??_C@_05OOEDLKEB@nonce?$AA@ 004b2948     libcurl:digest.obj
 0002:0000e950       ??_C@_05BFAEFKPM@stale?$AA@ 004b2950     libcurl:digest.obj
 0002:0000e958       ??_C@_04LOAJBDKD@true?$AA@ 004b2958     libcurl:digest.obj
 0002:0000e960       ??_C@_05ELABLNGD@realm?$AA@ 004b2960     libcurl:digest.obj
 0002:0000e968       ??_C@_06CJCOLNBB@opaque?$AA@ 004b2968     libcurl:digest.obj
 0002:0000e970       ??_C@_03GBIMBCPB@qop?$AA@  004b2970     libcurl:digest.obj
 0002:0000e974       ??_C@_09JPNFBOJG@algorithm?$AA@ 004b2974     libcurl:digest.obj
 0002:0000e980       ??_C@_08DKLKDOBJ@MD5?9sess?$AA@ 004b2980     libcurl:digest.obj
 0002:0000e98c       ??_C@_03GCGHEHKJ@MD5?$AA@  004b298c     libcurl:digest.obj
 0002:0000e990       ??_C@_07DKFLFLPF@SHA?9256?$AA@ 004b2990     libcurl:digest.obj
 0002:0000e99c       ??_C@_0N@EOLPNNCE@SHA?9256?9SESS?$AA@ 004b299c     libcurl:digest.obj
 0002:0000e9ac       ??_C@_0M@ODMGHIGE@SHA?9512?9256?$AA@ 004b29ac     libcurl:digest.obj
 0002:0000e9bc       ??_C@_0BB@LFGPIGKB@SHA?9512?9256?9SESS?$AA@ 004b29bc     libcurl:digest.obj
 0002:0000e9d0       ??_C@_08MPDCKPHM@userhash?$AA@ 004b29d0     libcurl:digest.obj
 0002:0000e9dc       ??_C@_08LDENPILD@?$CFs?3?$CFs?3?$CFs?$AA@ 004b29dc     libcurl:digest.obj
 0002:0000e9e8       ??_C@_0BE@DBLPOOMB@?$CFs?3?$CFs?3?$CF08x?3?$CFs?3?$CFs?3?$CFs?$AA@ 004b29e8     libcurl:digest.obj
 0002:0000ea00       ??_C@_0FN@LPOMOJKE@username?$DN?$CC?$CFs?$CC?0?5realm?$DN?$CC?$CFs?$CC?0?5nonce@ 004b2a00     libcurl:digest.obj
 0002:0000ea70       ??_C@_0DP@IEBMKLAD@username?$DN?$CC?$CFs?$CC?0?5realm?$DN?$CC?$CFs?$CC?0?5nonce@ 004b2a70     libcurl:digest.obj
 0002:0000eabc       ??_C@_0BA@BIMHECMC@?$CFs?0?5opaque?$DN?$CC?$CFs?$CC?$AA@ 004b2abc     libcurl:digest.obj
 0002:0000ead0       ??_C@_0BB@JNPNCBL@?$CFs?0?5algorithm?$DN?$CFs?$AA@ 004b2ad0     libcurl:digest.obj
 0002:0000eae4       ??_C@_0BC@HNHNJNFB@?$CFs?0?5userhash?$DNtrue?$AA@ 004b2ae4     libcurl:digest.obj
 0002:0000eafc       ??_C@_0BM@ILAEFAML@Too?5long?5hexadecimal?5number?$AA@ 004b2afc     libcurl:http_chunks.obj
 0002:0000eb20       ??_C@_0CI@EPIPCBEA@Illegal?5or?5missing?5hexadecimal?5s@ 004b2b20     libcurl:http_chunks.obj
 0002:0000eb50       ??_C@_0BJ@JKKKEMNN@Malformed?5encoding?5found?$AA@ 004b2b50     libcurl:http_chunks.obj
 0002:0000eb70       ??_C@_0BL@NBOBMEI@Bad?5content?9encoding?5found?$AA@ 004b2b70     libcurl:http_chunks.obj
 0002:0000ebd4       ??_C@_09JLCBMBBK@Bad?5label?$AA@ 004b2bd4     libcurl:doh.obj
 0002:0000ebe0       ??_C@_0N@OBIJMHDD@Out?5of?5range?$AA@ 004b2be0     libcurl:doh.obj
 0002:0000ebf0       ??_C@_0L@IEBIAGNN@Label?5loop?$AA@ 004b2bf0     libcurl:doh.obj
 0002:0000ec00       ??_C@_09OCNDOFP@Too?5small?$AA@ 004b2c00     libcurl:doh.obj
 0002:0000ec0c       ??_C@_0N@FHJOLNAK@RDATA?5length?$AA@ 004b2c0c     libcurl:doh.obj
 0002:0000ec1c       ??_C@_09OCLBHOEO@Malformat?$AA@ 004b2c1c     libcurl:doh.obj
 0002:0000ec28       ??_C@_09DBMBBPHM@Bad?5RCODE?$AA@ 004b2c28     libcurl:doh.obj
 0002:0000ec34       ??_C@_0BA@OKMFLAL@Unexpected?5TYPE?$AA@ 004b2c34     libcurl:doh.obj
 0002:0000ec48       ??_C@_0BB@EAJHLOKN@Unexpected?5CLASS?$AA@ 004b2c48     libcurl:doh.obj
 0002:0000ec5c       ??_C@_0L@KKIPEPDM@No?5content?$AA@ 004b2c5c     libcurl:doh.obj
 0002:0000ec6c       ??_C@_06FFHBNKND@Bad?5ID?$AA@ 004b2c6c     libcurl:doh.obj
 0002:0000ec74       ??_C@_0P@JHEEOJHM@bad?5error?5code?$AA@ 004b2c74     libcurl:doh.obj
 0002:0000ec88       ??_C@_0CG@CKDPOMBN@a?5DOH?5request?5is?5completed?0?5?$CFu?5t@ 004b2c88     libcurl:doh.obj
 0002:0000ecb8       ??_C@_0BA@NDOGDMBN@DOH?5request?5?$CFs?6?$AA@ 004b2cb8     libcurl:doh.obj
 0002:0000eccc       ??_C@_0CB@KOMHFCDO@Failed?5to?5encode?5DOH?5packet?5?$FL?$CFd?$FN@ 004b2ccc     libcurl:doh.obj
 0002:0000ecf4       ??_C@_09OLGCPDFN@?$CFs?$DPdns?$DN?$CFs?$AA@ 004b2cf4     libcurl:doh.obj
 0002:0000ed00       ??_C@_0CG@KIGAOFHM@Content?9Type?3?5application?1dns?9me@ 004b2d00     libcurl:doh.obj
 0002:0000ed30       ??_C@_0BB@DKILCKOO@TTL?3?5?$CFu?5seconds?6?$AA@ 004b2d30     libcurl:doh.obj
 0002:0000ed44       ??_C@_0BE@FOEBOIJB@DOH?5A?3?5?$CFu?4?$CFu?4?$CFu?4?$CFu?6?$AA@ 004b2d44     libcurl:doh.obj
 0002:0000ed5c       ??_C@_0L@NNFPBGFL@DOH?5AAAA?3?5?$AA@ 004b2d5c     libcurl:doh.obj
 0002:0000ed6c       ??_C@_0L@NCOIGGIO@?$CFs?$CF02x?$CF02x?$AA@ 004b2d6c     libcurl:doh.obj
 0002:0000ed7c       ??_C@_0L@GJHHPGAI@CNAME?3?5?$CFs?6?$AA@ 004b2d7c     libcurl:doh.obj
 0002:0000ed8c       ??_C@_01FHEEJDEE@A?$AA@    004b2d8c     libcurl:doh.obj
 0002:0000ed90       ??_C@_04OHNMNPPA@AAAA?$AA@ 004b2d90     libcurl:doh.obj
 0002:0000ed98       ??_C@_0BK@IFADNFO@Could?5not?5DOH?9resolve?3?5?$CFs?$AA@ 004b2d98     libcurl:doh.obj
 0002:0000edb8       ??_C@_0BI@CENMKCHB@DOH?3?5?$CFs?5type?5?$CFs?5for?5?$CFs?6?$AA@ 004b2db8     libcurl:doh.obj
 0002:0000edd4       ??_C@_0BD@FBBLOGDK@DOH?5Host?5name?3?5?$CFs?6?$AA@ 004b2dd4     libcurl:doh.obj
 0002:0000ee94       ??_C@_06BHJPINKK@?$CFc?$CFc?$DN?$DN?$AA@ 004b2e94     libcurl:base64.obj
 0002:0000ee9c       ??_C@_07KPHDOBAP@?$CFc?$CFc?$CFc?$DN?$AA@ 004b2e9c     libcurl:base64.obj
 0002:0000eeb0       ??_C@_0GC@KMDLLNFG@NTLM?5handshake?5failure?5?$CIbad?5type@ 004b2eb0     libcurl:ntlm.obj
 0002:0000ef28       ??_C@_0CP@KIFOOILK@NTLM?5handshake?5failure?5?$CIempty?5ty@ 004b2f28     libcurl:ntlm.obj
 0002:0000ef60       ??_C@_0CN@NILNEGOG@NTLM?5handshake?5failure?5?$CIbad?5type@ 004b2f60     libcurl:ntlm.obj
 0002:0000ef98       ??_C@_0DN@EOPIHEDC@NTLMSSP?$CFc?$AB?$CFc?$CFc?$CFc?$CFc?$CFc?$CFc?$CFc?$CFc?$CFc?$CFc?$CFc@ 004b2f98     libcurl:ntlm.obj
 0002:0000efe4       ??_C@_0CL@BCOKKCBO@gethostname?$CI?$CJ?5failed?0?5continuing@ 004b2fe4     libcurl:ntlm.obj
 0002:0000f018       ??_C@_0HJ@CLKEMMBI@NTLMSSP?$CFc?$AD?$CFc?$CFc?$CFc?$CFc?$CFc?$CFc?$CFc?$CFc?$CFc?$CFc?$CFc@ 004b3018     libcurl:ntlm.obj
 0002:0000f0ac       ??_C@_0BO@JAAKONFE@incoming?5NTLM?5message?5too?5big?$AA@ 004b30ac     libcurl:ntlm.obj
 0002:0000f0d0       ??_C@_0CC@OKCALBLA@user?5?$CL?5domain?5?$CL?5host?5name?5too?5bi@ 004b30d0     libcurl:ntlm.obj
 0002:0000f0f8       ??_C@_07NPDBOIDH@aws?3amz?$AA@ 004b30f8     libcurl:http_aws_sigv4.obj
 0002:0000f104       ??_C@_0BP@KLOELJLG@first?5provider?5can?8t?5be?5empty?6?$AA@ 004b3104     libcurl:http_aws_sigv4.obj
 0002:0000f12c       ??_C@_0CA@EAHCMJLP@second?5provider?5can?8t?5be?5empty?6?$AA@ 004b312c     libcurl:http_aws_sigv4.obj
 0002:0000f154       ??_C@_0BH@GCAPKOHK@region?5can?8t?5be?5empty?6?$AA@ 004b3154     libcurl:http_aws_sigv4.obj
 0002:0000f170       ??_C@_0BI@DONEAKFM@service?5can?8t?5be?5empty?6?$AA@ 004b3170     libcurl:http_aws_sigv4.obj
 0002:0000f18c       ??_C@_0CL@KGLCCDEP@service?5missing?5in?5parameters?5or@ 004b318c     libcurl:http_aws_sigv4.obj
 0002:0000f1c0       ??_C@_0CK@MPAFOPCI@region?5missing?5in?5parameters?5or?5@ 004b31c0     libcurl:http_aws_sigv4.obj
 0002:0000f1f4       ??_C@_0P@IKNEGPFP@?$CFY?$CFm?$CFdT?$CFH?$CFM?$CFSZ?$AA@ 004b31f4     libcurl:http_aws_sigv4.obj
 0002:0000f208       ??_C@_0CG@LGOKAMLB@content?9type?3?$CFs?6host?3?$CFs?6x?9?$CFs?9dat@ 004b3208     libcurl:http_aws_sigv4.obj
 0002:0000f238       ??_C@_0BM@KIONJGIN@content?9type?$DLhost?$DLx?9?$CFs?9date?$AA@ 004b3238     libcurl:http_aws_sigv4.obj
 0002:0000f25c       ??_C@_0BG@KFBJEMGA@host?3?$CFs?6x?9?$CFs?9date?3?$CFs?6?$AA@ 004b325c     libcurl:http_aws_sigv4.obj
 0002:0000f278       ??_C@_0P@LBLFCGEL@host?$DLx?9?$CFs?9date?$AA@ 004b3278     libcurl:http_aws_sigv4.obj
 0002:0000f28c       ??_C@_0BC@PHFFPANB@?$CFs?6?$CFs?6?$CFs?6?$CFs?6?$CFs?6?$CFs?$AA@ 004b328c     libcurl:http_aws_sigv4.obj
 0002:0000f2a4       ??_C@_0M@HICACENB@?$CFs4_request?$AA@ 004b32a4     libcurl:http_aws_sigv4.obj
 0002:0000f2b4       ??_C@_0M@CFLEPOPB@?$CFs?1?$CFs?1?$CFs?1?$CFs?$AA@ 004b32b4     libcurl:http_aws_sigv4.obj
 0002:0000f2c4       ??_C@_0BJ@CMHLPGHN@?$CFs4?9HMAC?9SHA256?6?$CFs?6?$CFs?6?$CFs?$AA@ 004b32c4     libcurl:http_aws_sigv4.obj
 0002:0000f2e4       ??_C@_05OCPDJBAO@?$CFs4?$CFs?$AA@ 004b32e4     libcurl:http_aws_sigv4.obj
 0002:0000f2f0       ??_C@_0GB@FIOPLDOD@Authorization?3?5?$CFs4?9HMAC?9SHA256?5C@ 004b32f0     libcurl:http_aws_sigv4.obj
 0002:0000f364       ??_C@_0BI@OMBEIMIN@server?5response?5timeout?$AA@ 004b3364     libcurl:pingpong.obj
 0002:0000f380       ??_C@_0BC@FLDALOLK@select?1poll?5error?$AA@ 004b3380     libcurl:pingpong.obj
 0002:0000f398       ??_C@_0CH@HOGDLIGJ@cached?5response?5data?5too?5big?5to?5@ 004b3398     libcurl:pingpong.obj
 0002:0000f3c8       ??_C@_0BI@KBMAOGBB@response?5reading?5failed?$AA@ 004b33c8     libcurl:pingpong.obj
 0002:0000f3e8       ??_C@_0EG@IFEGJIDG@Excessive?5server?5response?5line?5l@ 004b33e8     libcurl:pingpong.obj
 0002:0000f4ec       ??_C@_05PLHGOPJD@LOGIN?$AA@ 004b34ec     libcurl:curl_sasl.obj
 0002:0000f4f4       ??_C@_05ONKJAIHP@PLAIN?$AA@ 004b34f4     libcurl:curl_sasl.obj
 0002:0000f4fc       ??_C@_08DNNNMLKI@CRAM?9MD5?$AA@ 004b34fc     libcurl:curl_sasl.obj
 0002:0000f508       ??_C@_0L@ELGHJPGH@DIGEST?9MD5?$AA@ 004b3508     libcurl:curl_sasl.obj
 0002:0000f518       ??_C@_06HIDJEBJA@GSSAPI?$AA@ 004b3518     libcurl:curl_sasl.obj
 0002:0000f520       ??_C@_08JHLDEHEK@EXTERNAL?$AA@ 004b3520     libcurl:curl_sasl.obj
 0002:0000f52c       ??_C@_07ENDMEEPL@XOAUTH2?$AA@ 004b352c     libcurl:curl_sasl.obj
 0002:0000f538       ??_C@_0M@CNKKGKLC@OAUTHBEARER?$AA@ 004b3538     libcurl:curl_sasl.obj
 0002:0000f548       ??_C@_0M@NPGGIEFL@SCRAM?9SHA?91?$AA@ 004b3548     libcurl:curl_sasl.obj
 0002:0000f558       ??_C@_0O@KJDAFCA@SCRAM?9SHA?9256?$AA@ 004b3558     libcurl:curl_sasl.obj
 0002:0000f568       ??_C@_04GJKECPKB@AQ?$DN?$DN?$AA@ 004b3568     libcurl:curl_sasl.obj
 0002:0000f570       ??_C@_0CK@LABGPHKL@Unsupported?5SASL?5authentication?5@ 004b3570     libcurl:curl_sasl.obj
 0002:0000f5a4       _Curl_DIGEST_MD5           004b35a4     libcurl:md5.obj
 0002:0000f5b8       _Curl_HMAC_MD5             004b35b8     libcurl:md5.obj
 0002:0000f5d8       ??_C@_04BBDFLMDN@?5?9?$DO?5?$AA@ 004b35d8     libcurl:ftplistparser.obj
 0002:0000f5e0       ??_C@_06NIJHKJLJ@total?5?$AA@ 004b35e0     libcurl:ftplistparser.obj
 0002:0000f5e8       ??_C@_08IKJPBGEL@rwx?9tTsS?$AA@ 004b35e8     libcurl:ftplistparser.obj
 0002:0000f5f4       ??_C@_0M@GKMDGLA@0123456789?9?$AA@ 004b35f4     libcurl:ftplistparser.obj
 0002:0000f604       ??_C@_0P@BIDONHD@APM0123456789?3?$AA@ 004b3604     libcurl:ftplistparser.obj
 0002:0000f618       ??_C@_05FIBHJBBH@?$DMDIR?$DO?$AA@ 004b3618     libcurl:ftplistparser.obj
 0002:0000f62c       ??_C@_0CB@NDKGBGMP@?$CFc?$CFc?$CFc?$CFc?$CFc?$CFc?$CFc?$CFc?$CFc?$CFc?$CFc?$CFc?$CFc?$CFc?$CFc?$CFc@ 004b362c     libcurl:curl_ntlm_core.obj
 0002:0000f654       ??_C@_02CAHBHFGK@?4?1?$AA@ 004b3654     libcurl:dotdot.obj
 0002:0000f658       ??_C@_03LOJJKLGJ@?4?4?1?$AA@ 004b3658     libcurl:dotdot.obj
 0002:0000f65c       ??_C@_03GCFMMAM@?1?4?1?$AA@ 004b365c     libcurl:dotdot.obj
 0002:0000f660       ??_C@_02DIKICOBM@?1?4?$AA@ 004b3660     libcurl:dotdot.obj
 0002:0000f664       ??_C@_04BKGODLLN@?1?4?4?1?$AA@ 004b3664     libcurl:dotdot.obj
 0002:0000f66c       ??_C@_03BPDOPNEN@?1?4?4?$AA@ 004b366c     libcurl:dotdot.obj
 0002:0000f670       ??_C@_02DJGKEECL@?4?4?$AA@ 004b3670     libcurl:dotdot.obj
 0002:0000f674       ??_C@_08ICCJALCC@?$CFs?1?$CFs?$EA?$CFs?$AA@ 004b3674     libcurl:vauth.obj
 0002:0000f680       ??_C@_05GFOLEBJA@?$CFs?1?$CFs?$AA@ 004b3680     libcurl:vauth.obj
 0002:0000f688       ??_C@_05GKOKGMF@?$CFs?$EA?$CFs?$AA@ 004b3688     libcurl:vauth.obj
 0002:0000f690       ??_C@_03JMAINOCB@?2?1?$EA?$AA@ 004b3690     libcurl:vauth.obj
 0002:0000f694       _Curl_HMAC_SHA256          004b3694     libcurl:sha256.obj
 0002:0000f6b4       ??_C@_01NEMOKFLO@?$DN?$AA@ 004b36b4     libcurl:cleartext.obj
 0002:0000f6b8       ??_C@_0EE@GBENNIBO@?$CFs?5?$CF02x?$CF02x?$CF02x?$CF02x?$CF02x?$CF02x?$CF02x?$CF@ 004b36b8     libcurl:cram.obj
 0002:0000f70c       ??_C@_0CB@GNAMIMBB@n?0a?$DN?$CFs?0?$ABhost?$DN?$CFs?$ABauth?$DNBearer?5?$CFs?$AB?$AB@ 004b370c     libcurl:oauth2.obj
 0002:0000f734       ??_C@_0CK@MLPCPAOG@n?0a?$DN?$CFs?0?$ABhost?$DN?$CFs?$ABport?$DN?$CFld?$ABauth?$DNBe@ 004b3734     libcurl:oauth2.obj
 0002:0000f768       ??_C@_0BJ@HPFOJHGD@user?$DN?$CFs?$ABauth?$DNBearer?5?$CFs?$AB?$AB?$AA@ 004b3768     libcurl:oauth2.obj
 0002:0000f788       ??_C@_05ODNOIFML@digit?$AA@ 004b3788     libcurl:curl_fnmatch.obj
 0002:0000f790       ??_C@_05IIMHCHIO@alnum?$AA@ 004b3790     libcurl:curl_fnmatch.obj
 0002:0000f798       ??_C@_05IAEKHIAN@alpha?$AA@ 004b3798     libcurl:curl_fnmatch.obj
 0002:0000f7a0       ??_C@_06BAPHGFFK@xdigit?$AA@ 004b37a0     libcurl:curl_fnmatch.obj
 0002:0000f7a8       ??_C@_05IJDJACGD@print?$AA@ 004b37a8     libcurl:curl_fnmatch.obj
 0002:0000f7b0       ??_C@_05KCJBMLII@graph?$AA@ 004b37b0     libcurl:curl_fnmatch.obj
 0002:0000f7b8       ??_C@_05OLNILLAB@space?$AA@ 004b37b8     libcurl:curl_fnmatch.obj
 0002:0000f7c0       ??_C@_05BABJKOGB@blank?$AA@ 004b37c0     libcurl:curl_fnmatch.obj
 0002:0000f7c8       ??_C@_05NECKJAMC@upper?$AA@ 004b37c8     libcurl:curl_fnmatch.obj
 0002:0000f7d0       ??_C@_05IPJEPLHL@lower?$AA@ 004b37d0     libcurl:curl_fnmatch.obj
 0002:0000f800       __load_config_used         004b3800     MSVCRTD:loadcfg.obj
 0002:0000fec0       ___CastGuardVftablesStart  004b3ec0     MSVCRTD:guard_support.obj
 0002:0000ffc4       ___CastGuardVftablesEnd    004b3fc4     MSVCRTD:guard_support.obj
 0002:000100c8       ??_R4exception@std@@6B@    004b40c8     protect.obj
 0002:000100e0       ??_R3exception@std@@8      004b40e0     protect.obj
 0002:000100f4       ??_R2exception@std@@8      004b40f4     protect.obj
 0002:000100fc       ??_R1A@?0A@EA@exception@std@@8 004b40fc     protect.obj
 0002:00010120       ??_R4bad_alloc@std@@6B@    004b4120     protect.obj
 0002:00010138       ??_R3bad_alloc@std@@8      004b4138     protect.obj
 0002:0001014c       ??_R2bad_alloc@std@@8      004b414c     protect.obj
 0002:00010158       ??_R1A@?0A@EA@bad_alloc@std@@8 004b4158     protect.obj
 0002:0001017c       ??_R4bad_array_new_length@std@@6B@ 004b417c     protect.obj
 0002:00010194       ??_R3bad_array_new_length@std@@8 004b4194     protect.obj
 0002:000101a8       ??_R2bad_array_new_length@std@@8 004b41a8     protect.obj
 0002:000101b8       ??_R1A@?0A@EA@bad_array_new_length@std@@8 004b41b8     protect.obj
 0002:000101dc       ??_R4?$basic_stringbuf@DU?$char_traits@D@std@@V?$allocator@D@2@@std@@6B@ 004b41dc     systeminfo.obj
 0002:000101f4       ??_R3?$basic_stringbuf@DU?$char_traits@D@std@@V?$allocator@D@2@@std@@8 004b41f4     systeminfo.obj
 0002:00010208       ??_R2?$basic_stringbuf@DU?$char_traits@D@std@@V?$allocator@D@2@@std@@8 004b4208     systeminfo.obj
 0002:00010214       ??_R1A@?0A@EA@?$basic_stringbuf@DU?$char_traits@D@std@@V?$allocator@D@2@@std@@8 004b4214     systeminfo.obj
 0002:00010238       ??_R1A@?0A@EA@?$basic_streambuf@DU?$char_traits@D@std@@@std@@8 004b4238     systeminfo.obj
 0002:0001025c       ??_R3?$basic_streambuf@DU?$char_traits@D@std@@@std@@8 004b425c     systeminfo.obj
 0002:00010270       ??_R2?$basic_streambuf@DU?$char_traits@D@std@@@std@@8 004b4270     systeminfo.obj
 0002:00010278       ??_R4?$basic_stringstream@DU?$char_traits@D@std@@V?$allocator@D@2@@std@@6B@ 004b4278     systeminfo.obj
 0002:00010290       ??_R3?$basic_stringstream@DU?$char_traits@D@std@@V?$allocator@D@2@@std@@8 004b4290     systeminfo.obj
 0002:000102a4       ??_R2?$basic_stringstream@DU?$char_traits@D@std@@V?$allocator@D@2@@std@@8 004b42a4     systeminfo.obj
 0002:000102d8       ??_R1A@?0A@EA@?$basic_stringstream@DU?$char_traits@D@std@@V?$allocator@D@2@@std@@8 004b42d8     systeminfo.obj
 0002:000102fc       ??_R1A@?0A@EA@?$basic_iostream@DU?$char_traits@D@std@@@std@@8 004b42fc     systeminfo.obj
 0002:00010320       ??_R3?$basic_iostream@DU?$char_traits@D@std@@@std@@8 004b4320     systeminfo.obj
 0002:00010334       ??_R2?$basic_iostream@DU?$char_traits@D@std@@@std@@8 004b4334     systeminfo.obj
 0002:00010360       ??_R1A@?0A@EA@?$basic_istream@DU?$char_traits@D@std@@@std@@8 004b4360     systeminfo.obj
 0002:00010384       ??_R3?$basic_istream@DU?$char_traits@D@std@@@std@@8 004b4384     systeminfo.obj
 0002:00010398       ??_R2?$basic_istream@DU?$char_traits@D@std@@@std@@8 004b4398     systeminfo.obj
 0002:000103ac       ??_R1A@A@3FA@?$basic_ios@DU?$char_traits@D@std@@@std@@8 004b43ac     systeminfo.obj
 0002:000103d0       ??_R3?$basic_ios@DU?$char_traits@D@std@@@std@@8 004b43d0     systeminfo.obj
 0002:000103e4       ??_R2?$basic_ios@DU?$char_traits@D@std@@@std@@8 004b43e4     systeminfo.obj
 0002:000103f4       ??_R1A@?0A@EA@?$basic_ios@DU?$char_traits@D@std@@@std@@8 004b43f4     systeminfo.obj
 0002:00010418       ??_R1A@?0A@EA@ios_base@std@@8 004b4418     systeminfo.obj
 0002:0001043c       ??_R3ios_base@std@@8       004b443c     systeminfo.obj
 0002:00010450       ??_R2ios_base@std@@8       004b4450     systeminfo.obj
 0002:0001045c       ??_R17?0A@EA@?$_Iosb@H@std@@8 004b445c     systeminfo.obj
 0002:00010480       ??_R3?$_Iosb@H@std@@8      004b4480     systeminfo.obj
 0002:00010494       ??_R2?$_Iosb@H@std@@8      004b4494     systeminfo.obj
 0002:0001049c       ??_R1A@?0A@EA@?$_Iosb@H@std@@8 004b449c     systeminfo.obj
 0002:000104c0       ??_R1A@A@3EA@ios_base@std@@8 004b44c0     systeminfo.obj
 0002:000104e4       ??_R17A@3EA@?$_Iosb@H@std@@8 004b44e4     systeminfo.obj
 0002:00010508       ??_R1BA@?0A@EA@?$basic_ostream@DU?$char_traits@D@std@@@std@@8 004b4508     systeminfo.obj
 0002:0001052c       ??_R3?$basic_ostream@DU?$char_traits@D@std@@@std@@8 004b452c     systeminfo.obj
 0002:00010540       ??_R2?$basic_ostream@DU?$char_traits@D@std@@@std@@8 004b4540     systeminfo.obj
 0002:00010554       ??_R1A@?0A@EA@?$basic_ostream@DU?$char_traits@D@std@@@std@@8 004b4554     systeminfo.obj
 0002:00010578       ??_R4?$basic_filebuf@DU?$char_traits@D@std@@@std@@6B@ 004b4578     systeminfo.obj
 0002:00010590       ??_R3?$basic_filebuf@DU?$char_traits@D@std@@@std@@8 004b4590     systeminfo.obj
 0002:000105a4       ??_R2?$basic_filebuf@DU?$char_traits@D@std@@@std@@8 004b45a4     systeminfo.obj
 0002:000105b0       ??_R1A@?0A@EA@?$basic_filebuf@DU?$char_traits@D@std@@@std@@8 004b45b0     systeminfo.obj
 0002:000105d4       ??_R4?$basic_ifstream@DU?$char_traits@D@std@@@std@@6B@ 004b45d4     systeminfo.obj
 0002:000105ec       ??_R3?$basic_ifstream@DU?$char_traits@D@std@@@std@@8 004b45ec     systeminfo.obj
 0002:00010600       ??_R2?$basic_ifstream@DU?$char_traits@D@std@@@std@@8 004b4600     systeminfo.obj
 0002:0001061c       ??_R1A@?0A@EA@?$basic_ifstream@DU?$char_traits@D@std@@@std@@8 004b461c     systeminfo.obj
 0002:00010640       ??_R4bad_cast@std@@6B@     004b4640     systeminfo.obj
 0002:00010658       ??_R3bad_cast@std@@8       004b4658     systeminfo.obj
 0002:0001066c       ??_R2bad_cast@std@@8       004b466c     systeminfo.obj
 0002:00010678       ??_R1A@?0A@EA@bad_cast@std@@8 004b4678     systeminfo.obj
 0002:0001069c       ??_R3?$_Func_base@V?$basic_string@DU?$char_traits@D@std@@V?$allocator@D@2@@std@@ABV12@@std@@8 004b469c     systeminfo.obj
 0002:000106b0       ??_R2?$_Func_base@V?$basic_string@DU?$char_traits@D@std@@V?$allocator@D@2@@std@@ABV12@@std@@8 004b46b0     systeminfo.obj
 0002:000106b8       ??_R1A@?0A@EA@?$_Func_base@V?$basic_string@DU?$char_traits@D@std@@V?$allocator@D@2@@std@@ABV12@@std@@8 004b46b8     systeminfo.obj
 0002:00010738       ??_R4type_info@@6B@        004b4738     MSVCRTD:std_type_info_static.obj
 0002:00010750       ??_R3type_info@@8          004b4750     MSVCRTD:std_type_info_static.obj
 0002:00010764       ??_R2type_info@@8          004b4764     MSVCRTD:std_type_info_static.obj
 0002:0001076c       ??_R1A@?0A@EA@type_info@@8 004b476c     MSVCRTD:std_type_info_static.obj
 0002:000108bc       ___safe_se_handler_table   004b48bc     <linker-defined>
 0002:00010c40       ___rtc_iaa                 004b4c40     MSVCRTD:initsect.obj
 0002:00010e54       ___rtc_izz                 004b4e54     MSVCRTD:initsect.obj
 0002:00010f58       ___rtc_taa                 004b4f58     MSVCRTD:initsect.obj
 0002:0001116c       ___rtc_tzz                 004b516c     MSVCRTD:initsect.obj
 0002:000118a0       __TI3?AVbad_array_new_length@std@@ 004b58a0     protect.obj
 0002:000118b4       __CTA3?AVbad_array_new_length@std@@ 004b58b4     protect.obj
 0002:000118c8       __CT??_R0?AVbad_array_new_length@std@@@8??0bad_array_new_length@std@@QAE@ABV01@@Z12 004b58c8     protect.obj
 0002:000118e8       __CT??_R0?AVbad_alloc@std@@@8??0bad_alloc@std@@QAE@ABV01@@Z12 004b58e8     protect.obj
 0002:00011908       __CT??_R0?AVexception@std@@@8??0exception@std@@QAE@ABV01@@Z12 004b5908     protect.obj
 0002:0001393c       __TI2?AVbad_cast@std@@     004b793c     systeminfo.obj
 0002:00013950       __CTA2?AVbad_cast@std@@    004b7950     systeminfo.obj
 0002:00013960       __CT??_R0?AVbad_cast@std@@@8??0bad_cast@std@@QAE@ABV01@@Z12 004b7960     systeminfo.obj
 0002:00013a50       __TI2?AVbad_alloc@std@@    004b7a50     MSVCRTD:throw_bad_alloc.obj
 0002:00013a64       __CTA2?AVbad_alloc@std@@   004b7a64     MSVCRTD:throw_bad_alloc.obj
 0003:00000000       ?key@@3PBDB                004b8000     Main.obj
 0003:00000004       ?__LINE__Var@?0??_Adjust_manually_vector_aligned@std@@YAXAAPAXAAI@Z@4JA 004b8004     protect.obj
 0003:00000010       ___security_cookie_complement 004b8010     MSVCRTD:gs_cookie.obj
 0003:00000014       ___security_cookie         004b8014     MSVCRTD:gs_cookie.obj
 0003:0000001c       __fltused                  004b801c     MSVCRTD:fltused.obj
 0003:00000020       ___scrt_native_dllmain_reason 004b8020     MSVCRTD:utility.obj
 0003:00000030       ?_RTC_ErrorLevels@@3PAHA   004b8030     MSVCRTD:error.obj
 0003:00000048       ___isa_enabled             004b8048     MSVCRTD:cpu_disp.obj
 0003:0000004c       ___scrt_default_matherr    004b804c     MSVCRTD:matherr.obj
 0003:00000050       _Curl_cmalloc              004b8050     libcurl:easy.obj
 0003:00000054       _Curl_cfree                004b8054     libcurl:easy.obj
 0003:00000058       _Curl_crealloc             004b8058     libcurl:easy.obj
 0003:0000005c       _Curl_cstrdup              004b805c     libcurl:easy.obj
 0003:00000060       _Curl_ccalloc              004b8060     libcurl:easy.obj
 0003:00000080       ___scrt_ucrt_dll_is_in_use 004b8080     MSVCRTD:ucrt_stubs.obj
 0003:00000194       ??_R0?AVbad_array_new_length@std@@@8 004b8194     protect.obj
 0003:000001c4       ??_R0?AVbad_alloc@std@@@8  004b81c4     protect.obj
 0003:000001e8       ??_R0?AVexception@std@@@8  004b81e8     protect.obj
 0003:0000020c       ??_R0?AVbad_cast@std@@@8   004b820c     systeminfo.obj
 0003:00000378       ??_R0?AV?$basic_stringbuf@DU?$char_traits@D@std@@V?$allocator@D@2@@std@@@8 004b8378     systeminfo.obj
 0003:000003d4       ??_R0?AV?$basic_streambuf@DU?$char_traits@D@std@@@std@@@8 004b83d4     systeminfo.obj
 0003:00000420       ??_R0?AV?$basic_stringstream@DU?$char_traits@D@std@@V?$allocator@D@2@@std@@@8 004b8420     systeminfo.obj
 0003:00000480       ??_R0?AV?$basic_iostream@DU?$char_traits@D@std@@@std@@@8 004b8480     systeminfo.obj
 0003:000004c8       ??_R0?AV?$basic_istream@DU?$char_traits@D@std@@@std@@@8 004b84c8     systeminfo.obj
 0003:00000510       ??_R0?AV?$basic_ios@DU?$char_traits@D@std@@@std@@@8 004b8510     systeminfo.obj
 0003:00000550       ??_R0?AVios_base@std@@@8   004b8550     systeminfo.obj
 0003:00000570       ??_R0?AV?$_Iosb@H@std@@@8  004b8570     systeminfo.obj
 0003:00000594       ??_R0?AV?$basic_ostream@DU?$char_traits@D@std@@@std@@@8 004b8594     systeminfo.obj
 0003:000005dc       ??_R0?AV?$basic_filebuf@DU?$char_traits@D@std@@@std@@@8 004b85dc     systeminfo.obj
 0003:00000624       ??_R0?AV?$basic_ifstream@DU?$char_traits@D@std@@@std@@@8 004b8624     systeminfo.obj
 0003:00000670       ??_R0?AV?$_Func_base@V?$basic_string@DU?$char_traits@D@std@@V?$allocator@D@2@@std@@ABV12@@std@@@8 004b8670     systeminfo.obj
 0003:000007a0       ??_R0?AVtype_info@@@8      004b87a0     MSVCRTD:std_type_info_static.obj
 0003:000008d0       ?g_hWnd@@3PAUHWND__@@A     004b88d0     Main.obj
 0003:000008d4       ?g_game_dll_base@@3KA      004b88d4     Main.obj
 0003:000008d8       ?g_hProcess@@3PAXA         004b88d8     Main.obj
 0003:000008dc       ?g_pd3d@@3PAUIDirect3D9@@A 004b88dc     Main.obj
 0003:000008e0       ?g_pd3dDevice@@3PAUIDirect3DDevice9@@A 004b88e0     Main.obj
 0003:000008e4       ?g_d3dpp@@3U_D3DPRESENT_PARAMETERS_@@A 004b88e4     Main.obj
 0003:0000091c       ?g_line@@3PAUID3DXLine@@A  004b891c     Main.obj
 0003:00000920       ?Form@@3UtagRECT@@A        004b8920     Main.obj
 0003:00000930       ?screen_width@@3MA         004b8930     Main.obj
 0003:00000934       ?screen_height@@3MA        004b8934     Main.obj
 0003:00000938       ?g_hWarcraftWnd@@3PAUHWND__@@A 004b8938     Main.obj
 0003:00000940       ?view_matrix@@3U_D3DXMATRIXA16@@A 004b8940     Main.obj
 0003:00000980       ?view_matrix_temp@@3U_D3DXMATRIXA16@@A 004b8980     Main.obj
 0003:000009f0       ?_OptionsStorage@?1??__local_stdio_printf_options@@9@4_KA 004b89f0     protect.obj
 0003:000009fc       ?CLOCK_SPEED_IDENTIFIER_STRING@RAMInfo@@0V?$basic_string@DU?$char_traits@D@std@@V?$allocator@D@2@@std@@B 004b89fc     systeminfo.obj
 0003:00000a18       ?NUMBER_OF_CORES_IDENTIFIER_STRING@CPUInfo@@0V?$basic_string@DU?$char_traits@D@std@@V?$allocator@D@2@@std@@B 004b8a18     systeminfo.obj
 0003:00000a34       ?VERSION_IDENTIFIER_STRING@OSInfo@@0V?$basic_string@DU?$char_traits@D@std@@V?$allocator@D@2@@std@@B 004b8a34     systeminfo.obj
 0003:00000a50       ?TOTAL_VISIBLE_MEMORY_SIZE_IDENTIFIER_STRING@OSInfo@@0V?$basic_string@DU?$char_traits@D@std@@V?$allocator@D@2@@std@@B 004b8a50     systeminfo.obj
 0003:00000a6c       ?MOTHERBOARD_INFO_END_IDENTIFIER_STRING@MotherboardInfoDelegate@@0V?$basic_string@DU?$char_traits@D@std@@V?$allocator@D@2@@std@@B 004b8a6c     systeminfo.obj
 0003:00000a88       ?ADAPTER_RAM_IDENTIFIER_STRING@GPUInfo@@0V?$basic_string@DU?$char_traits@D@std@@V?$allocator@D@2@@std@@B 004b8a88     systeminfo.obj
 0003:00000aa4       ?CURRENT_DATE_TIME_QUERY_STRING@OSInfo@@0V?$basic_string@DU?$char_traits@D@std@@V?$allocator@D@2@@std@@B 004b8aa4     systeminfo.obj
 0003:00000ac0       ?FORM_FACTOR_IDENTIFIER_STRING@RAMInfo@@0V?$basic_string@DU?$char_traits@D@std@@V?$allocator@D@2@@std@@B 004b8ac0     systeminfo.obj
 0003:00000adc       ?RAM_INFO_END_IDENTIFIER_STRING@RAMInfoDelegate@@0V?$basic_string@DU?$char_traits@D@std@@V?$allocator@D@2@@std@@B 004b8adc     systeminfo.obj
 0003:00000af8       ?RAM_INSTANCE_QUERY_STRING@RAMInfoDelegate@@0V?$basic_string@DU?$char_traits@D@std@@V?$allocator@D@2@@std@@B 004b8af8     systeminfo.obj
 0003:00000b14       ?VIDEO_MODE_DESCRIPTION_IDENTIFIER_STRING@GPUInfo@@0V?$basic_string@DU?$char_traits@D@std@@V?$allocator@D@2@@std@@B 004b8b14     systeminfo.obj
 0003:00000b30       ?SERIAL_NUMBER_IDENTIFIER_STRING@RAMInfo@@0V?$basic_string@DU?$char_traits@D@std@@V?$allocator@D@2@@std@@B 004b8b30     systeminfo.obj
 0003:00000b4c       ?USED_SPACE_IN_PAGING_FILE_QUERY_STRING@OSInfo@@0V?$basic_string@DU?$char_traits@D@std@@V?$allocator@D@2@@std@@B 004b8b4c     systeminfo.obj
 0003:00000b68       ?FREE_PHYSICAL_MEMORY_QUERY_STRING@OSInfo@@0V?$basic_string@DU?$char_traits@D@std@@V?$allocator@D@2@@std@@B 004b8b68     systeminfo.obj
 0003:00000b84       ?CAPTION_INDENTIFIER_STRING@OSInfo@@0V?$basic_string@DU?$char_traits@D@std@@V?$allocator@D@2@@std@@B 004b8b84     systeminfo.obj
 0003:00000ba0       ?CPU_INSTANCE_QUERY_STRING@CPUInfoDelegate@@0V?$basic_string@DU?$char_traits@D@std@@V?$allocator@D@2@@std@@B 004b8ba0     systeminfo.obj
 0003:00000bbc       ?LAST_BOOT_UP_TIME_IDENTIFIER_STRING@OSInfo@@0V?$basic_string@DU?$char_traits@D@std@@V?$allocator@D@2@@std@@B 004b8bbc     systeminfo.obj
 0003:00000bd8       ?L2_CACHE_SIZE_IDENTIFIER_STRING@CPUInfo@@0V?$basic_string@DU?$char_traits@D@std@@V?$allocator@D@2@@std@@B 004b8bd8     systeminfo.obj
 0003:00000bf4       ?CPU_INFO_QUERY_STRING@CPUInfoDelegate@@0V?$basic_string@DU?$char_traits@D@std@@V?$allocator@D@2@@std@@B 004b8bf4     systeminfo.obj
 0003:00000c10       ?FREE_SPACE_IN_PAGING_FILES_IDENTIFIER_STRING@OSInfo@@0V?$basic_string@DU?$char_traits@D@std@@V?$allocator@D@2@@std@@B 004b8c10     systeminfo.obj
 0003:00000c2c       ?MANUFACTURER_IDENTIFIER_STRING@MotherboardInfo@@0V?$basic_string@DU?$char_traits@D@std@@V?$allocator@D@2@@std@@B 004b8c2c     systeminfo.obj
 0003:00000c48       ?MANUFACTURER_IDENTIFIER_STRING@RAMInfo@@0V?$basic_string@DU?$char_traits@D@std@@V?$allocator@D@2@@std@@B 004b8c48     systeminfo.obj
 0003:00000c64       ?CHIPSET_QUERY_STRING@MotherboardInfo@@0V?$basic_string@DU?$char_traits@D@std@@V?$allocator@D@2@@std@@B 004b8c64     systeminfo.obj
 0003:00000c80       ?FREE_VIRTUAL_MEMORY_IDENTIFIER_STRING@OSInfo@@0V?$basic_string@DU?$char_traits@D@std@@V?$allocator@D@2@@std@@B 004b8c80     systeminfo.obj
 0003:00000c9c       ?FREE_SPACE_IN_PAGING_FILES_QUERY_STRING@OSInfo@@0V?$basic_string@DU?$char_traits@D@std@@V?$allocator@D@2@@std@@B 004b8c9c     systeminfo.obj
 0003:00000cb8       ?TEMPERATURE_QUERY_STRING@CPUInfo@@0V?$basic_string@DU?$char_traits@D@std@@V?$allocator@D@2@@std@@B 004b8cb8     systeminfo.obj
 0003:00000cd4       ?VIDEO_MEMORY_TYPE_IDENTIFIER_STRING@GPUInfo@@0V?$basic_string@DU?$char_traits@D@std@@V?$allocator@D@2@@std@@B 004b8cd4     systeminfo.obj
 0003:00000cf0       ?CHIPSET_END_IDENTIFIER_STRING@MotherboardInfo@@0V?$basic_string@DU?$char_traits@D@std@@V?$allocator@D@2@@std@@B 004b8cf0     systeminfo.obj
 0003:00000d0c       ?BACKUP_CLOCK_SPEED_IDENTIFIER_STRING@RAMInfo@@0V?$basic_string@DU?$char_traits@D@std@@V?$allocator@D@2@@std@@B 004b8d0c     systeminfo.obj
 0003:00000d28       ?ARCHITECTURE_IDENTIFIER_STRING@CPUInfo@@0V?$basic_string@DU?$char_traits@D@std@@V?$allocator@D@2@@std@@B 004b8d28     systeminfo.obj
 0003:00000d44       ?USED_SPACE_IN_PAGING_FILE_IDENTIFIER_STRING@OSInfo@@0V?$basic_string@DU?$char_traits@D@std@@V?$allocator@D@2@@std@@B 004b8d44     systeminfo.obj
 0003:00000d60       ?SERIAL_NUMBER_IDENTIFIER_STRING@OSInfo@@0V?$basic_string@DU?$char_traits@D@std@@V?$allocator@D@2@@std@@B 004b8d60     systeminfo.obj
 0003:00000d7c       ?MOTHERBOARD_INSTANCE_QUERY_STRING@MotherboardInfoDelegate@@0V?$basic_string@DU?$char_traits@D@std@@V?$allocator@D@2@@std@@B 004b8d7c     systeminfo.obj
 0003:00000d98       ?NAME_IDENTIFIER_STRING@GPUInfo@@0V?$basic_string@DU?$char_traits@D@std@@V?$allocator@D@2@@std@@B 004b8d98     systeminfo.obj
 0003:00000db4       ?MANUFACTURER_IDENTIFIER_STRING@GPUInfo@@0V?$basic_string@DU?$char_traits@D@std@@V?$allocator@D@2@@std@@B 004b8db4     systeminfo.obj
 0003:00000dd0       ?MEMORY_TYPE_IDENTIFIER_STRING@RAMInfo@@0V?$basic_string@DU?$char_traits@D@std@@V?$allocator@D@2@@std@@B 004b8dd0     systeminfo.obj
 0003:00000dec       ?CAPACITY_IDENTIFIER_STRING@RAMInfo@@0V?$basic_string@DU?$char_traits@D@std@@V?$allocator@D@2@@std@@B 004b8dec     systeminfo.obj
 0003:00000e08       ?BOOT_DEVICE_IDENTIFIER_STRING@OSInfo@@0V?$basic_string@DU?$char_traits@D@std@@V?$allocator@D@2@@std@@B 004b8e08     systeminfo.obj
 0003:00000e24       ?ARCHITECTURE_IDENTIFIER_STRING@OSInfo@@0V?$basic_string@DU?$char_traits@D@std@@V?$allocator@D@2@@std@@B 004b8e24     systeminfo.obj
 0003:00000e40       ?INSTALL_DATE_IDENTIFIER_STRING@OSInfo@@0V?$basic_string@DU?$char_traits@D@std@@V?$allocator@D@2@@std@@B 004b8e40     systeminfo.obj
 0003:00000e5c       ?AMD_IDENTIFIER_STRING@GPUInfo@@0V?$basic_string@DU?$char_traits@D@std@@V?$allocator@D@2@@std@@B 004b8e5c     systeminfo.obj
 0003:00000e78       ?NVIDIA_IDENTIFIER_STRING@GPUInfo@@0V?$basic_string@DU?$char_traits@D@std@@V?$allocator@D@2@@std@@B 004b8e78     systeminfo.obj
 0003:00000e94       ?VIDEO_PROCESSOR_IDENTIFIER_STRING@GPUInfo@@0V?$basic_string@DU?$char_traits@D@std@@V?$allocator@D@2@@std@@B 004b8e94     systeminfo.obj
 0003:00000eb0       ?NAME_IDENTIFIER_STRING@MotherboardInfo@@0V?$basic_string@DU?$char_traits@D@std@@V?$allocator@D@2@@std@@B 004b8eb0     systeminfo.obj
 0003:00000ecc       ?RAM_INFO_QUERY_STRING@RAMInfoDelegate@@0V?$basic_string@DU?$char_traits@D@std@@V?$allocator@D@2@@std@@B 004b8ecc     systeminfo.obj
 0003:00000ee8       ?MANUFACTURER_IDENTIFIER_STRING@OSInfo@@0V?$basic_string@DU?$char_traits@D@std@@V?$allocator@D@2@@std@@B 004b8ee8     systeminfo.obj
 0003:00000f04       ?PART_NUMBER_IDENTIFIER_STRING@RAMInfo@@0V?$basic_string@DU?$char_traits@D@std@@V?$allocator@D@2@@std@@B 004b8f04     systeminfo.obj
 0003:00000f20       ?GPU_INFO_END_IDENTIFIER_STRING@GPUInfoDelegate@@0V?$basic_string@DU?$char_traits@D@std@@V?$allocator@D@2@@std@@B 004b8f20     systeminfo.obj
 0003:00000f3c       ?VERSION_IDENTIFIER_STRING@MotherboardInfo@@0V?$basic_string@DU?$char_traits@D@std@@V?$allocator@D@2@@std@@B 004b8f3c     systeminfo.obj
 0003:00000f58       ?NAME_IDENTIFIER_STRING@CPUInfo@@0V?$basic_string@DU?$char_traits@D@std@@V?$allocator@D@2@@std@@B 004b8f58     systeminfo.obj
 0003:00000f74       ?CURRENT_USER_IDENTIFIER_STRING@OSInfo@@0V?$basic_string@DU?$char_traits@D@std@@V?$allocator@D@2@@std@@B 004b8f74     systeminfo.obj
 0003:00000f90       ?OS_INSTANCE_QUERY_STRING@OSInfoDelegate@@0V?$basic_string@DU?$char_traits@D@std@@V?$allocator@D@2@@std@@B 004b8f90     systeminfo.obj
 0003:00000fac       ?MANUFACTURER_IDENTIFIER_STRING@CPUInfo@@0V?$basic_string@DU?$char_traits@D@std@@V?$allocator@D@2@@std@@B 004b8fac     systeminfo.obj
 0003:00000fc8       ?FREE_PHYSICAL_MEMORY_IDENTIFIER_STRING@OSInfo@@0V?$basic_string@DU?$char_traits@D@std@@V?$allocator@D@2@@std@@B 004b8fc8     systeminfo.obj
 0003:00000fe4       ?CLOCK_SPEED_QUERY_STRING@CPUInfo@@0V?$basic_string@DU?$char_traits@D@std@@V?$allocator@D@2@@std@@B 004b8fe4     systeminfo.obj
 0003:00001000       ?TEMPERATURE_ERROR_IDENTIFIER_STRING@CPUInfo@@0V?$basic_string@DU?$char_traits@D@std@@V?$allocator@D@2@@std@@B 004b9000     systeminfo.obj
 0003:0000101c       ?REFRESH_RATE_IDENTIFIER_STRING@GPUInfo@@0V?$basic_string@DU?$char_traits@D@std@@V?$allocator@D@2@@std@@B 004b901c     systeminfo.obj
 0003:00001038       ?TOTAL_SWAP_SIZE_IDENTIFIER_STRING@OSInfo@@0V?$basic_string@DU?$char_traits@D@std@@V?$allocator@D@2@@std@@B 004b9038     systeminfo.obj
 0003:00001054       ?CHIPSET_IDENTIFIER_STRING@MotherboardInfo@@0V?$basic_string@DU?$char_traits@D@std@@V?$allocator@D@2@@std@@B 004b9054     systeminfo.obj
 0003:00001070       ?CAPTION_IDENTIFIER_STRING@GPUInfo@@0V?$basic_string@DU?$char_traits@D@std@@V?$allocator@D@2@@std@@B 004b9070     systeminfo.obj
 0003:0000108c       ?BUILD_NUMBER_IDENTIFIER_STRING@OSInfo@@0V?$basic_string@DU?$char_traits@D@std@@V?$allocator@D@2@@std@@B 004b908c     systeminfo.obj
 0003:000010a8       ?VIDEO_ARCHITECTURE_IDENTIFIER_STRING@GPUInfo@@0V?$basic_string@DU?$char_traits@D@std@@V?$allocator@D@2@@std@@B 004b90a8     systeminfo.obj
 0003:000010c4       ?CPU_INFO_END_IDENTIFIER_STRING@CPUInfoDelegate@@0V?$basic_string@DU?$char_traits@D@std@@V?$allocator@D@2@@std@@B 004b90c4     systeminfo.obj
 0003:000010e0       ?GPU_INFO_QUERY_STRING@GPUInfoDelegate@@0V?$basic_string@DU?$char_traits@D@std@@V?$allocator@D@2@@std@@B 004b90e0     systeminfo.obj
 0003:000010fc       ?TOTAL_VIRTUAL_MEMORY_SIZE_IDENTIFIER_STRING@OSInfo@@0V?$basic_string@DU?$char_traits@D@std@@V?$allocator@D@2@@std@@B 004b90fc     systeminfo.obj
 0003:00001118       ?NAME_IDENTIFIER_STRING@OSInfo@@0V?$basic_string@DU?$char_traits@D@std@@V?$allocator@D@2@@std@@B 004b9118     systeminfo.obj
 0003:00001134       ?OS_INFO_END_IDENTIFIER_STRING@OSInfoDelegate@@0V?$basic_string@DU?$char_traits@D@std@@V?$allocator@D@2@@std@@B 004b9134     systeminfo.obj
 0003:00001150       ?FREE_VIRTUAL_MEMORY_QUERY_STRING@OSInfo@@0V?$basic_string@DU?$char_traits@D@std@@V?$allocator@D@2@@std@@B 004b9150     systeminfo.obj
 0003:0000116c       ?INTEL_IDENTIFIER_STRING@GPUInfo@@0V?$basic_string@DU?$char_traits@D@std@@V?$allocator@D@2@@std@@B 004b916c     systeminfo.obj
 0003:00001188       ?DRIVER_VERSION_IDENTIFIER_STRING@GPUInfo@@0V?$basic_string@DU?$char_traits@D@std@@V?$allocator@D@2@@std@@B 004b9188     systeminfo.obj
 0003:000011a4       ?CURRENT_CLOCK_SPEED_IDENTIFIER_STRING@CPUInfo@@0V?$basic_string@DU?$char_traits@D@std@@V?$allocator@D@2@@std@@B 004b91a4     systeminfo.obj
 0003:000011c0       ?OS_INFO_QUERY_STRING@OSInfoDelegate@@0V?$basic_string@DU?$char_traits@D@std@@V?$allocator@D@2@@std@@B 004b91c0     systeminfo.obj
 0003:000011dc       ?MOTHERBOARD_INFO_QUERY_STRING@MotherboardInfoDelegate@@0V?$basic_string@DU?$char_traits@D@std@@V?$allocator@D@2@@std@@B 004b91dc     systeminfo.obj
 0003:000011f8       ?SERIAL_NUMBER_IDENTIFIER_STRING@MotherboardInfo@@0V?$basic_string@DU?$char_traits@D@std@@V?$allocator@D@2@@std@@B 004b91f8     systeminfo.obj
 0003:00001214       ?NAME_IDENTIFIER_STRING@RAMInfo@@0V?$basic_string@DU?$char_traits@D@std@@V?$allocator@D@2@@std@@B 004b9214     systeminfo.obj
 0003:00001230       ?GPU_INSTANCE_QUERY_STRING@GPUInfoDelegate@@0V?$basic_string@DU?$char_traits@D@std@@V?$allocator@D@2@@std@@B 004b9230     systeminfo.obj
 0003:0000124c       ?CURRENT_DATE_TIME_IDENTIFIER_STRING@OSInfo@@0V?$basic_string@DU?$char_traits@D@std@@V?$allocator@D@2@@std@@B 004b924c     systeminfo.obj
 0003:00001268       ?L3_CACHE_SIZE_IDENTIFIER_STRING@CPUInfo@@0V?$basic_string@DU?$char_traits@D@std@@V?$allocator@D@2@@std@@B 004b9268     systeminfo.obj
 0003:00001438       ?_Stinit@?1??_Init@?$basic_filebuf@DU?$char_traits@D@std@@@std@@IAEXPAU_iobuf@@W4_Initfl@23@@Z@4U_Mbstatet@@A 004b9438     systeminfo.obj
 0003:00001444       ?_Psave@?$_Facetptr@V?$ctype@D@std@@@std@@2PBVfacet@locale@2@B 004b9444     systeminfo.obj
 0003:00001448       ?_Psave@?$_Facetptr@V?$codecvt@DDU_Mbstatet@@@std@@@std@@2PBVfacet@locale@2@B 004b9448     systeminfo.obj
 0003:00001454       ___scrt_current_native_startup_state 004b9454     MSVCRTD:utility.obj
 0003:00001458       ___scrt_native_startup_lock 004b9458     MSVCRTD:utility.obj
 0003:00001480       ___castguard_check_failure_os_handled_fptr 004b9480     MSVCRTD:guard_support.obj
 0003:00001850       ___isa_available           004b9850     MSVCRTD:cpu_disp.obj
 0003:00001854       ___favor                   004b9854     MSVCRTD:cpu_disp.obj
 0003:0000185c       ___scrt_debugger_hook_flag 004b985c     MSVCRTD:utility_desktop.obj
 0003:00001860       ?__type_info_root_node@@3U__type_info_node@@A 004b9860     MSVCRTD:tncleanup.obj
 0003:00001870       ?_OptionsStorage@?1??__local_stdio_scanf_options@@9@4_KA 004b9870     MSVCRTD:default_local_stdio_options.obj
 0003:000018a8       _Curl_if_nametoindex       004b98a8     libcurl:system_win32.obj
 0003:000018d4       ___dyn_tls_dtor_callback   004b98d4     <common>
 0003:000018e0       ___dyn_tls_init_callback   004b98e0     <common>
 0003:000018ec       ___DebuggerCurrentSteppingThreadId 004b98ec     <common>
 0003:000018f8       ?_OptionsStorage@?1??__local_stdio_printf_options@@9@9 004b98f8     <common>
 0003:00001909       _Curl_isVistaOrGreater     004b9909     <common>
 0003:00001918       _Curl_freq                 004b9918     <common>
 0003:00001920       ?_OptionsStorage@?1??__local_stdio_scanf_options@@9@9 004b9920     <common>
 0004:00000000       __imp__CryptEncrypt@28     004ba000     advapi32:ADVAPI32.dll
 0004:00000004       __imp__CryptDestroyKey@4   004ba004     advapi32:ADVAPI32.dll
 0004:00000008       __imp__CryptDestroyHash@4  004ba008     advapi32:ADVAPI32.dll
 0004:0000000c       __imp__CryptHashData@16    004ba00c     advapi32:ADVAPI32.dll
 0004:00000010       __imp__CryptCreateHash@20  004ba010     advapi32:ADVAPI32.dll
 0004:00000014       __imp__CryptGetHashParam@20 004ba014     advapi32:ADVAPI32.dll
 0004:00000018       __imp__CryptReleaseContext@8 004ba018     advapi32:ADVAPI32.dll
 0004:0000001c       __imp__CryptAcquireContextA@20 004ba01c     advapi32:ADVAPI32.dll
 0004:00000020       __imp__CryptImportKey@24   004ba020     advapi32:ADVAPI32.dll
 0004:00000024       __imp__LookupPrivilegeValueA@12 004ba024     advapi32:ADVAPI32.dll
 0004:00000028       __imp__AdjustTokenPrivileges@24 004ba028     advapi32:ADVAPI32.dll
 0004:0000002c       __imp__OpenProcessToken@12 004ba02c     advapi32:ADVAPI32.dll
 0004:00000030       \177ADVAPI32_NULL_THUNK_DATA 004ba030     advapi32:ADVAPI32.dll
 0004:00000064       __imp__CreateSolidBrush@4  004ba064     gdi32:GDI32.dll
 0004:00000068       \177GDI32_NULL_THUNK_DATA  004ba068     gdi32:GDI32.dll
 0004:00000094       __imp__GetStartupInfoW@4   004ba094     kernel32:KERNEL32.dll
 0004:00000098       __imp__GetModuleHandleW@4  004ba098     kernel32:KERNEL32.dll
 0004:0000009c       __imp__QueryPerformanceCounter@4 004ba09c     kernel32:KERNEL32.dll
 0004:000000a0       __imp__GetCurrentProcessId@0 004ba0a0     kernel32:KERNEL32.dll
 0004:000000a4       __imp__GetSystemTimeAsFileTime@4 004ba0a4     kernel32:KERNEL32.dll
 0004:000000a8       __imp__IsProcessorFeaturePresent@4 004ba0a8     kernel32:KERNEL32.dll
 0004:000000ac       __imp__GetLastError@0      004ba0ac     kernel32:KERNEL32.dll
 0004:000000b0       __imp__HeapAlloc@12        004ba0b0     kernel32:KERNEL32.dll
 0004:000000b4       __imp__HeapFree@12         004ba0b4     kernel32:KERNEL32.dll
 0004:000000b8       __imp__GetProcessHeap@0    004ba0b8     kernel32:KERNEL32.dll
 0004:000000bc       __imp__VirtualQuery@12     004ba0bc     kernel32:KERNEL32.dll
 0004:000000c0       __imp__TerminateProcess@8  004ba0c0     kernel32:KERNEL32.dll
 0004:000000c4       __imp__InitializeSListHead@4 004ba0c4     kernel32:KERNEL32.dll
 0004:000000c8       __imp__UnhandledExceptionFilter@4 004ba0c8     kernel32:KERNEL32.dll
 0004:000000cc       __imp__WideCharToMultiByte@32 004ba0cc     kernel32:KERNEL32.dll
 0004:000000d0       __imp__MultiByteToWideChar@24 004ba0d0     kernel32:KERNEL32.dll
 0004:000000d4       __imp__SetUnhandledExceptionFilter@4 004ba0d4     kernel32:KERNEL32.dll
 0004:000000d8       __imp__RaiseException@16   004ba0d8     kernel32:KERNEL32.dll
 0004:000000dc       __imp__GetProcAddress@8    004ba0dc     kernel32:KERNEL32.dll
 0004:000000e0       __imp__EnterCriticalSection@4 004ba0e0     kernel32:KERNEL32.dll
 0004:000000e4       __imp__LeaveCriticalSection@4 004ba0e4     kernel32:KERNEL32.dll
 0004:000000e8       __imp__InitializeCriticalSectionEx@12 004ba0e8     kernel32:KERNEL32.dll
 0004:000000ec       __imp__DeleteCriticalSection@4 004ba0ec     kernel32:KERNEL32.dll
 0004:000000f0       __imp__SleepEx@8           004ba0f0     kernel32:KERNEL32.dll
 0004:000000f4       __imp__QueryPerformanceFrequency@4 004ba0f4     kernel32:KERNEL32.dll
 0004:000000f8       __imp__GetSystemDirectoryA@8 004ba0f8     kernel32:KERNEL32.dll
 0004:000000fc       __imp__GetModuleHandleA@4  004ba0fc     kernel32:KERNEL32.dll
 0004:00000100       __imp__LoadLibraryA@4      004ba100     kernel32:KERNEL32.dll
 0004:00000104       __imp__GetTickCount@0      004ba104     kernel32:KERNEL32.dll
 0004:00000108       __imp__Sleep@4             004ba108     kernel32:KERNEL32.dll
 0004:0000010c       __imp__MoveFileExA@12      004ba10c     kernel32:KERNEL32.dll
 0004:00000110       __imp__WaitForSingleObjectEx@12 004ba110     kernel32:KERNEL32.dll
 0004:00000114       __imp__GetStdHandle@4      004ba114     kernel32:KERNEL32.dll
 0004:00000118       __imp__GetFileType@4       004ba118     kernel32:KERNEL32.dll
 0004:0000011c       __imp__ReadFile@20         004ba11c     kernel32:KERNEL32.dll
 0004:00000120       __imp__PeekNamedPipe@24    004ba120     kernel32:KERNEL32.dll
 0004:00000124       __imp__WaitForMultipleObjects@16 004ba124     kernel32:KERNEL32.dll
 0004:00000128       __imp__GetEnvironmentVariableA@12 004ba128     kernel32:KERNEL32.dll
 0004:0000012c       __imp__SetLastError@4      004ba12c     kernel32:KERNEL32.dll
 0004:00000130       __imp__FormatMessageW@28   004ba130     kernel32:KERNEL32.dll
 0004:00000134       __imp__VerSetConditionMask@16 004ba134     kernel32:KERNEL32.dll
 0004:00000138       __imp__VerifyVersionInfoA@16 004ba138     kernel32:KERNEL32.dll
 0004:0000013c       __imp__IsDebuggerPresent@0 004ba13c     kernel32:KERNEL32.dll
 0004:00000140       __imp__K32GetModuleFileNameExA@16 004ba140     kernel32:KERNEL32.dll
 0004:00000144       __imp__K32EnumProcessModules@16 004ba144     kernel32:KERNEL32.dll
 0004:00000148       __imp__AllocConsole@0      004ba148     kernel32:KERNEL32.dll
 0004:0000014c       __imp__ReadProcessMemory@20 004ba14c     kernel32:KERNEL32.dll
 0004:00000150       __imp__OpenProcess@12      004ba150     kernel32:KERNEL32.dll
 0004:00000154       __imp__GetCurrentProcess@0 004ba154     kernel32:KERNEL32.dll
 0004:00000158       __imp__FreeLibrary@4       004ba158     kernel32:KERNEL32.dll
 0004:0000015c       __imp__CloseHandle@4       004ba15c     kernel32:KERNEL32.dll
 0004:00000160       __imp__GetCurrentThreadId@0 004ba160     kernel32:KERNEL32.dll
 0004:00000164       \177KERNEL32_NULL_THUNK_DATA 004ba164     kernel32:KERNEL32.dll
 0004:000001b8       __imp_?snextc@?$basic_streambuf@DU?$char_traits@D@std@@@std@@QAEHXZ 004ba1b8     msvcprtd:MSVCP140D.dll
 0004:000001bc       __imp_?eback@?$basic_streambuf@DU?$char_traits@D@std@@@std@@IBEPADXZ 004ba1bc     msvcprtd:MSVCP140D.dll
 0004:000001c0       __imp_?gptr@?$basic_streambuf@DU?$char_traits@D@std@@@std@@IBEPADXZ 004ba1c0     msvcprtd:MSVCP140D.dll
 0004:000001c4       __imp_?pptr@?$basic_streambuf@DU?$char_traits@D@std@@@std@@IBEPADXZ 004ba1c4     msvcprtd:MSVCP140D.dll
 0004:000001c8       __imp_?egptr@?$basic_streambuf@DU?$char_traits@D@std@@@std@@IBEPADXZ 004ba1c8     msvcprtd:MSVCP140D.dll
 0004:000001cc       __imp_?gbump@?$basic_streambuf@DU?$char_traits@D@std@@@std@@IAEXH@Z 004ba1cc     msvcprtd:MSVCP140D.dll
 0004:000001d0       __imp_?setg@?$basic_streambuf@DU?$char_traits@D@std@@@std@@IAEXPAD00@Z 004ba1d0     msvcprtd:MSVCP140D.dll
 0004:000001d4       __imp_?epptr@?$basic_streambuf@DU?$char_traits@D@std@@@std@@IBEPADXZ 004ba1d4     msvcprtd:MSVCP140D.dll
 0004:000001d8       __imp_?_Gndec@?$basic_streambuf@DU?$char_traits@D@std@@@std@@IAEPADXZ 004ba1d8     msvcprtd:MSVCP140D.dll
 0004:000001dc       __imp_?_Gninc@?$basic_streambuf@DU?$char_traits@D@std@@@std@@IAEPADXZ 004ba1dc     msvcprtd:MSVCP140D.dll
 0004:000001e0       __imp_?_Gnavail@?$basic_streambuf@DU?$char_traits@D@std@@@std@@IBE_JXZ 004ba1e0     msvcprtd:MSVCP140D.dll
 0004:000001e4       __imp_?pbump@?$basic_streambuf@DU?$char_traits@D@std@@@std@@IAEXH@Z 004ba1e4     msvcprtd:MSVCP140D.dll
 0004:000001e8       __imp_?setp@?$basic_streambuf@DU?$char_traits@D@std@@@std@@IAEXPAD0@Z 004ba1e8     msvcprtd:MSVCP140D.dll
 0004:000001ec       __imp_??1?$basic_streambuf@DU?$char_traits@D@std@@@std@@UAE@XZ 004ba1ec     msvcprtd:MSVCP140D.dll
 0004:000001f0       __imp_?_Pninc@?$basic_streambuf@DU?$char_traits@D@std@@@std@@IAEPADXZ 004ba1f0     msvcprtd:MSVCP140D.dll
 0004:000001f4       __imp_?_Pnavail@?$basic_streambuf@DU?$char_traits@D@std@@@std@@IBE_JXZ 004ba1f4     msvcprtd:MSVCP140D.dll
 0004:000001f8       __imp_?_Init@?$basic_streambuf@DU?$char_traits@D@std@@@std@@IAEXXZ 004ba1f8     msvcprtd:MSVCP140D.dll
 0004:000001fc       __imp_?_Init@?$basic_streambuf@DU?$char_traits@D@std@@@std@@IAEXPAPAD0PAH001@Z 004ba1fc     msvcprtd:MSVCP140D.dll
 0004:00000200       __imp_?xsgetn@?$basic_streambuf@DU?$char_traits@D@std@@@std@@MAE_JPAD_J@Z 004ba200     msvcprtd:MSVCP140D.dll
 0004:00000204       __imp_?xsputn@?$basic_streambuf@DU?$char_traits@D@std@@@std@@MAE_JPBD_J@Z 004ba204     msvcprtd:MSVCP140D.dll
 0004:00000208       __imp_??1?$basic_ios@DU?$char_traits@D@std@@@std@@UAE@XZ 004ba208     msvcprtd:MSVCP140D.dll
 0004:0000020c       __imp_??0?$basic_ios@DU?$char_traits@D@std@@@std@@IAE@XZ 004ba20c     msvcprtd:MSVCP140D.dll
 0004:00000210       __imp_??6?$basic_ostream@DU?$char_traits@D@std@@@std@@QAEAAV01@_J@Z 004ba210     msvcprtd:MSVCP140D.dll
 0004:00000214       __imp_??0?$basic_istream@DU?$char_traits@D@std@@@std@@QAE@PAV?$basic_streambuf@DU?$char_traits@D@std@@@1@_N@Z 004ba214     msvcprtd:MSVCP140D.dll
 0004:00000218       __imp_??1?$basic_istream@DU?$char_traits@D@std@@@std@@UAE@XZ 004ba218     msvcprtd:MSVCP140D.dll
 0004:0000021c       __imp_?_Ipfx@?$basic_istream@DU?$char_traits@D@std@@@std@@QAE_N_N@Z 004ba21c     msvcprtd:MSVCP140D.dll
 0004:00000220       __imp_??0?$basic_iostream@DU?$char_traits@D@std@@@std@@QAE@PAV?$basic_streambuf@DU?$char_traits@D@std@@@1@@Z 004ba220     msvcprtd:MSVCP140D.dll
 0004:00000224       __imp_??1?$basic_iostream@DU?$char_traits@D@std@@@std@@UAE@XZ 004ba224     msvcprtd:MSVCP140D.dll
 0004:00000228       __imp_?_Xbad_function_call@std@@YAXXZ 004ba228     msvcprtd:MSVCP140D.dll
 0004:0000022c       __imp_?_Lock@?$basic_streambuf@DU?$char_traits@D@std@@@std@@UAEXXZ 004ba22c     msvcprtd:MSVCP140D.dll
 0004:00000230       __imp_?_Unlock@?$basic_streambuf@DU?$char_traits@D@std@@@std@@UAEXXZ 004ba230     msvcprtd:MSVCP140D.dll
 0004:00000234       __imp_?imbue@?$basic_streambuf@DU?$char_traits@D@std@@@std@@MAEXABVlocale@2@@Z 004ba234     msvcprtd:MSVCP140D.dll
 0004:00000238       __imp_?setbuf@?$basic_streambuf@DU?$char_traits@D@std@@@std@@MAEPAV12@PAD_J@Z 004ba238     msvcprtd:MSVCP140D.dll
 0004:0000023c       __imp_?showmanyc@?$basic_streambuf@DU?$char_traits@D@std@@@std@@MAE_JXZ 004ba23c     msvcprtd:MSVCP140D.dll
 0004:00000240       __imp_?sync@?$basic_streambuf@DU?$char_traits@D@std@@@std@@MAEHXZ 004ba240     msvcprtd:MSVCP140D.dll
 0004:00000244       __imp_?uflow@?$basic_streambuf@DU?$char_traits@D@std@@@std@@MAEHXZ 004ba244     msvcprtd:MSVCP140D.dll
 0004:00000248       __imp_?id@?$ctype@D@std@@2V0locale@2@A 004ba248     msvcprtd:MSVCP140D.dll
 0004:0000024c       __imp_?id@?$codecvt@DDU_Mbstatet@@@std@@2V0locale@2@A 004ba24c     msvcprtd:MSVCP140D.dll
 0004:00000250       __imp_?_Xbad_alloc@std@@YAXXZ 004ba250     msvcprtd:MSVCP140D.dll
 0004:00000254       __imp_?sgetc@?$basic_streambuf@DU?$char_traits@D@std@@@std@@QAEHXZ 004ba254     msvcprtd:MSVCP140D.dll
 0004:00000258       __imp_??0?$basic_streambuf@DU?$char_traits@D@std@@@std@@IAE@XZ 004ba258     msvcprtd:MSVCP140D.dll
 0004:0000025c       __imp_?getloc@ios_base@std@@QBE?AVlocale@2@XZ 004ba25c     msvcprtd:MSVCP140D.dll
 0004:00000260       __imp_?_Getcat@?$codecvt@DDU_Mbstatet@@@std@@SAIPAPBVfacet@locale@2@PBV42@@Z 004ba260     msvcprtd:MSVCP140D.dll
 0004:00000264       __imp_?unshift@?$codecvt@DDU_Mbstatet@@@std@@QBEHAAU_Mbstatet@@PAD1AAPAD@Z 004ba264     msvcprtd:MSVCP140D.dll
 0004:00000268       __imp_?out@?$codecvt@DDU_Mbstatet@@@std@@QBEHAAU_Mbstatet@@PBD1AAPBDPAD3AAPAD@Z 004ba268     msvcprtd:MSVCP140D.dll
 0004:0000026c       __imp_?in@?$codecvt@DDU_Mbstatet@@@std@@QBEHAAU_Mbstatet@@PBD1AAPBDPAD3AAPAD@Z 004ba26c     msvcprtd:MSVCP140D.dll
 0004:00000270       __imp_?_Getcat@?$ctype@D@std@@SAIPAPBVfacet@locale@2@PBV42@@Z 004ba270     msvcprtd:MSVCP140D.dll
 0004:00000274       __imp_?is@?$ctype@D@std@@QBE_NFD@Z 004ba274     msvcprtd:MSVCP140D.dll
 0004:00000278       __imp_?always_noconv@codecvt_base@std@@QBE_NXZ 004ba278     msvcprtd:MSVCP140D.dll
 0004:0000027c       __imp_?_Getgloballocale@locale@std@@CAPAV_Locimp@12@XZ 004ba27c     msvcprtd:MSVCP140D.dll
 0004:00000280       __imp_??Bid@locale@std@@QAEIXZ 004ba280     msvcprtd:MSVCP140D.dll
 0004:00000284       __imp_?cout@std@@3V?$basic_ostream@DU?$char_traits@D@std@@@1@A 004ba284     msvcprtd:MSVCP140D.dll
 0004:00000288       __imp_?flush@?$basic_ostream@DU?$char_traits@D@std@@@std@@QAEAAV12@XZ 004ba288     msvcprtd:MSVCP140D.dll
 0004:0000028c       __imp_?put@?$basic_ostream@DU?$char_traits@D@std@@@std@@QAEAAV12@D@Z 004ba28c     msvcprtd:MSVCP140D.dll
 0004:00000290       __imp_??6?$basic_ostream@DU?$char_traits@D@std@@@std@@QAEAAV01@H@Z 004ba290     msvcprtd:MSVCP140D.dll
 0004:00000294       __imp_??6?$basic_ostream@DU?$char_traits@D@std@@@std@@QAEAAV01@P6AAAV01@AAV01@@Z@Z 004ba294     msvcprtd:MSVCP140D.dll
 0004:00000298       __imp_?_Osfx@?$basic_ostream@DU?$char_traits@D@std@@@std@@QAEXXZ 004ba298     msvcprtd:MSVCP140D.dll
 0004:0000029c       __imp_?widen@?$basic_ios@DU?$char_traits@D@std@@@std@@QBEDD@Z 004ba29c     msvcprtd:MSVCP140D.dll
 0004:000002a0       __imp_?fill@?$basic_ios@DU?$char_traits@D@std@@@std@@QBEDXZ 004ba2a0     msvcprtd:MSVCP140D.dll
 0004:000002a4       __imp_?rdbuf@?$basic_ios@DU?$char_traits@D@std@@@std@@QBEPAV?$basic_streambuf@DU?$char_traits@D@std@@@2@XZ 004ba2a4     msvcprtd:MSVCP140D.dll
 0004:000002a8       __imp_?tie@?$basic_ios@DU?$char_traits@D@std@@@std@@QBEPAV?$basic_ostream@DU?$char_traits@D@std@@@2@XZ 004ba2a8     msvcprtd:MSVCP140D.dll
 0004:000002ac       __imp_?setstate@?$basic_ios@DU?$char_traits@D@std@@@std@@QAEXH_N@Z 004ba2ac     msvcprtd:MSVCP140D.dll
 0004:000002b0       __imp_?sputn@?$basic_streambuf@DU?$char_traits@D@std@@@std@@QAE_JPBD_J@Z 004ba2b0     msvcprtd:MSVCP140D.dll
 0004:000002b4       __imp_?sputc@?$basic_streambuf@DU?$char_traits@D@std@@@std@@QAEHD@Z 004ba2b4     msvcprtd:MSVCP140D.dll
 0004:000002b8       __imp_?width@ios_base@std@@QAE_J_J@Z 004ba2b8     msvcprtd:MSVCP140D.dll
 0004:000002bc       __imp_?width@ios_base@std@@QBE_JXZ 004ba2bc     msvcprtd:MSVCP140D.dll
 0004:000002c0       __imp_?flags@ios_base@std@@QBEHXZ 004ba2c0     msvcprtd:MSVCP140D.dll
 0004:000002c4       __imp_?good@ios_base@std@@QBE_NXZ 004ba2c4     msvcprtd:MSVCP140D.dll
 0004:000002c8       __imp_?_Xout_of_range@std@@YAXPBD@Z 004ba2c8     msvcprtd:MSVCP140D.dll
 0004:000002cc       __imp_?_Xlength_error@std@@YAXPBD@Z 004ba2cc     msvcprtd:MSVCP140D.dll
 0004:000002d0       __imp_?_Xinvalid_argument@std@@YAXPBD@Z 004ba2d0     msvcprtd:MSVCP140D.dll
 0004:000002d4       __imp_?uncaught_exception@std@@YA_NXZ 004ba2d4     msvcprtd:MSVCP140D.dll
 0004:000002d8       __imp_??1_Lockit@std@@QAE@XZ 004ba2d8     msvcprtd:MSVCP140D.dll
 0004:000002dc       __imp_??0_Lockit@std@@QAE@H@Z 004ba2dc     msvcprtd:MSVCP140D.dll
 0004:000002e0       __imp_?setp@?$basic_streambuf@DU?$char_traits@D@std@@@std@@IAEXPAD00@Z 004ba2e0     msvcprtd:MSVCP140D.dll
 0004:000002e4       \177MSVCP140D_NULL_THUNK_DATA 004ba2e4     msvcprtd:MSVCP140D.dll
 0004:0000034c       __imp__FindWindowA@8       004ba34c     user32:USER32.dll
 0004:00000350       __imp__GetWindowRect@8     004ba350     user32:USER32.dll
 0004:00000354       __imp__GetForegroundWindow@0 004ba354     user32:USER32.dll
 0004:00000358       __imp__UpdateWindow@4      004ba358     user32:USER32.dll
 0004:0000035c       __imp__MoveWindow@24       004ba35c     user32:USER32.dll
 0004:00000360       __imp__SetLayeredWindowAttributes@16 004ba360     user32:USER32.dll
 0004:00000364       __imp__ShowWindow@8        004ba364     user32:USER32.dll
 0004:00000368       __imp__GetWindowThreadProcessId@8 004ba368     user32:USER32.dll
 0004:0000036c       __imp__CreateWindowExA@48  004ba36c     user32:USER32.dll
 0004:00000370       __imp__RegisterClassExA@4  004ba370     user32:USER32.dll
 0004:00000374       __imp__UnregisterClassA@8  004ba374     user32:USER32.dll
 0004:00000378       __imp__PostQuitMessage@4   004ba378     user32:USER32.dll
 0004:0000037c       __imp__DefWindowProcA@16   004ba37c     user32:USER32.dll
 0004:00000380       __imp__DispatchMessageA@4  004ba380     user32:USER32.dll
 0004:00000384       __imp__TranslateMessage@4  004ba384     user32:USER32.dll
 0004:00000388       __imp__GetMessageA@16      004ba388     user32:USER32.dll
 0004:0000038c       __imp__DestroyWindow@4     004ba38c     user32:USER32.dll
 0004:00000390       \177USER32_NULL_THUNK_DATA 004ba390     user32:USER32.dll
 0004:000003c8       __imp__strrchr             004ba3c8     vcruntimed:VCRUNTIME140D.dll
 0004:000003cc       __imp__memset              004ba3cc     vcruntimed:VCRUNTIME140D.dll
 0004:000003d0       __imp__strstr              004ba3d0     vcruntimed:VCRUNTIME140D.dll
 0004:000003d4       __imp__memcmp              004ba3d4     vcruntimed:VCRUNTIME140D.dll
 0004:000003d8       __imp__memcpy              004ba3d8     vcruntimed:VCRUNTIME140D.dll
 0004:000003dc       __imp__memmove             004ba3dc     vcruntimed:VCRUNTIME140D.dll
 0004:000003e0       __imp____std_exception_copy 004ba3e0     vcruntimed:VCRUNTIME140D.dll
 0004:000003e4       __imp____std_exception_destroy 004ba3e4     vcruntimed:VCRUNTIME140D.dll
 0004:000003e8       __imp___CxxThrowException@8 004ba3e8     vcruntimed:VCRUNTIME140D.dll
 0004:000003ec       __imp____CxxFrameHandler3  004ba3ec     vcruntimed:VCRUNTIME140D.dll
 0004:000003f0       __imp__memchr              004ba3f0     vcruntimed:VCRUNTIME140D.dll
 0004:000003f4       __imp____current_exception 004ba3f4     vcruntimed:VCRUNTIME140D.dll
 0004:000003f8       __imp____current_exception_context 004ba3f8     vcruntimed:VCRUNTIME140D.dll
 0004:000003fc       __imp___except_handler4_common 004ba3fc     vcruntimed:VCRUNTIME140D.dll
 0004:00000400       __imp____std_type_info_destroy_list 004ba400     vcruntimed:VCRUNTIME140D.dll
 0004:00000404       __imp____vcrt_GetModuleFileNameW 004ba404     vcruntimed:VCRUNTIME140D.dll
 0004:00000408       __imp____vcrt_GetModuleHandleW 004ba408     vcruntimed:VCRUNTIME140D.dll
 0004:0000040c       __imp____vcrt_LoadLibraryExW 004ba40c     vcruntimed:VCRUNTIME140D.dll
 0004:00000410       __imp__strchr              004ba410     vcruntimed:VCRUNTIME140D.dll
 0004:00000414       \177VCRUNTIME140D_NULL_THUNK_DATA 004ba414     vcruntimed:VCRUNTIME140D.dll
 0004:0000044c       __imp__ber_free            004ba44c     wldap32:WLDAP32.dll
 0004:00000450       __imp__ldap_memfree        004ba450     wldap32:WLDAP32.dll
 0004:00000454       __imp__ldap_get_dn         004ba454     wldap32:WLDAP32.dll
 0004:00000458       __imp__ldap_value_free_len 004ba458     wldap32:WLDAP32.dll
 0004:0000045c       __imp__ldap_get_values_len 004ba45c     wldap32:WLDAP32.dll
 0004:00000460       __imp__ldap_next_attribute 004ba460     wldap32:WLDAP32.dll
 0004:00000464       __imp__ldap_first_attribute 004ba464     wldap32:WLDAP32.dll
 0004:00000468       __imp__ldap_next_entry     004ba468     wldap32:WLDAP32.dll
 0004:0000046c       __imp__ldap_first_entry    004ba46c     wldap32:WLDAP32.dll
 0004:00000470       __imp__ldap_err2string     004ba470     wldap32:WLDAP32.dll
 0004:00000474       __imp__ldap_msgfree        004ba474     wldap32:WLDAP32.dll
 0004:00000478       __imp__ldap_search_s       004ba478     wldap32:WLDAP32.dll
 0004:0000047c       __imp__ldap_simple_bind_s  004ba47c     wldap32:WLDAP32.dll
 0004:00000480       __imp__ldap_set_option     004ba480     wldap32:WLDAP32.dll
 0004:00000484       __imp__ldap_unbind_s       004ba484     wldap32:WLDAP32.dll
 0004:00000488       __imp__ldap_sslinit        004ba488     wldap32:WLDAP32.dll
 0004:0000048c       __imp__ldap_init           004ba48c     wldap32:WLDAP32.dll
 0004:00000490       \177WLDAP32_NULL_THUNK_DATA 004ba490     wldap32:WLDAP32.dll
 0004:000004c8       __imp__accept@12           004ba4c8     ws2_32:WS2_32.dll
 0004:000004cc       __imp__htonl@4             004ba4cc     ws2_32:WS2_32.dll
 0004:000004d0       __imp__listen@8            004ba4d0     ws2_32:WS2_32.dll
 0004:000004d4       __imp__ioctlsocket@12      004ba4d4     ws2_32:WS2_32.dll
 0004:000004d8       __imp____WSAFDIsSet@8      004ba4d8     ws2_32:WS2_32.dll
 0004:000004dc       __imp__select@20           004ba4dc     ws2_32:WS2_32.dll
 0004:000004e0       __imp__getaddrinfo@16      004ba4e0     ws2_32:WS2_32.dll
 0004:000004e4       __imp__WSACleanup@0        004ba4e4     ws2_32:WS2_32.dll
 0004:000004e8       __imp__WSACloseEvent@4     004ba4e8     ws2_32:WS2_32.dll
 0004:000004ec       __imp__WSACreateEvent@0    004ba4ec     ws2_32:WS2_32.dll
 0004:000004f0       __imp__WSAEnumNetworkEvents@12 004ba4f0     ws2_32:WS2_32.dll
 0004:000004f4       __imp__WSAEventSelect@12   004ba4f4     ws2_32:WS2_32.dll
 0004:000004f8       __imp__recvfrom@24         004ba4f8     ws2_32:WS2_32.dll
 0004:000004fc       __imp__sendto@24           004ba4fc     ws2_32:WS2_32.dll
 0004:00000500       __imp__gethostname@8       004ba500     ws2_32:WS2_32.dll
 0004:00000504       __imp__closesocket@4       004ba504     ws2_32:WS2_32.dll
 0004:00000508       __imp__WSAStartup@8        004ba508     ws2_32:WS2_32.dll
 0004:0000050c       __imp__WSAIoctl@36         004ba50c     ws2_32:WS2_32.dll
 0004:00000510       __imp__WSASetLastError@4   004ba510     ws2_32:WS2_32.dll
 0004:00000514       __imp__socket@12           004ba514     ws2_32:WS2_32.dll
 0004:00000518       __imp__setsockopt@20       004ba518     ws2_32:WS2_32.dll
 0004:0000051c       __imp__ntohs@4             004ba51c     ws2_32:WS2_32.dll
 0004:00000520       __imp__htons@4             004ba520     ws2_32:WS2_32.dll
 0004:00000524       __imp__getsockopt@20       004ba524     ws2_32:WS2_32.dll
 0004:00000528       __imp__getsockname@12      004ba528     ws2_32:WS2_32.dll
 0004:0000052c       __imp__getpeername@12      004ba52c     ws2_32:WS2_32.dll
 0004:00000530       __imp__connect@12          004ba530     ws2_32:WS2_32.dll
 0004:00000534       __imp__bind@12             004ba534     ws2_32:WS2_32.dll
 0004:00000538       __imp__WSAGetLastError@0   004ba538     ws2_32:WS2_32.dll
 0004:0000053c       __imp__send@16             004ba53c     ws2_32:WS2_32.dll
 0004:00000540       __imp__recv@16             004ba540     ws2_32:WS2_32.dll
 0004:00000544       __imp__freeaddrinfo@4      004ba544     ws2_32:WS2_32.dll
 0004:00000548       \177WS2_32_NULL_THUNK_DATA 004ba548     ws2_32:WS2_32.dll
 0004:0000058c       __imp__Direct3DCreate9@4   004ba58c     d3d9:d3d9.dll
 0004:00000590       \177d3d9_NULL_THUNK_DATA   004ba590     d3d9:d3d9.dll
 0004:000005bc       __imp__D3DXCreateLine@8    004ba5bc     d3dx9:d3dx9_43.dll
 0004:000005c0       \177d3dx9_43_NULL_THUNK_DATA 004ba5c0     d3dx9:d3dx9_43.dll
 0004:000005ec       __imp___configthreadlocale 004ba5ec     ucrtd:ucrtbased.dll
 0004:000005f0       __imp___set_new_mode       004ba5f0     ucrtd:ucrtbased.dll
 0004:000005f4       __imp____p__commode        004ba5f4     ucrtd:ucrtbased.dll
 0004:000005f8       __imp__strcpy_s            004ba5f8     ucrtd:ucrtbased.dll
 0004:000005fc       __imp__strcat_s            004ba5fc     ucrtd:ucrtbased.dll
 0004:00000600       __imp____stdio_common_vsprintf_s 004ba600     ucrtd:ucrtbased.dll
 0004:00000604       __imp___controlfp_s        004ba604     ucrtd:ucrtbased.dll
 0004:00000608       __imp___wmakepath_s        004ba608     ucrtd:ucrtbased.dll
 0004:0000060c       __imp___wsplitpath_s       004ba60c     ucrtd:ucrtbased.dll
 0004:00000610       __imp__wcscpy_s            004ba610     ucrtd:ucrtbased.dll
 0004:00000614       __imp__free                004ba614     ucrtd:ucrtbased.dll
 0004:00000618       __imp__realloc             004ba618     ucrtd:ucrtbased.dll
 0004:0000061c       __imp__calloc              004ba61c     ucrtd:ucrtbased.dll
 0004:00000620       __imp__strncmp             004ba620     ucrtd:ucrtbased.dll
 0004:00000624       __imp__fputs               004ba624     ucrtd:ucrtbased.dll
 0004:00000628       __imp____stdio_common_vsscanf 004ba628     ucrtd:ucrtbased.dll
 0004:0000062c       __imp___time64             004ba62c     ucrtd:ucrtbased.dll
 0004:00000630       __imp__qsort               004ba630     ucrtd:ucrtbased.dll
 0004:00000634       __imp__feof                004ba634     ucrtd:ucrtbased.dll
 0004:00000638       __imp__fseek               004ba638     ucrtd:ucrtbased.dll
 0004:0000063c       __imp___exit               004ba63c     ucrtd:ucrtbased.dll
 0004:00000640       __imp__strerror            004ba640     ucrtd:ucrtbased.dll
 0004:00000644       __imp__strtoul             004ba644     ucrtd:ucrtbased.dll
 0004:00000648       __imp__atoi                004ba648     ucrtd:ucrtbased.dll
 0004:0000064c       __imp___mbspbrk            004ba64c     ucrtd:ucrtbased.dll
 0004:00000650       __imp__fopen               004ba650     ucrtd:ucrtbased.dll
 0004:00000654       __imp___access             004ba654     ucrtd:ucrtbased.dll
 0004:00000658       __imp___open               004ba658     ucrtd:ucrtbased.dll
 0004:0000065c       __imp___stat64             004ba65c     ucrtd:ucrtbased.dll
 0004:00000660       __imp___gmtime64           004ba660     ucrtd:ucrtbased.dll
 0004:00000664       __imp___beginthreadex      004ba664     ucrtd:ucrtbased.dll
 0004:00000668       __imp__strpbrk             004ba668     ucrtd:ucrtbased.dll
 0004:0000066c       __imp__strncpy             004ba66c     ucrtd:ucrtbased.dll
 0004:00000670       __imp___lseeki64           004ba670     ucrtd:ucrtbased.dll
 0004:00000674       __imp___fstat64            004ba674     ucrtd:ucrtbased.dll
 0004:00000678       __imp___getpid             004ba678     ucrtd:ucrtbased.dll
 0004:0000067c       __imp__strcspn             004ba67c     ucrtd:ucrtbased.dll
 0004:00000680       __imp__strspn              004ba680     ucrtd:ucrtbased.dll
 0004:00000684       __imp____sys_nerr          004ba684     ucrtd:ucrtbased.dll
 0004:00000688       __imp__wcstombs            004ba688     ucrtd:ucrtbased.dll
 0004:0000068c       __imp__strftime            004ba68c     ucrtd:ucrtbased.dll
 0004:00000690       __imp___except1            004ba690     ucrtd:ucrtbased.dll
 0004:00000694       __imp__write               004ba694     ucrtd:ucrtbased.dll
 0004:00000694       __imp___write              004ba694     ucrtd:ucrtbased.dll
 0004:00000698       __imp__exit                004ba698     ucrtd:ucrtbased.dll
 0004:0000069c       __imp___initterm_e         004ba69c     ucrtd:ucrtbased.dll
 0004:000006a0       __imp___initterm           004ba6a0     ucrtd:ucrtbased.dll
 0004:000006a4       __imp___c_exit             004ba6a4     ucrtd:ucrtbased.dll
 0004:000006a8       __imp____setusermatherr    004ba6a8     ucrtd:ucrtbased.dll
 0004:000006ac       __imp___set_app_type       004ba6ac     ucrtd:ucrtbased.dll
 0004:000006b0       __imp___seh_filter_exe     004ba6b0     ucrtd:ucrtbased.dll
 0004:000006b4       __imp___cexit              004ba6b4     ucrtd:ucrtbased.dll
 0004:000006b8       __imp___crt_at_quick_exit  004ba6b8     ucrtd:ucrtbased.dll
 0004:000006bc       __imp___crt_atexit         004ba6bc     ucrtd:ucrtbased.dll
 0004:000006c0       __imp___execute_onexit_table 004ba6c0     ucrtd:ucrtbased.dll
 0004:000006c4       __imp___register_onexit_function 004ba6c4     ucrtd:ucrtbased.dll
 0004:000006c8       __imp___initialize_onexit_table 004ba6c8     ucrtd:ucrtbased.dll
 0004:000006cc       __imp___initialize_narrow_environment 004ba6cc     ucrtd:ucrtbased.dll
 0004:000006d0       __imp___configure_narrow_argv 004ba6d0     ucrtd:ucrtbased.dll
 0004:000006d4       __imp___seh_filter_dll     004ba6d4     ucrtd:ucrtbased.dll
 0004:000006d8       __imp__terminate           004ba6d8     ucrtd:ucrtbased.dll
 0004:000006dc       __imp__malloc              004ba6dc     ucrtd:ucrtbased.dll
 0004:000006e0       __imp___callnewh           004ba6e0     ucrtd:ucrtbased.dll
 0004:000006e4       __imp___CrtDbgReportW      004ba6e4     ucrtd:ucrtbased.dll
 0004:000006e8       __imp___malloc_dbg         004ba6e8     ucrtd:ucrtbased.dll
 0004:000006ec       __imp___free_dbg           004ba6ec     ucrtd:ucrtbased.dll
 0004:000006f0       __imp___unlock_file        004ba6f0     ucrtd:ucrtbased.dll
 0004:000006f4       __imp___lock_file          004ba6f4     ucrtd:ucrtbased.dll
 0004:000006f8       __imp__ungetc              004ba6f8     ucrtd:ucrtbased.dll
 0004:000006fc       __imp__setvbuf             004ba6fc     ucrtd:ucrtbased.dll
 0004:00000700       __imp___popen              004ba700     ucrtd:ucrtbased.dll
 0004:00000704       __imp___pclose             004ba704     ucrtd:ucrtbased.dll
 0004:00000708       __imp__fwrite              004ba708     ucrtd:ucrtbased.dll
 0004:0000070c       __imp___fseeki64           004ba70c     ucrtd:ucrtbased.dll
 0004:00000710       __imp__fsetpos             004ba710     ucrtd:ucrtbased.dll
 0004:00000714       __imp__fread               004ba714     ucrtd:ucrtbased.dll
 0004:00000718       __imp__fputc               004ba718     ucrtd:ucrtbased.dll
 0004:0000071c       __imp__fgets               004ba71c     ucrtd:ucrtbased.dll
 0004:00000720       __imp__fgetpos             004ba720     ucrtd:ucrtbased.dll
 0004:00000724       __imp__fgetc               004ba724     ucrtd:ucrtbased.dll
 0004:00000728       __imp__fflush              004ba728     ucrtd:ucrtbased.dll
 0004:0000072c       __imp__fclose              004ba72c     ucrtd:ucrtbased.dll
 0004:00000730       __imp___get_stream_buffer_pointers 004ba730     ucrtd:ucrtbased.dll
 0004:00000734       __imp__system              004ba734     ucrtd:ucrtbased.dll
 0004:00000738       __imp__strtoll             004ba738     ucrtd:ucrtbased.dll
 0004:0000073c       __imp___localtime64        004ba73c     ucrtd:ucrtbased.dll
 0004:00000740       __imp____stdio_common_vsprintf 004ba740     ucrtd:ucrtbased.dll
 0004:00000744       __imp___CrtDbgReport       004ba744     ucrtd:ucrtbased.dll
 0004:00000748       __imp__strtol              004ba748     ucrtd:ucrtbased.dll
 0004:0000074c       __imp__strlen              004ba74c     ucrtd:ucrtbased.dll
 0004:00000750       __imp___errno              004ba750     ucrtd:ucrtbased.dll
 0004:00000754       __imp___invalid_parameter  004ba754     ucrtd:ucrtbased.dll
 0004:00000758       __imp__freopen_s           004ba758     ucrtd:ucrtbased.dll
 0004:0000075c       __imp____acrt_iob_func     004ba75c     ucrtd:ucrtbased.dll
 0004:00000760       __imp___register_thread_local_exe_atexit_callback 004ba760     ucrtd:ucrtbased.dll
 0004:00000764       __imp___get_narrow_winmain_command_line 004ba764     ucrtd:ucrtbased.dll
 0004:00000768       __imp___set_fmode          004ba768     ucrtd:ucrtbased.dll
 0004:0000076c       __imp__tolower             004ba76c     ucrtd:ucrtbased.dll
 0004:00000770       __imp__strdup              004ba770     ucrtd:ucrtbased.dll
 0004:00000770       __imp___strdup             004ba770     ucrtd:ucrtbased.dll
 0004:00000774       __imp__unlink              004ba774     ucrtd:ucrtbased.dll
 0004:00000774       __imp___unlink             004ba774     ucrtd:ucrtbased.dll
 0004:00000778       __imp__read                004ba778     ucrtd:ucrtbased.dll
 0004:00000778       __imp___read               004ba778     ucrtd:ucrtbased.dll
 0004:0000077c       __imp__close               004ba77c     ucrtd:ucrtbased.dll
 0004:0000077c       __imp___close              004ba77c     ucrtd:ucrtbased.dll
 0004:00000780       \177ucrtbased_NULL_THUNK_DATA 004ba780     ucrtd:ucrtbased.dll
 0004:000007fc       __IMPORT_DESCRIPTOR_KERNEL32 004ba7fc     kernel32:KERNEL32.dll
 0004:00000810       __IMPORT_DESCRIPTOR_USER32 004ba810     user32:USER32.dll
 0004:00000824       __IMPORT_DESCRIPTOR_GDI32  004ba824     gdi32:GDI32.dll
 0004:00000838       __IMPORT_DESCRIPTOR_ADVAPI32 004ba838     advapi32:ADVAPI32.dll
 0004:0000084c       __IMPORT_DESCRIPTOR_MSVCP140D 004ba84c     msvcprtd:MSVCP140D.dll
 0004:00000860       __IMPORT_DESCRIPTOR_d3d9   004ba860     d3d9:d3d9.dll
 0004:00000874       __IMPORT_DESCRIPTOR_d3dx9_43 004ba874     d3dx9:d3dx9_43.dll
 0004:00000888       __IMPORT_DESCRIPTOR_WS2_32 004ba888     ws2_32:WS2_32.dll
 0004:0000089c       __IMPORT_DESCRIPTOR_WLDAP32 004ba89c     wldap32:WLDAP32.dll
 0004:000008b0       __IMPORT_DESCRIPTOR_VCRUNTIME140D 004ba8b0     vcruntimed:VCRUNTIME140D.dll
 0004:000008c4       __IMPORT_DESCRIPTOR_ucrtbased 004ba8c4     ucrtd:ucrtbased.dll
 0004:000008d8       __NULL_IMPORT_DESCRIPTOR   004ba8d8     kernel32:KERNEL32.dll
 0006:00000000       ___guard_check_icall_fptr  004bf000     MSVCRTD:guard_support.obj
 0006:00000004       ___guard_xfg_check_icall_fptr 004bf004     MSVCRTD:guard_support.obj

 entry point at        0001:0000005a

 Static symbols

 0002:fff5c000       __catchsym$??$?6U?$char_traits@D@std@@@std@@YAAAV?$basic_ostream@DU?$char_traits@D@std@@@0@AAV10@PBD@Z$3 00400000     systeminfo.obj
 0002:fff5c000       __ehfuncinfo$??$_Deallocate@$07$0A@@std@@YAXPAXI@Z 00400000     systeminfo.obj
 0002:fff5c000       __ehfuncinfo$??$_Deallocate_plain@V?$allocator@U_Container_proxy@std@@@std@@@std@@YAXAAV?$allocator@U_Container_proxy@std@@@0@QAU_Container_proxy@0@@Z 00400000     systeminfo.obj
 0002:fff5c000       __ehfuncinfo$??$_Destroy_range@V?$allocator@VCPUInfo@@@std@@@std@@YAXPAVCPUInfo@@QAV1@AAV?$allocator@VCPUInfo@@@0@@Z 00400000     systeminfo.obj
 0002:fff5c000       __ehfuncinfo$??$_Destroy_range@V?$allocator@VGPUInfo@@@std@@@std@@YAXPAVGPUInfo@@QAV1@AAV?$allocator@VGPUInfo@@@0@@Z 00400000     systeminfo.obj
 0002:fff5c000       __ehfuncinfo$??$_Destroy_range@V?$allocator@VMotherboardInfo@@@std@@@std@@YAXPAVMotherboardInfo@@QAV1@AAV?$allocator@VMotherboardInfo@@@0@@Z 00400000     systeminfo.obj
 0002:fff5c000       __ehfuncinfo$??$_Destroy_range@V?$allocator@VOSInfo@@@std@@@std@@YAXPAVOSInfo@@QAV1@AAV?$allocator@VOSInfo@@@0@@Z 00400000     systeminfo.obj
 0002:fff5c000       __ehfuncinfo$??$_Destroy_range@V?$allocator@VRAMInfo@@@std@@@std@@YAXPAVRAMInfo@@QAV1@AAV?$allocator@VRAMInfo@@@0@@Z 00400000     systeminfo.obj
 0002:fff5c000       __ehfuncinfo$??0?$basic_string@DU?$char_traits@D@std@@V?$allocator@D@2@@std@@QAE@$$QAV01@@Z 00400000     systeminfo.obj
 0002:fff5c000       __ehfuncinfo$??0?$basic_string@DU?$char_traits@D@std@@V?$allocator@D@2@@std@@QAE@XZ 00400000     systeminfo.obj
 0002:fff5c000       __ehfuncinfo$??1_Sentry_base@?$basic_ostream@DU?$char_traits@D@std@@@std@@QAE@XZ 00400000     systeminfo.obj
 0002:fff5c000       __ehfuncinfo$??1sentry@?$basic_ostream@DU?$char_traits@D@std@@@std@@QAE@XZ 00400000     systeminfo.obj
 0002:fff5c000       __ehfuncinfo$?_Take_contents@?$basic_string@DU?$char_traits@D@std@@V?$allocator@D@2@@std@@AAEXAAV12@U?$integral_constant@_N$00@2@@Z 00400000     systeminfo.obj
 0002:fff5c000       __ehfuncinfo$?_Tidy@?$vector@VCPUInfo@@V?$allocator@VCPUInfo@@@std@@@std@@AAEXXZ 00400000     systeminfo.obj
 0002:fff5c000       __ehfuncinfo$?_Tidy@?$vector@VGPUInfo@@V?$allocator@VGPUInfo@@@std@@@std@@AAEXXZ 00400000     systeminfo.obj
 0002:fff5c000       __ehfuncinfo$?_Tidy@?$vector@VMotherboardInfo@@V?$allocator@VMotherboardInfo@@@std@@@std@@AAEXXZ 00400000     systeminfo.obj
 0002:fff5c000       __ehfuncinfo$?_Tidy@?$vector@VOSInfo@@V?$allocator@VOSInfo@@@std@@@std@@AAEXXZ 00400000     systeminfo.obj
 0002:fff5c000       __ehfuncinfo$?_Tidy@?$vector@VRAMInfo@@V?$allocator@VRAMInfo@@@std@@@std@@AAEXXZ 00400000     systeminfo.obj
 0002:fff5c000       __ehfuncinfo$?_Tidy_deallocate@?$basic_string@DU?$char_traits@D@std@@V?$allocator@D@2@@std@@AAEXXZ 00400000     systeminfo.obj
 0001:fffff000       __ehhandler$??$_Deallocate@$07$0A@@std@@YAXPAXI@Z 00400000 f   systeminfo.obj
 0001:fffff000       __ehhandler$??$_Deallocate_plain@V?$allocator@U_Container_proxy@std@@@std@@@std@@YAXAAV?$allocator@U_Container_proxy@std@@@0@QAU_Container_proxy@0@@Z 00400000 f   systeminfo.obj
 0001:fffff000       __ehhandler$??$_Destroy_range@V?$allocator@VCPUInfo@@@std@@@std@@YAXPAVCPUInfo@@QAV1@AAV?$allocator@VCPUInfo@@@0@@Z 00400000 f   systeminfo.obj
 0001:fffff000       __ehhandler$??$_Destroy_range@V?$allocator@VGPUInfo@@@std@@@std@@YAXPAVGPUInfo@@QAV1@AAV?$allocator@VGPUInfo@@@0@@Z 00400000 f   systeminfo.obj
 0001:fffff000       __ehhandler$??$_Destroy_range@V?$allocator@VMotherboardInfo@@@std@@@std@@YAXPAVMotherboardInfo@@QAV1@AAV?$allocator@VMotherboardInfo@@@0@@Z 00400000 f   systeminfo.obj
 0001:fffff000       __ehhandler$??$_Destroy_range@V?$allocator@VOSInfo@@@std@@@std@@YAXPAVOSInfo@@QAV1@AAV?$allocator@VOSInfo@@@0@@Z 00400000 f   systeminfo.obj
 0001:fffff000       __ehhandler$??$_Destroy_range@V?$allocator@VRAMInfo@@@std@@@std@@YAXPAVRAMInfo@@QAV1@AAV?$allocator@VRAMInfo@@@0@@Z 00400000 f   systeminfo.obj
 0001:fffff000       __ehhandler$??0?$basic_string@DU?$char_traits@D@std@@V?$allocator@D@2@@std@@QAE@$$QAV01@@Z 00400000 f   systeminfo.obj
 0001:fffff000       __ehhandler$??0?$basic_string@DU?$char_traits@D@std@@V?$allocator@D@2@@std@@QAE@XZ 00400000 f   systeminfo.obj
 0001:fffff000       __ehhandler$??1_Sentry_base@?$basic_ostream@DU?$char_traits@D@std@@@std@@QAE@XZ 00400000 f   systeminfo.obj
 0001:fffff000       __ehhandler$??1sentry@?$basic_ostream@DU?$char_traits@D@std@@@std@@QAE@XZ 00400000 f   systeminfo.obj
 0001:fffff000       __ehhandler$?_Take_contents@?$basic_string@DU?$char_traits@D@std@@V?$allocator@D@2@@std@@AAEXAAV12@U?$integral_constant@_N$00@2@@Z 00400000 f   systeminfo.obj
 0001:fffff000       __ehhandler$?_Tidy@?$vector@VCPUInfo@@V?$allocator@VCPUInfo@@@std@@@std@@AAEXXZ 00400000 f   systeminfo.obj
 0001:fffff000       __ehhandler$?_Tidy@?$vector@VGPUInfo@@V?$allocator@VGPUInfo@@@std@@@std@@AAEXXZ 00400000 f   systeminfo.obj
 0001:fffff000       __ehhandler$?_Tidy@?$vector@VMotherboardInfo@@V?$allocator@VMotherboardInfo@@@std@@@std@@AAEXXZ 00400000 f   systeminfo.obj
 0001:fffff000       __ehhandler$?_Tidy@?$vector@VOSInfo@@V?$allocator@VOSInfo@@@std@@@std@@AAEXXZ 00400000 f   systeminfo.obj
 0001:fffff000       __ehhandler$?_Tidy@?$vector@VRAMInfo@@V?$allocator@VRAMInfo@@@std@@@std@@AAEXXZ 00400000 f   systeminfo.obj
 0001:fffff000       __ehhandler$?_Tidy_deallocate@?$basic_string@DU?$char_traits@D@std@@V?$allocator@D@2@@std@@AAEXXZ 00400000 f   systeminfo.obj
 0001:fffff000       __unwindfunclet$??$?6U?$char_traits@D@std@@@std@@YAAAV?$basic_ostream@DU?$char_traits@D@std@@@0@AAV10@PBD@Z$2 00400000 f   systeminfo.obj
 0001:fffff000       __unwindfunclet$??0?$basic_string@DU?$char_traits@D@std@@V?$allocator@D@2@@std@@QAE@ABV01@IIABV?$allocator@D@1@@Z$0 00400000 f   systeminfo.obj
 0001:fffff000       __unwindfunclet$??0?$basic_string@DU?$char_traits@D@std@@V?$allocator@D@2@@std@@QAE@QBD@Z$0 00400000 f   systeminfo.obj
 0001:fffff000       __unwindfunclet$??0sentry@?$basic_ostream@DU?$char_traits@D@std@@@std@@QAE@AAV12@@Z$0 00400000 f   systeminfo.obj
 0002:fff5c000       __unwindtable$??0?$basic_string@DU?$char_traits@D@std@@V?$allocator@D@2@@std@@QAE@ABV01@IIABV?$allocator@D@1@@Z 00400000     systeminfo.obj
 0002:fff5c000       __unwindtable$??0?$basic_string@DU?$char_traits@D@std@@V?$allocator@D@2@@std@@QAE@QBD@Z 00400000     systeminfo.obj
 0002:fff5c000       __unwindtable$??0sentry@?$basic_ostream@DU?$char_traits@D@std@@@std@@QAE@AAV12@@Z 00400000     systeminfo.obj
 0000:fff42000       __guard_fids___except_handler4 00400000     MSVCRTD:chandler4gs.obj
 0000:fff42000       __guard_fids_?pre_c_initialization@@YAHXZ 00400000     MSVCRTD:exe_winmain.obj
 0000:fff42000       __guard_fids__             00400000     MSVCRTD:exe_winmain.obj
 0000:fff42000       __guard_fids__             00400000     MSVCRTD:guard_support.obj
 0000:fff42000       __guard_fids__             00400000     MSVCRTD:guard_support.obj
 0000:fff42000       __guard_fids___guard_icall_checks_enforced 00400000     MSVCRTD:guard_support.obj
 0000:fff42000       __guard_fids___CRT_RTC_INIT 00400000     MSVCRTD:init.obj
 0000:fff42000       __guard_fids___CRT_RTC_INITW 00400000     MSVCRTD:init.obj
 0000:fff42000       __guard_fids__             00400000     MSVCRTD:std_type_info_static.obj
 0000:fff42000       __guard_fids__             00400000     MSVCRTD:throw_bad_alloc.obj
 0000:fff42000       __guard_fids__             00400000     MSVCRTD:throw_bad_alloc.obj
 0000:fff42000       __guard_fids__             00400000     MSVCRTD:throw_bad_alloc.obj
 0000:fff42000       __guard_fids__             00400000     MSVCRTD:throw_bad_alloc.obj
 0000:fff42000       __guard_fids__             00400000     MSVCRTD:throw_bad_alloc.obj
 0000:fff42000       __guard_fids__             00400000     MSVCRTD:throw_bad_alloc.obj
 0000:fff42000       __guard_fids__             00400000     MSVCRTD:throw_bad_alloc.obj
 0000:fff42000       __guard_fids__             00400000     MSVCRTD:throw_bad_alloc.obj
 0000:fff42000       __guard_fids____scrt_set_unhandled_exception_filter 00400000     MSVCRTD:utility_desktop.obj
 0000:00000000       .debug$S                   00400000     msvcprtd:MSVCP140D.dll
 0000:00000000       .debug$S                   00400000     msvcprtd:MSVCP140D.dll
 0000:00000000       .debug$S                   00400000     msvcprtd:MSVCP140D.dll
 0000:00000000       .debug$S                   00400000     msvcprtd:MSVCP140D.dll
 0000:00000000       .debug$S                   00400000     msvcprtd:MSVCP140D.dll
 0000:00000000       .debug$S                   00400000     msvcprtd:MSVCP140D.dll
 0000:00000000       .debug$S                   00400000     msvcprtd:MSVCP140D.dll
 0000:00000000       .debug$S                   00400000     msvcprtd:MSVCP140D.dll
 0000:00000000       .debug$S                   00400000     msvcprtd:MSVCP140D.dll
 0000:00000000       .debug$S                   00400000     msvcprtd:MSVCP140D.dll
 0000:00000000       .debug$S                   00400000     msvcprtd:MSVCP140D.dll
 0000:00000000       .debug$S                   00400000     msvcprtd:MSVCP140D.dll
 0000:00000000       .debug$S                   00400000     msvcprtd:MSVCP140D.dll
 0000:00000000       .debug$S                   00400000     msvcprtd:MSVCP140D.dll
 0000:00000000       .debug$S                   00400000     msvcprtd:MSVCP140D.dll
 0000:00000000       .debug$S                   00400000     msvcprtd:MSVCP140D.dll
 0000:00000000       .debug$S                   00400000     msvcprtd:MSVCP140D.dll
 0000:00000000       .debug$S                   00400000     msvcprtd:MSVCP140D.dll
 0000:00000000       .debug$S                   00400000     msvcprtd:MSVCP140D.dll
 0000:00000000       .debug$S                   00400000     msvcprtd:MSVCP140D.dll
 0000:00000000       .debug$S                   00400000     msvcprtd:MSVCP140D.dll
 0000:00000000       .debug$S                   00400000     msvcprtd:MSVCP140D.dll
 0000:00000000       .debug$S                   00400000     msvcprtd:MSVCP140D.dll
 0000:00000000       .debug$S                   00400000     msvcprtd:MSVCP140D.dll
 0000:00000000       .debug$S                   00400000     msvcprtd:MSVCP140D.dll
 0000:00000000       .debug$S                   00400000     msvcprtd:MSVCP140D.dll
 0000:00000000       .debug$S                   00400000     msvcprtd:MSVCP140D.dll
 0000:00000000       .debug$S                   00400000     msvcprtd:MSVCP140D.dll
 0000:00000000       .debug$S                   00400000     msvcprtd:MSVCP140D.dll
 0000:00000000       .debug$S                   00400000     msvcprtd:MSVCP140D.dll
 0000:00000000       .debug$S                   00400000     msvcprtd:MSVCP140D.dll
 0000:00000000       .debug$S                   00400000     msvcprtd:MSVCP140D.dll
 0000:00000000       .debug$S                   00400000     msvcprtd:MSVCP140D.dll
 0000:00000000       .debug$S                   00400000     msvcprtd:MSVCP140D.dll
 0000:00000000       .debug$S                   00400000     msvcprtd:MSVCP140D.dll
 0000:00000000       .debug$S                   00400000     msvcprtd:MSVCP140D.dll
 0000:00000000       .debug$S                   00400000     msvcprtd:MSVCP140D.dll
 0000:00000000       .debug$S                   00400000     msvcprtd:MSVCP140D.dll
 0000:00000000       .debug$S                   00400000     msvcprtd:MSVCP140D.dll
 0000:00000000       .debug$S                   00400000     msvcprtd:MSVCP140D.dll
 0000:00000000       .debug$S                   00400000     msvcprtd:MSVCP140D.dll
 0000:00000000       .debug$S                   00400000     msvcprtd:MSVCP140D.dll
 0000:00000000       .debug$S                   00400000     msvcprtd:MSVCP140D.dll
 0000:00000000       .debug$S                   00400000     msvcprtd:MSVCP140D.dll
 0000:00000000       .debug$S                   00400000     msvcprtd:MSVCP140D.dll
 0000:00000000       .debug$S                   00400000     msvcprtd:MSVCP140D.dll
 0000:00000000       .debug$S                   00400000     msvcprtd:MSVCP140D.dll
 0000:00000000       .debug$S                   00400000     msvcprtd:MSVCP140D.dll
 0000:00000000       .debug$S                   00400000     msvcprtd:MSVCP140D.dll
 0000:00000000       .debug$S                   00400000     msvcprtd:MSVCP140D.dll
 0000:00000000       .debug$S                   00400000     msvcprtd:MSVCP140D.dll
 0000:00000000       .debug$S                   00400000     msvcprtd:MSVCP140D.dll
 0000:00000000       .debug$S                   00400000     msvcprtd:MSVCP140D.dll
 0000:00000000       .debug$S                   00400000     msvcprtd:MSVCP140D.dll
 0000:00000000       .debug$S                   00400000     msvcprtd:MSVCP140D.dll
 0000:00000000       .debug$S                   00400000     msvcprtd:MSVCP140D.dll
 0000:00000000       .debug$S                   00400000     msvcprtd:MSVCP140D.dll
 0000:00000000       .debug$S                   00400000     msvcprtd:MSVCP140D.dll
 0000:00000000       .debug$S                   00400000     msvcprtd:MSVCP140D.dll
 0000:00000000       .debug$S                   00400000     msvcprtd:MSVCP140D.dll
 0000:00000000       .debug$S                   00400000     msvcprtd:MSVCP140D.dll
 0000:00000000       .debug$S                   00400000     msvcprtd:MSVCP140D.dll
 0000:00000000       .debug$S                   00400000     msvcprtd:MSVCP140D.dll
 0000:00000000       .debug$S                   00400000     msvcprtd:MSVCP140D.dll
 0000:00000000       .debug$S                   00400000     msvcprtd:MSVCP140D.dll
 0000:00000000       .debug$S                   00400000     msvcprtd:MSVCP140D.dll
 0000:00000000       .debug$S                   00400000     msvcprtd:MSVCP140D.dll
 0000:00000000       .debug$S                   00400000     msvcprtd:MSVCP140D.dll
 0000:00000000       .debug$S                   00400000     msvcprtd:MSVCP140D.dll
 0000:00000000       .debug$S                   00400000     msvcprtd:MSVCP140D.dll
 0000:00000000       .debug$S                   00400000     msvcprtd:MSVCP140D.dll
 0000:00000000       .debug$S                   00400000     msvcprtd:MSVCP140D.dll
 0000:00000000       .debug$S                   00400000     msvcprtd:MSVCP140D.dll
 0000:00000000       .debug$S                   00400000     msvcprtd:MSVCP140D.dll
 0000:00000000       .debug$S                   00400000     msvcprtd:MSVCP140D.dll
 0000:fff42000       __guard_fids_??__F_Fac_tidy_reg@std@@YAXXZ 00400000     msvcprtd:locale0_implib.obj
 0000:fff42000       __guard_fids__             00400000     msvcprtd:locale0_implib.obj
 0000:00000000       .debug$S                   00400000     vcruntimed:VCRUNTIME140D.dll
 0000:00000000       .debug$S                   00400000     vcruntimed:VCRUNTIME140D.dll
 0000:00000000       .debug$S                   00400000     vcruntimed:VCRUNTIME140D.dll
 0000:00000000       .debug$S                   00400000     vcruntimed:VCRUNTIME140D.dll
 0000:00000000       .debug$S                   00400000     vcruntimed:VCRUNTIME140D.dll
 0000:00000000       .debug$S                   00400000     vcruntimed:VCRUNTIME140D.dll
 0000:00000000       .debug$S                   00400000     vcruntimed:VCRUNTIME140D.dll
 0000:00000000       .debug$S                   00400000     vcruntimed:VCRUNTIME140D.dll
 0000:00000000       .debug$S                   00400000     vcruntimed:VCRUNTIME140D.dll
 0000:00000000       .debug$S                   00400000     vcruntimed:VCRUNTIME140D.dll
 0000:00000000       .debug$S                   00400000     vcruntimed:VCRUNTIME140D.dll
 0000:00000000       .debug$S                   00400000     vcruntimed:VCRUNTIME140D.dll
 0000:00000000       .debug$S                   00400000     vcruntimed:VCRUNTIME140D.dll
 0000:00000000       .debug$S                   00400000     vcruntimed:VCRUNTIME140D.dll
 0000:00000000       .debug$S                   00400000     vcruntimed:VCRUNTIME140D.dll
 0000:00000000       .debug$S                   00400000     vcruntimed:VCRUNTIME140D.dll
 0000:00000000       .debug$S                   00400000     vcruntimed:VCRUNTIME140D.dll
 0000:00000000       .debug$S                   00400000     vcruntimed:VCRUNTIME140D.dll
 0000:00000000       .debug$S                   00400000     vcruntimed:VCRUNTIME140D.dll
 0000:00000000       .debug$S                   00400000     ucrtd:ucrtbased.dll
 0000:00000000       .debug$S                   00400000     ucrtd:ucrtbased.dll
 0000:00000000       .debug$S                   00400000     ucrtd:ucrtbased.dll
 0000:00000000       .debug$S                   00400000     ucrtd:ucrtbased.dll
 0000:00000000       .debug$S                   00400000     ucrtd:ucrtbased.dll
 0000:00000000       .debug$S                   00400000     ucrtd:ucrtbased.dll
 0000:00000000       .debug$S                   00400000     ucrtd:ucrtbased.dll
 0000:00000000       .debug$S                   00400000     ucrtd:ucrtbased.dll
 0000:00000000       .debug$S                   00400000     ucrtd:ucrtbased.dll
 0000:00000000       .debug$S                   00400000     ucrtd:ucrtbased.dll
 0000:00000000       .debug$S                   00400000     ucrtd:ucrtbased.dll
 0000:00000000       .debug$S                   00400000     ucrtd:ucrtbased.dll
 0000:00000000       .debug$S                   00400000     ucrtd:ucrtbased.dll
 0000:00000000       .debug$S                   00400000     ucrtd:ucrtbased.dll
 0000:00000000       .debug$S                   00400000     ucrtd:ucrtbased.dll
 0000:00000000       .debug$S                   00400000     ucrtd:ucrtbased.dll
 0000:00000000       .debug$S                   00400000     ucrtd:ucrtbased.dll
 0000:00000000       .debug$S                   00400000     ucrtd:ucrtbased.dll
 0000:00000000       .debug$S                   00400000     ucrtd:ucrtbased.dll
 0000:00000000       .debug$S                   00400000     ucrtd:ucrtbased.dll
 0000:00000000       .debug$S                   00400000     ucrtd:ucrtbased.dll
 0000:00000000       .debug$S                   00400000     ucrtd:ucrtbased.dll
 0000:00000000       .debug$S                   00400000     ucrtd:ucrtbased.dll
 0000:00000000       .debug$S                   00400000     ucrtd:ucrtbased.dll
 0000:00000000       .debug$S                   00400000     ucrtd:ucrtbased.dll
 0000:00000000       .debug$S                   00400000     ucrtd:ucrtbased.dll
 0000:00000000       .debug$S                   00400000     ucrtd:ucrtbased.dll
 0000:00000000       .debug$S                   00400000     ucrtd:ucrtbased.dll
 0000:00000000       .debug$S                   00400000     ucrtd:ucrtbased.dll
 0000:00000000       .debug$S                   00400000     ucrtd:ucrtbased.dll
 0000:00000000       .debug$S                   00400000     ucrtd:ucrtbased.dll
 0000:00000000       .debug$S                   00400000     ucrtd:ucrtbased.dll
 0000:00000000       .debug$S                   00400000     ucrtd:ucrtbased.dll
 0000:00000000       .debug$S                   00400000     ucrtd:ucrtbased.dll
 0000:00000000       .debug$S                   00400000     ucrtd:ucrtbased.dll
 0000:00000000       .debug$S                   00400000     ucrtd:ucrtbased.dll
 0000:00000000       .debug$S                   00400000     ucrtd:ucrtbased.dll
 0000:00000000       .debug$S                   00400000     ucrtd:ucrtbased.dll
 0000:00000000       .debug$S                   00400000     ucrtd:ucrtbased.dll
 0000:00000000       .debug$S                   00400000     ucrtd:ucrtbased.dll
 0000:00000000       .debug$S                   00400000     ucrtd:ucrtbased.dll
 0000:00000000       .debug$S                   00400000     ucrtd:ucrtbased.dll
 0000:00000000       .debug$S                   00400000     ucrtd:ucrtbased.dll
 0000:00000000       .debug$S                   00400000     ucrtd:ucrtbased.dll
 0000:00000000       .debug$S                   00400000     ucrtd:ucrtbased.dll
 0000:00000000       .debug$S                   00400000     ucrtd:ucrtbased.dll
 0000:00000000       .debug$S                   00400000     ucrtd:ucrtbased.dll
 0000:00000000       .debug$S                   00400000     ucrtd:ucrtbased.dll
 0000:00000000       .debug$S                   00400000     ucrtd:ucrtbased.dll
 0000:00000000       .debug$S                   00400000     ucrtd:ucrtbased.dll
 0000:00000000       .debug$S                   00400000     ucrtd:ucrtbased.dll
 0000:00000000       .debug$S                   00400000     ucrtd:ucrtbased.dll
 0000:00000000       .debug$S                   00400000     ucrtd:ucrtbased.dll
 0000:00000000       .debug$S                   00400000     ucrtd:ucrtbased.dll
 0000:00000000       .debug$S                   00400000     ucrtd:ucrtbased.dll
 0000:00000000       .debug$S                   00400000     ucrtd:ucrtbased.dll
 0000:00000000       .debug$S                   00400000     ucrtd:ucrtbased.dll
 0000:00000000       .debug$S                   00400000     ucrtd:ucrtbased.dll
 0000:00000000       .debug$S                   00400000     ucrtd:ucrtbased.dll
 0000:00000000       .debug$S                   00400000     ucrtd:ucrtbased.dll
 0000:00000000       .debug$S                   00400000     ucrtd:ucrtbased.dll
 0000:00000000       .debug$S                   00400000     ucrtd:ucrtbased.dll
 0000:00000000       .debug$S                   00400000     ucrtd:ucrtbased.dll
 0000:00000000       .debug$S                   00400000     ucrtd:ucrtbased.dll
 0000:00000000       .debug$S                   00400000     ucrtd:ucrtbased.dll
 0000:00000000       .debug$S                   00400000     ucrtd:ucrtbased.dll
 0000:00000000       .debug$S                   00400000     ucrtd:ucrtbased.dll
 0000:00000000       .debug$S                   00400000     ucrtd:ucrtbased.dll
 0000:00000000       .debug$S                   00400000     ucrtd:ucrtbased.dll
 0000:00000000       .debug$S                   00400000     ucrtd:ucrtbased.dll
 0000:00000000       .debug$S                   00400000     ucrtd:ucrtbased.dll
 0000:00000000       .debug$S                   00400000     ucrtd:ucrtbased.dll
 0000:00000000       .debug$S                   00400000     ucrtd:ucrtbased.dll
 0000:00000000       .debug$S                   00400000     ucrtd:ucrtbased.dll
 0000:00000000       .debug$S                   00400000     ucrtd:ucrtbased.dll
 0000:00000000       .debug$S                   00400000     ucrtd:ucrtbased.dll
 0000:00000000       .debug$S                   00400000     ucrtd:ucrtbased.dll
 0000:00000000       .debug$S                   00400000     ucrtd:ucrtbased.dll
 0000:00000000       .debug$S                   00400000     ucrtd:ucrtbased.dll
 0000:00000000       .debug$S                   00400000     ucrtd:ucrtbased.dll
 0000:00000000       .debug$S                   00400000     ucrtd:ucrtbased.dll
 0000:00000000       .debug$S                   00400000     ucrtd:ucrtbased.dll
 0000:00000000       .debug$S                   00400000     ucrtd:ucrtbased.dll
 0000:00000000       .debug$S                   00400000     ucrtd:ucrtbased.dll
 0000:00000000       .debug$S                   00400000     ucrtd:ucrtbased.dll
 0000:00000000       .debug$S                   00400000     ucrtd:ucrtbased.dll
 0000:00000000       .debug$S                   00400000     ucrtd:ucrtbased.dll
 0000:00000000       .debug$S                   00400000     ucrtd:ucrtbased.dll
 0000:00000000       .debug$S                   00400000     ucrtd:ucrtbased.dll
 0000:00000000       .debug$S                   00400000     ucrtd:ucrtbased.dll
 0000:00000000       .debug$S                   00400000     ucrtd:ucrtbased.dll
 0000:00000000       .debug$S                   00400000     ucrtd:ucrtbased.dll
 0000:00000000       .debug$S                   00400000     ucrtd:ucrtbased.dll
 0000:00000000       .debug$S                   00400000     ucrtd:ucrtbased.dll
 0000:00000000       .debug$S                   00400000     ucrtd:ucrtbased.dll
 0000:00000000       .debug$S                   00400000     ucrtd:ucrtbased.dll
 0000:00000000       .debug$S                   00400000     ucrtd:ucrtbased.dll
 0000:00000000       .debug$S                   00400000     ucrtd:ucrtbased.dll
 0000:00000000       .debug$S                   00400000     ucrtd:ucrtbased.dll
 0000:00000000       .debug$S                   00400000     ucrtd:ucrtbased.dll
 0000:00000000       .debug$S                   00400000     ucrtd:ucrtbased.dll
 0000:00000000       .debug$S                   00400000     advapi32:ADVAPI32.dll
 0000:00000000       .debug$S                   00400000     advapi32:ADVAPI32.dll
 0000:00000000       .debug$S                   00400000     advapi32:ADVAPI32.dll
 0000:00000000       .debug$S                   00400000     advapi32:ADVAPI32.dll
 0000:00000000       .debug$S                   00400000     advapi32:ADVAPI32.dll
 0000:00000000       .debug$S                   00400000     advapi32:ADVAPI32.dll
 0000:00000000       .debug$S                   00400000     advapi32:ADVAPI32.dll
 0000:00000000       .debug$S                   00400000     advapi32:ADVAPI32.dll
 0000:00000000       .debug$S                   00400000     advapi32:ADVAPI32.dll
 0000:00000000       .debug$S                   00400000     advapi32:ADVAPI32.dll
 0000:00000000       .debug$S                   00400000     advapi32:ADVAPI32.dll
 0000:00000000       .debug$S                   00400000     advapi32:ADVAPI32.dll
 0000:00000000       .debug$S                   00400000     d3d9:d3d9.dll
 0000:00000000       .debug$S                   00400000     gdi32:GDI32.dll
 0000:00000000       .debug$S                   00400000     kernel32:KERNEL32.dll
 0000:00000000       .debug$S                   00400000     kernel32:KERNEL32.dll
 0000:00000000       .debug$S                   00400000     kernel32:KERNEL32.dll
 0000:00000000       .debug$S                   00400000     kernel32:KERNEL32.dll
 0000:00000000       .debug$S                   00400000     kernel32:KERNEL32.dll
 0000:00000000       .debug$S                   00400000     kernel32:KERNEL32.dll
 0000:00000000       .debug$S                   00400000     kernel32:KERNEL32.dll
 0000:00000000       .debug$S                   00400000     kernel32:KERNEL32.dll
 0000:00000000       .debug$S                   00400000     kernel32:KERNEL32.dll
 0000:00000000       .debug$S                   00400000     kernel32:KERNEL32.dll
 0000:00000000       .debug$S                   00400000     kernel32:KERNEL32.dll
 0000:00000000       .debug$S                   00400000     kernel32:KERNEL32.dll
 0000:00000000       .debug$S                   00400000     kernel32:KERNEL32.dll
 0000:00000000       .debug$S                   00400000     kernel32:KERNEL32.dll
 0000:00000000       .debug$S                   00400000     kernel32:KERNEL32.dll
 0000:00000000       .debug$S                   00400000     kernel32:KERNEL32.dll
 0000:00000000       .debug$S                   00400000     kernel32:KERNEL32.dll
 0000:00000000       .debug$S                   00400000     kernel32:KERNEL32.dll
 0000:00000000       .debug$S                   00400000     kernel32:KERNEL32.dll
 0000:00000000       .debug$S                   00400000     kernel32:KERNEL32.dll
 0000:00000000       .debug$S                   00400000     kernel32:KERNEL32.dll
 0000:00000000       .debug$S                   00400000     kernel32:KERNEL32.dll
 0000:00000000       .debug$S                   00400000     kernel32:KERNEL32.dll
 0000:00000000       .debug$S                   00400000     kernel32:KERNEL32.dll
 0000:00000000       .debug$S                   00400000     kernel32:KERNEL32.dll
 0000:00000000       .debug$S                   00400000     kernel32:KERNEL32.dll
 0000:00000000       .debug$S                   00400000     kernel32:KERNEL32.dll
