 Warcraft III - External MapHack

 Timestamp is 608f10de (Sun May  2 23:51:42 2021)

 Preferred load address is 00400000

 Start         Length     Name                   Class
 0001:00000000 000013d0H .text$di                CODE
 0001:000013d0 00012740H .text$mn                CODE
 0001:00013b10 00001360H .text$x                 CODE
 0001:00014e70 0000185cH .text$yd                CODE
 0002:00000000 000002b4H .idata$5                DATA
 0002:000002b4 00000004H .00cfg                  DATA
 0002:000002b8 00000004H .CRT$XCA                DATA
 0002:000002bc 00000004H .CRT$XCAA               DATA
 0002:000002c0 00000004H .CRT$XCL                DATA
 0002:000002c4 0000013cH .CRT$XCU                DATA
 0002:00000400 00000004H .CRT$XCZ                DATA
 0002:00000404 00000004H .CRT$XIA                DATA
 0002:00000408 00000004H .CRT$XIAA               DATA
 0002:0000040c 00000004H .CRT$XIAC               DATA
 0002:00000410 00000004H .CRT$XIZ                DATA
 0002:00000414 00000004H .CRT$XPA                DATA
 0002:00000418 00000004H .CRT$XPZ                DATA
 0002:0000041c 00000004H .CRT$XTA                DATA
 0002:00000420 00000010H .CRT$XTZ                DATA
 0002:00000430 00000c04H .rdata                  DATA
 0002:00001034 000005acH .rdata$r                DATA
 0002:000015e0 000000f0H .rdata$sxdata           DATA
 0002:000016d0 000002ecH .rdata$zzzdbg           DATA
 0002:000019bc 00000004H .rtc$IAA                DATA
 0002:000019c0 00000004H .rtc$IZZ                DATA
 0002:000019c4 00000004H .rtc$TAA                DATA
 0002:000019c8 00000008H .rtc$TZZ                DATA
 0002:000019d0 000017bcH .xdata$x                DATA
 0002:0000318c 00000000H .edata                  DATA
 0002:0000318c 0000012cH .idata$2                DATA
 0002:000032b8 00000014H .idata$3                DATA
 0002:000032cc 000002b4H .idata$4                DATA
 0002:00003580 00001452H .idata$6                DATA
 0003:00000000 00000028H .data                   DATA
 0003:00000028 00000458H .data$r                 DATA
 0003:00000480 00000bd0H .bss                    DATA
 0004:00000000 00000054H .gfids$y                DATA
 0005:00000000 00000060H .rsrc$01                DATA
 0005:00000060 00000188H .rsrc$02                DATA

  Address         Publics by Value              Rva+Base       Lib:Object

 0000:00000000       ___guard_fids_count        00000000     <absolute>
 0000:00000000       ___guard_longjmp_table     00000000     <absolute>
 0000:00000000       ___guard_longjmp_count     00000000     <absolute>
 0000:00000000       ___guard_iat_table         00000000     <absolute>
 0000:00000000       ___guard_iat_count         00000000     <absolute>
 0000:00000000       ___guard_fids_table        00000000     <absolute>
 0000:00000000       ___dynamic_value_reloc_table 00000000     <absolute>
 0000:0000003c       ___safe_se_handler_count   0000003c     <absolute>
 0000:00000100       ___guard_flags             00000100     <absolute>
 0000:00000000       ___ImageBase               00400000     <linker-defined>
 0001:000013d0       ___local_stdio_printf_options 004023d0 f i Main.obj
 0001:000013e0       __vsnprintf_l              004023e0 f i Main.obj
 0001:00001420       _sprintf                   00402420 f i Main.obj
 0001:00001440       ?to_string@std@@YA?AV?$basic_string@DU?$char_traits@D@std@@V?$allocator@D@2@@1@H@Z 00402440 f i Main.obj
 0001:00001460       ?Gen@@YAKV?$basic_string@DU?$char_traits@D@std@@V?$allocator@D@2@@std@@@Z 00402460 f i Main.obj
 0001:000014b0       ?KEY@@YA?AV?$basic_string@DU?$char_traits@D@std@@V?$allocator@D@2@@std@@XZ 004024b0 f i Main.obj
 0001:00003af0       ?IsValid@@YA_NPBD@Z        00404af0 f i Main.obj
 0001:00003b90       _WinMain@16                00404b90 f   Main.obj
 0001:00003df0       ?Render@@YAXXZ             00404df0 f   Main.obj
 0001:00004220       ?DrawEspBox@@YAXUD3DXVECTOR2@@0MK@Z 00405220 f   Main.obj
 0001:00004450       ?D3DInit@@YAHPAUHWND__@@@Z 00405450 f   Main.obj
 0001:00004510       ?WndProc@@YGJPAUHWND__@@IIJ@Z 00405510 f   Main.obj
 0001:00004560       ?GetProcessHandle@@YAPAXXZ 00405560 f   Main.obj
 0001:000046e0       ??1?$unique_ptr@VOSInfoDelegate@@U?$default_delete@VOSInfoDelegate@@@std@@@std@@QAE@XZ 004056e0 f i Main.obj
 0001:00004700       ??1?$unique_ptr@VGPUInfoDelegate@@U?$default_delete@VGPUInfoDelegate@@@std@@@std@@QAE@XZ 00405700 f i Main.obj
 0001:00004720       ??1?$unique_ptr@VRAMInfoDelegate@@U?$default_delete@VRAMInfoDelegate@@@std@@@std@@QAE@XZ 00405720 f i Main.obj
 0001:00004740       ??1?$unique_ptr@VMotherboardInfoDelegate@@U?$default_delete@VMotherboardInfoDelegate@@@std@@@std@@QAE@XZ 00405740 f i Main.obj
 0001:00004760       ??1?$unique_ptr@VCPUInfoDelegate@@U?$default_delete@VCPUInfoDelegate@@@std@@@std@@QAE@XZ 00405760 f i Main.obj
 0001:00004780       ??1?$vector@VRAMInfo@@V?$allocator@VRAMInfo@@@std@@@std@@QAE@XZ 00405780 f i Main.obj
 0001:00004790       ??1?$vector@VOSInfo@@V?$allocator@VOSInfo@@@std@@@std@@QAE@XZ 00405790 f i Main.obj
 0001:000047a0       ??1?$vector@VMotherboardInfo@@V?$allocator@VMotherboardInfo@@@std@@@std@@QAE@XZ 004057a0 f i Main.obj
 0001:000047b0       ??1?$vector@VGPUInfo@@V?$allocator@VGPUInfo@@@std@@@std@@QAE@XZ 004057b0 f i Main.obj
 0001:000047c0       ??1?$vector@VCPUInfo@@V?$allocator@VCPUInfo@@@std@@@std@@QAE@XZ 004057c0 f i Main.obj
 0001:000047d0       ?c_str@?$basic_string@DU?$char_traits@D@std@@V?$allocator@D@2@@std@@QBEPBDXZ 004057d0 f i Main.obj
 0001:000047d0       ?_Myptr@?$_String_val@U?$_Simple_types@D@std@@@std@@QAEPADXZ 004057d0 f i Main.obj
 0001:000047e0       ??Y?$basic_string@DU?$char_traits@D@std@@V?$allocator@D@2@@std@@QAEAAV01@PBD@Z 004057e0 f i Main.obj
 0001:00004820       ??1?$basic_string@DU?$char_traits@D@std@@V?$allocator@D@2@@std@@QAE@XZ 00405820 f i Main.obj
 0001:00004860       ??0?$basic_string@DU?$char_traits@D@std@@V?$allocator@D@2@@std@@QAE@$$QAV01@@Z 00405860 f i Main.obj
 0001:000048e0       ??0?$basic_string@DU?$char_traits@D@std@@V?$allocator@D@2@@std@@QAE@PBD@Z 004058e0 f i Main.obj
 0001:00004940       @_guard_check_icall_nop@4  00405940 f i MSVCRT:guard_support.obj
 0001:00004940       __initialize_invalid_parameter_handler 00405940 f i MSVCRT:invalid_parameter_handler.obj
 0001:00004940       ??3@YAXPAX0@Z              00405940 f i systeminfo.obj
 0001:00004940       __initialize_denormal_control 00405940 f i MSVCRT:denormal_control.obj
 0001:00004940       ??1?$_String_alloc@U?$_String_base_types@DV?$allocator@D@std@@@std@@@std@@QAE@XZ 00405940 f i Main.obj
 0001:00004950       ?_Tidy@?$vector@VRAMInfo@@V?$allocator@VRAMInfo@@@std@@@std@@IAEXXZ 00405950 f i Main.obj
 0001:000049b0       ?_Tidy@?$vector@VOSInfo@@V?$allocator@VOSInfo@@@std@@@std@@IAEXXZ 004059b0 f i Main.obj
 0001:00004a10       ?_Tidy@?$vector@VMotherboardInfo@@V?$allocator@VMotherboardInfo@@@std@@@std@@IAEXXZ 00405a10 f i Main.obj
 0001:00004a70       ?_Tidy@?$vector@VGPUInfo@@V?$allocator@VGPUInfo@@@std@@@std@@IAEXXZ 00405a70 f i Main.obj
 0001:00004ad0       ?_Tidy@?$vector@VCPUInfo@@V?$allocator@VCPUInfo@@@std@@@std@@IAEXXZ 00405ad0 f i Main.obj
 0001:00004b30       ?_Traits_compare@?$basic_string@DU?$char_traits@D@std@@V?$allocator@D@2@@std@@SAHQBDI0I@Z 00405b30 f i Main.obj
 0001:00004bc0       ?erase@?$basic_string@DU?$char_traits@D@std@@V?$allocator@D@2@@std@@QAEAAV12@II@Z 00405bc0 f i Main.obj
 0001:00004c60       ?assign@?$basic_string@DU?$char_traits@D@std@@V?$allocator@D@2@@std@@QAEAAV12@PBDI@Z 00405c60 f i Main.obj
 0001:00004d60       ?assign@?$basic_string@DU?$char_traits@D@std@@V?$allocator@D@2@@std@@QAEAAV12@ABV12@II@Z 00405d60 f i Main.obj
 0001:00004e80       ?append@?$basic_string@DU?$char_traits@D@std@@V?$allocator@D@2@@std@@QAEAAV12@PBDI@Z 00405e80 f i Main.obj
 0001:00004fa0       ?append@?$basic_string@DU?$char_traits@D@std@@V?$allocator@D@2@@std@@QAEAAV12@ABV12@II@Z 00405fa0 f i Main.obj
 0001:00005090       ?_Assign_rv@?$basic_string@DU?$char_traits@D@std@@V?$allocator@D@2@@std@@QAEX$$QAV12@@Z 00406090 f i Main.obj
 0001:00005100       ?deallocate@?$_Wrap_alloc@V?$allocator@VRAMInfo@@@std@@@std@@QAEXPAVRAMInfo@@I@Z 00406100 f i Main.obj
 0001:00005170       ?deallocate@?$_Wrap_alloc@V?$allocator@VOSInfo@@@std@@@std@@QAEXPAVOSInfo@@I@Z 00406170 f i Main.obj
 0001:000051e0       ?deallocate@?$_Wrap_alloc@V?$allocator@VMotherboardInfo@@@std@@@std@@QAEXPAVMotherboardInfo@@I@Z 004061e0 f i Main.obj
 0001:00005240       ?deallocate@?$_Wrap_alloc@V?$allocator@VGPUInfo@@@std@@@std@@QAEXPAVGPUInfo@@I@Z 00406240 f i Main.obj
 0001:000052b0       ?deallocate@?$_Wrap_alloc@V?$allocator@VCPUInfo@@@std@@@std@@QAEXPAVCPUInfo@@I@Z 004062b0 f i Main.obj
 0001:00005320       ?deallocate@?$allocator@D@std@@QAEXPADI@Z 00406320 f i Main.obj
 0001:00005320       ?deallocate@?$_Wrap_alloc@V?$allocator@D@std@@@std@@QAEXPADI@Z 00406320 f i Main.obj
 0001:00005370       ?_Grow@?$basic_string@DU?$char_traits@D@std@@V?$allocator@D@2@@std@@QAE_NI_N@Z 00406370 f i Main.obj
 0001:00005420       ?_Eos@?$basic_string@DU?$char_traits@D@std@@V?$allocator@D@2@@std@@QAEXI@Z 00406420 f i Main.obj
 0001:00005450       ?_Copy@?$basic_string@DU?$char_traits@D@std@@V?$allocator@D@2@@std@@QAEXII@Z 00406450 f i Main.obj
 0001:000055e0       ?allocate@?$_Wrap_alloc@V?$allocator@D@std@@@std@@QAEPADI@Z 004065e0 f i Main.obj
 0001:000055e0       ?allocate@?$allocator@D@std@@QAEPADI@Z 004065e0 f i Main.obj
 0001:00005630       ??$_Integral_to_string@DH@std@@YA?AV?$basic_string@DU?$char_traits@D@std@@V?$allocator@D@2@@0@H@Z 00406630 f i Main.obj
 0001:000056f0       ??$?6U?$char_traits@D@std@@@std@@YAAAV?$basic_ostream@DU?$char_traits@D@std@@@0@AAV10@PBD@Z 004066f0 f i Main.obj
 0001:00005930       ??$endl@DU?$char_traits@D@std@@@std@@YAAAV?$basic_ostream@DU?$char_traits@D@std@@@0@AAV10@@Z 00406930 f i Main.obj
 0001:00005960       ??$make_unique@VCPUInfoDelegate@@$$V@std@@YA?AV?$unique_ptr@VCPUInfoDelegate@@U?$default_delete@VCPUInfoDelegate@@@std@@@0@XZ 00406960 f i Main.obj
 0001:000059e0       ??$make_unique@VMotherboardInfoDelegate@@$$V@std@@YA?AV?$unique_ptr@VMotherboardInfoDelegate@@U?$default_delete@VMotherboardInfoDelegate@@@std@@@0@XZ 004069e0 f i Main.obj
 0001:00005a60       ??$make_unique@VRAMInfoDelegate@@$$V@std@@YA?AV?$unique_ptr@VRAMInfoDelegate@@U?$default_delete@VRAMInfoDelegate@@@std@@@0@XZ 00406a60 f i Main.obj
 0001:00005ae0       ??$make_unique@VGPUInfoDelegate@@$$V@std@@YA?AV?$unique_ptr@VGPUInfoDelegate@@U?$default_delete@VGPUInfoDelegate@@@std@@@0@XZ 00406ae0 f i Main.obj
 0001:00005b60       ??$make_unique@VOSInfoDelegate@@$$V@std@@YA?AV?$unique_ptr@VOSInfoDelegate@@U?$default_delete@VOSInfoDelegate@@@std@@@0@XZ 00406b60 f i Main.obj
 0001:00005be0       ??$destroy@PAD@?$_Wrap_alloc@V?$allocator@D@std@@@std@@QAEXPAPAD@Z 00406be0 f i Main.obj
 0001:00005bf0       ??$_Destroy_range@V?$allocator@VRAMInfo@@@std@@PAVRAMInfo@@@std@@YAXPAVRAMInfo@@0AAU?$_Wrap_alloc@V?$allocator@VRAMInfo@@@std@@@0@@Z 00406bf0 f i Main.obj
 0001:00005c20       ??$_Destroy_range@V?$allocator@VOSInfo@@@std@@PAVOSInfo@@@std@@YAXPAVOSInfo@@0AAU?$_Wrap_alloc@V?$allocator@VOSInfo@@@std@@@0@@Z 00406c20 f i Main.obj
 0001:00005c50       ??$_Destroy_range@V?$allocator@VMotherboardInfo@@@std@@PAVMotherboardInfo@@@std@@YAXPAVMotherboardInfo@@0AAU?$_Wrap_alloc@V?$allocator@VMotherboardInfo@@@std@@@0@@Z 00406c50 f i Main.obj
 0001:00005c80       ??$_Destroy_range@V?$allocator@VGPUInfo@@@std@@PAVGPUInfo@@@std@@YAXPAVGPUInfo@@0AAU?$_Wrap_alloc@V?$allocator@VGPUInfo@@@std@@@0@@Z 00406c80 f i Main.obj
 0001:00005cb0       ??$_Destroy_range@V?$allocator@VCPUInfo@@@std@@PAVCPUInfo@@@std@@YAXPAVCPUInfo@@0AAU?$_Wrap_alloc@V?$allocator@VCPUInfo@@@std@@@0@@Z 00406cb0 f i Main.obj
 0001:00005ce0       ??1sentry@?$basic_ostream@DU?$char_traits@D@std@@@std@@QAE@XZ 00406ce0 f i Main.obj
 0001:00005d50       ??0?$_Wrap_alloc@V?$allocator@D@std@@@std@@QAE@XZ 00406d50 f i Main.obj
 0001:00005d60       ??1_Sentry_base@?$basic_ostream@DU?$char_traits@D@std@@@std@@QAE@XZ 00406d60 f i Main.obj
 0001:00005d60       ??1_Sentry_base@?$basic_istream@DU?$char_traits@D@std@@@std@@QAE@XZ 00406d60 f i systeminfo.obj
 0001:00005db0       ??1RAMInfo@@QAE@XZ         00406db0 f i Main.obj
 0001:00005f30       ??1OSInfo@@QAE@XZ          00406f30 f i Main.obj
 0001:000061d0       ??1MotherboardInfo@@QAE@XZ 004071d0 f i Main.obj
 0001:000062c0       ??1GPUInfo@@QAE@XZ         004072c0 f i Main.obj
 0001:000064a0       ??1CPUInfo@@QAE@XZ         004074a0 f i Main.obj
 0001:000065c0       ??0exception@std@@QAE@ABV01@@Z 004075c0 f i systeminfo.obj
 0001:000065f0       ?what@exception@std@@UBEPBDXZ 004075f0 f i systeminfo.obj
 0001:00006600       ??_Gbad_cast@std@@UAEPAXI@Z 00407600 f i systeminfo.obj
 0001:00006600       ??_Gexception@std@@UAEPAXI@Z 00407600 f i systeminfo.obj
 0001:00006600       ??_Ebad_cast@std@@UAEPAXI@Z 00407600 f i * CIL library *:* CIL module *
 0001:00006600       ??_Eexception@std@@UAEPAXI@Z 00407600 f i * CIL library *:* CIL module *
 0001:00006640       ??1bad_cast@std@@UAE@XZ    00407640 f i systeminfo.obj
 0001:00006660       ??1locale@std@@QAE@XZ      00407660 f i systeminfo.obj
 0001:000066b0       ?stoll@std@@YA_JABV?$basic_string@DU?$char_traits@D@std@@V?$allocator@D@2@@1@PAIH@Z 004076b0 f i systeminfo.obj
 0001:00006730       ??0CPUInfo@@QAE@ABV?$vector@V?$basic_string@DU?$char_traits@D@std@@V?$allocator@D@2@@std@@V?$allocator@V?$basic_string@DU?$char_traits@D@std@@V?$allocator@D@2@@std@@@2@@std@@H@Z 00407730 f   systeminfo.obj
 0001:000070d0       ?name@MotherboardInfo@@QBE?AV?$basic_string@DU?$char_traits@D@std@@V?$allocator@D@2@@std@@XZ 004080d0 f   systeminfo.obj
 0001:000070d0       ?name@RAMInfo@@QBE?AV?$basic_string@DU?$char_traits@D@std@@V?$allocator@D@2@@std@@XZ 004080d0 f   systeminfo.obj
 0001:000070d0       ?name@CPUInfo@@QBE?AV?$basic_string@DU?$char_traits@D@std@@V?$allocator@D@2@@std@@XZ 004080d0 f   systeminfo.obj
 0001:000070d0       ?name@OSInfo@@QBE?AV?$basic_string@DU?$char_traits@D@std@@V?$allocator@D@2@@std@@XZ 004080d0 f   systeminfo.obj
 0001:000070d0       ?name@GPUInfo@@QBE?AV?$basic_string@DU?$char_traits@D@std@@V?$allocator@D@2@@std@@XZ 004080d0 f   systeminfo.obj
 0001:00007110       ?manufacturer@CPUInfo@@QBE?AV?$basic_string@DU?$char_traits@D@std@@V?$allocator@D@2@@std@@XZ 00408110 f   systeminfo.obj
 0001:00007110       ?manufacturer@GPUInfo@@QBE?AV?$basic_string@DU?$char_traits@D@std@@V?$allocator@D@2@@std@@XZ 00408110 f   systeminfo.obj
 0001:00007110       ?manufacturer@MotherboardInfo@@QBE?AV?$basic_string@DU?$char_traits@D@std@@V?$allocator@D@2@@std@@XZ 00408110 f   systeminfo.obj
 0001:00007110       ?manufacturer@RAMInfo@@QBE?AV?$basic_string@DU?$char_traits@D@std@@V?$allocator@D@2@@std@@XZ 00408110 f   systeminfo.obj
 0001:00007110       ?manufacturer@OSInfo@@QBE?AV?$basic_string@DU?$char_traits@D@std@@V?$allocator@D@2@@std@@XZ 00408110 f   systeminfo.obj
 0001:00007150       ?numberOfCores@CPUInfo@@QBE?AV?$basic_string@DU?$char_traits@D@std@@V?$allocator@D@2@@std@@XZ 00408150 f   systeminfo.obj
 0001:00007150       ?chipset@MotherboardInfo@@QBE?AV?$basic_string@DU?$char_traits@D@std@@V?$allocator@D@2@@std@@XZ 00408150 f   systeminfo.obj
 0001:00007150       ?caption@GPUInfo@@QBE?AV?$basic_string@DU?$char_traits@D@std@@V?$allocator@D@2@@std@@XZ 00408150 f   systeminfo.obj
 0001:00007150       ?capacity@RAMInfo@@QBE?AV?$basic_string@DU?$char_traits@D@std@@V?$allocator@D@2@@std@@XZ 00408150 f   systeminfo.obj
 0001:00007190       ?serialNumber@RAMInfo@@QBE?AV?$basic_string@DU?$char_traits@D@std@@V?$allocator@D@2@@std@@XZ 00408190 f   systeminfo.obj
 0001:00007190       ?caption@OSInfo@@QBE?AV?$basic_string@DU?$char_traits@D@std@@V?$allocator@D@2@@std@@XZ 00408190 f   systeminfo.obj
 0001:00007190       ?architecture@CPUInfo@@QBE?AV?$basic_string@DU?$char_traits@D@std@@V?$allocator@D@2@@std@@XZ 00408190 f   systeminfo.obj
 0001:00007190       ?adapterRAM@GPUInfo@@QBE?AV?$basic_string@DU?$char_traits@D@std@@V?$allocator@D@2@@std@@XZ 00408190 f   systeminfo.obj
 0001:00007190       ?serialNumber@MotherboardInfo@@QBE?AV?$basic_string@DU?$char_traits@D@std@@V?$allocator@D@2@@std@@XZ 00408190 f   systeminfo.obj
 0001:000071d0       ?formFactor@RAMInfo@@QBE?AV?$basic_string@DU?$char_traits@D@std@@V?$allocator@D@2@@std@@XZ 004081d0 f   systeminfo.obj
 0001:000071d0       ?version@OSInfo@@QBE?AV?$basic_string@DU?$char_traits@D@std@@V?$allocator@D@2@@std@@XZ 004081d0 f   systeminfo.obj
 0001:000071d0       ?L2CacheSize@CPUInfo@@QBE?AV?$basic_string@DU?$char_traits@D@std@@V?$allocator@D@2@@std@@XZ 004081d0 f   systeminfo.obj
 0001:000071d0       ?version@MotherboardInfo@@QBE?AV?$basic_string@DU?$char_traits@D@std@@V?$allocator@D@2@@std@@XZ 004081d0 f   systeminfo.obj
 0001:00007210       ?partNumber@RAMInfo@@QBE?AV?$basic_string@DU?$char_traits@D@std@@V?$allocator@D@2@@std@@XZ 00408210 f   systeminfo.obj
 0001:00007210       ?currentUser@OSInfo@@QBE?AV?$basic_string@DU?$char_traits@D@std@@V?$allocator@D@2@@std@@XZ 00408210 f   systeminfo.obj
 0001:00007210       ?L3CacheSize@CPUInfo@@QBE?AV?$basic_string@DU?$char_traits@D@std@@V?$allocator@D@2@@std@@XZ 00408210 f   systeminfo.obj
 0001:00007210       ?driverVersion@GPUInfo@@QBE?AV?$basic_string@DU?$char_traits@D@std@@V?$allocator@D@2@@std@@XZ 00408210 f   systeminfo.obj
 0001:00007250       ??1SystemCommand@@QAE@XZ   00408250 f i systeminfo.obj
 0001:00007330       ?getArchitecture@CPUInfo@@ABE?AV?$basic_string@DU?$char_traits@D@std@@V?$allocator@D@2@@std@@AAV23@@Z 00408330 f   systeminfo.obj
 0001:000074b0       ??0CPUInfoDelegate@@QAE@XZ 004084b0 f   systeminfo.obj
 0001:000077e0       ?determineNumberOfCPUInfoItems@CPUInfoDelegate@@AAEXABV?$vector@V?$basic_string@DU?$char_traits@D@std@@V?$allocator@D@2@@std@@V?$allocator@V?$basic_string@DU?$char_traits@D@std@@V?$allocator@D@2@@std@@@2@@std@@@Z 004087e0 f   systeminfo.obj
 0001:00007830       ?cpuInfoVector@CPUInfoDelegate@@QBE?AV?$vector@VCPUInfo@@V?$allocator@VCPUInfo@@@std@@@std@@XZ 00408830 f   systeminfo.obj
 0001:00007850       ??0GPUInfo@@QAE@ABV?$vector@V?$basic_string@DU?$char_traits@D@std@@V?$allocator@D@2@@std@@V?$allocator@V?$basic_string@DU?$char_traits@D@std@@V?$allocator@D@2@@std@@@2@@std@@H@Z 00408850 f   systeminfo.obj
 0001:00008930       ?getVideoArchitecture@GPUInfo@@ABE?AV?$basic_string@DU?$char_traits@D@std@@V?$allocator@D@2@@std@@ABV23@@Z 00409930 f   systeminfo.obj
 0001:00008be0       ?getVideoMemoryType@GPUInfo@@ABE?AV?$basic_string@DU?$char_traits@D@std@@V?$allocator@D@2@@std@@ABV23@@Z 00409be0 f   systeminfo.obj
 0001:00008df0       ?videoArchitecture@GPUInfo@@QBE?AV?$basic_string@DU?$char_traits@D@std@@V?$allocator@D@2@@std@@XZ 00409df0 f   systeminfo.obj
 0001:00008df0       ?installDate@OSInfo@@QBE?AV?$basic_string@DU?$char_traits@D@std@@V?$allocator@D@2@@std@@XZ 00409df0 f   systeminfo.obj
 0001:00008df0       ?memoryType@RAMInfo@@QBE?AV?$basic_string@DU?$char_traits@D@std@@V?$allocator@D@2@@std@@XZ 00409df0 f   systeminfo.obj
 0001:00008e30       ?videoProcessor@GPUInfo@@QBE?AV?$basic_string@DU?$char_traits@D@std@@V?$allocator@D@2@@std@@XZ 00409e30 f   systeminfo.obj
 0001:00008e30       ?bootDevice@OSInfo@@QBE?AV?$basic_string@DU?$char_traits@D@std@@V?$allocator@D@2@@std@@XZ 00409e30 f   systeminfo.obj
 0001:00008e70       ?videoModeDescription@GPUInfo@@QBE?AV?$basic_string@DU?$char_traits@D@std@@V?$allocator@D@2@@std@@XZ 00409e70 f   systeminfo.obj
 0001:00008eb0       ??0GPUInfoDelegate@@QAE@XZ 00409eb0 f   systeminfo.obj
 0001:000091e0       ?determineNumberOfGPUInfoItems@GPUInfoDelegate@@AAEXABV?$vector@V?$basic_string@DU?$char_traits@D@std@@V?$allocator@D@2@@std@@V?$allocator@V?$basic_string@DU?$char_traits@D@std@@V?$allocator@D@2@@std@@@2@@std@@@Z 0040a1e0 f   systeminfo.obj
 0001:00009230       ?gpuInfoVector@GPUInfoDelegate@@QBE?AV?$vector@VGPUInfo@@V?$allocator@VGPUInfo@@@std@@@std@@XZ 0040a230 f   systeminfo.obj
 0001:00009250       ??0MotherboardInfo@@QAE@ABV?$vector@V?$basic_string@DU?$char_traits@D@std@@V?$allocator@D@2@@std@@V?$allocator@V?$basic_string@DU?$char_traits@D@std@@V?$allocator@D@2@@std@@@2@@std@@H@Z 0040a250 f   systeminfo.obj
 0001:00009780       ?determineChipset@MotherboardInfo@@AAEXXZ 0040a780 f   systeminfo.obj
 0001:000099f0       ??0MotherboardInfoDelegate@@QAE@XZ 0040a9f0 f   systeminfo.obj
 0001:00009d20       ?determineNumberOfMotherboardInfoItems@MotherboardInfoDelegate@@AAEXABV?$vector@V?$basic_string@DU?$char_traits@D@std@@V?$allocator@D@2@@std@@V?$allocator@V?$basic_string@DU?$char_traits@D@std@@V?$allocator@D@2@@std@@@2@@std@@@Z 0040ad20 f   systeminfo.obj
 0001:00009d70       ?motherboardInfoVector@MotherboardInfoDelegate@@QBE?AV?$vector@VMotherboardInfo@@V?$allocator@VMotherboardInfo@@@std@@@std@@XZ 0040ad70 f   systeminfo.obj
 0001:00009d90       ??0OSInfo@@QAE@ABV?$vector@V?$basic_string@DU?$char_traits@D@std@@V?$allocator@D@2@@std@@V?$allocator@V?$basic_string@DU?$char_traits@D@std@@V?$allocator@D@2@@std@@@2@@std@@H@Z 0040ad90 f   systeminfo.obj
 0001:0000b3c0       ?buildNumber@OSInfo@@QBE?AV?$basic_string@DU?$char_traits@D@std@@V?$allocator@D@2@@std@@XZ 0040c3c0 f   systeminfo.obj
 0001:0000b400       ?serialNumber@OSInfo@@QBE?AV?$basic_string@DU?$char_traits@D@std@@V?$allocator@D@2@@std@@XZ 0040c400 f   systeminfo.obj
 0001:0000b440       ?totalVirtualMemory@OSInfo@@QBE?AV?$basic_string@DU?$char_traits@D@std@@V?$allocator@D@2@@std@@XZ 0040c440 f   systeminfo.obj
 0001:0000b480       ?totalVisibleMemory@OSInfo@@QBE?AV?$basic_string@DU?$char_traits@D@std@@V?$allocator@D@2@@std@@XZ 0040c480 f   systeminfo.obj
 0001:0000b4c0       ?totalSwapSize@OSInfo@@QBE?AV?$basic_string@DU?$char_traits@D@std@@V?$allocator@D@2@@std@@XZ 0040c4c0 f   systeminfo.obj
 0001:0000b500       ??0OSInfoDelegate@@QAE@XZ  0040c500 f   systeminfo.obj
 0001:0000b830       ?determineNumberOfOSInfoItems@OSInfoDelegate@@AAEXABV?$vector@V?$basic_string@DU?$char_traits@D@std@@V?$allocator@D@2@@std@@V?$allocator@V?$basic_string@DU?$char_traits@D@std@@V?$allocator@D@2@@std@@@2@@std@@@Z 0040c830 f   systeminfo.obj
 0001:0000b880       ?osInfoVector@OSInfoDelegate@@QBE?AV?$vector@VOSInfo@@V?$allocator@VOSInfo@@@std@@@std@@XZ 0040c880 f   systeminfo.obj
 0001:0000b8b0       ??0RAMInfo@@QAE@ABV?$vector@V?$basic_string@DU?$char_traits@D@std@@V?$allocator@D@2@@std@@V?$allocator@V?$basic_string@DU?$char_traits@D@std@@V?$allocator@D@2@@std@@@2@@std@@H@Z 0040c8b0 f   systeminfo.obj
 0001:0000c8d0       ?getMemoryType@RAMInfo@@ABE?AV?$basic_string@DU?$char_traits@D@std@@V?$allocator@D@2@@std@@ABV23@@Z 0040d8d0 f   systeminfo.obj
 0001:0000cbd0       ?getFormFactor@RAMInfo@@ABE?AV?$basic_string@DU?$char_traits@D@std@@V?$allocator@D@2@@std@@ABV23@@Z 0040dbd0 f   systeminfo.obj
 0001:0000cec0       ??0RAMInfoDelegate@@QAE@XZ 0040dec0 f   systeminfo.obj
 0001:0000d1f0       ?determineNumberOfRAMInfoItems@RAMInfoDelegate@@AAEXABV?$vector@V?$basic_string@DU?$char_traits@D@std@@V?$allocator@D@2@@std@@V?$allocator@V?$basic_string@DU?$char_traits@D@std@@V?$allocator@D@2@@std@@@2@@std@@@Z 0040e1f0 f   systeminfo.obj
 0001:0000d240       ?ramInfoVector@RAMInfoDelegate@@QBE?AV?$vector@VRAMInfo@@V?$allocator@VRAMInfo@@@std@@@std@@XZ 0040e240 f   systeminfo.obj
 0001:0000d260       ??0SystemCommand@@QAE@V?$initializer_list@V?$basic_string@DU?$char_traits@D@std@@V?$allocator@D@2@@std@@@std@@@Z 0040e260 f   systeminfo.obj
 0001:0000d320       ?outputAsVector@SystemCommand@@QAE?AV?$vector@V?$basic_string@DU?$char_traits@D@std@@V?$allocator@D@2@@std@@V?$allocator@V?$basic_string@DU?$char_traits@D@std@@V?$allocator@D@2@@std@@@2@@std@@XZ 0040e320 f   systeminfo.obj
 0001:0000d350       ?stripAllFromString@SystemCommand@@AAE?AV?$basic_string@DU?$char_traits@D@std@@V?$allocator@D@2@@std@@ABV23@0@Z 0040e350 f   systeminfo.obj
 0001:0000d4b0       ?stripFromString@SystemCommand@@AAE?AV?$basic_string@DU?$char_traits@D@std@@V?$allocator@D@2@@std@@ABV23@0@Z 0040e4b0 f   systeminfo.obj
 0001:0000d6d0       ?stripPipeFromCommand@SystemCommand@@AAEXXZ 0040e6d0 f   systeminfo.obj
 0001:0000d870       ?systemCommandLaunch@SystemCommand@@AAEX_N@Z 0040e870 f   systeminfo.obj
 0001:0000df10       ??0?$vector@VRAMInfo@@V?$allocator@VRAMInfo@@@std@@@std@@QAE@ABV01@@Z 0040ef10 f i systeminfo.obj
 0001:0000e000       ??0?$vector@VOSInfo@@V?$allocator@VOSInfo@@@std@@@std@@QAE@ABV01@@Z 0040f000 f i systeminfo.obj
 0001:0000e0f0       ??0?$vector@VMotherboardInfo@@V?$allocator@VMotherboardInfo@@@std@@@std@@QAE@ABV01@@Z 0040f0f0 f i systeminfo.obj
 0001:0000e1e0       ??0?$vector@VGPUInfo@@V?$allocator@VGPUInfo@@@std@@@std@@QAE@ABV01@@Z 0040f1e0 f i systeminfo.obj
 0001:0000e2d0       ??0?$vector@VCPUInfo@@V?$allocator@VCPUInfo@@@std@@@std@@QAE@ABV01@@Z 0040f2d0 f i systeminfo.obj
 0001:0000e3c0       ??R?$_Func_class@V?$basic_string@DU?$char_traits@D@std@@V?$allocator@D@2@@std@@ABV12@@std@@QBE?AV?$basic_string@DU?$char_traits@D@std@@V?$allocator@D@2@@1@ABV21@@Z 0040f3c0 f i systeminfo.obj
 0001:0000e3f0       ??1?$function@$$A6A?AV?$basic_string@DU?$char_traits@D@std@@V?$allocator@D@2@@std@@ABV12@@Z@std@@QAE@XZ 0040f3f0 f i systeminfo.obj
 0001:0000e450       ?push_back@?$vector@V?$basic_string@DU?$char_traits@D@std@@V?$allocator@D@2@@std@@V?$allocator@V?$basic_string@DU?$char_traits@D@std@@V?$allocator@D@2@@std@@@2@@std@@QAEXABV?$basic_string@DU?$char_traits@D@std@@V?$allocator@D@2@@2@@Z 0040f450 f i systeminfo.obj
 0001:0000e530       ?_Tidy@?$vector@V?$basic_string@DU?$char_traits@D@std@@V?$allocator@D@2@@std@@V?$allocator@V?$basic_string@DU?$char_traits@D@std@@V?$allocator@D@2@@std@@@2@@std@@IAEXXZ 0040f530 f i systeminfo.obj
 0001:0000e530       ??1?$vector@V?$basic_string@DU?$char_traits@D@std@@V?$allocator@D@2@@std@@V?$allocator@V?$basic_string@DU?$char_traits@D@std@@V?$allocator@D@2@@std@@@2@@std@@QAE@XZ 0040f530 f i systeminfo.obj
 0001:0000e590       ??0?$vector@V?$basic_string@DU?$char_traits@D@std@@V?$allocator@D@2@@std@@V?$allocator@V?$basic_string@DU?$char_traits@D@std@@V?$allocator@D@2@@std@@@2@@std@@QAE@ABV01@@Z 0040f590 f i systeminfo.obj
 0001:0000e680       ?substr@?$basic_string@DU?$char_traits@D@std@@V?$allocator@D@2@@std@@QBE?AV12@II@Z 0040f680 f i systeminfo.obj
 0001:0000e6c0       ?find@?$basic_string@DU?$char_traits@D@std@@V?$allocator@D@2@@std@@QBEIABV12@I@Z 0040f6c0 f i systeminfo.obj
 0001:0000e6e0       ??4?$basic_string@DU?$char_traits@D@std@@V?$allocator@D@2@@std@@QAEAAV01@PBD@Z 0040f6e0 f i systeminfo.obj
 0001:0000e720       ??4?$basic_string@DU?$char_traits@D@std@@V?$allocator@D@2@@std@@QAEAAV01@$$QAV01@@Z 0040f720 f i systeminfo.obj
 0001:0000e7a0       ??0?$basic_string@DU?$char_traits@D@std@@V?$allocator@D@2@@std@@QAE@ID@Z 0040f7a0 f i systeminfo.obj
 0001:0000e800       ??0?$basic_ifstream@DU?$char_traits@D@std@@@std@@QAE@XZ 0040f800 f i systeminfo.obj
 0001:0000e8e0       ?imbue@?$basic_filebuf@DU?$char_traits@D@std@@@std@@MAEXABVlocale@2@@Z 0040f8e0 f i systeminfo.obj
 0001:0000e920       ?sync@?$basic_filebuf@DU?$char_traits@D@std@@@std@@MAEHXZ 0040f920 f i systeminfo.obj
 0001:0000e950       ?setbuf@?$basic_filebuf@DU?$char_traits@D@std@@@std@@MAEPAV?$basic_streambuf@DU?$char_traits@D@std@@@2@PAD_J@Z 0040f950 f i systeminfo.obj
 0001:0000ea40       ?seekpos@?$basic_filebuf@DU?$char_traits@D@std@@@std@@MAE?AV?$fpos@U_Mbstatet@@@2@V32@H@Z 0040fa40 f i systeminfo.obj
 0001:0000eb50       ?seekoff@?$basic_filebuf@DU?$char_traits@D@std@@@std@@MAE?AV?$fpos@U_Mbstatet@@@2@_JHH@Z 0040fb50 f i systeminfo.obj
 0001:0000ec70       ?uflow@?$basic_filebuf@DU?$char_traits@D@std@@@std@@MAEHXZ 0040fc70 f i systeminfo.obj
 0001:0000ef10       ?underflow@?$basic_filebuf@DU?$char_traits@D@std@@@std@@MAEHXZ 0040ff10 f i systeminfo.obj
 0001:0000ef50       ?pbackfail@?$basic_filebuf@DU?$char_traits@D@std@@@std@@MAEHH@Z 0040ff50 f i systeminfo.obj
 0001:0000efe0       ?overflow@?$basic_filebuf@DU?$char_traits@D@std@@@std@@MAEHH@Z 0040ffe0 f i systeminfo.obj
 0001:0000f240       ?_Unlock@?$basic_filebuf@DU?$char_traits@D@std@@@std@@UAEXXZ 00410240 f i systeminfo.obj
 0001:0000f250       ?_Lock@?$basic_filebuf@DU?$char_traits@D@std@@@std@@UAEXXZ 00410250 f i systeminfo.obj
 0001:0000f260       ??1?$basic_filebuf@DU?$char_traits@D@std@@@std@@UAE@XZ 00410260 f i systeminfo.obj
 0001:0000f320       ??_E?$basic_ifstream@DU?$char_traits@D@std@@@std@@UAEPAXI@Z 00410320 f i * CIL library *:* CIL module *
 0001:0000f320       ??_G?$basic_ifstream@DU?$char_traits@D@std@@@std@@UAEPAXI@Z 00410320 f i systeminfo.obj
 0001:0000f380       ??_E?$basic_filebuf@DU?$char_traits@D@std@@@std@@UAEPAXI@Z 00410380 f i * CIL library *:* CIL module *
 0001:0000f380       ??_G?$basic_filebuf@DU?$char_traits@D@std@@@std@@UAEPAXI@Z 00410380 f i systeminfo.obj
 0001:0000f3b0       ?_Reserve@?$vector@V?$basic_string@DU?$char_traits@D@std@@V?$allocator@D@2@@std@@V?$allocator@V?$basic_string@DU?$char_traits@D@std@@V?$allocator@D@2@@std@@@2@@std@@IAEXI@Z 004103b0 f i systeminfo.obj
 0001:0000f440       ?find@?$basic_string@DU?$char_traits@D@std@@V?$allocator@D@2@@std@@QBEIPBDII@Z 00410440 f i systeminfo.obj
 0001:0000f530       ?insert@?$basic_string@DU?$char_traits@D@std@@V?$allocator@D@2@@std@@QAEAAV12@IABV12@II@Z 00410530 f i systeminfo.obj
 0001:0000f660       ?_Set_back@?$basic_filebuf@DU?$char_traits@D@std@@@std@@AAEXXZ 00410660 f i systeminfo.obj
 0001:0000f6a0       ?_Reset_back@?$basic_filebuf@DU?$char_traits@D@std@@@std@@AAEXXZ 004106a0 f i systeminfo.obj
 0001:0000f6d0       ?_Endwrite@?$basic_filebuf@DU?$char_traits@D@std@@@std@@IAE_NXZ 004106d0 f i systeminfo.obj
 0001:0000f880       ?allocate@?$_Wrap_alloc@V?$allocator@VRAMInfo@@@std@@@std@@QAEPAVRAMInfo@@I@Z 00410880 f i systeminfo.obj
 0001:0000f8e0       ?allocate@?$_Wrap_alloc@V?$allocator@VOSInfo@@@std@@@std@@QAEPAVOSInfo@@I@Z 004108e0 f i systeminfo.obj
 0001:0000f940       ?allocate@?$_Wrap_alloc@V?$allocator@VMotherboardInfo@@@std@@@std@@QAEPAVMotherboardInfo@@I@Z 00410940 f i systeminfo.obj
 0001:0000f9a0       ?allocate@?$_Wrap_alloc@V?$allocator@VGPUInfo@@@std@@@std@@QAEPAVGPUInfo@@I@Z 004109a0 f i systeminfo.obj
 0001:0000fa00       ?allocate@?$_Wrap_alloc@V?$allocator@VCPUInfo@@@std@@@std@@QAEPAVCPUInfo@@I@Z 00410a00 f i systeminfo.obj
 0001:0000fa60       ?deallocate@?$_Wrap_alloc@V?$allocator@V?$basic_string@DU?$char_traits@D@std@@V?$allocator@D@2@@std@@@std@@@std@@QAEXPAV?$basic_string@DU?$char_traits@D@std@@V?$allocator@D@2@@2@I@Z 00410a60 f i systeminfo.obj
 0001:0000fad0       ?allocate@?$_Wrap_alloc@V?$allocator@V?$basic_string@DU?$char_traits@D@std@@V?$allocator@D@2@@std@@@std@@@std@@QAEPAV?$basic_string@DU?$char_traits@D@std@@V?$allocator@D@2@@2@I@Z 00410ad0 f i systeminfo.obj
 0001:0000fb30       ?_Reallocate@?$vector@V?$basic_string@DU?$char_traits@D@std@@V?$allocator@D@2@@std@@V?$allocator@V?$basic_string@DU?$char_traits@D@std@@V?$allocator@D@2@@std@@@2@@std@@IAEXI@Z 00410b30 f i systeminfo.obj
 0001:0000fc20       ?_Chassign@?$basic_string@DU?$char_traits@D@std@@V?$allocator@D@2@@std@@QAEXIID@Z 00410c20 f i systeminfo.obj
 0001:0000fc60       ??$use_facet@V?$ctype@D@std@@@std@@YAABV?$ctype@D@0@ABVlocale@0@@Z 00410c60 f i systeminfo.obj
 0001:0000fd70       ??$?6DU?$char_traits@D@std@@V?$allocator@D@1@@std@@YAAAV?$basic_ostream@DU?$char_traits@D@std@@@0@AAV10@ABV?$basic_string@DU?$char_traits@D@std@@V?$allocator@D@2@@0@@Z 00410d70 f i systeminfo.obj
 0001:0000ff70       ??$?HDU?$char_traits@D@std@@V?$allocator@D@1@@std@@YA?AV?$basic_string@DU?$char_traits@D@std@@V?$allocator@D@2@@0@ABV10@PBD@Z 00410f70 f i systeminfo.obj
 0001:00010080       ??$?HDU?$char_traits@D@std@@V?$allocator@D@1@@std@@YA?AV?$basic_string@DU?$char_traits@D@std@@V?$allocator@D@2@@0@$$QAV10@PBD@Z 00411080 f i systeminfo.obj
 0001:000100d0       ??$?8DU?$char_traits@D@std@@V?$allocator@D@1@@std@@YA_NABV?$basic_string@DU?$char_traits@D@std@@V?$allocator@D@2@@0@PBD@Z 004110d0 f i systeminfo.obj
 0001:00010110       ??$toString@_J@OSInfo@@ABE?AV?$basic_string@DU?$char_traits@D@std@@V?$allocator@D@2@@std@@AB_J@Z 00411110 f i systeminfo.obj
 0001:00010110       ??$toString@_J@GPUInfo@@ABE?AV?$basic_string@DU?$char_traits@D@std@@V?$allocator@D@2@@std@@AB_J@Z 00411110 f i systeminfo.obj
 0001:00010110       ??$toString@_J@RAMInfo@@ABE?AV?$basic_string@DU?$char_traits@D@std@@V?$allocator@D@2@@std@@AB_J@Z 00411110 f i systeminfo.obj
 0001:000102f0       ??$?HDU?$char_traits@D@std@@V?$allocator@D@1@@std@@YA?AV?$basic_string@DU?$char_traits@D@std@@V?$allocator@D@2@@0@$$QAV10@0@Z 004112f0 f i systeminfo.obj
 0001:00010350       ??$use_facet@V?$codecvt@DDU_Mbstatet@@@std@@@std@@YAABV?$codecvt@DDU_Mbstatet@@@0@ABVlocale@0@@Z 00411350 f i systeminfo.obj
 0001:00010460       ??0bad_cast@std@@QAE@ABV01@@Z 00411460 f i systeminfo.obj
 0001:000104a0       ??_D?$basic_stringstream@DU?$char_traits@D@std@@V?$allocator@D@2@@std@@QAEXXZ 004114a0 f i systeminfo.obj
 0001:000104f0       ?_Reserve@?$vector@VRAMInfo@@V?$allocator@VRAMInfo@@@std@@@std@@IAEXI@Z 004114f0 f i systeminfo.obj
 0001:00010580       ?_Reserve@?$vector@VOSInfo@@V?$allocator@VOSInfo@@@std@@@std@@IAEXI@Z 00411580 f i systeminfo.obj
 0001:00010610       ?_Reserve@?$vector@VMotherboardInfo@@V?$allocator@VMotherboardInfo@@@std@@@std@@IAEXI@Z 00411610 f i systeminfo.obj
 0001:000106b0       ?_Reserve@?$vector@VGPUInfo@@V?$allocator@VGPUInfo@@@std@@@std@@IAEXI@Z 004116b0 f i systeminfo.obj
 0001:00010740       ?_Reserve@?$vector@VCPUInfo@@V?$allocator@VCPUInfo@@@std@@@std@@IAEXI@Z 00411740 f i systeminfo.obj
 0001:000107e0       ?seekpos@?$basic_stringbuf@DU?$char_traits@D@std@@V?$allocator@D@2@@std@@MAE?AV?$fpos@U_Mbstatet@@@2@V32@H@Z 004117e0 f i systeminfo.obj
 0001:00010920       ?seekoff@?$basic_stringbuf@DU?$char_traits@D@std@@V?$allocator@D@2@@std@@MAE?AV?$fpos@U_Mbstatet@@@2@_JHH@Z 00411920 f i systeminfo.obj
 0001:00010af0       ?underflow@?$basic_stringbuf@DU?$char_traits@D@std@@V?$allocator@D@2@@std@@MAEHXZ 00411af0 f i systeminfo.obj
 0001:00010b50       ?pbackfail@?$basic_stringbuf@DU?$char_traits@D@std@@V?$allocator@D@2@@std@@MAEHH@Z 00411b50 f i systeminfo.obj
 0001:00010bb0       ?overflow@?$basic_stringbuf@DU?$char_traits@D@std@@V?$allocator@D@2@@std@@MAEHH@Z 00411bb0 f i systeminfo.obj
 0001:00010d80       ??_G?$basic_stringstream@DU?$char_traits@D@std@@V?$allocator@D@2@@std@@UAEPAXI@Z 00411d80 f i systeminfo.obj
 0001:00010d80       ??_E?$basic_stringstream@DU?$char_traits@D@std@@V?$allocator@D@2@@std@@UAEPAXI@Z 00411d80 f i * CIL library *:* CIL module *
 0001:00010df0       ??_E?$basic_stringbuf@DU?$char_traits@D@std@@V?$allocator@D@2@@std@@UAEPAXI@Z 00411df0 f i * CIL library *:* CIL module *
 0001:00010df0       ??_G?$basic_stringbuf@DU?$char_traits@D@std@@V?$allocator@D@2@@std@@UAEPAXI@Z 00411df0 f i systeminfo.obj
 0001:00010e30       ?_Reallocate@?$vector@VRAMInfo@@V?$allocator@VRAMInfo@@@std@@@std@@IAEXI@Z 00411e30 f i systeminfo.obj
 0001:00010f30       ?_Reallocate@?$vector@VOSInfo@@V?$allocator@VOSInfo@@@std@@@std@@IAEXI@Z 00411f30 f i systeminfo.obj
 0001:00011030       ?_Reallocate@?$vector@VMotherboardInfo@@V?$allocator@VMotherboardInfo@@@std@@@std@@IAEXI@Z 00412030 f i systeminfo.obj
 0001:00011130       ?_Reallocate@?$vector@VGPUInfo@@V?$allocator@VGPUInfo@@@std@@@std@@IAEXI@Z 00412130 f i systeminfo.obj
 0001:00011230       ?_Reallocate@?$vector@VCPUInfo@@V?$allocator@VCPUInfo@@@std@@@std@@IAEXI@Z 00412230 f i systeminfo.obj
 0001:00011330       ?_Tidy@?$basic_stringbuf@DU?$char_traits@D@std@@V?$allocator@D@2@@std@@IAEXXZ 00412330 f i systeminfo.obj
 0001:000113f0       ??$_Construct@PBV?$basic_string@DU?$char_traits@D@std@@V?$allocator@D@2@@std@@@?$vector@V?$basic_string@DU?$char_traits@D@std@@V?$allocator@D@2@@std@@V?$allocator@V?$basic_string@DU?$char_traits@D@std@@V?$allocator@D@2@@std@@@2@@std@@QAEXPBV?$basic_string@DU?$char_traits@D@std@@V?$allocator@D@2@@1@0Uforward_iterator_tag@1@@Z 004123f0 f i systeminfo.obj
 0001:000114d0       ??$_Destroy_range1@V?$allocator@V?$basic_string@DU?$char_traits@D@std@@V?$allocator@D@2@@std@@@std@@PAV?$basic_string@DU?$char_traits@D@std@@V?$allocator@D@2@@2@@std@@YAXPAV?$basic_string@DU?$char_traits@D@std@@V?$allocator@D@2@@0@0AAU?$_Wrap_alloc@V?$allocator@V?$basic_string@DU?$char_traits@D@std@@V?$allocator@D@2@@std@@@std@@@0@U?$integral_constant@_N$0A@@0@@Z 004124d0 f i systeminfo.obj
 0001:00011520       ??$?5DU?$char_traits@D@std@@V?$allocator@D@1@@std@@YAAAV?$basic_istream@DU?$char_traits@D@std@@@0@$$QAV10@AAV?$basic_string@DU?$char_traits@D@std@@V?$allocator@D@2@@0@@Z 00412520 f i systeminfo.obj
 0001:00011780       ??1sentry@?$basic_istream@DU?$char_traits@D@std@@@std@@QAE@XZ 00412780 f i systeminfo.obj
 0001:000117d0       ?_Delete_this@?$_Func_impl@V<lambda_787d45c283701cc870e4fc26d5464600>@@V?$allocator@H@std@@V?$basic_string@DU?$char_traits@D@std@@V?$allocator@D@2@@3@ABV43@@std@@EAEX_N@Z 004127d0 f i systeminfo.obj
 0001:000117f0       ?_Get@?$_Func_impl@V<lambda_787d45c283701cc870e4fc26d5464600>@@V?$allocator@H@std@@V?$basic_string@DU?$char_traits@D@std@@V?$allocator@D@2@@3@ABV43@@std@@EBEPBXXZ 004127f0 f i systeminfo.obj
 0001:00011800       ?_Target_type@?$_Func_impl@V<lambda_787d45c283701cc870e4fc26d5464600>@@V?$allocator@H@std@@V?$basic_string@DU?$char_traits@D@std@@V?$allocator@D@2@@3@ABV43@@std@@EBEABVtype_info@@XZ 00412800 f i systeminfo.obj
 0001:00011810       ?_Do_call@?$_Func_impl@V<lambda_787d45c283701cc870e4fc26d5464600>@@V?$allocator@H@std@@V?$basic_string@DU?$char_traits@D@std@@V?$allocator@D@2@@3@ABV43@@std@@EAE?AV?$basic_string@DU?$char_traits@D@std@@V?$allocator@D@2@@2@ABV32@@Z 00412810 f i systeminfo.obj
 0001:00011840       ?_Move@?$_Func_impl@V<lambda_787d45c283701cc870e4fc26d5464600>@@V?$allocator@H@std@@V?$basic_string@DU?$char_traits@D@std@@V?$allocator@D@2@@3@ABV43@@std@@EAEPAV?$_Func_base@V?$basic_string@DU?$char_traits@D@std@@V?$allocator@D@2@@std@@ABV12@@2@PAX@Z 00412840 f i systeminfo.obj
 0001:00011840       ?_Copy@?$_Func_impl@V<lambda_787d45c283701cc870e4fc26d5464600>@@V?$allocator@H@std@@V?$basic_string@DU?$char_traits@D@std@@V?$allocator@D@2@@3@ABV43@@std@@EBEPAV?$_Func_base@V?$basic_string@DU?$char_traits@D@std@@V?$allocator@D@2@@std@@ABV12@@2@PAX@Z 00412840 f i systeminfo.obj
 0001:00011860       ??$_Uninitialized_copy_al_unchecked1@PBVRAMInfo@@PAV1@V?$allocator@VRAMInfo@@@std@@@std@@YAPAVRAMInfo@@PBV1@0PAV1@AAU?$_Wrap_alloc@V?$allocator@VRAMInfo@@@std@@@0@U_General_ptr_iterator_tag@0@U_Any_tag@0@@Z 00412860 f i systeminfo.obj
 0001:00011900       ??$_Uninitialized_copy_al_unchecked1@PBVOSInfo@@PAV1@V?$allocator@VOSInfo@@@std@@@std@@YAPAVOSInfo@@PBV1@0PAV1@AAU?$_Wrap_alloc@V?$allocator@VOSInfo@@@std@@@0@U_General_ptr_iterator_tag@0@U_Any_tag@0@@Z 00412900 f i systeminfo.obj
 0001:000119a0       ??$_Uninitialized_copy_al_unchecked1@PBVMotherboardInfo@@PAV1@V?$allocator@VMotherboardInfo@@@std@@@std@@YAPAVMotherboardInfo@@PBV1@0PAV1@AAU?$_Wrap_alloc@V?$allocator@VMotherboardInfo@@@std@@@0@U_General_ptr_iterator_tag@0@U_Any_tag@0@@Z 004129a0 f i systeminfo.obj
 0001:00011a30       ??$_Uninitialized_copy_al_unchecked1@PBVGPUInfo@@PAV1@V?$allocator@VGPUInfo@@@std@@@std@@YAPAVGPUInfo@@PBV1@0PAV1@AAU?$_Wrap_alloc@V?$allocator@VGPUInfo@@@std@@@0@U_General_ptr_iterator_tag@0@U_Any_tag@0@@Z 00412a30 f i systeminfo.obj
 0001:00011ad0       ??$_Uninitialized_copy_al_unchecked1@PBVCPUInfo@@PAV1@V?$allocator@VCPUInfo@@@std@@@std@@YAPAVCPUInfo@@PBV1@0PAV1@AAU?$_Wrap_alloc@V?$allocator@VCPUInfo@@@std@@@0@U_General_ptr_iterator_tag@0@U_Any_tag@0@@Z 00412ad0 f i systeminfo.obj
 0001:00011b70       ??$_Uninitialized_copy_al_unchecked1@PBV?$basic_string@DU?$char_traits@D@std@@V?$allocator@D@2@@std@@PAV12@V?$allocator@V?$basic_string@DU?$char_traits@D@std@@V?$allocator@D@2@@std@@@2@@std@@YAPAV?$basic_string@DU?$char_traits@D@std@@V?$allocator@D@2@@0@PBV10@0PAV10@AAU?$_Wrap_alloc@V?$allocator@V?$basic_string@DU?$char_traits@D@std@@V?$allocator@D@2@@std@@@std@@@0@U_General_ptr_iterator_tag@0@U_Any_tag@0@@Z 00412b70 f i systeminfo.obj
 0001:00011c30       ??$_Uninitialized_move_al_unchecked1@PAV?$basic_string@DU?$char_traits@D@std@@V?$allocator@D@2@@std@@PAV12@V?$allocator@V?$basic_string@DU?$char_traits@D@std@@V?$allocator@D@2@@std@@@2@@std@@YAPAV?$basic_string@DU?$char_traits@D@std@@V?$allocator@D@2@@0@PAV10@00AAU?$_Wrap_alloc@V?$allocator@V?$basic_string@DU?$char_traits@D@std@@V?$allocator@D@2@@std@@@std@@@0@U_General_ptr_iterator_tag@0@U_Any_tag@0@@Z 00412c30 f i systeminfo.obj
 0001:00011c70       ??$_Invoke_ret@V?$basic_string@DU?$char_traits@D@std@@V?$allocator@D@2@@std@@AAV<lambda_787d45c283701cc870e4fc26d5464600>@@ABV12@@std@@YA?AV?$basic_string@DU?$char_traits@D@std@@V?$allocator@D@2@@0@U?$_Forced@V?$basic_string@DU?$char_traits@D@std@@V?$allocator@D@2@@std@@$0A@@0@AAV<lambda_787d45c283701cc870e4fc26d5464600>@@ABV10@@Z 00412c70 f i systeminfo.obj
 0001:00011ca0       ??$invoke@AAV<lambda_787d45c283701cc870e4fc26d5464600>@@ABV?$basic_string@DU?$char_traits@D@std@@V?$allocator@D@2@@std@@@std@@YA?AV?$basic_string@DU?$char_traits@D@std@@V?$allocator@D@2@@0@AAV<lambda_787d45c283701cc870e4fc26d5464600>@@ABV10@@Z 00412ca0 f i systeminfo.obj
 0001:00011cd0       ??$_Uninitialized_move_al_unchecked1@PAVRAMInfo@@PAV1@V?$allocator@VRAMInfo@@@std@@@std@@YAPAVRAMInfo@@PAV1@00AAU?$_Wrap_alloc@V?$allocator@VRAMInfo@@@std@@@0@U_General_ptr_iterator_tag@0@U_Any_tag@0@@Z 00412cd0 f i systeminfo.obj
 0001:00011d80       ??$_Uninitialized_move_al_unchecked1@PAVOSInfo@@PAV1@V?$allocator@VOSInfo@@@std@@@std@@YAPAVOSInfo@@PAV1@00AAU?$_Wrap_alloc@V?$allocator@VOSInfo@@@std@@@0@U_General_ptr_iterator_tag@0@U_Any_tag@0@@Z 00412d80 f i systeminfo.obj
 0001:00011dc0       ??$_Uninitialized_move_al_unchecked1@PAVMotherboardInfo@@PAV1@V?$allocator@VMotherboardInfo@@@std@@@std@@YAPAVMotherboardInfo@@PAV1@00AAU?$_Wrap_alloc@V?$allocator@VMotherboardInfo@@@std@@@0@U_General_ptr_iterator_tag@0@U_Any_tag@0@@Z 00412dc0 f i systeminfo.obj
 0001:00011e30       ??$_Uninitialized_move_al_unchecked1@PAVGPUInfo@@PAV1@V?$allocator@VGPUInfo@@@std@@@std@@YAPAVGPUInfo@@PAV1@00AAU?$_Wrap_alloc@V?$allocator@VGPUInfo@@@std@@@0@U_General_ptr_iterator_tag@0@U_Any_tag@0@@Z 00412e30 f i systeminfo.obj
 0001:00011e70       ??$_Uninitialized_move_al_unchecked1@PAVCPUInfo@@PAV1@V?$allocator@VCPUInfo@@@std@@@std@@YAPAVCPUInfo@@PAV1@00AAU?$_Wrap_alloc@V?$allocator@VCPUInfo@@@std@@@0@U_General_ptr_iterator_tag@0@U_Any_tag@0@@Z 00412e70 f i systeminfo.obj
 0001:00011f00       ??$_Call@AAV<lambda_787d45c283701cc870e4fc26d5464600>@@ABV?$basic_string@DU?$char_traits@D@std@@V?$allocator@D@2@@std@@@_Invoker_functor@std@@SA?AV?$basic_string@DU?$char_traits@D@std@@V?$allocator@D@2@@1@AAV<lambda_787d45c283701cc870e4fc26d5464600>@@ABV21@@Z 00412f00 f i systeminfo.obj
 0001:00011f30       ??0RAMInfo@@QAE@ABV0@@Z    00412f30 f i systeminfo.obj
 0001:00012110       ??0OSInfo@@QAE@ABV0@@Z     00413110 f i systeminfo.obj
 0001:00012440       ??0MotherboardInfo@@QAE@ABV0@@Z 00413440 f i systeminfo.obj
 0001:00012580       ??0GPUInfo@@QAE@ABV0@@Z    00413580 f i systeminfo.obj
 0001:000127d0       ??0CPUInfo@@QAE@ABV0@@Z    004137d0 f i systeminfo.obj
 0001:00012940       ??0OSInfo@@QAE@$$QAV0@@Z   00413940 f i systeminfo.obj
 0001:00012a30       ??0GPUInfo@@QAE@$$QAV0@@Z  00413a30 f i systeminfo.obj
 0001:00012ad8       ??_E?$basic_stringstream@DU?$char_traits@D@std@@V?$allocator@D@2@@std@@$4PPPPPPPM@A@AEPAXI@Z 00413ad8 f i systeminfo.obj
 0001:00012ae0       ??_E?$basic_ifstream@DU?$char_traits@D@std@@@std@@$4PPPPPPPM@A@AEPAXI@Z 00413ae0 f i systeminfo.obj
 0001:00012ae8       ??1_Fac_node@std@@QAE@XZ   00413ae8 f i msvcprt:locale0_implib.obj
 0001:00012b47       ??1_Fac_tidy_reg_t@std@@QAE@XZ 00413b47 f i msvcprt:locale0_implib.obj
 0001:00012b6e       ?_Facet_Register@std@@YAXPAV_Facet_base@1@@Z 00413b6e f   msvcprt:locale0_implib.obj
 0001:00012b9c       ?_Lock@?$basic_streambuf@DU?$char_traits@D@std@@@std@@UAEXXZ 00413b9c f   msvcprt:MSVCP140.dll
 0001:00012ba2       ?_Unlock@?$basic_streambuf@DU?$char_traits@D@std@@@std@@UAEXXZ 00413ba2 f   msvcprt:MSVCP140.dll
 0001:00012ba8       ?showmanyc@?$basic_streambuf@DU?$char_traits@D@std@@@std@@MAE_JXZ 00413ba8 f   msvcprt:MSVCP140.dll
 0001:00012bae       ?uflow@?$basic_streambuf@DU?$char_traits@D@std@@@std@@MAEHXZ 00413bae f   msvcprt:MSVCP140.dll
 0001:00012bb4       ?xsgetn@?$basic_streambuf@DU?$char_traits@D@std@@@std@@MAE_JPAD_J@Z 00413bb4 f   msvcprt:MSVCP140.dll
 0001:00012bba       ?xsputn@?$basic_streambuf@DU?$char_traits@D@std@@@std@@MAE_JPBD_J@Z 00413bba f   msvcprt:MSVCP140.dll
 0001:00012bc0       ?setbuf@?$basic_streambuf@DU?$char_traits@D@std@@@std@@MAEPAV12@PAD_J@Z 00413bc0 f   msvcprt:MSVCP140.dll
 0001:00012bc6       ?sync@?$basic_streambuf@DU?$char_traits@D@std@@@std@@MAEHXZ 00413bc6 f   msvcprt:MSVCP140.dll
 0001:00012bcc       ?imbue@?$basic_streambuf@DU?$char_traits@D@std@@@std@@MAEXABVlocale@2@@Z 00413bcc f   msvcprt:MSVCP140.dll
 0001:00012bd2       @__security_check_cookie@4 00413bd2 f   MSVCRT:_secchk_.obj
 0001:00012be3       ??2@YAPAXI@Z               00413be3 f   MSVCRT:new_scalar.obj
 0001:00012c16       ??3@YAXPAX@Z               00413c16 f   MSVCRT:delete_scalar.obj
 0001:00012c1b       ??3@YAXPAXI@Z              00413c1b f   MSVCRT:delete_scalar_size.obj
 0001:00012c29       ??_M@YGXPAXIIP6EX0@Z@Z     00413c29 f   MSVCRT:ehvecdtr.obj
 0001:00012ca3       ?__ArrayUnwind@@YGXPAXIIP6EX0@Z@Z 00413ca3 f   MSVCRT:ehvecdtr.obj
 0001:00012d54       ___scrt_acquire_startup_lock 00413d54 f   MSVCRT:utility.obj
 0001:00012d89       ___scrt_initialize_crt     00413d89 f   MSVCRT:utility.obj
 0001:00012dc2       ___scrt_initialize_onexit_tables 00413dc2 f   MSVCRT:utility.obj
 0001:00012e59       ___scrt_is_nonwritable_in_current_image 00413e59 f   MSVCRT:utility.obj
 0001:00012ee3       ___scrt_release_startup_lock 00413ee3 f   MSVCRT:utility.obj
 0001:00012f00       ___scrt_uninitialize_crt   00413f00 f   MSVCRT:utility.obj
 0001:00012f28       __onexit                   00413f28 f   MSVCRT:utility.obj
 0001:00012f63       _atexit                    00413f63 f   MSVCRT:utility.obj
 0001:00012f78       ??_Etype_info@@UAEPAXI@Z   00413f78 f i MSVCRT:std_type_info_static.obj
 0001:00012f78       ??_Gtype_info@@UAEPAXI@Z   00413f78 f i MSVCRT:std_type_info_static.obj
 0001:000131c1       _WinMainCRTStartup         004141c1 f   MSVCRT:exe_winmain.obj
 0001:000131cb       @_guard_check_icall@4      004141cb f i MSVCRT:checkcfg.obj
 0001:000131d1       ___raise_securityfailure   004141d1 f   MSVCRT:gs_report.obj
 0001:000131f9       ___report_gsfailure        004141f9 f   MSVCRT:gs_report.obj
 0001:000132f4       ??0bad_alloc@std@@QAE@ABV01@@Z 004142f4 f i MSVCRT:throw_bad_alloc.obj
 0001:0001330f       ??0bad_alloc@std@@QAE@XZ   0041430f f i MSVCRT:throw_bad_alloc.obj
 0001:00013327       ??0bad_array_new_length@std@@QAE@ABV01@@Z 00414327 f i MSVCRT:throw_bad_alloc.obj
 0001:00013342       ??0bad_array_new_length@std@@QAE@XZ 00414342 f i MSVCRT:throw_bad_alloc.obj
 0001:0001335a       ??1bad_alloc@std@@UAE@XZ   0041435a f i MSVCRT:throw_bad_alloc.obj
 0001:0001335a       ??1bad_array_new_length@std@@UAE@XZ 0041435a f i MSVCRT:throw_bad_alloc.obj
 0001:0001336b       ??_Ebad_alloc@std@@UAEPAXI@Z 0041436b f i MSVCRT:throw_bad_alloc.obj
 0001:0001336b       ??_Gbad_alloc@std@@UAEPAXI@Z 0041436b f i MSVCRT:throw_bad_alloc.obj
 0001:0001336b       ??_Gbad_array_new_length@std@@UAEPAXI@Z 0041436b f i MSVCRT:throw_bad_alloc.obj
 0001:0001336b       ??_Ebad_array_new_length@std@@UAEPAXI@Z 0041436b f i MSVCRT:throw_bad_alloc.obj
 0001:00013398       ?__scrt_throw_std_bad_alloc@@YAXXZ 00414398 f   MSVCRT:throw_bad_alloc.obj
 0001:000133b5       ?__scrt_throw_std_bad_array_new_length@@YAXXZ 004143b5 f   MSVCRT:throw_bad_alloc.obj
 0001:000133e0       __SEH_prolog4              004143e0 f   MSVCRT:_sehprolg4_.obj
 0001:00013426       __SEH_epilog4              00414426 f   MSVCRT:_sehprolg4_.obj
 0001:0001343b       __except_handler4          0041443b f   MSVCRT:_chandler4gs_.obj
 0001:0001345e       ___isa_available_init      0041445e f   MSVCRT:_cpu_disp_.obj
 0001:00013602       __get_startup_argv_mode    00414602 f   MSVCRT:argv_mode.obj
 0001:00013606       ___scrt_is_ucrt_dll_in_use 00414606 f   MSVCRT:ucrt_detection.obj
 0001:00013612       ___scrt_fastfail           00414612 f   MSVCRT:utility_desktop.obj
 0001:0001372d       ___scrt_get_show_window_mode 0041472d f   MSVCRT:utility_desktop.obj
 0001:00013760       ___scrt_is_managed_app     00414760 f   MSVCRT:utility_desktop.obj
 0001:000137a4       ___scrt_set_unhandled_exception_filter 004147a4 f   MSVCRT:utility_desktop.obj
 0001:000137b0       ___scrt_unhandled_exception_filter@4 004147b0 f   MSVCRT:utility_desktop.obj
 0001:000137f1       ___security_init_cookie    004147f1 f   MSVCRT:gs_support.obj
 0001:0001388d       __get_startup_commit_mode  0041488d f   MSVCRT:commit_mode.obj
 0001:0001388d       __matherr                  0041488d f   MSVCRT:matherr.obj
 0001:0001388d       __get_startup_new_mode     0041488d f   MSVCRT:new_mode.obj
 0001:0001388d       ___scrt_initialize_winrt   0041488d f   MSVCRT:utility_desktop.obj
 0001:0001388d       __get_startup_thread_locale_mode 0041488d f   MSVCRT:thread_locale.obj
 0001:00013890       __get_startup_file_mode    00414890 f   MSVCRT:file_mode.obj
 0001:00013896       ?__scrt_initialize_type_info@@YAXXZ 00414896 f   MSVCRT:tncleanup.obj
 0001:000138a2       ___scrt_stub_for_acrt_initialize 004148a2 f   MSVCRT:ucrt_stubs.obj
 0001:000138a2       __should_initialize_environment 004148a2 f   MSVCRT:env_mode.obj
 0001:000138a2       ___vcrt_initialize         004148a2 f   MSVCRT:ucrt_stubs.obj
 0001:000138a2       ___acrt_initialize         004148a2 f   MSVCRT:ucrt_stubs.obj
 0001:000138a2       ___acrt_uninitialize       004148a2 f   MSVCRT:ucrt_stubs.obj
 0001:000138a2       ___vcrt_uninitialize       004148a2 f   MSVCRT:ucrt_stubs.obj
 0001:000138a2       ___scrt_stub_for_acrt_uninitialize 004148a2 f   MSVCRT:ucrt_stubs.obj
 0001:000138a5       __initialize_default_precision 004148a5 f   MSVCRT:default_precision.obj
 0001:000138c6       ___local_stdio_scanf_options 004148c6 f i MSVCRT:default_local_stdio_options.obj
 0001:000138cc       ___scrt_initialize_default_local_stdio_options 004148cc f   MSVCRT:default_local_stdio_options.obj
 0001:000138e9       ___scrt_is_user_matherr_present 004148e9 f   MSVCRT:matherr_detection.obj
 0001:000138f5       ___scrt_get_dyn_tls_init_callback 004148f5 f   MSVCRT:dyn_tls_init.obj
 0001:000138fb       ___scrt_get_dyn_tls_dtor_callback 004148fb f   MSVCRT:dyn_tls_dtor.obj
 0001:00013901       __RTC_Initialize           00414901 f   MSVCRT:_initsect_.obj
 0001:0001392c       __RTC_Terminate            0041492c f   MSVCRT:_initsect_.obj
 0001:00013958       ___std_exception_destroy   00414958 f   vcruntime:VCRUNTIME140.dll
 0001:0001395e       __purecall                 0041495e f   vcruntime:VCRUNTIME140.dll
 0001:00013964       ___CxxFrameHandler3        00414964 f   vcruntime:VCRUNTIME140.dll
 0001:0001396a       __CxxThrowException@8      0041496a f   vcruntime:VCRUNTIME140.dll
 0001:00013970       __except_handler4_common   00414970 f   vcruntime:VCRUNTIME140.dll
 0001:00013976       _memset                    00414976 f   vcruntime:VCRUNTIME140.dll
 0001:0001397c       __callnewh                 0041497c f   ucrt:api-ms-win-crt-heap-l1-1-0.dll
 0001:00013982       _malloc                    00414982 f   ucrt:api-ms-win-crt-heap-l1-1-0.dll
 0001:00013988       _free                      00414988 f   ucrt:api-ms-win-crt-heap-l1-1-0.dll
 0001:0001398e       _terminate                 0041498e f   ucrt:api-ms-win-crt-runtime-l1-1-0.dll
 0001:00013994       __configure_narrow_argv    00414994 f   ucrt:api-ms-win-crt-runtime-l1-1-0.dll
 0001:0001399a       __initialize_narrow_environment 0041499a f   ucrt:api-ms-win-crt-runtime-l1-1-0.dll
 0001:000139a0       __initialize_onexit_table  004149a0 f   ucrt:api-ms-win-crt-runtime-l1-1-0.dll
 0001:000139a6       __register_onexit_function 004149a6 f   ucrt:api-ms-win-crt-runtime-l1-1-0.dll
 0001:000139ac       __crt_atexit               004149ac f   ucrt:api-ms-win-crt-runtime-l1-1-0.dll
 0001:000139b2       __cexit                    004149b2 f   ucrt:api-ms-win-crt-runtime-l1-1-0.dll
 0001:000139b8       __seh_filter_exe           004149b8 f   ucrt:api-ms-win-crt-runtime-l1-1-0.dll
 0001:000139be       __set_app_type             004149be f   ucrt:api-ms-win-crt-runtime-l1-1-0.dll
 0001:000139c4       ___setusermatherr          004149c4 f   ucrt:api-ms-win-crt-math-l1-1-0.dll
 0001:000139ca       __get_narrow_winmain_command_line 004149ca f   ucrt:api-ms-win-crt-runtime-l1-1-0.dll
 0001:000139d0       __initterm                 004149d0 f   ucrt:api-ms-win-crt-runtime-l1-1-0.dll
 0001:000139d6       __initterm_e               004149d6 f   ucrt:api-ms-win-crt-runtime-l1-1-0.dll
 0001:000139dc       _exit                      004149dc f   ucrt:api-ms-win-crt-runtime-l1-1-0.dll
 0001:000139e2       __exit                     004149e2 f   ucrt:api-ms-win-crt-runtime-l1-1-0.dll
 0001:000139e8       __set_fmode                004149e8 f   ucrt:api-ms-win-crt-stdio-l1-1-0.dll
 0001:000139ee       __c_exit                   004149ee f   ucrt:api-ms-win-crt-runtime-l1-1-0.dll
 0001:000139f4       __register_thread_local_exe_atexit_callback 004149f4 f   ucrt:api-ms-win-crt-runtime-l1-1-0.dll
 0001:000139fa       __configthreadlocale       004149fa f   ucrt:api-ms-win-crt-locale-l1-1-0.dll
 0001:00013a00       __set_new_mode             00414a00 f   ucrt:api-ms-win-crt-heap-l1-1-0.dll
 0001:00013a06       ___p__commode              00414a06 f   ucrt:api-ms-win-crt-stdio-l1-1-0.dll
 0001:00013a0c       __controlfp_s              00414a0c f   ucrt:api-ms-win-crt-runtime-l1-1-0.dll
 0001:00013a12       _IsProcessorFeaturePresent@4 00414a12 f   kernel32:KERNEL32.dll
 0001:00013a20       __alldiv                   00414a20 f   MSVCRT:lldiv.obj
 0001:00013ad0       __alloca_probe             00414ad0 f   MSVCRT:chkstk.obj
 0001:00013ad0       __chkstk                   00414ad0 f   MSVCRT:chkstk.obj
 0001:00013afe       _memcpy                    00414afe f   vcruntime:VCRUNTIME140.dll
 0002:00000000       __imp__AdjustTokenPrivileges@24 00418000     advapi32:ADVAPI32.dll
 0002:00000004       __imp__OpenProcessToken@12 00418004     advapi32:ADVAPI32.dll
 0002:00000008       __imp__LookupPrivilegeValueA@12 00418008     advapi32:ADVAPI32.dll
 0002:0000000c       \177ADVAPI32_NULL_THUNK_DATA 0041800c     advapi32:ADVAPI32.dll
 0002:00000010       __imp__CreateSolidBrush@4  00418010     gdi32:GDI32.dll
 0002:00000014       \177GDI32_NULL_THUNK_DATA  00418014     gdi32:GDI32.dll
 0002:00000018       __imp__K32EnumProcessModules@16 00418018     kernel32:KERNEL32.dll
 0002:0000001c       __imp__GetSystemTime@4     0041801c     kernel32:KERNEL32.dll
 0002:00000020       __imp__AllocConsole@0      00418020     kernel32:KERNEL32.dll
 0002:00000024       __imp__InitializeSListHead@4 00418024     kernel32:KERNEL32.dll
 0002:00000028       __imp__GetSystemTimeAsFileTime@4 00418028     kernel32:KERNEL32.dll
 0002:0000002c       __imp__GetCurrentThreadId@0 0041802c     kernel32:KERNEL32.dll
 0002:00000030       __imp__ReadProcessMemory@20 00418030     kernel32:KERNEL32.dll
 0002:00000034       __imp__QueryPerformanceCounter@4 00418034     kernel32:KERNEL32.dll
 0002:00000038       __imp__GetModuleHandleW@4  00418038     kernel32:KERNEL32.dll
 0002:0000003c       __imp__GetStartupInfoW@4   0041803c     kernel32:KERNEL32.dll
 0002:00000040       __imp__IsDebuggerPresent@0 00418040     kernel32:KERNEL32.dll
 0002:00000044       __imp__IsProcessorFeaturePresent@4 00418044     kernel32:KERNEL32.dll
 0002:00000048       __imp__TerminateProcess@8  00418048     kernel32:KERNEL32.dll
 0002:0000004c       __imp__SetUnhandledExceptionFilter@4 0041804c     kernel32:KERNEL32.dll
 0002:00000050       __imp__UnhandledExceptionFilter@4 00418050     kernel32:KERNEL32.dll
 0002:00000054       __imp__Beep@8              00418054     kernel32:KERNEL32.dll
 0002:00000058       __imp__CloseHandle@4       00418058     kernel32:KERNEL32.dll
 0002:0000005c       __imp__K32GetModuleFileNameExA@16 0041805c     kernel32:KERNEL32.dll
 0002:00000060       __imp__OpenProcess@12      00418060     kernel32:KERNEL32.dll
 0002:00000064       __imp__GetCurrentProcessId@0 00418064     kernel32:KERNEL32.dll
 0002:00000068       __imp__GetCurrentProcess@0 00418068     kernel32:KERNEL32.dll
 0002:0000006c       \177KERNEL32_NULL_THUNK_DATA 0041806c     kernel32:KERNEL32.dll
 0002:00000070       __imp_?_Getcat@?$ctype@D@std@@SAIPAPBVfacet@locale@2@PBV42@@Z 00418070     msvcprt:MSVCP140.dll
 0002:00000074       __imp_?always_noconv@codecvt_base@std@@QBE_NXZ 00418074     msvcprt:MSVCP140.dll
 0002:00000078       __imp_??Bid@locale@std@@QAEIXZ 00418078     msvcprt:MSVCP140.dll
 0002:0000007c       __imp_??1?$basic_iostream@DU?$char_traits@D@std@@@std@@UAE@XZ 0041807c     msvcprt:MSVCP140.dll
 0002:00000080       __imp_?getloc@ios_base@std@@QBE?AVlocale@2@XZ 00418080     msvcprt:MSVCP140.dll
 0002:00000084       __imp_?cout@std@@3V?$basic_ostream@DU?$char_traits@D@std@@@1@A 00418084     msvcprt:MSVCP140.dll
 0002:00000088       __imp_?uncaught_exception@std@@YA_NXZ 00418088     msvcprt:MSVCP140.dll
 0002:0000008c       __imp_?_Xbad_alloc@std@@YAXXZ 0041808c     msvcprt:MSVCP140.dll
 0002:00000090       __imp_?_Xout_of_range@std@@YAXPBD@Z 00418090     msvcprt:MSVCP140.dll
 0002:00000094       __imp_?_Xlength_error@std@@YAXPBD@Z 00418094     msvcprt:MSVCP140.dll
 0002:00000098       __imp_?_Osfx@?$basic_ostream@DU?$char_traits@D@std@@@std@@QAEXXZ 00418098     msvcprt:MSVCP140.dll
 0002:0000009c       __imp_?setstate@?$basic_ios@DU?$char_traits@D@std@@@std@@QAEXH_N@Z 0041809c     msvcprt:MSVCP140.dll
 0002:000000a0       __imp_?widen@?$basic_ios@DU?$char_traits@D@std@@@std@@QBEDD@Z 004180a0     msvcprt:MSVCP140.dll
 0002:000000a4       __imp_?sputn@?$basic_streambuf@DU?$char_traits@D@std@@@std@@QAE_JPBD_J@Z 004180a4     msvcprt:MSVCP140.dll
 0002:000000a8       __imp_?put@?$basic_ostream@DU?$char_traits@D@std@@@std@@QAEAAV12@D@Z 004180a8     msvcprt:MSVCP140.dll
 0002:000000ac       __imp_?flush@?$basic_ostream@DU?$char_traits@D@std@@@std@@QAEAAV12@XZ 004180ac     msvcprt:MSVCP140.dll
 0002:000000b0       __imp_?sputc@?$basic_streambuf@DU?$char_traits@D@std@@@std@@QAEHD@Z 004180b0     msvcprt:MSVCP140.dll
 0002:000000b4       __imp_??6?$basic_ostream@DU?$char_traits@D@std@@@std@@QAEAAV01@P6AAAV01@AAV01@@Z@Z 004180b4     msvcprt:MSVCP140.dll
 0002:000000b8       __imp_??1_Lockit@std@@QAE@XZ 004180b8     msvcprt:MSVCP140.dll
 0002:000000bc       __imp_??0_Lockit@std@@QAE@H@Z 004180bc     msvcprt:MSVCP140.dll
 0002:000000c0       __imp_?_Getgloballocale@locale@std@@CAPAV_Locimp@12@XZ 004180c0     msvcprt:MSVCP140.dll
 0002:000000c4       __imp_?_Xinvalid_argument@std@@YAXPBD@Z 004180c4     msvcprt:MSVCP140.dll
 0002:000000c8       __imp_?_BADOFF@std@@3_JB   004180c8     msvcprt:MSVCP140.dll
 0002:000000cc       __imp_?_Xbad_function_call@std@@YAXXZ 004180cc     msvcprt:MSVCP140.dll
 0002:000000d0       __imp_?id@?$codecvt@DDU_Mbstatet@@@std@@2V0locale@2@A 004180d0     msvcprt:MSVCP140.dll
 0002:000000d4       __imp_?id@?$ctype@D@std@@2V0locale@2@A 004180d4     msvcprt:MSVCP140.dll
 0002:000000d8       __imp_?_Ipfx@?$basic_istream@DU?$char_traits@D@std@@@std@@QAE_N_N@Z 004180d8     msvcprt:MSVCP140.dll
 0002:000000dc       __imp_?snextc@?$basic_streambuf@DU?$char_traits@D@std@@@std@@QAEHXZ 004180dc     msvcprt:MSVCP140.dll
 0002:000000e0       __imp_??0?$basic_iostream@DU?$char_traits@D@std@@@std@@QAE@PAV?$basic_streambuf@DU?$char_traits@D@std@@@1@@Z 004180e0     msvcprt:MSVCP140.dll
 0002:000000e4       __imp_??6?$basic_ostream@DU?$char_traits@D@std@@@std@@QAEAAV01@_J@Z 004180e4     msvcprt:MSVCP140.dll
 0002:000000e8       __imp_?_Getcat@?$codecvt@DDU_Mbstatet@@@std@@SAIPAPBVfacet@locale@2@PBV42@@Z 004180e8     msvcprt:MSVCP140.dll
 0002:000000ec       __imp_?sgetc@?$basic_streambuf@DU?$char_traits@D@std@@@std@@QAEHXZ 004180ec     msvcprt:MSVCP140.dll
 0002:000000f0       __imp_??0?$basic_streambuf@DU?$char_traits@D@std@@@std@@IAE@XZ 004180f0     msvcprt:MSVCP140.dll
 0002:000000f4       __imp_?_Init@?$basic_streambuf@DU?$char_traits@D@std@@@std@@IAEXXZ 004180f4     msvcprt:MSVCP140.dll
 0002:000000f8       __imp_?unshift@?$codecvt@DDU_Mbstatet@@@std@@QBEHAAU_Mbstatet@@PAD1AAPAD@Z 004180f8     msvcprt:MSVCP140.dll
 0002:000000fc       __imp_??0?$basic_ios@DU?$char_traits@D@std@@@std@@IAE@XZ 004180fc     msvcprt:MSVCP140.dll
 0002:00000100       __imp_??0?$basic_istream@DU?$char_traits@D@std@@@std@@QAE@PAV?$basic_streambuf@DU?$char_traits@D@std@@@1@_N@Z 00418100     msvcprt:MSVCP140.dll
 0002:00000104       __imp_?in@?$codecvt@DDU_Mbstatet@@@std@@QBEHAAU_Mbstatet@@PBD1AAPBDPAD3AAPAD@Z 00418104     msvcprt:MSVCP140.dll
 0002:00000108       __imp_?out@?$codecvt@DDU_Mbstatet@@@std@@QBEHAAU_Mbstatet@@PBD1AAPBDPAD3AAPAD@Z 00418108     msvcprt:MSVCP140.dll
 0002:0000010c       __imp_??1?$basic_ios@DU?$char_traits@D@std@@@std@@UAE@XZ 0041810c     msvcprt:MSVCP140.dll
 0002:00000110       __imp_??1?$basic_streambuf@DU?$char_traits@D@std@@@std@@UAE@XZ 00418110     msvcprt:MSVCP140.dll
 0002:00000114       __imp_?_Lock@?$basic_streambuf@DU?$char_traits@D@std@@@std@@UAEXXZ 00418114     msvcprt:MSVCP140.dll
 0002:00000118       __imp_?_Unlock@?$basic_streambuf@DU?$char_traits@D@std@@@std@@UAEXXZ 00418118     msvcprt:MSVCP140.dll
 0002:0000011c       __imp_?showmanyc@?$basic_streambuf@DU?$char_traits@D@std@@@std@@MAE_JXZ 0041811c     msvcprt:MSVCP140.dll
 0002:00000120       __imp_?uflow@?$basic_streambuf@DU?$char_traits@D@std@@@std@@MAEHXZ 00418120     msvcprt:MSVCP140.dll
 0002:00000124       __imp_?xsgetn@?$basic_streambuf@DU?$char_traits@D@std@@@std@@MAE_JPAD_J@Z 00418124     msvcprt:MSVCP140.dll
 0002:00000128       __imp_?xsputn@?$basic_streambuf@DU?$char_traits@D@std@@@std@@MAE_JPBD_J@Z 00418128     msvcprt:MSVCP140.dll
 0002:0000012c       __imp_?setbuf@?$basic_streambuf@DU?$char_traits@D@std@@@std@@MAEPAV12@PAD_J@Z 0041812c     msvcprt:MSVCP140.dll
 0002:00000130       __imp_?sync@?$basic_streambuf@DU?$char_traits@D@std@@@std@@MAEHXZ 00418130     msvcprt:MSVCP140.dll
 0002:00000134       __imp_?imbue@?$basic_streambuf@DU?$char_traits@D@std@@@std@@MAEXABVlocale@2@@Z 00418134     msvcprt:MSVCP140.dll
 0002:00000138       __imp_??1?$basic_istream@DU?$char_traits@D@std@@@std@@UAE@XZ 00418138     msvcprt:MSVCP140.dll
 0002:0000013c       \177MSVCP140_NULL_THUNK_DATA 0041813c     msvcprt:MSVCP140.dll
 0002:00000140       __imp__GetWindowThreadProcessId@8 00418140     user32:USER32.dll
 0002:00000144       __imp__GetMessageA@16      00418144     user32:USER32.dll
 0002:00000148       __imp__DispatchMessageA@4  00418148     user32:USER32.dll
 0002:0000014c       __imp__GetWindowRect@8     0041814c     user32:USER32.dll
 0002:00000150       __imp__DestroyWindow@4     00418150     user32:USER32.dll
 0002:00000154       __imp__ShowWindow@8        00418154     user32:USER32.dll
 0002:00000158       __imp__UpdateWindow@4      00418158     user32:USER32.dll
 0002:0000015c       __imp__RegisterClassExA@4  0041815c     user32:USER32.dll
 0002:00000160       __imp__FindWindowA@8       00418160     user32:USER32.dll
 0002:00000164       __imp__PostQuitMessage@4   00418164     user32:USER32.dll
 0002:00000168       __imp__GetForegroundWindow@0 00418168     user32:USER32.dll
 0002:0000016c       __imp__MoveWindow@24       0041816c     user32:USER32.dll
 0002:00000170       __imp__DefWindowProcA@16   00418170     user32:USER32.dll
 0002:00000174       __imp__CreateWindowExA@48  00418174     user32:USER32.dll
 0002:00000178       __imp__SetLayeredWindowAttributes@16 00418178     user32:USER32.dll
 0002:0000017c       __imp__GetAsyncKeyState@4  0041817c     user32:USER32.dll
 0002:00000180       __imp__TranslateMessage@4  00418180     user32:USER32.dll
 0002:00000184       __imp__UnregisterClassA@8  00418184     user32:USER32.dll
 0002:00000188       \177USER32_NULL_THUNK_DATA 00418188     user32:USER32.dll
 0002:0000018c       __imp___CxxThrowException@8 0041818c     vcruntime:VCRUNTIME140.dll
 0002:00000190       __imp___except_handler4_common 00418190     vcruntime:VCRUNTIME140.dll
 0002:00000194       __imp__memset              00418194     vcruntime:VCRUNTIME140.dll
 0002:00000198       __imp____CxxFrameHandler3  00418198     vcruntime:VCRUNTIME140.dll
 0002:0000019c       __imp__memchr              0041819c     vcruntime:VCRUNTIME140.dll
 0002:000001a0       __imp____std_exception_copy 004181a0     vcruntime:VCRUNTIME140.dll
 0002:000001a4       __imp____std_exception_destroy 004181a4     vcruntime:VCRUNTIME140.dll
 0002:000001a8       __imp__strstr              004181a8     vcruntime:VCRUNTIME140.dll
 0002:000001ac       __imp____std_terminate     004181ac     vcruntime:VCRUNTIME140.dll
 0002:000001b0       __imp__memmove             004181b0     vcruntime:VCRUNTIME140.dll
 0002:000001b4       __imp___purecall           004181b4     vcruntime:VCRUNTIME140.dll
 0002:000001b8       __imp__memcpy              004181b8     vcruntime:VCRUNTIME140.dll
 0002:000001bc       \177VCRUNTIME140_NULL_THUNK_DATA 004181bc     vcruntime:VCRUNTIME140.dll
 0002:000001c0       __imp__strtol              004181c0     ucrt:api-ms-win-crt-convert-l1-1-0.dll
 0002:000001c4       __imp__strtoll             004181c4     ucrt:api-ms-win-crt-convert-l1-1-0.dll
 0002:000001c8       \177api-ms-win-crt-convert-l1-1-0_NULL_THUNK_DATA 004181c8     ucrt:api-ms-win-crt-convert-l1-1-0.dll
 0002:000001cc       __imp___lock_file          004181cc     ucrt:api-ms-win-crt-filesystem-l1-1-0.dll
 0002:000001d0       __imp___unlock_file        004181d0     ucrt:api-ms-win-crt-filesystem-l1-1-0.dll
 0002:000001d4       \177api-ms-win-crt-filesystem-l1-1-0_NULL_THUNK_DATA 004181d4     ucrt:api-ms-win-crt-filesystem-l1-1-0.dll
 0002:000001d8       __imp___callnewh           004181d8     ucrt:api-ms-win-crt-heap-l1-1-0.dll
 0002:000001dc       __imp__free                004181dc     ucrt:api-ms-win-crt-heap-l1-1-0.dll
 0002:000001e0       __imp__malloc              004181e0     ucrt:api-ms-win-crt-heap-l1-1-0.dll
 0002:000001e4       __imp___set_new_mode       004181e4     ucrt:api-ms-win-crt-heap-l1-1-0.dll
 0002:000001e8       \177api-ms-win-crt-heap-l1-1-0_NULL_THUNK_DATA 004181e8     ucrt:api-ms-win-crt-heap-l1-1-0.dll
 0002:000001ec       __imp___configthreadlocale 004181ec     ucrt:api-ms-win-crt-locale-l1-1-0.dll
 0002:000001f0       \177api-ms-win-crt-locale-l1-1-0_NULL_THUNK_DATA 004181f0     ucrt:api-ms-win-crt-locale-l1-1-0.dll
 0002:000001f4       __imp____setusermatherr    004181f4     ucrt:api-ms-win-crt-math-l1-1-0.dll
 0002:000001f8       \177api-ms-win-crt-math-l1-1-0_NULL_THUNK_DATA 004181f8     ucrt:api-ms-win-crt-math-l1-1-0.dll
 0002:000001fc       __imp___controlfp_s        004181fc     ucrt:api-ms-win-crt-runtime-l1-1-0.dll
 0002:00000200       __imp___errno              00418200     ucrt:api-ms-win-crt-runtime-l1-1-0.dll
 0002:00000204       __imp__system              00418204     ucrt:api-ms-win-crt-runtime-l1-1-0.dll
 0002:00000208       __imp___invalid_parameter_noinfo 00418208     ucrt:api-ms-win-crt-runtime-l1-1-0.dll
 0002:0000020c       __imp__terminate           0041820c     ucrt:api-ms-win-crt-runtime-l1-1-0.dll
 0002:00000210       __imp___configure_narrow_argv 00418210     ucrt:api-ms-win-crt-runtime-l1-1-0.dll
 0002:00000214       __imp___initialize_narrow_environment 00418214     ucrt:api-ms-win-crt-runtime-l1-1-0.dll
 0002:00000218       __imp___initialize_onexit_table 00418218     ucrt:api-ms-win-crt-runtime-l1-1-0.dll
 0002:0000021c       __imp___register_onexit_function 0041821c     ucrt:api-ms-win-crt-runtime-l1-1-0.dll
 0002:00000220       __imp___crt_atexit         00418220     ucrt:api-ms-win-crt-runtime-l1-1-0.dll
 0002:00000224       __imp___cexit              00418224     ucrt:api-ms-win-crt-runtime-l1-1-0.dll
 0002:00000228       __imp___seh_filter_exe     00418228     ucrt:api-ms-win-crt-runtime-l1-1-0.dll
 0002:0000022c       __imp___set_app_type       0041822c     ucrt:api-ms-win-crt-runtime-l1-1-0.dll
 0002:00000230       __imp___get_narrow_winmain_command_line 00418230     ucrt:api-ms-win-crt-runtime-l1-1-0.dll
 0002:00000234       __imp___initterm           00418234     ucrt:api-ms-win-crt-runtime-l1-1-0.dll
 0002:00000238       __imp___initterm_e         00418238     ucrt:api-ms-win-crt-runtime-l1-1-0.dll
 0002:0000023c       __imp__exit                0041823c     ucrt:api-ms-win-crt-runtime-l1-1-0.dll
 0002:00000240       __imp___exit               00418240     ucrt:api-ms-win-crt-runtime-l1-1-0.dll
 0002:00000244       __imp___register_thread_local_exe_atexit_callback 00418244     ucrt:api-ms-win-crt-runtime-l1-1-0.dll
 0002:00000248       __imp___c_exit             00418248     ucrt:api-ms-win-crt-runtime-l1-1-0.dll
 0002:0000024c       __imp___invalid_parameter_noinfo_noreturn 0041824c     ucrt:api-ms-win-crt-runtime-l1-1-0.dll
 0002:00000250       \177api-ms-win-crt-runtime-l1-1-0_NULL_THUNK_DATA 00418250     ucrt:api-ms-win-crt-runtime-l1-1-0.dll
 0002:00000254       __imp__fgetc               00418254     ucrt:api-ms-win-crt-stdio-l1-1-0.dll
 0002:00000258       __imp___pclose             00418258     ucrt:api-ms-win-crt-stdio-l1-1-0.dll
 0002:0000025c       __imp____p__commode        0041825c     ucrt:api-ms-win-crt-stdio-l1-1-0.dll
 0002:00000260       __imp___fseeki64           00418260     ucrt:api-ms-win-crt-stdio-l1-1-0.dll
 0002:00000264       __imp__fsetpos             00418264     ucrt:api-ms-win-crt-stdio-l1-1-0.dll
 0002:00000268       __imp__ungetc              00418268     ucrt:api-ms-win-crt-stdio-l1-1-0.dll
 0002:0000026c       __imp___popen              0041826c     ucrt:api-ms-win-crt-stdio-l1-1-0.dll
 0002:00000270       __imp__setvbuf             00418270     ucrt:api-ms-win-crt-stdio-l1-1-0.dll
 0002:00000274       __imp__fgetpos             00418274     ucrt:api-ms-win-crt-stdio-l1-1-0.dll
 0002:00000278       __imp__fwrite              00418278     ucrt:api-ms-win-crt-stdio-l1-1-0.dll
 0002:0000027c       __imp__fgets               0041827c     ucrt:api-ms-win-crt-stdio-l1-1-0.dll
 0002:00000280       __imp__fclose              00418280     ucrt:api-ms-win-crt-stdio-l1-1-0.dll
 0002:00000284       __imp__fflush              00418284     ucrt:api-ms-win-crt-stdio-l1-1-0.dll
 0002:00000288       __imp__fputc               00418288     ucrt:api-ms-win-crt-stdio-l1-1-0.dll
 0002:0000028c       __imp__freopen_s           0041828c     ucrt:api-ms-win-crt-stdio-l1-1-0.dll
 0002:00000290       __imp___set_fmode          00418290     ucrt:api-ms-win-crt-stdio-l1-1-0.dll
 0002:00000294       __imp____stdio_common_vsprintf 00418294     ucrt:api-ms-win-crt-stdio-l1-1-0.dll
 0002:00000298       __imp____acrt_iob_func     00418298     ucrt:api-ms-win-crt-stdio-l1-1-0.dll
 0002:0000029c       __imp___get_stream_buffer_pointers 0041829c     ucrt:api-ms-win-crt-stdio-l1-1-0.dll
 0002:000002a0       \177api-ms-win-crt-stdio-l1-1-0_NULL_THUNK_DATA 004182a0     ucrt:api-ms-win-crt-stdio-l1-1-0.dll
 0002:000002a4       __imp__Direct3DCreate9@4   004182a4     d3d9:d3d9.dll
 0002:000002a8       \177d3d9_NULL_THUNK_DATA   004182a8     d3d9:d3d9.dll
 0002:000002ac       __imp__D3DXCreateLine@8    004182ac     d3dx9:d3dx9_43.dll
 0002:000002b0       \177d3dx9_43_NULL_THUNK_DATA 004182b0     d3dx9:d3dx9_43.dll
 0002:000002b4       ___guard_check_icall_fptr  004182b4     MSVCRT:guard_support.obj
 0002:000002b8       ___xc_a                    004182b8     MSVCRT:initializers.obj
 0002:00000400       ___xc_z                    00418400     MSVCRT:initializers.obj
 0002:00000404       ___xi_a                    00418404     MSVCRT:initializers.obj
 0002:00000410       ___xi_z                    00418410     MSVCRT:initializers.obj
 0002:00000414       ___xp_a                    00418414     MSVCRT:initializers.obj
 0002:00000418       ___xp_z                    00418418     MSVCRT:initializers.obj
 0002:0000041c       ___xt_a                    0041841c     MSVCRT:initializers.obj
 0002:00000420       ___xt_z                    00418420     MSVCRT:initializers.obj
 0002:00000434       ??_7type_info@@6B@         00418434     MSVCRT:std_type_info_static.obj
 0002:00000444       ??_7exception@std@@6B@     00418444     MSVCRT:throw_bad_alloc.obj
 0002:00000450       ??_7bad_alloc@std@@6B@     00418450     MSVCRT:throw_bad_alloc.obj
 0002:00000458       ??_C@_0P@GHFPNOJB@bad?5allocation?$AA@ 00418458     MSVCRT:throw_bad_alloc.obj
 0002:0000046c       ??_7bad_array_new_length@std@@6B@ 0041846c     MSVCRT:throw_bad_alloc.obj
 0002:00000474       ??_C@_0BF@KINCDENJ@bad?5array?5new?5length?$AA@ 00418474     MSVCRT:throw_bad_alloc.obj
 0002:00000489       ??_C@_00CNPNBAHC@?$AA@     00418489     Main.obj
 0002:0000048c       ??_C@_04JHBMAIMM@?$CF01X?$AA@ 0041848c     Main.obj
 0002:00000494       ??_C@_05NADPPHDM@Key?3?5?$AA@ 00418494     Main.obj
 0002:0000049c       ??_C@_0N@GIPHPLLM@Warcraft?5III?$AA@ 0041849c     Main.obj
 0002:000004b0       ??_C@_0EK@MNEKPPON@11070123112E8880181D0381091D0381@ 004184b0     Main.obj
 0002:000004fc       ??_C@_01NOFIACDB@w?$AA@    004184fc     Main.obj
 0002:00000500       ??_C@_07GPDNMNG@CONOUT$?$AA@ 00418500     Main.obj
 0002:00000508       ??_C@_05JLNEMJLN@dummy?$AA@ 00418508     Main.obj
 0002:00000510       ??_C@_0BB@ICFLKOPM@SeDebugPrivilege?$AA@ 00418510     Main.obj
 0002:00000524       ??_C@_08EPCMHBKI@Game?4dll?$AA@ 00418524     Main.obj
 0002:00000530       ??_C@_0BA@JFNIOLAK@string?5too?5long?$AA@ 00418530     Main.obj
 0002:00000540       ??_C@_0BI@CFPLBAOH@invalid?5string?5position?$AA@ 00418540     Main.obj
 0002:00000558       ?key@@3PBDB                00418558     Main.obj
 0002:0000055c       ??_C@_0BC@EOODALEL@Unknown?5exception?$AA@ 0041855c     systeminfo.obj
 0002:00000570       ??_C@_08EPJLHIJG@bad?5cast?$AA@ 00418570     systeminfo.obj
 0002:0000057c       ??_C@_0BG@HGEDEDEC@invalid?5stoi?5argument?$AA@ 0041857c     systeminfo.obj
 0002:00000594       ??_C@_0BL@MFFNMGGC@stoi?5argument?5out?5of?5range?$AA@ 00418594     systeminfo.obj
 0002:000005b0       ??_C@_0BH@KOGMOJCH@invalid?5stoll?5argument?$AA@ 004185b0     systeminfo.obj
 0002:000005c8       ??_C@_0BM@BPCBEBLO@stoll?5argument?5out?5of?5range?$AA@ 004185c8     systeminfo.obj
 0002:000005e8       ??_C@_0FF@ODEOEJDF@wmic?5?1namespace?3?2?2root?2wmi?5PATH?5@ 004185e8     systeminfo.obj
 0002:00000640       ??_C@_06PONDCDME@ERROR?3?$AA@ 00418640     systeminfo.obj
 0002:00000648       ??_C@_0DN@ILJDKAAO@wmic?5cpu?5get?5?1format?3list?5?$HM?5find@ 00418648     systeminfo.obj
 0002:00000688       ??_C@_0BD@PGHEEDII@CurrentClockSpeed?$DN?$AA@ 00418688     systeminfo.obj
 0002:0000069c       ??_C@_05DCIFAFBG@Name?$DN?$AA@ 0041869c     systeminfo.obj
 0002:000006a4       ??_C@_0P@BHLKPIPI@NumberOfCores?$DN?$AA@ 004186a4     systeminfo.obj
 0002:000006b4       ??_C@_0O@HNEOCNDC@Manufacturer?$DN?$AA@ 004186b4     systeminfo.obj
 0002:000006c4       ??_C@_0L@BAIIMEAH@DataWidth?$DN?$AA@ 004186c4     systeminfo.obj
 0002:000006d0       ??_C@_0N@NPABCCND@L2CacheSize?$DN?$AA@ 004186d0     systeminfo.obj
 0002:000006e0       ??_C@_0N@EEKEGOLM@L3CacheSize?$DN?$AA@ 004186e0     systeminfo.obj
 0002:000006f0       ??_C@_02LODOGJEL@KB?$AA@   004186f0     systeminfo.obj
 0002:000006f4       ??_C@_07NBCGADJA@Unknown?$AA@ 004186f4     systeminfo.obj
 0002:000006fc       ??_C@_03BMJMONAH@MHz?$AA@  004186fc     systeminfo.obj
 0002:00000700       ??_C@_03NDFEINMN@x86?$AA@  00418700     systeminfo.obj
 0002:00000704       ??_C@_06HDPOADAK@x86_64?$AA@ 00418704     systeminfo.obj
 0002:0000070c       ??_C@_0BL@LFOFMABP@wmic?5cpu?5get?5?1format?3?5list?$AA@ 0041870c     systeminfo.obj
 0002:00000728       ??_C@_09KGLINCJH@AssetTag?$DN?$AA@ 00418728     systeminfo.obj
 0002:00000734       ??_C@_0N@JEAIMEKG@VoltageCaps?$DN?$AA@ 00418734     systeminfo.obj
 0002:00000744       ??_C@_01LIIJDEN@?$AN?$AA@  00418744     systeminfo.obj
 0002:00000748       ??_C@_06HLMMPIBG@NVIDIA?$AA@ 00418748     systeminfo.obj
 0002:00000750       ??_C@_05OPFLDEAH@INTEL?$AA@ 00418750     systeminfo.obj
 0002:00000758       ??_C@_03BBEEILCJ@AMD?$AA@  00418758     systeminfo.obj
 0002:0000075c       ??_C@_0BG@JEIDHDPM@AdapterCompatibility?$DN?$AA@ 0041875c     systeminfo.obj
 0002:00000774       ??_C@_0M@MFMICOBC@AdapterRAM?$DN?$AA@ 00418774     systeminfo.obj
 0002:00000780       ??_C@_0BE@HFKIHEFN@CurrentRefreshRate?$DN?$AA@ 00418780     systeminfo.obj
 0002:00000794       ??_C@_0P@ECEAHKCA@DriverVersion?$DN?$AA@ 00418794     systeminfo.obj
 0002:000007a4       ??_C@_0BD@PJIEMGDB@VideoArchitecture?$DN?$AA@ 004187a4     systeminfo.obj
 0002:000007b8       ??_C@_0BA@COFLHODM@VideoMemoryType?$AA@ 004187b8     systeminfo.obj
 0002:000007c8       ??_C@_0BG@KAJCOKNL@VideoModeDescription?$DN?$AA@ 004187c8     systeminfo.obj
 0002:000007e0       ??_C@_0BA@IDIFCJOL@VideoProcessor?$DN?$AA@ 004187e0     systeminfo.obj
 0002:000007f0       ??_C@_08EBLFLHLH@Caption?$DN?$AA@ 004187f0     systeminfo.obj
 0002:000007fc       ??_C@_07IOEJHCEF@?5Bytes?$CJ?$AA@ 004187fc     systeminfo.obj
 0002:00000804       ??_C@_04MNLDOMOG@MB?5?$CI?$AA@ 00418804     systeminfo.obj
 0002:0000080c       ??_C@_06LFCPCEPB@?5Bytes?$AA@ 0041880c     systeminfo.obj
 0002:00000814       ??_C@_05BBOGGNLJ@Other?$AA@ 00418814     systeminfo.obj
 0002:0000081c       ??_C@_03MLKNDCDB@CGA?$AA@  0041881c     systeminfo.obj
 0002:00000820       ??_C@_03OOMGGNON@EGA?$AA@  00418820     systeminfo.obj
 0002:00000824       ??_C@_03KMGKJFJM@VGA?$AA@  00418824     systeminfo.obj
 0002:00000828       ??_C@_04DELPAIIG@SVGA?$AA@ 00418828     systeminfo.obj
 0002:00000830       ??_C@_03CJDEPLFL@MDA?$AA@  00418830     systeminfo.obj
 0002:00000834       ??_C@_03COJKNHLC@HGC?$AA@  00418834     systeminfo.obj
 0002:00000838       ??_C@_04IMKIIGMI@MCGA?$AA@ 00418838     systeminfo.obj
 0002:00000840       ??_C@_05ENECEAKG@8514A?$AA@ 00418840     systeminfo.obj
 0002:00000848       ??_C@_03EMLFOCKP@XGA?$AA@  00418848     systeminfo.obj
 0002:0000084c       ??_C@_0BE@HCJIGBPB@Linear?5Frame?5Buffer?$AA@ 0041884c     systeminfo.obj
 0002:00000860       ??_C@_07BIPCJPON@PC?5?9?598?$AA@ 00418860     systeminfo.obj
 0002:00000868       ??_C@_04NLAFCDBP@VRAM?$AA@ 00418868     systeminfo.obj
 0002:00000870       ??_C@_04MBCFOHPN@DRAM?$AA@ 00418870     systeminfo.obj
 0002:00000878       ??_C@_04BDOFKMGP@SRAM?$AA@ 00418878     systeminfo.obj
 0002:00000880       ??_C@_04OGGFAKKP@WRAM?$AA@ 00418880     systeminfo.obj
 0002:00000888       ??_C@_07FKCCEMEA@EDO_RAM?$AA@ 00418888     systeminfo.obj
 0002:00000890       ??_C@_0BH@DEHCDIJM@Burst?5Synchronous?5DRAM?$AA@ 00418890     systeminfo.obj
 0002:000008a8       ??_C@_0BF@IJELNNLE@Pipelined?5Burst?5SRAM?$AA@ 004188a8     systeminfo.obj
 0002:000008c0       ??_C@_05DPAJMJIB@CDRAM?$AA@ 004188c0     systeminfo.obj
 0002:000008c8       ??_C@_05DECLMEEA@3DRAM?$AA@ 004188c8     systeminfo.obj
 0002:000008d0       ??_C@_05DMNPMLBK@SDRAM?$AA@ 004188d0     systeminfo.obj
 0002:000008d8       ??_C@_05HLHPLBMK@SGRAM?$AA@ 004188d8     systeminfo.obj
 0002:000008e0       ??_C@_0DC@PMLGMCKE@wmic?5path?5Win32_VideoController?5@ 004188e0     systeminfo.obj
 0002:00000914       ??_C@_0BF@MNNLIBBB@CurrentBitsPerPixel?$DN?$AA@ 00418914     systeminfo.obj
 0002:00000930       ??_C@_0EF@JNOHMMK@wmic?5path?5Win32_PnPEntity?5get?5?1f@ 00418930     systeminfo.obj
 0002:00000978       ??_C@_08EKPLPCOK@Product?$DN?$AA@ 00418978     systeminfo.obj
 0002:00000984       ??_C@_0N@NCLCEBBL@Description?$DN?$AA@ 00418984     systeminfo.obj
 0002:00000994       ??_C@_07CPHKODAM@Chipset?$AA@ 00418994     systeminfo.obj
 0002:0000099c       ??_C@_0O@OFNCEPFA@SerialNumber?$DN?$AA@ 0041899c     systeminfo.obj
 0002:000009ac       ??_C@_08KJDCJPOC@Version?$DN?$AA@ 004189ac     systeminfo.obj
 0002:000009b8       ??_C@_0CB@BDBEEPBD@wmic?5baseboard?5get?5?1format?3?5list@ 004189b8     systeminfo.obj
 0002:000009dc       ??_C@_0BH@BLPEBJGK@RequiresDaughterBoard?$DN?$AA@ 004189dc     systeminfo.obj
 0002:000009f4       ??_C@_06PNJJNEK@Width?$DN?$AA@ 004189f4     systeminfo.obj
 0002:000009fc       ??_C@_0BA@HJFKPBCC@OSArchitecture?$DN?$AA@ 004189fc     systeminfo.obj
 0002:00000a0c       ??_C@_0BA@INGADHEL@RegisteredUser?$DN?$AA@ 00418a0c     systeminfo.obj
 0002:00000a1c       ??_C@_0N@ODOKOKID@InstallDate?$DN?$AA@ 00418a1c     systeminfo.obj
 0002:00000a2c       ??_C@_0N@JEMEBDNJ@BuildNumber?$DN?$AA@ 00418a2c     systeminfo.obj
 0002:00000a3c       ??_C@_0BA@GCBFFF@LastBootUpTime?$DN?$AA@ 00418a3c     systeminfo.obj
 0002:00000a4c       ??_C@_0M@CGJKPCAI@BootDevice?$DN?$AA@ 00418a4c     systeminfo.obj
 0002:00000a58       ??_C@_0BI@PMGAEKHL@TotalVirtualMemorySize?$DN?$AA@ 00418a58     systeminfo.obj
 0002:00000a70       ??_C@_0BI@HLKHBHBJ@TotalVisibleMemorySize?$DN?$AA@ 00418a70     systeminfo.obj
 0002:00000a88       ??_C@_0P@GNHCPJKN@TotalSwapSize?$DN?$AA@ 00418a88     systeminfo.obj
 0002:00000a98       ??_C@_0BE@DEHHBEC@FreePhysicalMemory?$DN?$AA@ 00418a98     systeminfo.obj
 0002:00000aac       ??_C@_0DN@FMHPDIHB@wmic?5os?5get?5?1format?3list?5?$HM?5finds@ 00418aac     systeminfo.obj
 0002:00000aec       ??_C@_0BD@LBCHCOMB@FreeVirtualMemory?$DN?$AA@ 00418aec     systeminfo.obj
 0002:00000b00       ??_C@_0DM@IMOGBFPI@wmic?5os?5get?5?1format?3list?5?$HM?5finds@ 00418b00     systeminfo.obj
 0002:00000b3c       ??_C@_0BI@JAIEFCLJ@FreeSpaceInPagingFiles?$DN?$AA@ 00418b3c     systeminfo.obj
 0002:00000b58       ??_C@_0EB@OBBKEDCH@wmic?5os?5get?5?1format?3list?5?$HM?5finds@ 00418b58     systeminfo.obj
 0002:00000b9c       ??_C@_0BJ@FNCKOEAK@SizeStoredInPagingFiles?$DN?$AA@ 00418b9c     systeminfo.obj
 0002:00000bb8       ??_C@_0EC@EKOMMEFI@wmic?5os?5get?5?1format?3list?5?$HM?5finds@ 00418bb8     systeminfo.obj
 0002:00000bfc       ??_C@_0P@OEDDHIDF@LocalDateTime?$DN?$AA@ 00418bfc     systeminfo.obj
 0002:00000c0c       ??_C@_0DI@PPLPAHM@wmic?5os?5get?5?1format?3list?5?$HM?5finds@ 00418c0c     systeminfo.obj
 0002:00000c44       ??_C@_04IDFBDOJP@?5KB?$CJ?$AA@ 00418c44     systeminfo.obj
 0002:00000c4c       ??_C@_03MAAJMAHL@?5KB?$AA@ 00418c4c     systeminfo.obj
 0002:00000c50       ??_C@_0BJ@PEOICEGE@wmic?5os?5get?5?1format?3list?$AA@ 00418c50     systeminfo.obj
 0002:00000c6c       ??_C@_0BJ@BADAMLNJ@PortableOperatingSystem?$DN?$AA@ 00418c6c     systeminfo.obj
 0002:00000c88       ??_C@_0BC@KMGAAGMI@WindowsDirectory?$DN?$AA@ 00418c88     systeminfo.obj
 0002:00000c9c       ??_C@_0P@CLNGFENG@DeviceLocator?$DN?$AA@ 00418c9c     systeminfo.obj
 0002:00000cac       ??_C@_09GMKGCMGO@Capacity?$DN?$AA@ 00418cac     systeminfo.obj
 0002:00000cb8       ??_C@_0M@NJBBNODN@FormFactor?$DN?$AA@ 00418cb8     systeminfo.obj
 0002:00000cc4       ??_C@_0M@JCECAJFD@PartNumber?$DN?$AA@ 00418cc4     systeminfo.obj
 0002:00000cd0       ??_C@_0M@BHDFFOOC@MemoryType?$DN?$AA@ 00418cd0     systeminfo.obj
 0002:00000cdc       ??_C@_0BG@HOKNLHKH@ConfiguredClockSpeed?$DN?$AA@ 00418cdc     systeminfo.obj
 0002:00000cf4       ??_C@_06DJAAKCE@Speed?$DN?$AA@ 00418cf4     systeminfo.obj
 0002:00000cfc       ??_C@_0BA@PHEJNBIO@Syncronous?5DRAM?$AA@ 00418cfc     systeminfo.obj
 0002:00000d0c       ??_C@_0L@KFMNNBLH@Cache?5DRAM?$AA@ 00418d0c     systeminfo.obj
 0002:00000d18       ??_C@_03HCADPODK@EDO?$AA@  00418d18     systeminfo.obj
 0002:00000d1c       ??_C@_05OJFACKJM@EDRAM?$AA@ 00418d1c     systeminfo.obj
 0002:00000d24       ??_C@_03ILDADBHF@RAM?$AA@  00418d24     systeminfo.obj
 0002:00000d28       ??_C@_03IBKOBMHP@ROM?$AA@  00418d28     systeminfo.obj
 0002:00000d2c       ??_C@_05LDPHIKKB@Flash?$AA@ 00418d2c     systeminfo.obj
 0002:00000d34       ??_C@_06EMDDBCNH@EEPROM?$AA@ 00418d34     systeminfo.obj
 0002:00000d3c       ??_C@_06HNNLAIEK@FEPROM?$AA@ 00418d3c     systeminfo.obj
 0002:00000d44       ??_C@_05HGKODGNE@EPROM?$AA@ 00418d44     systeminfo.obj
 0002:00000d4c       ??_C@_05PHIDBILP@RDRAM?$AA@ 00418d4c     systeminfo.obj
 0002:00000d54       ??_C@_04CJLNMEGN@DDR1?$AA@ 00418d54     systeminfo.obj
 0002:00000d5c       ??_C@_04CJAJHKO@DDR2?$AA@  00418d5c     systeminfo.obj
 0002:00000d64       ??_C@_0O@HNAHBKBC@DDR2?5?9?5FBDIMM?$AA@ 00418d64     systeminfo.obj
 0002:00000d74       ??_C@_04BLILKGOP@DDR3?$AA@ 00418d74     systeminfo.obj
 0002:00000d7c       ??_C@_04EFJAEENA@FBD2?$AA@ 00418d7c     systeminfo.obj
 0002:00000d84       ??_C@_03MCPDGLLE@SIP?$AA@  00418d84     systeminfo.obj
 0002:00000d88       ??_C@_03PDNAEJC@DIP?$AA@   00418d88     systeminfo.obj
 0002:00000d8c       ??_C@_03LPPLCEDO@ZIP?$AA@  00418d8c     systeminfo.obj
 0002:00000d90       ??_C@_03HGFDONNN@SOJ?$AA@  00418d90     systeminfo.obj
 0002:00000d94       ??_C@_0M@EAHCLNFM@Proprietary?$AA@ 00418d94     systeminfo.obj
 0002:00000da0       ??_C@_04JNOHIFJF@SIMM?$AA@ 00418da0     systeminfo.obj
 0002:00000da8       ??_C@_04EPCHMOAH@DIMM?$AA@ 00418da8     systeminfo.obj
 0002:00000db0       ??_C@_04OMILFGAM@TSOP?$AA@ 00418db0     systeminfo.obj
 0002:00000db8       ??_C@_03IJABMKEA@PGA?$AA@  00418db8     systeminfo.obj
 0002:00000dbc       ??_C@_04KAIHKMCF@RIMM?$AA@ 00418dbc     systeminfo.obj
 0002:00000dc4       ??_C@_06PIFKKNPH@SODIMM?$AA@ 00418dc4     systeminfo.obj
 0002:00000dcc       ??_C@_05FNHNIAMC@SRIMM?$AA@ 00418dcc     systeminfo.obj
 0002:00000dd4       ??_C@_03OLFEBEDN@SMD?$AA@  00418dd4     systeminfo.obj
 0002:00000dd8       ??_C@_04FNCPFOHC@SSMP?$AA@ 00418dd8     systeminfo.obj
 0002:00000de0       ??_C@_03ENAIDDFH@QFD?$AA@  00418de0     systeminfo.obj
 0002:00000de4       ??_C@_04EJFDKFAI@TQFP?$AA@ 00418de4     systeminfo.obj
 0002:00000dec       ??_C@_04CBAGFPBL@SOIC?$AA@ 00418dec     systeminfo.obj
 0002:00000df4       ??_C@_03KGPBOIDJ@LCC?$AA@  00418df4     systeminfo.obj
 0002:00000df8       ??_C@_04HJIEAPPD@PLCC?$AA@ 00418df8     systeminfo.obj
 0002:00000e00       ??_C@_03HDBBFFFE@BGA?$AA@  00418e00     systeminfo.obj
 0002:00000e04       ??_C@_05CIFANFB@FPBGA?$AA@ 00418e04     systeminfo.obj
 0002:00000e0c       ??_C@_03JDMOCCGH@LGA?$AA@  00418e0c     systeminfo.obj
 0002:00000e10       ??_C@_0CC@FIPGLJJI@wmic?5memorychip?5get?5?1format?3?5lis@ 00418e10     systeminfo.obj
 0002:00000e34       ??_C@_04IFFFBHG@2?$DO?$CG1?$AA@ 00418e34     systeminfo.obj
 0002:00000e3c       ??_C@_01PPODPGHN@?$DO?$AA@ 00418e3c     systeminfo.obj
 0002:00000e40       ??_C@_02PCIJFNDE@?$AN?6?$AA@ 00418e40     systeminfo.obj
 0002:00000e44       ??_C@_02LIIHNNHG@?6?$AN?$AA@ 00418e44     systeminfo.obj
 0002:00000e48       ??_C@_01EEMJAFIK@?6?$AA@   00418e48     systeminfo.obj
 0002:00000e4c       ??_C@_05HIBJACPO@?52?$DO?$CG1?$AA@ 00418e4c     systeminfo.obj
 0002:00000e54       ??_C@_01KDCPPGHE@r?$AA@    00418e54     systeminfo.obj
 0002:00000e58       ??_C@_01BJJEKLCA@?$CC?$AA@ 00418e58     systeminfo.obj
 0002:00000e5c       ??_C@_0CD@LHOMMFEI@ERROR?3?5Failed?5to?5execute?5command@ 00418e5c     systeminfo.obj
 0002:00000e80       ??_C@_0BD@OLBABOEK@vector?$DMT?$DO?5too?5long?$AA@ 00418e80     systeminfo.obj
 0002:00000e98       ??_7?$_Func_impl@V<lambda_787d45c283701cc870e4fc26d5464600>@@V?$allocator@H@std@@V?$basic_string@DU?$char_traits@D@std@@V?$allocator@D@2@@3@ABV43@@std@@6B@ 00418e98     systeminfo.obj
 0002:00000eb4       ??_7?$basic_filebuf@DU?$char_traits@D@std@@@std@@6B@ 00418eb4     systeminfo.obj
 0002:00000ef0       ??_8?$basic_stringstream@DU?$char_traits@D@std@@V?$allocator@D@2@@std@@7B?$basic_ostream@DU?$char_traits@D@std@@@1@@ 00418ef0     systeminfo.obj
 0002:00000efc       ??_7bad_cast@std@@6B@      00418efc     systeminfo.obj
 0002:00000f08       ??_7?$basic_stringbuf@DU?$char_traits@D@std@@V?$allocator@D@2@@std@@6B@ 00418f08     systeminfo.obj
 0002:00000f48       ??_7?$_Func_base@V?$basic_string@DU?$char_traits@D@std@@V?$allocator@D@2@@std@@ABV12@@std@@6B@ 00418f48     systeminfo.obj
 0002:00000f64       ??_7?$basic_stringstream@DU?$char_traits@D@std@@V?$allocator@D@2@@std@@6B@ 00418f64     systeminfo.obj
 0002:00000f68       ??_8?$basic_ifstream@DU?$char_traits@D@std@@@std@@7B@ 00418f68     systeminfo.obj
 0002:00000f70       ??_8?$basic_stringstream@DU?$char_traits@D@std@@V?$allocator@D@2@@std@@7B?$basic_istream@DU?$char_traits@D@std@@@1@@ 00418f70     systeminfo.obj
 0002:00000f7c       ??_7?$basic_ifstream@DU?$char_traits@D@std@@@std@@6B@ 00418f7c     systeminfo.obj
 0002:00000f80       __real@3c23d70a            00418f80     Main.obj
 0002:00000f84       __real@3f000000            00418f84     Main.obj
 0002:00000f88       __real@3faccccd            00418f88     Main.obj
 0002:00000f8c       __real@40a00000            00418f8c     Main.obj
 0002:00000f90       __real@41a00000            00418f90     Main.obj
 0002:00000f94       __real@420a0000            00418f94     Main.obj
 0002:00000f98       __real@42480000            00418f98     Main.obj
 0002:00000f9c       __real@42a00000            00418f9c     Main.obj
 0002:00000fd8       __load_config_used         00418fd8     MSVCRT:loadcfg.obj
 0002:00001034       ??_R4type_info@@6B@        00419034     MSVCRT:std_type_info_static.obj
 0002:00001048       ??_R3type_info@@8          00419048     MSVCRT:std_type_info_static.obj
 0002:00001058       ??_R2type_info@@8          00419058     MSVCRT:std_type_info_static.obj
 0002:00001060       ??_R1A@?0A@EA@type_info@@8 00419060     MSVCRT:std_type_info_static.obj
 0002:0000107c       ??_R4bad_alloc@std@@6B@    0041907c     MSVCRT:throw_bad_alloc.obj
 0002:00001090       ??_R3bad_alloc@std@@8      00419090     MSVCRT:throw_bad_alloc.obj
 0002:000010a0       ??_R2bad_alloc@std@@8      004190a0     MSVCRT:throw_bad_alloc.obj
 0002:000010ac       ??_R1A@?0A@EA@bad_alloc@std@@8 004190ac     MSVCRT:throw_bad_alloc.obj
 0002:000010c8       ??_R4bad_array_new_length@std@@6B@ 004190c8     MSVCRT:throw_bad_alloc.obj
 0002:000010dc       ??_R3bad_array_new_length@std@@8 004190dc     MSVCRT:throw_bad_alloc.obj
 0002:000010ec       ??_R2bad_array_new_length@std@@8 004190ec     MSVCRT:throw_bad_alloc.obj
 0002:000010fc       ??_R1A@?0A@EA@bad_array_new_length@std@@8 004190fc     MSVCRT:throw_bad_alloc.obj
 0002:00001118       ??_R3?$_Func_base@V?$basic_string@DU?$char_traits@D@std@@V?$allocator@D@2@@std@@ABV12@@std@@8 00419118     systeminfo.obj
 0002:00001128       ??_R3?$basic_istream@DU?$char_traits@D@std@@@std@@8 00419128     systeminfo.obj
 0002:00001138       ??_R3?$basic_iostream@DU?$char_traits@D@std@@@std@@8 00419138     systeminfo.obj
 0002:00001148       ??_R4exception@std@@6B@    00419148     systeminfo.obj
 0002:0000115c       ??_R1A@?0A@EA@?$basic_istream@DU?$char_traits@D@std@@@std@@8 0041915c     systeminfo.obj
 0002:00001178       ??_R1A@?0A@EA@?$_Func_base@V?$basic_string@DU?$char_traits@D@std@@V?$allocator@D@2@@std@@ABV12@@std@@8 00419178     systeminfo.obj
 0002:00001194       ??_R1A@?0A@EA@bad_cast@std@@8 00419194     systeminfo.obj
 0002:000011b0       ??_R3?$basic_ifstream@DU?$char_traits@D@std@@@std@@8 004191b0     systeminfo.obj
 0002:000011c0       ??_R4?$_Func_impl@V<lambda_787d45c283701cc870e4fc26d5464600>@@V?$allocator@H@std@@V?$basic_string@DU?$char_traits@D@std@@V?$allocator@D@2@@3@ABV43@@std@@6B@ 004191c0     systeminfo.obj
 0002:000011d4       ??_R2?$basic_stringbuf@DU?$char_traits@D@std@@V?$allocator@D@2@@std@@8 004191d4     systeminfo.obj
 0002:000011e0       ??_R3?$_Func_impl@V<lambda_787d45c283701cc870e4fc26d5464600>@@V?$allocator@H@std@@V?$basic_string@DU?$char_traits@D@std@@V?$allocator@D@2@@3@ABV43@@std@@8 004191e0     systeminfo.obj
 0002:000011f0       ??_R1A@?0A@EA@?$basic_ifstream@DU?$char_traits@D@std@@@std@@8 004191f0     systeminfo.obj
 0002:0000120c       ??_R17A@3EA@?$_Iosb@H@std@@8 0041920c     systeminfo.obj
 0002:00001228       ??_R1A@?0A@EA@?$basic_stringstream@DU?$char_traits@D@std@@V?$allocator@D@2@@std@@8 00419228     systeminfo.obj
 0002:00001244       ??_R1A@?0A@EA@exception@std@@8 00419244     systeminfo.obj
 0002:00001260       ??_R1A@?0A@EA@?$basic_streambuf@DU?$char_traits@D@std@@@std@@8 00419260     systeminfo.obj
 0002:0000127c       ??_R2?$basic_istream@DU?$char_traits@D@std@@@std@@8 0041927c     systeminfo.obj
 0002:00001290       ??_R3?$basic_stringbuf@DU?$char_traits@D@std@@V?$allocator@D@2@@std@@8 00419290     systeminfo.obj
 0002:000012a0       ??_R2bad_cast@std@@8       004192a0     systeminfo.obj
 0002:000012ac       ??_R2exception@std@@8      004192ac     systeminfo.obj
 0002:000012b4       ??_R2?$basic_ostream@DU?$char_traits@D@std@@@std@@8 004192b4     systeminfo.obj
 0002:000012c8       ??_R3?$basic_ios@DU?$char_traits@D@std@@@std@@8 004192c8     systeminfo.obj
 0002:000012d8       ??_R2?$_Func_impl@V<lambda_787d45c283701cc870e4fc26d5464600>@@V?$allocator@H@std@@V?$basic_string@DU?$char_traits@D@std@@V?$allocator@D@2@@3@ABV43@@std@@8 004192d8     systeminfo.obj
 0002:000012e4       ??_R1BA@?0A@EA@?$basic_ostream@DU?$char_traits@D@std@@@std@@8 004192e4     systeminfo.obj
 0002:00001300       ??_R4?$basic_ifstream@DU?$char_traits@D@std@@@std@@6B@ 00419300     systeminfo.obj
 0002:00001314       ??_R1A@?0A@EA@ios_base@std@@8 00419314     systeminfo.obj
 0002:00001330       ??_R3exception@std@@8      00419330     systeminfo.obj
 0002:00001340       ??_R1A@?0A@EA@?$basic_ostream@DU?$char_traits@D@std@@@std@@8 00419340     systeminfo.obj
 0002:0000135c       ??_R4?$basic_filebuf@DU?$char_traits@D@std@@@std@@6B@ 0041935c     systeminfo.obj
 0002:00001370       ??_R2?$basic_streambuf@DU?$char_traits@D@std@@@std@@8 00419370     systeminfo.obj
 0002:00001378       ??_R1A@?0A@EA@?$_Iosb@H@std@@8 00419378     systeminfo.obj
 0002:00001394       ??_R1A@?0A@EA@?$basic_stringbuf@DU?$char_traits@D@std@@V?$allocator@D@2@@std@@8 00419394     systeminfo.obj
 0002:000013b0       ??_R1A@?0A@EA@?$_Func_impl@V<lambda_787d45c283701cc870e4fc26d5464600>@@V?$allocator@H@std@@V?$basic_string@DU?$char_traits@D@std@@V?$allocator@D@2@@3@ABV43@@std@@8 004193b0     systeminfo.obj
 0002:000013cc       ??_R4?$_Func_base@V?$basic_string@DU?$char_traits@D@std@@V?$allocator@D@2@@std@@ABV12@@std@@6B@ 004193cc     systeminfo.obj
 0002:000013e0       ??_R2?$basic_iostream@DU?$char_traits@D@std@@@std@@8 004193e0     systeminfo.obj
 0002:00001408       ??_R3bad_cast@std@@8       00419408     systeminfo.obj
 0002:00001418       ??_R2?$basic_stringstream@DU?$char_traits@D@std@@V?$allocator@D@2@@std@@8 00419418     systeminfo.obj
 0002:00001444       ??_R4bad_cast@std@@6B@     00419444     systeminfo.obj
 0002:00001458       ??_R4?$basic_stringbuf@DU?$char_traits@D@std@@V?$allocator@D@2@@std@@6B@ 00419458     systeminfo.obj
 0002:0000146c       ??_R4?$basic_stringstream@DU?$char_traits@D@std@@V?$allocator@D@2@@std@@6B@ 0041946c     systeminfo.obj
 0002:00001480       ??_R1A@?0A@EA@?$basic_filebuf@DU?$char_traits@D@std@@@std@@8 00419480     systeminfo.obj
 0002:0000149c       ??_R1A@A@3FA@?$basic_ios@DU?$char_traits@D@std@@@std@@8 0041949c     systeminfo.obj
 0002:000014b8       ??_R3?$basic_filebuf@DU?$char_traits@D@std@@@std@@8 004194b8     systeminfo.obj
 0002:000014c8       ??_R2ios_base@std@@8       004194c8     systeminfo.obj
 0002:000014d4       ??_R3?$basic_ostream@DU?$char_traits@D@std@@@std@@8 004194d4     systeminfo.obj
 0002:000014e4       ??_R1A@?0A@EA@?$basic_iostream@DU?$char_traits@D@std@@@std@@8 004194e4     systeminfo.obj
 0002:00001500       ??_R3ios_base@std@@8       00419500     systeminfo.obj
 0002:00001510       ??_R2?$basic_filebuf@DU?$char_traits@D@std@@@std@@8 00419510     systeminfo.obj
 0002:0000151c       ??_R3?$basic_streambuf@DU?$char_traits@D@std@@@std@@8 0041951c     systeminfo.obj
 0002:0000152c       ??_R3?$basic_stringstream@DU?$char_traits@D@std@@V?$allocator@D@2@@std@@8 0041952c     systeminfo.obj
 0002:0000153c       ??_R2?$_Iosb@H@std@@8      0041953c     systeminfo.obj
 0002:00001544       ??_R1A@A@3EA@ios_base@std@@8 00419544     systeminfo.obj
 0002:00001560       ??_R1A@?0A@EA@?$basic_ios@DU?$char_traits@D@std@@@std@@8 00419560     systeminfo.obj
 0002:0000157c       ??_R2?$basic_ifstream@DU?$char_traits@D@std@@@std@@8 0041957c     systeminfo.obj
 0002:00001594       ??_R3?$_Iosb@H@std@@8      00419594     systeminfo.obj
 0002:000015a4       ??_R17?0A@EA@?$_Iosb@H@std@@8 004195a4     systeminfo.obj
 0002:000015c0       ??_R2?$_Func_base@V?$basic_string@DU?$char_traits@D@std@@V?$allocator@D@2@@std@@ABV12@@std@@8 004195c0     systeminfo.obj
 0002:000015c8       ??_R2?$basic_ios@DU?$char_traits@D@std@@@std@@8 004195c8     systeminfo.obj
 0002:000015e0       ___safe_se_handler_table   004195e0     <linker-defined>
 0002:000019bc       ___rtc_iaa                 004199bc     MSVCRT:_initsect_.obj
 0002:000019c0       ___rtc_izz                 004199c0     MSVCRT:_initsect_.obj
 0002:000019c4       ___rtc_taa                 004199c4     MSVCRT:_initsect_.obj
 0002:000019c8       ___rtc_tzz                 004199c8     MSVCRT:_initsect_.obj
 0002:000030c4       __TI2?AVbad_alloc@std@@    0041b0c4     MSVCRT:throw_bad_alloc.obj
 0002:000030d4       __CTA2?AVbad_alloc@std@@   0041b0d4     MSVCRT:throw_bad_alloc.obj
 0002:000030e0       __CT??_R0?AVbad_alloc@std@@@8??0bad_alloc@std@@QAE@ABV01@@Z12 0041b0e0     MSVCRT:throw_bad_alloc.obj
 0002:000030fc       __TI3?AVbad_array_new_length@std@@ 0041b0fc     MSVCRT:throw_bad_alloc.obj
 0002:0000310c       __CTA3?AVbad_array_new_length@std@@ 0041b10c     MSVCRT:throw_bad_alloc.obj
 0002:0000311c       __CT??_R0?AVbad_array_new_length@std@@@8??0bad_array_new_length@std@@QAE@ABV01@@Z12 0041b11c     MSVCRT:throw_bad_alloc.obj
 0002:00003138       __CT??_R0?AVbad_cast@std@@@8??0bad_cast@std@@QAE@ABV01@@Z12 0041b138     systeminfo.obj
 0002:00003154       __CTA2?AVbad_cast@std@@    0041b154     systeminfo.obj
 0002:00003160       __TI2?AVbad_cast@std@@     0041b160     systeminfo.obj
 0002:00003170       __CT??_R0?AVexception@std@@@8??0exception@std@@QAE@ABV01@@Z12 0041b170     systeminfo.obj
 0002:0000318c       __IMPORT_DESCRIPTOR_KERNEL32 0041b18c     kernel32:KERNEL32.dll
 0002:000031a0       __IMPORT_DESCRIPTOR_USER32 0041b1a0     user32:USER32.dll
 0002:000031b4       __IMPORT_DESCRIPTOR_GDI32  0041b1b4     gdi32:GDI32.dll
 0002:000031c8       __IMPORT_DESCRIPTOR_ADVAPI32 0041b1c8     advapi32:ADVAPI32.dll
 0002:000031dc       __IMPORT_DESCRIPTOR_MSVCP140 0041b1dc     msvcprt:MSVCP140.dll
 0002:000031f0       __IMPORT_DESCRIPTOR_d3d9   0041b1f0     d3d9:d3d9.dll
 0002:00003204       __IMPORT_DESCRIPTOR_d3dx9_43 0041b204     d3dx9:d3dx9_43.dll
 0002:00003218       __IMPORT_DESCRIPTOR_VCRUNTIME140 0041b218     vcruntime:VCRUNTIME140.dll
 0002:0000322c       __IMPORT_DESCRIPTOR_api-ms-win-crt-stdio-l1-1-0 0041b22c     ucrt:api-ms-win-crt-stdio-l1-1-0.dll
 0002:00003240       __IMPORT_DESCRIPTOR_api-ms-win-crt-runtime-l1-1-0 0041b240     ucrt:api-ms-win-crt-runtime-l1-1-0.dll
 0002:00003254       __IMPORT_DESCRIPTOR_api-ms-win-crt-convert-l1-1-0 0041b254     ucrt:api-ms-win-crt-convert-l1-1-0.dll
 0002:00003268       __IMPORT_DESCRIPTOR_api-ms-win-crt-filesystem-l1-1-0 0041b268     ucrt:api-ms-win-crt-filesystem-l1-1-0.dll
 0002:0000327c       __IMPORT_DESCRIPTOR_api-ms-win-crt-heap-l1-1-0 0041b27c     ucrt:api-ms-win-crt-heap-l1-1-0.dll
 0002:00003290       __IMPORT_DESCRIPTOR_api-ms-win-crt-math-l1-1-0 0041b290     ucrt:api-ms-win-crt-math-l1-1-0.dll
 0002:000032a4       __IMPORT_DESCRIPTOR_api-ms-win-crt-locale-l1-1-0 0041b2a4     ucrt:api-ms-win-crt-locale-l1-1-0.dll
 0002:000032b8       __NULL_IMPORT_DESCRIPTOR   0041b2b8     kernel32:KERNEL32.dll
 0003:00000000       ___scrt_native_dllmain_reason 0041d000     MSVCRT:utility.obj
 0003:00000004       ___security_cookie_complement 0041d004     MSVCRT:gs_cookie.obj
 0003:00000008       ___security_cookie         0041d008     MSVCRT:gs_cookie.obj
 0003:00000010       ___isa_enabled             0041d010     MSVCRT:_cpu_disp_.obj
 0003:00000014       ___scrt_default_matherr    0041d014     MSVCRT:matherr.obj
 0003:00000018       ___scrt_ucrt_dll_is_in_use 0041d018     MSVCRT:ucrt_stubs.obj
 0003:00000020       __fltused                  0041d020     MSVCRT:fltused.obj
 0003:00000028       ??_R0?AVtype_info@@@8      0041d028     MSVCRT:std_type_info_static.obj
 0003:00000040       ??_R0?AVbad_alloc@std@@@8  0041d040     MSVCRT:throw_bad_alloc.obj
 0003:0000005c       ??_R0?AVbad_array_new_length@std@@@8 0041d05c     MSVCRT:throw_bad_alloc.obj
 0003:00000088       ??_R0?AV?$basic_stringstream@DU?$char_traits@D@std@@V?$allocator@D@2@@std@@@8 0041d088     systeminfo.obj
 0003:000000d8       ??_R0?AV?$basic_filebuf@DU?$char_traits@D@std@@@std@@@8 0041d0d8     systeminfo.obj
 0003:00000114       ??_R0?AV?$basic_ifstream@DU?$char_traits@D@std@@@std@@@8 0041d114     systeminfo.obj
 0003:00000150       ??_R0?AV?$_Func_impl@V<lambda_787d45c283701cc870e4fc26d5464600>@@V?$allocator@H@std@@V?$basic_string@DU?$char_traits@D@std@@V?$allocator@D@2@@3@ABV43@@std@@@8 0041d150     systeminfo.obj
 0003:000001f8       ??_R0?AV?$basic_stringbuf@DU?$char_traits@D@std@@V?$allocator@D@2@@std@@@8 0041d1f8     systeminfo.obj
 0003:00000248       ??_R0?AVios_base@std@@@8   0041d248     systeminfo.obj
 0003:00000264       ??_R0?AV?$basic_iostream@DU?$char_traits@D@std@@@std@@@8 0041d264     systeminfo.obj
 0003:000002a0       ??_R0?AV?$_Func_base@V?$basic_string@DU?$char_traits@D@std@@V?$allocator@D@2@@std@@ABV12@@std@@@8 0041d2a0     systeminfo.obj
 0003:00000304       ??_R0?AV?$_Iosb@H@std@@@8  0041d304     systeminfo.obj
 0003:00000320       ??_R0?AV?$basic_streambuf@DU?$char_traits@D@std@@@std@@@8 0041d320     systeminfo.obj
 0003:0000035c       ??_R0?AVbad_cast@std@@@8   0041d35c     systeminfo.obj
 0003:00000378       ??_R0?AV?$basic_istream@DU?$char_traits@D@std@@@std@@@8 0041d378     systeminfo.obj
 0003:000003b4       ??_R0?AV?$basic_ios@DU?$char_traits@D@std@@@std@@@8 0041d3b4     systeminfo.obj
 0003:000003ec       ??_R0?AV?$basic_ostream@DU?$char_traits@D@std@@@std@@@8 0041d3ec     systeminfo.obj
 0003:00000428       ??_R0?AV<lambda_787d45c283701cc870e4fc26d5464600>@@@8 0041d428     systeminfo.obj
 0003:00000460       ??_R0?AVexception@std@@@8  0041d460     systeminfo.obj
 0003:00000488       ___scrt_current_native_startup_state 0041d488     MSVCRT:utility.obj
 0003:0000048c       ___scrt_native_startup_lock 0041d48c     MSVCRT:utility.obj
 0003:000007cc       ___isa_available           0041d7cc     MSVCRT:_cpu_disp_.obj
 0003:000007d0       ___favor                   0041d7d0     MSVCRT:_cpu_disp_.obj
 0003:000007d4       ___scrt_debugger_hook_flag 0041d7d4     MSVCRT:utility_desktop.obj
 0003:000007d8       ?__type_info_root_node@@3U__type_info_node@@A 0041d7d8     MSVCRT:tncleanup.obj
 0003:000007e0       ?_OptionsStorage@?1??__local_stdio_scanf_options@@9@4_KA 0041d7e0     MSVCRT:default_local_stdio_options.obj
 0003:000007f0       ?Form@@3UtagRECT@@A        0041d7f0     Main.obj
 0003:00000800       ?g_hWnd@@3PAUHWND__@@A     0041d800     Main.obj
 0003:00000804       ?g_d3dpp@@3U_D3DPRESENT_PARAMETERS_@@A 0041d804     Main.obj
 0003:0000083c       ?g_pd3dDevice@@3PAUIDirect3DDevice9@@A 0041d83c     Main.obj
 0003:00000840       ?g_line@@3PAUID3DXLine@@A  0041d840     Main.obj
 0003:00000844       ?g_pd3d@@3PAUIDirect3D9@@A 0041d844     Main.obj
 0003:00000848       ?g_hProcess@@3PAXA         0041d848     Main.obj
 0003:0000084c       ?screen_height@@3MA        0041d84c     Main.obj
 0003:00000850       ?screen_width@@3MA         0041d850     Main.obj
 0003:00000854       ?g_game_dll_base@@3KA      0041d854     Main.obj
 0003:00000858       ?g_hWarcraftWnd@@3PAUHWND__@@A 0041d858     Main.obj
 0003:00000860       ?view_matrix@@3U_D3DXMATRIXA16@@A 0041d860     Main.obj
 0003:000008a0       ?view_matrix_temp@@3U_D3DXMATRIXA16@@A 0041d8a0     Main.obj
 0003:000008e0       ?CLOCK_SPEED_IDENTIFIER_STRING@RAMInfo@@0V?$basic_string@DU?$char_traits@D@std@@V?$allocator@D@2@@std@@B 0041d8e0     systeminfo.obj
 0003:000008f8       ?NUMBER_OF_CORES_IDENTIFIER_STRING@CPUInfo@@0V?$basic_string@DU?$char_traits@D@std@@V?$allocator@D@2@@std@@B 0041d8f8     systeminfo.obj
 0003:00000910       ?VERSION_IDENTIFIER_STRING@OSInfo@@0V?$basic_string@DU?$char_traits@D@std@@V?$allocator@D@2@@std@@B 0041d910     systeminfo.obj
 0003:00000928       ?TOTAL_VISIBLE_MEMORY_SIZE_IDENTIFIER_STRING@OSInfo@@0V?$basic_string@DU?$char_traits@D@std@@V?$allocator@D@2@@std@@B 0041d928     systeminfo.obj
 0003:00000940       ?MOTHERBOARD_INFO_END_IDENTIFIER_STRING@MotherboardInfoDelegate@@0V?$basic_string@DU?$char_traits@D@std@@V?$allocator@D@2@@std@@B 0041d940     systeminfo.obj
 0003:00000958       ?ADAPTER_RAM_IDENTIFIER_STRING@GPUInfo@@0V?$basic_string@DU?$char_traits@D@std@@V?$allocator@D@2@@std@@B 0041d958     systeminfo.obj
 0003:00000970       ?CURRENT_DATE_TIME_QUERY_STRING@OSInfo@@0V?$basic_string@DU?$char_traits@D@std@@V?$allocator@D@2@@std@@B 0041d970     systeminfo.obj
 0003:00000988       ?FORM_FACTOR_IDENTIFIER_STRING@RAMInfo@@0V?$basic_string@DU?$char_traits@D@std@@V?$allocator@D@2@@std@@B 0041d988     systeminfo.obj
 0003:000009a0       ?RAM_INFO_END_IDENTIFIER_STRING@RAMInfoDelegate@@0V?$basic_string@DU?$char_traits@D@std@@V?$allocator@D@2@@std@@B 0041d9a0     systeminfo.obj
 0003:000009b8       ?RAM_INSTANCE_QUERY_STRING@RAMInfoDelegate@@0V?$basic_string@DU?$char_traits@D@std@@V?$allocator@D@2@@std@@B 0041d9b8     systeminfo.obj
 0003:000009d0       ?VIDEO_MODE_DESCRIPTION_IDENTIFIER_STRING@GPUInfo@@0V?$basic_string@DU?$char_traits@D@std@@V?$allocator@D@2@@std@@B 0041d9d0     systeminfo.obj
 0003:000009e8       ?SERIAL_NUMBER_IDENTIFIER_STRING@RAMInfo@@0V?$basic_string@DU?$char_traits@D@std@@V?$allocator@D@2@@std@@B 0041d9e8     systeminfo.obj
 0003:00000a00       ?USED_SPACE_IN_PAGING_FILE_QUERY_STRING@OSInfo@@0V?$basic_string@DU?$char_traits@D@std@@V?$allocator@D@2@@std@@B 0041da00     systeminfo.obj
 0003:00000a18       ?FREE_PHYSICAL_MEMORY_QUERY_STRING@OSInfo@@0V?$basic_string@DU?$char_traits@D@std@@V?$allocator@D@2@@std@@B 0041da18     systeminfo.obj
 0003:00000a30       ?CAPTION_INDENTIFIER_STRING@OSInfo@@0V?$basic_string@DU?$char_traits@D@std@@V?$allocator@D@2@@std@@B 0041da30     systeminfo.obj
 0003:00000a48       ?CPU_INSTANCE_QUERY_STRING@CPUInfoDelegate@@0V?$basic_string@DU?$char_traits@D@std@@V?$allocator@D@2@@std@@B 0041da48     systeminfo.obj
 0003:00000a60       ?LAST_BOOT_UP_TIME_IDENTIFIER_STRING@OSInfo@@0V?$basic_string@DU?$char_traits@D@std@@V?$allocator@D@2@@std@@B 0041da60     systeminfo.obj
 0003:00000a78       ?L2_CACHE_SIZE_IDENTIFIER_STRING@CPUInfo@@0V?$basic_string@DU?$char_traits@D@std@@V?$allocator@D@2@@std@@B 0041da78     systeminfo.obj
 0003:00000a90       ?CPU_INFO_QUERY_STRING@CPUInfoDelegate@@0V?$basic_string@DU?$char_traits@D@std@@V?$allocator@D@2@@std@@B 0041da90     systeminfo.obj
 0003:00000aa8       ?FREE_SPACE_IN_PAGING_FILES_IDENTIFIER_STRING@OSInfo@@0V?$basic_string@DU?$char_traits@D@std@@V?$allocator@D@2@@std@@B 0041daa8     systeminfo.obj
 0003:00000ac0       ?MANUFACTURER_IDENTIFIER_STRING@MotherboardInfo@@0V?$basic_string@DU?$char_traits@D@std@@V?$allocator@D@2@@std@@B 0041dac0     systeminfo.obj
 0003:00000ad8       ?MANUFACTURER_IDENTIFIER_STRING@RAMInfo@@0V?$basic_string@DU?$char_traits@D@std@@V?$allocator@D@2@@std@@B 0041dad8     systeminfo.obj
 0003:00000af0       ?CHIPSET_QUERY_STRING@MotherboardInfo@@0V?$basic_string@DU?$char_traits@D@std@@V?$allocator@D@2@@std@@B 0041daf0     systeminfo.obj
 0003:00000b08       ?FREE_VIRTUAL_MEMORY_IDENTIFIER_STRING@OSInfo@@0V?$basic_string@DU?$char_traits@D@std@@V?$allocator@D@2@@std@@B 0041db08     systeminfo.obj
 0003:00000b20       ?FREE_SPACE_IN_PAGING_FILES_QUERY_STRING@OSInfo@@0V?$basic_string@DU?$char_traits@D@std@@V?$allocator@D@2@@std@@B 0041db20     systeminfo.obj
 0003:00000b38       ?TEMPERATURE_QUERY_STRING@CPUInfo@@0V?$basic_string@DU?$char_traits@D@std@@V?$allocator@D@2@@std@@B 0041db38     systeminfo.obj
 0003:00000b50       ?VIDEO_MEMORY_TYPE_IDENTIFIER_STRING@GPUInfo@@0V?$basic_string@DU?$char_traits@D@std@@V?$allocator@D@2@@std@@B 0041db50     systeminfo.obj
 0003:00000b68       ?CHIPSET_END_IDENTIFIER_STRING@MotherboardInfo@@0V?$basic_string@DU?$char_traits@D@std@@V?$allocator@D@2@@std@@B 0041db68     systeminfo.obj
 0003:00000b80       ?BACKUP_CLOCK_SPEED_IDENTIFIER_STRING@RAMInfo@@0V?$basic_string@DU?$char_traits@D@std@@V?$allocator@D@2@@std@@B 0041db80     systeminfo.obj
 0003:00000b98       ?ARCHITECTURE_IDENTIFIER_STRING@CPUInfo@@0V?$basic_string@DU?$char_traits@D@std@@V?$allocator@D@2@@std@@B 0041db98     systeminfo.obj
 0003:00000bb0       ?USED_SPACE_IN_PAGING_FILE_IDENTIFIER_STRING@OSInfo@@0V?$basic_string@DU?$char_traits@D@std@@V?$allocator@D@2@@std@@B 0041dbb0     systeminfo.obj
 0003:00000bc8       ?SERIAL_NUMBER_IDENTIFIER_STRING@OSInfo@@0V?$basic_string@DU?$char_traits@D@std@@V?$allocator@D@2@@std@@B 0041dbc8     systeminfo.obj
 0003:00000be0       ?MOTHERBOARD_INSTANCE_QUERY_STRING@MotherboardInfoDelegate@@0V?$basic_string@DU?$char_traits@D@std@@V?$allocator@D@2@@std@@B 0041dbe0     systeminfo.obj
 0003:00000bf8       ?NAME_IDENTIFIER_STRING@GPUInfo@@0V?$basic_string@DU?$char_traits@D@std@@V?$allocator@D@2@@std@@B 0041dbf8     systeminfo.obj
 0003:00000c10       ?MANUFACTURER_IDENTIFIER_STRING@GPUInfo@@0V?$basic_string@DU?$char_traits@D@std@@V?$allocator@D@2@@std@@B 0041dc10     systeminfo.obj
 0003:00000c28       ?MEMORY_TYPE_IDENTIFIER_STRING@RAMInfo@@0V?$basic_string@DU?$char_traits@D@std@@V?$allocator@D@2@@std@@B 0041dc28     systeminfo.obj
 0003:00000c40       ?CAPACITY_IDENTIFIER_STRING@RAMInfo@@0V?$basic_string@DU?$char_traits@D@std@@V?$allocator@D@2@@std@@B 0041dc40     systeminfo.obj
 0003:00000c58       ?BOOT_DEVICE_IDENTIFIER_STRING@OSInfo@@0V?$basic_string@DU?$char_traits@D@std@@V?$allocator@D@2@@std@@B 0041dc58     systeminfo.obj
 0003:00000c70       ?ARCHITECTURE_IDENTIFIER_STRING@OSInfo@@0V?$basic_string@DU?$char_traits@D@std@@V?$allocator@D@2@@std@@B 0041dc70     systeminfo.obj
 0003:00000c88       ?INSTALL_DATE_IDENTIFIER_STRING@OSInfo@@0V?$basic_string@DU?$char_traits@D@std@@V?$allocator@D@2@@std@@B 0041dc88     systeminfo.obj
 0003:00000ca0       ?AMD_IDENTIFIER_STRING@GPUInfo@@0V?$basic_string@DU?$char_traits@D@std@@V?$allocator@D@2@@std@@B 0041dca0     systeminfo.obj
 0003:00000cb8       ?NVIDIA_IDENTIFIER_STRING@GPUInfo@@0V?$basic_string@DU?$char_traits@D@std@@V?$allocator@D@2@@std@@B 0041dcb8     systeminfo.obj
 0003:00000cd0       ?VIDEO_PROCESSOR_IDENTIFIER_STRING@GPUInfo@@0V?$basic_string@DU?$char_traits@D@std@@V?$allocator@D@2@@std@@B 0041dcd0     systeminfo.obj
 0003:00000ce8       ?NAME_IDENTIFIER_STRING@MotherboardInfo@@0V?$basic_string@DU?$char_traits@D@std@@V?$allocator@D@2@@std@@B 0041dce8     systeminfo.obj
 0003:00000d00       ?RAM_INFO_QUERY_STRING@RAMInfoDelegate@@0V?$basic_string@DU?$char_traits@D@std@@V?$allocator@D@2@@std@@B 0041dd00     systeminfo.obj
 0003:00000d18       ?MANUFACTURER_IDENTIFIER_STRING@OSInfo@@0V?$basic_string@DU?$char_traits@D@std@@V?$allocator@D@2@@std@@B 0041dd18     systeminfo.obj
 0003:00000d30       ?PART_NUMBER_IDENTIFIER_STRING@RAMInfo@@0V?$basic_string@DU?$char_traits@D@std@@V?$allocator@D@2@@std@@B 0041dd30     systeminfo.obj
 0003:00000d48       ?GPU_INFO_END_IDENTIFIER_STRING@GPUInfoDelegate@@0V?$basic_string@DU?$char_traits@D@std@@V?$allocator@D@2@@std@@B 0041dd48     systeminfo.obj
 0003:00000d60       ?VERSION_IDENTIFIER_STRING@MotherboardInfo@@0V?$basic_string@DU?$char_traits@D@std@@V?$allocator@D@2@@std@@B 0041dd60     systeminfo.obj
 0003:00000d78       ?NAME_IDENTIFIER_STRING@CPUInfo@@0V?$basic_string@DU?$char_traits@D@std@@V?$allocator@D@2@@std@@B 0041dd78     systeminfo.obj
 0003:00000d90       ?CURRENT_USER_IDENTIFIER_STRING@OSInfo@@0V?$basic_string@DU?$char_traits@D@std@@V?$allocator@D@2@@std@@B 0041dd90     systeminfo.obj
 0003:00000da8       ?OS_INSTANCE_QUERY_STRING@OSInfoDelegate@@0V?$basic_string@DU?$char_traits@D@std@@V?$allocator@D@2@@std@@B 0041dda8     systeminfo.obj
 0003:00000dc0       ?MANUFACTURER_IDENTIFIER_STRING@CPUInfo@@0V?$basic_string@DU?$char_traits@D@std@@V?$allocator@D@2@@std@@B 0041ddc0     systeminfo.obj
 0003:00000dd8       ?FREE_PHYSICAL_MEMORY_IDENTIFIER_STRING@OSInfo@@0V?$basic_string@DU?$char_traits@D@std@@V?$allocator@D@2@@std@@B 0041ddd8     systeminfo.obj
 0003:00000df0       ?CLOCK_SPEED_QUERY_STRING@CPUInfo@@0V?$basic_string@DU?$char_traits@D@std@@V?$allocator@D@2@@std@@B 0041ddf0     systeminfo.obj
 0003:00000e08       ?TEMPERATURE_ERROR_IDENTIFIER_STRING@CPUInfo@@0V?$basic_string@DU?$char_traits@D@std@@V?$allocator@D@2@@std@@B 0041de08     systeminfo.obj
 0003:00000e20       ?REFRESH_RATE_IDENTIFIER_STRING@GPUInfo@@0V?$basic_string@DU?$char_traits@D@std@@V?$allocator@D@2@@std@@B 0041de20     systeminfo.obj
 0003:00000e38       ?TOTAL_SWAP_SIZE_IDENTIFIER_STRING@OSInfo@@0V?$basic_string@DU?$char_traits@D@std@@V?$allocator@D@2@@std@@B 0041de38     systeminfo.obj
 0003:00000e50       ?CHIPSET_IDENTIFIER_STRING@MotherboardInfo@@0V?$basic_string@DU?$char_traits@D@std@@V?$allocator@D@2@@std@@B 0041de50     systeminfo.obj
 0003:00000e68       ?CAPTION_IDENTIFIER_STRING@GPUInfo@@0V?$basic_string@DU?$char_traits@D@std@@V?$allocator@D@2@@std@@B 0041de68     systeminfo.obj
 0003:00000e80       ?BUILD_NUMBER_IDENTIFIER_STRING@OSInfo@@0V?$basic_string@DU?$char_traits@D@std@@V?$allocator@D@2@@std@@B 0041de80     systeminfo.obj
 0003:00000e98       ?VIDEO_ARCHITECTURE_IDENTIFIER_STRING@GPUInfo@@0V?$basic_string@DU?$char_traits@D@std@@V?$allocator@D@2@@std@@B 0041de98     systeminfo.obj
 0003:00000eb0       ?CPU_INFO_END_IDENTIFIER_STRING@CPUInfoDelegate@@0V?$basic_string@DU?$char_traits@D@std@@V?$allocator@D@2@@std@@B 0041deb0     systeminfo.obj
 0003:00000ec8       ?GPU_INFO_QUERY_STRING@GPUInfoDelegate@@0V?$basic_string@DU?$char_traits@D@std@@V?$allocator@D@2@@std@@B 0041dec8     systeminfo.obj
 0003:00000ee0       ?TOTAL_VIRTUAL_MEMORY_SIZE_IDENTIFIER_STRING@OSInfo@@0V?$basic_string@DU?$char_traits@D@std@@V?$allocator@D@2@@std@@B 0041dee0     systeminfo.obj
 0003:00000ef8       ?NAME_IDENTIFIER_STRING@OSInfo@@0V?$basic_string@DU?$char_traits@D@std@@V?$allocator@D@2@@std@@B 0041def8     systeminfo.obj
 0003:00000f10       ?OS_INFO_END_IDENTIFIER_STRING@OSInfoDelegate@@0V?$basic_string@DU?$char_traits@D@std@@V?$allocator@D@2@@std@@B 0041df10     systeminfo.obj
 0003:00000f28       ?FREE_VIRTUAL_MEMORY_QUERY_STRING@OSInfo@@0V?$basic_string@DU?$char_traits@D@std@@V?$allocator@D@2@@std@@B 0041df28     systeminfo.obj
 0003:00000f40       ?INTEL_IDENTIFIER_STRING@GPUInfo@@0V?$basic_string@DU?$char_traits@D@std@@V?$allocator@D@2@@std@@B 0041df40     systeminfo.obj
 0003:00000f58       ?DRIVER_VERSION_IDENTIFIER_STRING@GPUInfo@@0V?$basic_string@DU?$char_traits@D@std@@V?$allocator@D@2@@std@@B 0041df58     systeminfo.obj
 0003:00000f70       ?CURRENT_CLOCK_SPEED_IDENTIFIER_STRING@CPUInfo@@0V?$basic_string@DU?$char_traits@D@std@@V?$allocator@D@2@@std@@B 0041df70     systeminfo.obj
 0003:00000f88       ?OS_INFO_QUERY_STRING@OSInfoDelegate@@0V?$basic_string@DU?$char_traits@D@std@@V?$allocator@D@2@@std@@B 0041df88     systeminfo.obj
 0003:00000fa0       ?MOTHERBOARD_INFO_QUERY_STRING@MotherboardInfoDelegate@@0V?$basic_string@DU?$char_traits@D@std@@V?$allocator@D@2@@std@@B 0041dfa0     systeminfo.obj
 0003:00000fb8       ?SERIAL_NUMBER_IDENTIFIER_STRING@MotherboardInfo@@0V?$basic_string@DU?$char_traits@D@std@@V?$allocator@D@2@@std@@B 0041dfb8     systeminfo.obj
 0003:00000fd0       ?NAME_IDENTIFIER_STRING@RAMInfo@@0V?$basic_string@DU?$char_traits@D@std@@V?$allocator@D@2@@std@@B 0041dfd0     systeminfo.obj
 0003:00000fe8       ?GPU_INSTANCE_QUERY_STRING@GPUInfoDelegate@@0V?$basic_string@DU?$char_traits@D@std@@V?$allocator@D@2@@std@@B 0041dfe8     systeminfo.obj
 0003:00001000       ?CURRENT_DATE_TIME_IDENTIFIER_STRING@OSInfo@@0V?$basic_string@DU?$char_traits@D@std@@V?$allocator@D@2@@std@@B 0041e000     systeminfo.obj
 0003:00001018       ?L3_CACHE_SIZE_IDENTIFIER_STRING@CPUInfo@@0V?$basic_string@DU?$char_traits@D@std@@V?$allocator@D@2@@std@@B 0041e018     systeminfo.obj
 0003:00001030       ?_OptionsStorage@?1??__local_stdio_printf_options@@9@4_KA 0041e030     Main.obj
 0003:00001038       ?_Psave@?$_Facetptr@V?$ctype@D@std@@@std@@2PBVfacet@locale@2@B 0041e038     systeminfo.obj
 0003:0000103c       ?_Psave@?$_Facetptr@V?$codecvt@DDU_Mbstatet@@@std@@@std@@2PBVfacet@locale@2@B 0041e03c     systeminfo.obj
 0003:00001040       ?_Stinit@?1??_Init@?$basic_filebuf@DU?$char_traits@D@std@@@std@@IAEXPAU_iobuf@@W4_Initfl@23@@Z@4U_Mbstatet@@A 0041e040     systeminfo.obj
 0003:00001048       ___dyn_tls_dtor_callback   0041e048     <common>
 0003:0000104c       ___dyn_tls_init_callback   0041e04c     <common>

 entry point at        0001:000131c1

 Static symbols

 0001:00000000       ??__Eg_hWarcraftWnd@@YAXXZ 00401000 f   Main.obj
 0001:00000020       ??__E?TEMPERATURE_QUERY_STRING@CPUInfo@@0V?$basic_string@DU?$char_traits@D@std@@V?$allocator@D@2@@std@@B@@YAXXZ 00401020 f   systeminfo.obj
 0001:00000060       ??__E?TEMPERATURE_ERROR_IDENTIFIER_STRING@CPUInfo@@0V?$basic_string@DU?$char_traits@D@std@@V?$allocator@D@2@@std@@B@@YAXXZ 00401060 f   systeminfo.obj
 0001:000000a0       ??__E?CLOCK_SPEED_QUERY_STRING@CPUInfo@@0V?$basic_string@DU?$char_traits@D@std@@V?$allocator@D@2@@std@@B@@YAXXZ 004010a0 f   systeminfo.obj
 0001:000000e0       ??__E?CURRENT_CLOCK_SPEED_IDENTIFIER_STRING@CPUInfo@@0V?$basic_string@DU?$char_traits@D@std@@V?$allocator@D@2@@std@@B@@YAXXZ 004010e0 f   systeminfo.obj
 0001:00000120       ??__E?NAME_IDENTIFIER_STRING@CPUInfo@@0V?$basic_string@DU?$char_traits@D@std@@V?$allocator@D@2@@std@@B@@YAXXZ 00401120 f   systeminfo.obj
 0001:00000160       ??__E?NUMBER_OF_CORES_IDENTIFIER_STRING@CPUInfo@@0V?$basic_string@DU?$char_traits@D@std@@V?$allocator@D@2@@std@@B@@YAXXZ 00401160 f   systeminfo.obj
 0001:000001a0       ??__E?MANUFACTURER_IDENTIFIER_STRING@CPUInfo@@0V?$basic_string@DU?$char_traits@D@std@@V?$allocator@D@2@@std@@B@@YAXXZ 004011a0 f   systeminfo.obj
 0001:000001e0       ??__E?ARCHITECTURE_IDENTIFIER_STRING@CPUInfo@@0V?$basic_string@DU?$char_traits@D@std@@V?$allocator@D@2@@std@@B@@YAXXZ 004011e0 f   systeminfo.obj
 0001:00000220       ??__E?L2_CACHE_SIZE_IDENTIFIER_STRING@CPUInfo@@0V?$basic_string@DU?$char_traits@D@std@@V?$allocator@D@2@@std@@B@@YAXXZ 00401220 f   systeminfo.obj
 0001:00000260       ??__E?L3_CACHE_SIZE_IDENTIFIER_STRING@CPUInfo@@0V?$basic_string@DU?$char_traits@D@std@@V?$allocator@D@2@@std@@B@@YAXXZ 00401260 f   systeminfo.obj
 0001:000002a0       ??__E?CPU_INFO_QUERY_STRING@CPUInfoDelegate@@0V?$basic_string@DU?$char_traits@D@std@@V?$allocator@D@2@@std@@B@@YAXXZ 004012a0 f   systeminfo.obj
 0001:000002e0       ??__E?CPU_INSTANCE_QUERY_STRING@CPUInfoDelegate@@0V?$basic_string@DU?$char_traits@D@std@@V?$allocator@D@2@@std@@B@@YAXXZ 004012e0 f   systeminfo.obj
 0001:00000320       ??__E?CPU_INFO_END_IDENTIFIER_STRING@CPUInfoDelegate@@0V?$basic_string@DU?$char_traits@D@std@@V?$allocator@D@2@@std@@B@@YAXXZ 00401320 f   systeminfo.obj
 0001:00000360       ??__E?NVIDIA_IDENTIFIER_STRING@GPUInfo@@0V?$basic_string@DU?$char_traits@D@std@@V?$allocator@D@2@@std@@B@@YAXXZ 00401360 f   systeminfo.obj
 0001:000003a0       ??__E?INTEL_IDENTIFIER_STRING@GPUInfo@@0V?$basic_string@DU?$char_traits@D@std@@V?$allocator@D@2@@std@@B@@YAXXZ 004013a0 f   systeminfo.obj
 0001:000003e0       ??__E?AMD_IDENTIFIER_STRING@GPUInfo@@0V?$basic_string@DU?$char_traits@D@std@@V?$allocator@D@2@@std@@B@@YAXXZ 004013e0 f   systeminfo.obj
 0001:00000420       ??__E?NAME_IDENTIFIER_STRING@GPUInfo@@0V?$basic_string@DU?$char_traits@D@std@@V?$allocator@D@2@@std@@B@@YAXXZ 00401420 f   systeminfo.obj
 0001:00000460       ??__E?MANUFACTURER_IDENTIFIER_STRING@GPUInfo@@0V?$basic_string@DU?$char_traits@D@std@@V?$allocator@D@2@@std@@B@@YAXXZ 00401460 f   systeminfo.obj
 0001:000004a0       ??__E?ADAPTER_RAM_IDENTIFIER_STRING@GPUInfo@@0V?$basic_string@DU?$char_traits@D@std@@V?$allocator@D@2@@std@@B@@YAXXZ 004014a0 f   systeminfo.obj
 0001:000004e0       ??__E?REFRESH_RATE_IDENTIFIER_STRING@GPUInfo@@0V?$basic_string@DU?$char_traits@D@std@@V?$allocator@D@2@@std@@B@@YAXXZ 004014e0 f   systeminfo.obj
 0001:00000520       ??__E?DRIVER_VERSION_IDENTIFIER_STRING@GPUInfo@@0V?$basic_string@DU?$char_traits@D@std@@V?$allocator@D@2@@std@@B@@YAXXZ 00401520 f   systeminfo.obj
 0001:00000560       ??__E?VIDEO_ARCHITECTURE_IDENTIFIER_STRING@GPUInfo@@0V?$basic_string@DU?$char_traits@D@std@@V?$allocator@D@2@@std@@B@@YAXXZ 00401560 f   systeminfo.obj
 0001:000005a0       ??__E?VIDEO_MEMORY_TYPE_IDENTIFIER_STRING@GPUInfo@@0V?$basic_string@DU?$char_traits@D@std@@V?$allocator@D@2@@std@@B@@YAXXZ 004015a0 f   systeminfo.obj
 0001:000005e0       ??__E?VIDEO_MODE_DESCRIPTION_IDENTIFIER_STRING@GPUInfo@@0V?$basic_string@DU?$char_traits@D@std@@V?$allocator@D@2@@std@@B@@YAXXZ 004015e0 f   systeminfo.obj
 0001:00000620       ??__E?VIDEO_PROCESSOR_IDENTIFIER_STRING@GPUInfo@@0V?$basic_string@DU?$char_traits@D@std@@V?$allocator@D@2@@std@@B@@YAXXZ 00401620 f   systeminfo.obj
 0001:00000660       ??__E?CAPTION_IDENTIFIER_STRING@GPUInfo@@0V?$basic_string@DU?$char_traits@D@std@@V?$allocator@D@2@@std@@B@@YAXXZ 00401660 f   systeminfo.obj
 0001:000006a0       ??__E?GPU_INFO_QUERY_STRING@GPUInfoDelegate@@0V?$basic_string@DU?$char_traits@D@std@@V?$allocator@D@2@@std@@B@@YAXXZ 004016a0 f   systeminfo.obj
 0001:000006e0       ??__E?GPU_INSTANCE_QUERY_STRING@GPUInfoDelegate@@0V?$basic_string@DU?$char_traits@D@std@@V?$allocator@D@2@@std@@B@@YAXXZ 004016e0 f   systeminfo.obj
 0001:00000720       ??__E?GPU_INFO_END_IDENTIFIER_STRING@GPUInfoDelegate@@0V?$basic_string@DU?$char_traits@D@std@@V?$allocator@D@2@@std@@B@@YAXXZ 00401720 f   systeminfo.obj
 0001:00000760       ??__E?CHIPSET_QUERY_STRING@MotherboardInfo@@0V?$basic_string@DU?$char_traits@D@std@@V?$allocator@D@2@@std@@B@@YAXXZ 00401760 f   systeminfo.obj
 0001:000007a0       ??__E?NAME_IDENTIFIER_STRING@MotherboardInfo@@0V?$basic_string@DU?$char_traits@D@std@@V?$allocator@D@2@@std@@B@@YAXXZ 004017a0 f   systeminfo.obj
 0001:000007e0       ??__E?MANUFACTURER_IDENTIFIER_STRING@MotherboardInfo@@0V?$basic_string@DU?$char_traits@D@std@@V?$allocator@D@2@@std@@B@@YAXXZ 004017e0 f   systeminfo.obj
 0001:00000820       ??__E?CHIPSET_IDENTIFIER_STRING@MotherboardInfo@@0V?$basic_string@DU?$char_traits@D@std@@V?$allocator@D@2@@std@@B@@YAXXZ 00401820 f   systeminfo.obj
 0001:00000860       ??__E?CHIPSET_END_IDENTIFIER_STRING@MotherboardInfo@@0V?$basic_string@DU?$char_traits@D@std@@V?$allocator@D@2@@std@@B@@YAXXZ 00401860 f   systeminfo.obj
 0001:000008a0       ??__E?SERIAL_NUMBER_IDENTIFIER_STRING@MotherboardInfo@@0V?$basic_string@DU?$char_traits@D@std@@V?$allocator@D@2@@std@@B@@YAXXZ 004018a0 f   systeminfo.obj
 0001:000008e0       ??__E?VERSION_IDENTIFIER_STRING@MotherboardInfo@@0V?$basic_string@DU?$char_traits@D@std@@V?$allocator@D@2@@std@@B@@YAXXZ 004018e0 f   systeminfo.obj
 0001:00000920       ??__E?MOTHERBOARD_INFO_QUERY_STRING@MotherboardInfoDelegate@@0V?$basic_string@DU?$char_traits@D@std@@V?$allocator@D@2@@std@@B@@YAXXZ 00401920 f   systeminfo.obj
 0001:00000960       ??__E?MOTHERBOARD_INSTANCE_QUERY_STRING@MotherboardInfoDelegate@@0V?$basic_string@DU?$char_traits@D@std@@V?$allocator@D@2@@std@@B@@YAXXZ 00401960 f   systeminfo.obj
 0001:000009a0       ??__E?MOTHERBOARD_INFO_END_IDENTIFIER_STRING@MotherboardInfoDelegate@@0V?$basic_string@DU?$char_traits@D@std@@V?$allocator@D@2@@std@@B@@YAXXZ 004019a0 f   systeminfo.obj
 0001:000009e0       ??__E?ARCHITECTURE_IDENTIFIER_STRING@OSInfo@@0V?$basic_string@DU?$char_traits@D@std@@V?$allocator@D@2@@std@@B@@YAXXZ 004019e0 f   systeminfo.obj
 0001:00000a20       ??__E?CAPTION_INDENTIFIER_STRING@OSInfo@@0V?$basic_string@DU?$char_traits@D@std@@V?$allocator@D@2@@std@@B@@YAXXZ 00401a20 f   systeminfo.obj
 0001:00000a60       ??__E?NAME_IDENTIFIER_STRING@OSInfo@@0V?$basic_string@DU?$char_traits@D@std@@V?$allocator@D@2@@std@@B@@YAXXZ 00401a60 f   systeminfo.obj
 0001:00000aa0       ??__E?MANUFACTURER_IDENTIFIER_STRING@OSInfo@@0V?$basic_string@DU?$char_traits@D@std@@V?$allocator@D@2@@std@@B@@YAXXZ 00401aa0 f   systeminfo.obj
 0001:00000ae0       ??__E?VERSION_IDENTIFIER_STRING@OSInfo@@0V?$basic_string@DU?$char_traits@D@std@@V?$allocator@D@2@@std@@B@@YAXXZ 00401ae0 f   systeminfo.obj
 0001:00000b20       ??__E?CURRENT_USER_IDENTIFIER_STRING@OSInfo@@0V?$basic_string@DU?$char_traits@D@std@@V?$allocator@D@2@@std@@B@@YAXXZ 00401b20 f   systeminfo.obj
 0001:00000b60       ??__E?INSTALL_DATE_IDENTIFIER_STRING@OSInfo@@0V?$basic_string@DU?$char_traits@D@std@@V?$allocator@D@2@@std@@B@@YAXXZ 00401b60 f   systeminfo.obj
 0001:00000ba0       ??__E?BUILD_NUMBER_IDENTIFIER_STRING@OSInfo@@0V?$basic_string@DU?$char_traits@D@std@@V?$allocator@D@2@@std@@B@@YAXXZ 00401ba0 f   systeminfo.obj
 0001:00000be0       ??__E?LAST_BOOT_UP_TIME_IDENTIFIER_STRING@OSInfo@@0V?$basic_string@DU?$char_traits@D@std@@V?$allocator@D@2@@std@@B@@YAXXZ 00401be0 f   systeminfo.obj
 0001:00000c20       ??__E?BOOT_DEVICE_IDENTIFIER_STRING@OSInfo@@0V?$basic_string@DU?$char_traits@D@std@@V?$allocator@D@2@@std@@B@@YAXXZ 00401c20 f   systeminfo.obj
 0001:00000c60       ??__E?SERIAL_NUMBER_IDENTIFIER_STRING@OSInfo@@0V?$basic_string@DU?$char_traits@D@std@@V?$allocator@D@2@@std@@B@@YAXXZ 00401c60 f   systeminfo.obj
 0001:00000ca0       ??__E?TOTAL_VIRTUAL_MEMORY_SIZE_IDENTIFIER_STRING@OSInfo@@0V?$basic_string@DU?$char_traits@D@std@@V?$allocator@D@2@@std@@B@@YAXXZ 00401ca0 f   systeminfo.obj
 0001:00000ce0       ??__E?TOTAL_VISIBLE_MEMORY_SIZE_IDENTIFIER_STRING@OSInfo@@0V?$basic_string@DU?$char_traits@D@std@@V?$allocator@D@2@@std@@B@@YAXXZ 00401ce0 f   systeminfo.obj
 0001:00000d20       ??__E?TOTAL_SWAP_SIZE_IDENTIFIER_STRING@OSInfo@@0V?$basic_string@DU?$char_traits@D@std@@V?$allocator@D@2@@std@@B@@YAXXZ 00401d20 f   systeminfo.obj
 0001:00000d60       ??__E?FREE_PHYSICAL_MEMORY_IDENTIFIER_STRING@OSInfo@@0V?$basic_string@DU?$char_traits@D@std@@V?$allocator@D@2@@std@@B@@YAXXZ 00401d60 f   systeminfo.obj
 0001:00000da0       ??__E?FREE_PHYSICAL_MEMORY_QUERY_STRING@OSInfo@@0V?$basic_string@DU?$char_traits@D@std@@V?$allocator@D@2@@std@@B@@YAXXZ 00401da0 f   systeminfo.obj
 0001:00000de0       ??__E?FREE_VIRTUAL_MEMORY_IDENTIFIER_STRING@OSInfo@@0V?$basic_string@DU?$char_traits@D@std@@V?$allocator@D@2@@std@@B@@YAXXZ 00401de0 f   systeminfo.obj
 0001:00000e20       ??__E?FREE_VIRTUAL_MEMORY_QUERY_STRING@OSInfo@@0V?$basic_string@DU?$char_traits@D@std@@V?$allocator@D@2@@std@@B@@YAXXZ 00401e20 f   systeminfo.obj
 0001:00000e60       ??__E?FREE_SPACE_IN_PAGING_FILES_IDENTIFIER_STRING@OSInfo@@0V?$basic_string@DU?$char_traits@D@std@@V?$allocator@D@2@@std@@B@@YAXXZ 00401e60 f   systeminfo.obj
 0001:00000ea0       ??__E?FREE_SPACE_IN_PAGING_FILES_QUERY_STRING@OSInfo@@0V?$basic_string@DU?$char_traits@D@std@@V?$allocator@D@2@@std@@B@@YAXXZ 00401ea0 f   systeminfo.obj
 0001:00000ee0       ??__E?USED_SPACE_IN_PAGING_FILE_IDENTIFIER_STRING@OSInfo@@0V?$basic_string@DU?$char_traits@D@std@@V?$allocator@D@2@@std@@B@@YAXXZ 00401ee0 f   systeminfo.obj
 0001:00000f20       ??__E?USED_SPACE_IN_PAGING_FILE_QUERY_STRING@OSInfo@@0V?$basic_string@DU?$char_traits@D@std@@V?$allocator@D@2@@std@@B@@YAXXZ 00401f20 f   systeminfo.obj
 0001:00000f60       ??__E?CURRENT_DATE_TIME_IDENTIFIER_STRING@OSInfo@@0V?$basic_string@DU?$char_traits@D@std@@V?$allocator@D@2@@std@@B@@YAXXZ 00401f60 f   systeminfo.obj
 0001:00000fa0       ??__E?CURRENT_DATE_TIME_QUERY_STRING@OSInfo@@0V?$basic_string@DU?$char_traits@D@std@@V?$allocator@D@2@@std@@B@@YAXXZ 00401fa0 f   systeminfo.obj
 0001:00001000       ??__E?OS_INFO_QUERY_STRING@OSInfoDelegate@@0V?$basic_string@DU?$char_traits@D@std@@V?$allocator@D@2@@std@@B@@YAXXZ 00402000 f   systeminfo.obj
 0001:00001040       ??__E?OS_INSTANCE_QUERY_STRING@OSInfoDelegate@@0V?$basic_string@DU?$char_traits@D@std@@V?$allocator@D@2@@std@@B@@YAXXZ 00402040 f   systeminfo.obj
 0001:00001080       ??__E?OS_INFO_END_IDENTIFIER_STRING@OSInfoDelegate@@0V?$basic_string@DU?$char_traits@D@std@@V?$allocator@D@2@@std@@B@@YAXXZ 00402080 f   systeminfo.obj
 0001:000010c0       ??__E?NAME_IDENTIFIER_STRING@RAMInfo@@0V?$basic_string@DU?$char_traits@D@std@@V?$allocator@D@2@@std@@B@@YAXXZ 004020c0 f   systeminfo.obj
 0001:00001100       ??__E?MANUFACTURER_IDENTIFIER_STRING@RAMInfo@@0V?$basic_string@DU?$char_traits@D@std@@V?$allocator@D@2@@std@@B@@YAXXZ 00402100 f   systeminfo.obj
 0001:00001140       ??__E?CAPACITY_IDENTIFIER_STRING@RAMInfo@@0V?$basic_string@DU?$char_traits@D@std@@V?$allocator@D@2@@std@@B@@YAXXZ 00402140 f   systeminfo.obj
 0001:00001180       ??__E?SERIAL_NUMBER_IDENTIFIER_STRING@RAMInfo@@0V?$basic_string@DU?$char_traits@D@std@@V?$allocator@D@2@@std@@B@@YAXXZ 00402180 f   systeminfo.obj
 0001:000011c0       ??__E?FORM_FACTOR_IDENTIFIER_STRING@RAMInfo@@0V?$basic_string@DU?$char_traits@D@std@@V?$allocator@D@2@@std@@B@@YAXXZ 004021c0 f   systeminfo.obj
 0001:00001200       ??__E?PART_NUMBER_IDENTIFIER_STRING@RAMInfo@@0V?$basic_string@DU?$char_traits@D@std@@V?$allocator@D@2@@std@@B@@YAXXZ 00402200 f   systeminfo.obj
 0001:00001240       ??__E?MEMORY_TYPE_IDENTIFIER_STRING@RAMInfo@@0V?$basic_string@DU?$char_traits@D@std@@V?$allocator@D@2@@std@@B@@YAXXZ 00402240 f   systeminfo.obj
 0001:00001280       ??__E?CLOCK_SPEED_IDENTIFIER_STRING@RAMInfo@@0V?$basic_string@DU?$char_traits@D@std@@V?$allocator@D@2@@std@@B@@YAXXZ 00402280 f   systeminfo.obj
 0001:000012c0       ??__E?BACKUP_CLOCK_SPEED_IDENTIFIER_STRING@RAMInfo@@0V?$basic_string@DU?$char_traits@D@std@@V?$allocator@D@2@@std@@B@@YAXXZ 004022c0 f   systeminfo.obj
 0001:00001300       ??__E?RAM_INFO_QUERY_STRING@RAMInfoDelegate@@0V?$basic_string@DU?$char_traits@D@std@@V?$allocator@D@2@@std@@B@@YAXXZ 00402300 f   systeminfo.obj
 0001:00001340       ??__E?RAM_INSTANCE_QUERY_STRING@RAMInfoDelegate@@0V?$basic_string@DU?$char_traits@D@std@@V?$allocator@D@2@@std@@B@@YAXXZ 00402340 f   systeminfo.obj
 0001:00001380       ??__E?RAM_INFO_END_IDENTIFIER_STRING@RAMInfoDelegate@@0V?$basic_string@DU?$char_traits@D@std@@V?$allocator@D@2@@std@@B@@YAXXZ 00402380 f   systeminfo.obj
 0001:000013bd       ??__E_Fac_tidy_reg@std@@YAXXZ 004023bd f   msvcprt:locale0_implib.obj
 0001:000054ff       __catch$?_Copy@?$basic_string@DU?$char_traits@D@std@@V?$allocator@D@2@@std@@QAEXII@Z$0 004064ff f i Main.obj
 0001:000055a0       __catch$?_Copy@?$basic_string@DU?$char_traits@D@std@@V?$allocator@D@2@@std@@QAEXII@Z$1 004065a0 f i Main.obj
 0001:000058a5       __catch$??$?6U?$char_traits@D@std@@@std@@YAAAV?$basic_ostream@DU?$char_traits@D@std@@@0@AAV10@PBD@Z$0 004068a5 f i Main.obj
 0001:0000746d       __catch$?getArchitecture@CPUInfo@@ABE?AV?$basic_string@DU?$char_traits@D@std@@V?$allocator@D@2@@std@@AAV23@@Z$0 0040846d f   systeminfo.obj
 0001:0000804e       __catch$??0GPUInfo@@QAE@ABV?$vector@V?$basic_string@DU?$char_traits@D@std@@V?$allocator@D@2@@std@@V?$allocator@V?$basic_string@DU?$char_traits@D@std@@V?$allocator@D@2@@std@@@2@@std@@H@Z$0 0040904e f   systeminfo.obj
 0001:000089ca       __catch$?getVideoArchitecture@GPUInfo@@ABE?AV?$basic_string@DU?$char_traits@D@std@@V?$allocator@D@2@@std@@ABV23@@Z$0 004099ca f   systeminfo.obj
 0001:00008b08       $LN167                     00409b08     systeminfo.obj
 0001:00008b40       $LN163                     00409b40     systeminfo.obj
 0001:00008c7a       __catch$?getVideoMemoryType@GPUInfo@@ABE?AV?$basic_string@DU?$char_traits@D@std@@V?$allocator@D@2@@std@@ABV23@@Z$0 00409c7a f   systeminfo.obj
 0001:00008db0       $LN166                     00409db0     systeminfo.obj
 0001:0000adbc       __catch$??0OSInfo@@QAE@ABV?$vector@V?$basic_string@DU?$char_traits@D@std@@V?$allocator@D@2@@std@@V?$allocator@V?$basic_string@DU?$char_traits@D@std@@V?$allocator@D@2@@std@@@2@@std@@H@Z$0 0040bdbc f   systeminfo.obj
 0001:0000af73       __catch$??0OSInfo@@QAE@ABV?$vector@V?$basic_string@DU?$char_traits@D@std@@V?$allocator@D@2@@std@@V?$allocator@V?$basic_string@DU?$char_traits@D@std@@V?$allocator@D@2@@std@@@2@@std@@H@Z$2 0040bf73 f   systeminfo.obj
 0001:0000b13c       __catch$??0OSInfo@@QAE@ABV?$vector@V?$basic_string@DU?$char_traits@D@std@@V?$allocator@D@2@@std@@V?$allocator@V?$basic_string@DU?$char_traits@D@std@@V?$allocator@D@2@@std@@@2@@std@@H@Z$4 0040c13c f   systeminfo.obj
 0001:0000bfdd       __catch$??0RAMInfo@@QAE@ABV?$vector@V?$basic_string@DU?$char_traits@D@std@@V?$allocator@D@2@@std@@V?$allocator@V?$basic_string@DU?$char_traits@D@std@@V?$allocator@D@2@@std@@@2@@std@@H@Z$0 0040cfdd f   systeminfo.obj
 0001:0000c96a       __catch$?getMemoryType@RAMInfo@@ABE?AV?$basic_string@DU?$char_traits@D@std@@V?$allocator@D@2@@std@@ABV23@@Z$0 0040d96a f   systeminfo.obj
 0001:0000cb68       $LN179                     0040db68     systeminfo.obj
 0001:0000cc6a       __catch$?getFormFactor@RAMInfo@@ABE?AV?$basic_string@DU?$char_traits@D@std@@V?$allocator@D@2@@std@@ABV23@@Z$0 0040dc6a f   systeminfo.obj
 0001:0000ce58       $LN177                     0040de58     systeminfo.obj
 0001:0000dca0       ??R<lambda_787d45c283701cc870e4fc26d5464600>@@QBE?AV?$basic_string@DU?$char_traits@D@std@@V?$allocator@D@2@@std@@ABV12@@Z 0040eca0 f   systeminfo.obj
 0001:0000dfe4       __catch$??0?$vector@VRAMInfo@@V?$allocator@VRAMInfo@@@std@@@std@@QAE@ABV01@@Z$0 0040efe4 f i systeminfo.obj
 0001:0000e0d4       __catch$??0?$vector@VOSInfo@@V?$allocator@VOSInfo@@@std@@@std@@QAE@ABV01@@Z$0 0040f0d4 f i systeminfo.obj
 0001:0000e1c3       __catch$??0?$vector@VMotherboardInfo@@V?$allocator@VMotherboardInfo@@@std@@@std@@QAE@ABV01@@Z$0 0040f1c3 f i systeminfo.obj
 0001:0000e2b4       __catch$??0?$vector@VGPUInfo@@V?$allocator@VGPUInfo@@@std@@@std@@QAE@ABV01@@Z$0 0040f2b4 f i systeminfo.obj
 0001:0000e3a6       __catch$??0?$vector@VCPUInfo@@V?$allocator@VCPUInfo@@@std@@@std@@QAE@ABV01@@Z$0 0040f3a6 f i systeminfo.obj
 0001:0000e664       __catch$??0?$vector@V?$basic_string@DU?$char_traits@D@std@@V?$allocator@D@2@@std@@V?$allocator@V?$basic_string@DU?$char_traits@D@std@@V?$allocator@D@2@@std@@@2@@std@@QAE@ABV01@@Z$0 0040f664 f i systeminfo.obj
 0001:0000feed       __catch$??$?6DU?$char_traits@D@std@@V?$allocator@D@1@@std@@YAAAV?$basic_ostream@DU?$char_traits@D@std@@@0@AAV10@ABV?$basic_string@DU?$char_traits@D@std@@V?$allocator@D@2@@0@@Z$0 00410eed f i systeminfo.obj
 0001:000114b3       __catch$??$_Construct@PBV?$basic_string@DU?$char_traits@D@std@@V?$allocator@D@2@@std@@@?$vector@V?$basic_string@DU?$char_traits@D@std@@V?$allocator@D@2@@std@@V?$allocator@V?$basic_string@DU?$char_traits@D@std@@V?$allocator@D@2@@std@@@2@@std@@QAEXPBV?$basic_string@DU?$char_traits@D@std@@V?$allocator@D@2@@1@0Uforward_iterator_tag@1@@Z$0 004124b3 f i systeminfo.obj
 0001:000116ef       __catch$??$?5DU?$char_traits@D@std@@V?$allocator@D@1@@std@@YAAAV?$basic_istream@DU?$char_traits@D@std@@@0@$$QAV10@AAV?$basic_string@DU?$char_traits@D@std@@V?$allocator@D@2@@0@@Z$0 004126ef f i systeminfo.obj
 0001:000118c9       __catch$??$_Uninitialized_copy_al_unchecked1@PBVRAMInfo@@PAV1@V?$allocator@VRAMInfo@@@std@@@std@@YAPAVRAMInfo@@PBV1@0PAV1@AAU?$_Wrap_alloc@V?$allocator@VRAMInfo@@@std@@@0@U_General_ptr_iterator_tag@0@U_Any_tag@0@@Z$0 004128c9 f i systeminfo.obj
 0001:00011969       __catch$??$_Uninitialized_copy_al_unchecked1@PBVOSInfo@@PAV1@V?$allocator@VOSInfo@@@std@@@std@@YAPAVOSInfo@@PBV1@0PAV1@AAU?$_Wrap_alloc@V?$allocator@VOSInfo@@@std@@@0@U_General_ptr_iterator_tag@0@U_Any_tag@0@@Z$0 00412969 f i systeminfo.obj
 0001:00011a03       __catch$??$_Uninitialized_copy_al_unchecked1@PBVMotherboardInfo@@PAV1@V?$allocator@VMotherboardInfo@@@std@@@std@@YAPAVMotherboardInfo@@PBV1@0PAV1@AAU?$_Wrap_alloc@V?$allocator@VMotherboardInfo@@@std@@@0@U_General_ptr_iterator_tag@0@U_Any_tag@0@@Z$0 00412a03 f i systeminfo.obj
 0001:00011a99       __catch$??$_Uninitialized_copy_al_unchecked1@PBVGPUInfo@@PAV1@V?$allocator@VGPUInfo@@@std@@@std@@YAPAVGPUInfo@@PBV1@0PAV1@AAU?$_Wrap_alloc@V?$allocator@VGPUInfo@@@std@@@0@U_General_ptr_iterator_tag@0@U_Any_tag@0@@Z$0 00412a99 f i systeminfo.obj
 0001:00011b39       __catch$??$_Uninitialized_copy_al_unchecked1@PBVCPUInfo@@PAV1@V?$allocator@VCPUInfo@@@std@@@std@@YAPAVCPUInfo@@PBV1@0PAV1@AAU?$_Wrap_alloc@V?$allocator@VCPUInfo@@@std@@@0@U_General_ptr_iterator_tag@0@U_Any_tag@0@@Z$0 00412b39 f i systeminfo.obj
 0001:00011bf4       __catch$??$_Uninitialized_copy_al_unchecked1@PBV?$basic_string@DU?$char_traits@D@std@@V?$allocator@D@2@@std@@PAV12@V?$allocator@V?$basic_string@DU?$char_traits@D@std@@V?$allocator@D@2@@std@@@2@@std@@YAPAV?$basic_string@DU?$char_traits@D@std@@V?$allocator@D@2@@0@PBV10@0PAV10@AAU?$_Wrap_alloc@V?$allocator@V?$basic_string@DU?$char_traits@D@std@@V?$allocator@D@2@@std@@@std@@@0@U_General_ptr_iterator_tag@0@U_Any_tag@0@@Z$0 00412bf4 f i systeminfo.obj
 0001:00012d10       ?find_pe_section@@YAPAU_IMAGE_SECTION_HEADER@@QAEI@Z 00413d10 f   MSVCRT:utility.obj
 0001:00012f9b       ?pre_c_initialization@@YAHXZ 00413f9b f   MSVCRT:exe_winmain.obj
 0001:0001303f       ?post_pgo_initialization@@YAHXZ 0041403f f   MSVCRT:exe_winmain.obj
 0001:00013047       ?pre_cpp_initialization@@YAXXZ 00414047 f   MSVCRT:exe_winmain.obj
 0001:00013059       ?__scrt_common_main_seh@@YAHXZ 00414059 f   MSVCRT:exe_winmain.obj
 0001:000133e0       $$000000                   004143e0     MSVCRT:_sehprolg4_.obj
 0001:00013a20       $$000000                   00414a20     MSVCRT:lldiv.obj
 0001:00013ad0       $$000000                   00414ad0     MSVCRT:chkstk.obj
 0001:00013b10       __unwindfunclet$?KEY@@YA?AV?$basic_string@DU?$char_traits@D@std@@V?$allocator@D@2@@std@@XZ$0 00414b10 f   Main.obj
 0001:00013b1b       __unwindfunclet$?KEY@@YA?AV?$basic_string@DU?$char_traits@D@std@@V?$allocator@D@2@@std@@XZ$1 00414b1b f   Main.obj
 0001:00013b26       __unwindfunclet$?KEY@@YA?AV?$basic_string@DU?$char_traits@D@std@@V?$allocator@D@2@@std@@XZ$2 00414b26 f   Main.obj
 0001:00013b48       __unwindfunclet$?KEY@@YA?AV?$basic_string@DU?$char_traits@D@std@@V?$allocator@D@2@@std@@XZ$9 00414b48 f   Main.obj
 0001:00013b53       __unwindfunclet$?KEY@@YA?AV?$basic_string@DU?$char_traits@D@std@@V?$allocator@D@2@@std@@XZ$10 00414b53 f   Main.obj
 0001:00013b5e       __unwindfunclet$?KEY@@YA?AV?$basic_string@DU?$char_traits@D@std@@V?$allocator@D@2@@std@@XZ$16 00414b5e f   Main.obj
 0001:00013b69       __unwindfunclet$?KEY@@YA?AV?$basic_string@DU?$char_traits@D@std@@V?$allocator@D@2@@std@@XZ$17 00414b69 f   Main.obj
 0001:00013b74       __unwindfunclet$?KEY@@YA?AV?$basic_string@DU?$char_traits@D@std@@V?$allocator@D@2@@std@@XZ$25 00414b74 f   Main.obj
 0001:00013b7f       __unwindfunclet$?KEY@@YA?AV?$basic_string@DU?$char_traits@D@std@@V?$allocator@D@2@@std@@XZ$26 00414b7f f   Main.obj
 0001:00013b8a       __unwindfunclet$?KEY@@YA?AV?$basic_string@DU?$char_traits@D@std@@V?$allocator@D@2@@std@@XZ$35 00414b8a f   Main.obj
 0001:00013b95       __unwindfunclet$?KEY@@YA?AV?$basic_string@DU?$char_traits@D@std@@V?$allocator@D@2@@std@@XZ$36 00414b95 f   Main.obj
 0001:00013ba0       __ehhandler$?KEY@@YA?AV?$basic_string@DU?$char_traits@D@std@@V?$allocator@D@2@@std@@XZ 00414ba0 f   Main.obj
 0001:00013bd0       __ehhandler$?_Copy@?$basic_string@DU?$char_traits@D@std@@V?$allocator@D@2@@std@@QAEXII@Z 00414bd0 f   Main.obj
 0001:00013bf0       __unwindfunclet$??$?6U?$char_traits@D@std@@@std@@YAAAV?$basic_ostream@DU?$char_traits@D@std@@@0@AAV10@PBD@Z$3 00414bf0 f   Main.obj
 0001:00013bf8       __unwindfunclet$??$?6U?$char_traits@D@std@@@std@@YAAAV?$basic_ostream@DU?$char_traits@D@std@@@0@AAV10@PBD@Z$2 00414bf8 f   Main.obj
 0001:00013c00       __unwindfunclet$??$?6U?$char_traits@D@std@@@std@@YAAAV?$basic_ostream@DU?$char_traits@D@std@@@0@AAV10@PBD@Z$8 00414c00 f   Main.obj
 0001:00013c07       __unwindfunclet$??$?6U?$char_traits@D@std@@@std@@YAAAV?$basic_ostream@DU?$char_traits@D@std@@@0@AAV10@PBD@Z$9 00414c07 f   Main.obj
 0001:00013c0e       __ehhandler$??$?6U?$char_traits@D@std@@@std@@YAAAV?$basic_ostream@DU?$char_traits@D@std@@@0@AAV10@PBD@Z 00414c0e f   Main.obj
 0001:00013c30       __unwindfunclet$??$make_unique@VOSInfoDelegate@@$$V@std@@YA?AV?$unique_ptr@VOSInfoDelegate@@U?$default_delete@VOSInfoDelegate@@@std@@@0@XZ$0 00414c30 f   Main.obj
 0001:00013c30       __unwindfunclet$??$make_unique@VMotherboardInfoDelegate@@$$V@std@@YA?AV?$unique_ptr@VMotherboardInfoDelegate@@U?$default_delete@VMotherboardInfoDelegate@@@std@@@0@XZ$0 00414c30 f   Main.obj
 0001:00013c30       __unwindfunclet$??$make_unique@VGPUInfoDelegate@@$$V@std@@YA?AV?$unique_ptr@VGPUInfoDelegate@@U?$default_delete@VGPUInfoDelegate@@@std@@@0@XZ$0 00414c30 f   Main.obj
 0001:00013c30       __unwindfunclet$??$make_unique@VRAMInfoDelegate@@$$V@std@@YA?AV?$unique_ptr@VRAMInfoDelegate@@U?$default_delete@VRAMInfoDelegate@@@std@@@0@XZ$0 00414c30 f   Main.obj
 0001:00013c30       __unwindfunclet$??$make_unique@VCPUInfoDelegate@@$$V@std@@YA?AV?$unique_ptr@VCPUInfoDelegate@@U?$default_delete@VCPUInfoDelegate@@@std@@@0@XZ$0 00414c30 f   Main.obj
 0001:00013c3f       __ehhandler$??$make_unique@VCPUInfoDelegate@@$$V@std@@YA?AV?$unique_ptr@VCPUInfoDelegate@@U?$default_delete@VCPUInfoDelegate@@@std@@@0@XZ 00414c3f f   Main.obj
 0001:00013c3f       __ehhandler$??$make_unique@VGPUInfoDelegate@@$$V@std@@YA?AV?$unique_ptr@VGPUInfoDelegate@@U?$default_delete@VGPUInfoDelegate@@@std@@@0@XZ 00414c3f f   Main.obj
 0001:00013c3f       __ehhandler$??$make_unique@VRAMInfoDelegate@@$$V@std@@YA?AV?$unique_ptr@VRAMInfoDelegate@@U?$default_delete@VRAMInfoDelegate@@@std@@@0@XZ 00414c3f f   Main.obj
 0001:00013c3f       __ehhandler$??$make_unique@VOSInfoDelegate@@$$V@std@@YA?AV?$unique_ptr@VOSInfoDelegate@@U?$default_delete@VOSInfoDelegate@@@std@@@0@XZ 00414c3f f   Main.obj
 0001:00013c3f       __ehhandler$??$make_unique@VMotherboardInfoDelegate@@$$V@std@@YA?AV?$unique_ptr@VMotherboardInfoDelegate@@U?$default_delete@VMotherboardInfoDelegate@@@std@@@0@XZ 00414c3f f   Main.obj
 0001:00013c60       __unwindfunclet$??1?$function@$$A6A?AV?$basic_string@DU?$char_traits@D@std@@V?$allocator@D@2@@std@@ABV12@@Z@std@@QAE@XZ$1 00414c60 f   systeminfo.obj
 0001:00013c60       __unwindfunclet$??1sentry@?$basic_ostream@DU?$char_traits@D@std@@@std@@QAE@XZ$0 00414c60 f   Main.obj
 0001:00013c67       __ehhandler$??1sentry@?$basic_ostream@DU?$char_traits@D@std@@@std@@QAE@XZ 00414c67 f   Main.obj
 0001:00013c67       __ehhandler$??1?$function@$$A6A?AV?$basic_string@DU?$char_traits@D@std@@V?$allocator@D@2@@std@@ABV12@@Z@std@@QAE@XZ 00414c67 f   systeminfo.obj
 0001:00013c90       __ehhandler$??1_Sentry_base@?$basic_istream@DU?$char_traits@D@std@@@std@@QAE@XZ 00414c90 f   systeminfo.obj
 0001:00013c90       __ehhandler$??1_Sentry_base@?$basic_ostream@DU?$char_traits@D@std@@@std@@QAE@XZ 00414c90 f   Main.obj
 0001:00013c90       __ehhandler$??1locale@std@@QAE@XZ 00414c90 f   systeminfo.obj
 0001:00013cb0       __unwindfunclet$??0CPUInfo@@QAE@ABV?$vector@V?$basic_string@DU?$char_traits@D@std@@V?$allocator@D@2@@std@@V?$allocator@V?$basic_string@DU?$char_traits@D@std@@V?$allocator@D@2@@std@@@2@@std@@H@Z$0 00414cb0 f   systeminfo.obj
 0001:00013cb8       __unwindfunclet$??0CPUInfo@@QAE@ABV?$vector@V?$basic_string@DU?$char_traits@D@std@@V?$allocator@D@2@@std@@V?$allocator@V?$basic_string@DU?$char_traits@D@std@@V?$allocator@D@2@@std@@@2@@std@@H@Z$1 00414cb8 f   systeminfo.obj
 0001:00013cc3       __unwindfunclet$??0CPUInfo@@QAE@ABV?$vector@V?$basic_string@DU?$char_traits@D@std@@V?$allocator@D@2@@std@@V?$allocator@V?$basic_string@DU?$char_traits@D@std@@V?$allocator@D@2@@std@@@2@@std@@H@Z$2 00414cc3 f   systeminfo.obj
 0001:00013cce       __unwindfunclet$??0CPUInfo@@QAE@ABV?$vector@V?$basic_string@DU?$char_traits@D@std@@V?$allocator@D@2@@std@@V?$allocator@V?$basic_string@DU?$char_traits@D@std@@V?$allocator@D@2@@std@@@2@@std@@H@Z$3 00414cce f   systeminfo.obj
 0001:00013cd9       __unwindfunclet$??0CPUInfo@@QAE@ABV?$vector@V?$basic_string@DU?$char_traits@D@std@@V?$allocator@D@2@@std@@V?$allocator@V?$basic_string@DU?$char_traits@D@std@@V?$allocator@D@2@@std@@@2@@std@@H@Z$4 00414cd9 f   systeminfo.obj
 0001:00013ce4       __unwindfunclet$??0CPUInfo@@QAE@ABV?$vector@V?$basic_string@DU?$char_traits@D@std@@V?$allocator@D@2@@std@@V?$allocator@V?$basic_string@DU?$char_traits@D@std@@V?$allocator@D@2@@std@@@2@@std@@H@Z$5 00414ce4 f   systeminfo.obj
 0001:00013cef       __unwindfunclet$??0CPUInfo@@QAE@ABV?$vector@V?$basic_string@DU?$char_traits@D@std@@V?$allocator@D@2@@std@@V?$allocator@V?$basic_string@DU?$char_traits@D@std@@V?$allocator@D@2@@std@@@2@@std@@H@Z$214 00414cef f   systeminfo.obj
 0001:00013cf6       __unwindfunclet$??0CPUInfo@@QAE@ABV?$vector@V?$basic_string@DU?$char_traits@D@std@@V?$allocator@D@2@@std@@V?$allocator@V?$basic_string@DU?$char_traits@D@std@@V?$allocator@D@2@@std@@@2@@std@@H@Z$326 00414cf6 f   systeminfo.obj
 0001:00013cfd       __unwindfunclet$??0CPUInfo@@QAE@ABV?$vector@V?$basic_string@DU?$char_traits@D@std@@V?$allocator@D@2@@std@@V?$allocator@V?$basic_string@DU?$char_traits@D@std@@V?$allocator@D@2@@std@@@2@@std@@H@Z$438 00414cfd f   systeminfo.obj
 0001:00013d04       __unwindfunclet$??0CPUInfo@@QAE@ABV?$vector@V?$basic_string@DU?$char_traits@D@std@@V?$allocator@D@2@@std@@V?$allocator@V?$basic_string@DU?$char_traits@D@std@@V?$allocator@D@2@@std@@@2@@std@@H@Z$9 00414d04 f   systeminfo.obj
 0001:00013d0c       __unwindfunclet$??0CPUInfo@@QAE@ABV?$vector@V?$basic_string@DU?$char_traits@D@std@@V?$allocator@D@2@@std@@V?$allocator@V?$basic_string@DU?$char_traits@D@std@@V?$allocator@D@2@@std@@@2@@std@@H@Z$550 00414d0c f   systeminfo.obj
 0001:00013d13       __unwindfunclet$??0CPUInfo@@QAE@ABV?$vector@V?$basic_string@DU?$char_traits@D@std@@V?$allocator@D@2@@std@@V?$allocator@V?$basic_string@DU?$char_traits@D@std@@V?$allocator@D@2@@std@@@2@@std@@H@Z$11 00414d13 f   systeminfo.obj
 0001:00013d1b       __unwindfunclet$??0CPUInfo@@QAE@ABV?$vector@V?$basic_string@DU?$char_traits@D@std@@V?$allocator@D@2@@std@@V?$allocator@V?$basic_string@DU?$char_traits@D@std@@V?$allocator@D@2@@std@@@2@@std@@H@Z$689 00414d1b f   systeminfo.obj
 0001:00013d22       __unwindfunclet$??0CPUInfo@@QAE@ABV?$vector@V?$basic_string@DU?$char_traits@D@std@@V?$allocator@D@2@@std@@V?$allocator@V?$basic_string@DU?$char_traits@D@std@@V?$allocator@D@2@@std@@@2@@std@@H@Z$13 00414d22 f   systeminfo.obj
 0001:00013d2a       __unwindfunclet$??0CPUInfo@@QAE@ABV?$vector@V?$basic_string@DU?$char_traits@D@std@@V?$allocator@D@2@@std@@V?$allocator@V?$basic_string@DU?$char_traits@D@std@@V?$allocator@D@2@@std@@@2@@std@@H@Z$833 00414d2a f   systeminfo.obj
 0001:00013d31       __ehhandler$??0CPUInfo@@QAE@ABV?$vector@V?$basic_string@DU?$char_traits@D@std@@V?$allocator@D@2@@std@@V?$allocator@V?$basic_string@DU?$char_traits@D@std@@V?$allocator@D@2@@std@@@2@@std@@H@Z 00414d31 f   systeminfo.obj
 0001:00013d60       __ehhandler$?getArchitecture@CPUInfo@@ABE?AV?$basic_string@DU?$char_traits@D@std@@V?$allocator@D@2@@std@@AAV23@@Z 00414d60 f   systeminfo.obj
 0001:00013d90       __unwindfunclet$??0CPUInfoDelegate@@QAE@XZ$0 00414d90 f   systeminfo.obj
 0001:00013d9b       __unwindfunclet$??0CPUInfoDelegate@@QAE@XZ$2 00414d9b f   systeminfo.obj
 0001:00013dae       __unwindfunclet$??0CPUInfoDelegate@@QAE@XZ$3 00414dae f   systeminfo.obj
 0001:00013db9       __unwindfunclet$??0CPUInfoDelegate@@QAE@XZ$4 00414db9 f   systeminfo.obj
 0001:00013dc1       __unwindfunclet$??0CPUInfoDelegate@@QAE@XZ$5 00414dc1 f   systeminfo.obj
 0001:00013dc9       __unwindfunclet$??0CPUInfoDelegate@@QAE@XZ$6 00414dc9 f   systeminfo.obj
 0001:00013dd1       __unwindfunclet$??0CPUInfoDelegate@@QAE@XZ$94 00414dd1 f   systeminfo.obj
 0001:00013dd6       __ehhandler$??0CPUInfoDelegate@@QAE@XZ 00414dd6 f   systeminfo.obj
 0001:00013e00       __unwindfunclet$??0GPUInfo@@QAE@ABV?$vector@V?$basic_string@DU?$char_traits@D@std@@V?$allocator@D@2@@std@@V?$allocator@V?$basic_string@DU?$char_traits@D@std@@V?$allocator@D@2@@std@@@2@@std@@H@Z$2 00414e00 f   systeminfo.obj
 0001:00013e08       __unwindfunclet$??0GPUInfo@@QAE@ABV?$vector@V?$basic_string@DU?$char_traits@D@std@@V?$allocator@D@2@@std@@V?$allocator@V?$basic_string@DU?$char_traits@D@std@@V?$allocator@D@2@@std@@@2@@std@@H@Z$3 00414e08 f   systeminfo.obj
 0001:00013e13       __unwindfunclet$??0GPUInfo@@QAE@ABV?$vector@V?$basic_string@DU?$char_traits@D@std@@V?$allocator@D@2@@std@@V?$allocator@V?$basic_string@DU?$char_traits@D@std@@V?$allocator@D@2@@std@@@2@@std@@H@Z$4 00414e13 f   systeminfo.obj
 0001:00013e1e       __unwindfunclet$??0GPUInfo@@QAE@ABV?$vector@V?$basic_string@DU?$char_traits@D@std@@V?$allocator@D@2@@std@@V?$allocator@V?$basic_string@DU?$char_traits@D@std@@V?$allocator@D@2@@std@@@2@@std@@H@Z$5 00414e1e f   systeminfo.obj
 0001:00013e29       __unwindfunclet$??0GPUInfo@@QAE@ABV?$vector@V?$basic_string@DU?$char_traits@D@std@@V?$allocator@D@2@@std@@V?$allocator@V?$basic_string@DU?$char_traits@D@std@@V?$allocator@D@2@@std@@@2@@std@@H@Z$6 00414e29 f   systeminfo.obj
 0001:00013e34       __unwindfunclet$??0GPUInfo@@QAE@ABV?$vector@V?$basic_string@DU?$char_traits@D@std@@V?$allocator@D@2@@std@@V?$allocator@V?$basic_string@DU?$char_traits@D@std@@V?$allocator@D@2@@std@@@2@@std@@H@Z$7 00414e34 f   systeminfo.obj
 0001:00013e3f       __unwindfunclet$??0GPUInfo@@QAE@ABV?$vector@V?$basic_string@DU?$char_traits@D@std@@V?$allocator@D@2@@std@@V?$allocator@V?$basic_string@DU?$char_traits@D@std@@V?$allocator@D@2@@std@@@2@@std@@H@Z$8 00414e3f f   systeminfo.obj
 0001:00013e4d       __unwindfunclet$??0GPUInfo@@QAE@ABV?$vector@V?$basic_string@DU?$char_traits@D@std@@V?$allocator@D@2@@std@@V?$allocator@V?$basic_string@DU?$char_traits@D@std@@V?$allocator@D@2@@std@@@2@@std@@H@Z$9 00414e4d f   systeminfo.obj
 0001:00013e5b       __unwindfunclet$??0GPUInfo@@QAE@ABV?$vector@V?$basic_string@DU?$char_traits@D@std@@V?$allocator@D@2@@std@@V?$allocator@V?$basic_string@DU?$char_traits@D@std@@V?$allocator@D@2@@std@@@2@@std@@H@Z$10 00414e5b f   systeminfo.obj
 0001:00013e69       __unwindfunclet$??0GPUInfo@@QAE@ABV?$vector@V?$basic_string@DU?$char_traits@D@std@@V?$allocator@D@2@@std@@V?$allocator@V?$basic_string@DU?$char_traits@D@std@@V?$allocator@D@2@@std@@@2@@std@@H@Z$11 00414e69 f   systeminfo.obj
 0001:00013e77       __unwindfunclet$??0GPUInfo@@QAE@ABV?$vector@V?$basic_string@DU?$char_traits@D@std@@V?$allocator@D@2@@std@@V?$allocator@V?$basic_string@DU?$char_traits@D@std@@V?$allocator@D@2@@std@@@2@@std@@H@Z$334 00414e77 f   systeminfo.obj
 0001:00013e7e       __unwindfunclet$??0GPUInfo@@QAE@ABV?$vector@V?$basic_string@DU?$char_traits@D@std@@V?$allocator@D@2@@std@@V?$allocator@V?$basic_string@DU?$char_traits@D@std@@V?$allocator@D@2@@std@@@2@@std@@H@Z$446 00414e7e f   systeminfo.obj
 0001:00013e85       __unwindfunclet$??0GPUInfo@@QAE@ABV?$vector@V?$basic_string@DU?$char_traits@D@std@@V?$allocator@D@2@@std@@V?$allocator@V?$basic_string@DU?$char_traits@D@std@@V?$allocator@D@2@@std@@@2@@std@@H@Z$558 00414e85 f   systeminfo.obj
 0001:00013e8c       __unwindfunclet$??0GPUInfo@@QAE@ABV?$vector@V?$basic_string@DU?$char_traits@D@std@@V?$allocator@D@2@@std@@V?$allocator@V?$basic_string@DU?$char_traits@D@std@@V?$allocator@D@2@@std@@@2@@std@@H@Z$15 00414e8c f   systeminfo.obj
 0001:00013e94       __unwindfunclet$??0GPUInfo@@QAE@ABV?$vector@V?$basic_string@DU?$char_traits@D@std@@V?$allocator@D@2@@std@@V?$allocator@V?$basic_string@DU?$char_traits@D@std@@V?$allocator@D@2@@std@@@2@@std@@H@Z$16 00414e94 f   systeminfo.obj
 0001:00013e9c       __unwindfunclet$??0GPUInfo@@QAE@ABV?$vector@V?$basic_string@DU?$char_traits@D@std@@V?$allocator@D@2@@std@@V?$allocator@V?$basic_string@DU?$char_traits@D@std@@V?$allocator@D@2@@std@@@2@@std@@H@Z$17 00414e9c f   systeminfo.obj
 0001:00013ea4       __unwindfunclet$??0GPUInfo@@QAE@ABV?$vector@V?$basic_string@DU?$char_traits@D@std@@V?$allocator@D@2@@std@@V?$allocator@V?$basic_string@DU?$char_traits@D@std@@V?$allocator@D@2@@std@@@2@@std@@H@Z$18 00414ea4 f   systeminfo.obj
 0001:00013eaf       __unwindfunclet$??0GPUInfo@@QAE@ABV?$vector@V?$basic_string@DU?$char_traits@D@std@@V?$allocator@D@2@@std@@V?$allocator@V?$basic_string@DU?$char_traits@D@std@@V?$allocator@D@2@@std@@@2@@std@@H@Z$19 00414eaf f   systeminfo.obj
 0001:00013eba       __unwindfunclet$??0GPUInfo@@QAE@ABV?$vector@V?$basic_string@DU?$char_traits@D@std@@V?$allocator@D@2@@std@@V?$allocator@V?$basic_string@DU?$char_traits@D@std@@V?$allocator@D@2@@std@@@2@@std@@H@Z$673 00414eba f   systeminfo.obj
 0001:00013ec1       __unwindfunclet$??0GPUInfo@@QAE@ABV?$vector@V?$basic_string@DU?$char_traits@D@std@@V?$allocator@D@2@@std@@V?$allocator@V?$basic_string@DU?$char_traits@D@std@@V?$allocator@D@2@@std@@@2@@std@@H@Z$22 00414ec1 f   systeminfo.obj
 0001:00013ec9       __unwindfunclet$??0GPUInfo@@QAE@ABV?$vector@V?$basic_string@DU?$char_traits@D@std@@V?$allocator@D@2@@std@@V?$allocator@V?$basic_string@DU?$char_traits@D@std@@V?$allocator@D@2@@std@@@2@@std@@H@Z$920 00414ec9 f   systeminfo.obj
 0001:00013ed0       __unwindfunclet$??0GPUInfo@@QAE@ABV?$vector@V?$basic_string@DU?$char_traits@D@std@@V?$allocator@D@2@@std@@V?$allocator@V?$basic_string@DU?$char_traits@D@std@@V?$allocator@D@2@@std@@@2@@std@@H@Z$1064 00414ed0 f   systeminfo.obj
 0001:00013ed7       __unwindfunclet$??0GPUInfo@@QAE@ABV?$vector@V?$basic_string@DU?$char_traits@D@std@@V?$allocator@D@2@@std@@V?$allocator@V?$basic_string@DU?$char_traits@D@std@@V?$allocator@D@2@@std@@@2@@std@@H@Z$25 00414ed7 f   systeminfo.obj
 0001:00013edf       __unwindfunclet$??0GPUInfo@@QAE@ABV?$vector@V?$basic_string@DU?$char_traits@D@std@@V?$allocator@D@2@@std@@V?$allocator@V?$basic_string@DU?$char_traits@D@std@@V?$allocator@D@2@@std@@@2@@std@@H@Z$1176 00414edf f   systeminfo.obj
 0001:00013ee6       __unwindfunclet$??0GPUInfo@@QAE@ABV?$vector@V?$basic_string@DU?$char_traits@D@std@@V?$allocator@D@2@@std@@V?$allocator@V?$basic_string@DU?$char_traits@D@std@@V?$allocator@D@2@@std@@@2@@std@@H@Z$27 00414ee6 f   systeminfo.obj
 0001:00013eee       __unwindfunclet$??0GPUInfo@@QAE@ABV?$vector@V?$basic_string@DU?$char_traits@D@std@@V?$allocator@D@2@@std@@V?$allocator@V?$basic_string@DU?$char_traits@D@std@@V?$allocator@D@2@@std@@@2@@std@@H@Z$1315 00414eee f   systeminfo.obj
 0001:00013ef5       __unwindfunclet$??0GPUInfo@@QAE@ABV?$vector@V?$basic_string@DU?$char_traits@D@std@@V?$allocator@D@2@@std@@V?$allocator@V?$basic_string@DU?$char_traits@D@std@@V?$allocator@D@2@@std@@@2@@std@@H@Z$1454 00414ef5 f   systeminfo.obj
 0001:00013efc       __unwindfunclet$??0GPUInfo@@QAE@ABV?$vector@V?$basic_string@DU?$char_traits@D@std@@V?$allocator@D@2@@std@@V?$allocator@V?$basic_string@DU?$char_traits@D@std@@V?$allocator@D@2@@std@@@2@@std@@H@Z$1566 00414efc f   systeminfo.obj
 0001:00013f03       __ehhandler$??0GPUInfo@@QAE@ABV?$vector@V?$basic_string@DU?$char_traits@D@std@@V?$allocator@D@2@@std@@V?$allocator@V?$basic_string@DU?$char_traits@D@std@@V?$allocator@D@2@@std@@@2@@std@@H@Z 00414f03 f   systeminfo.obj
 0001:00013f30       __ehhandler$?getVideoArchitecture@GPUInfo@@ABE?AV?$basic_string@DU?$char_traits@D@std@@V?$allocator@D@2@@std@@ABV23@@Z 00414f30 f   systeminfo.obj
 0001:00013f60       __ehhandler$?getVideoMemoryType@GPUInfo@@ABE?AV?$basic_string@DU?$char_traits@D@std@@V?$allocator@D@2@@std@@ABV23@@Z 00414f60 f   systeminfo.obj
 0001:00013f90       __unwindfunclet$??0GPUInfoDelegate@@QAE@XZ$0 00414f90 f   systeminfo.obj
 0001:00013f9b       __unwindfunclet$??0GPUInfoDelegate@@QAE@XZ$2 00414f9b f   systeminfo.obj
 0001:00013fae       __unwindfunclet$??0GPUInfoDelegate@@QAE@XZ$3 00414fae f   systeminfo.obj
 0001:00013fb9       __unwindfunclet$??0GPUInfoDelegate@@QAE@XZ$4 00414fb9 f   systeminfo.obj
 0001:00013fc1       __unwindfunclet$??0GPUInfoDelegate@@QAE@XZ$5 00414fc1 f   systeminfo.obj
 0001:00013fc9       __unwindfunclet$??0GPUInfoDelegate@@QAE@XZ$6 00414fc9 f   systeminfo.obj
 0001:00013fd1       __unwindfunclet$??0GPUInfoDelegate@@QAE@XZ$94 00414fd1 f   systeminfo.obj
 0001:00013fd6       __ehhandler$??0GPUInfoDelegate@@QAE@XZ 00414fd6 f   systeminfo.obj
 0001:00014000       __unwindfunclet$??0MotherboardInfo@@QAE@ABV?$vector@V?$basic_string@DU?$char_traits@D@std@@V?$allocator@D@2@@std@@V?$allocator@V?$basic_string@DU?$char_traits@D@std@@V?$allocator@D@2@@std@@@2@@std@@H@Z$0 00415000 f   systeminfo.obj
 0001:00014008       __unwindfunclet$??0MotherboardInfo@@QAE@ABV?$vector@V?$basic_string@DU?$char_traits@D@std@@V?$allocator@D@2@@std@@V?$allocator@V?$basic_string@DU?$char_traits@D@std@@V?$allocator@D@2@@std@@@2@@std@@H@Z$1 00415008 f   systeminfo.obj
 0001:00014013       __unwindfunclet$??0MotherboardInfo@@QAE@ABV?$vector@V?$basic_string@DU?$char_traits@D@std@@V?$allocator@D@2@@std@@V?$allocator@V?$basic_string@DU?$char_traits@D@std@@V?$allocator@D@2@@std@@@2@@std@@H@Z$2 00415013 f   systeminfo.obj
 0001:0001401e       __unwindfunclet$??0MotherboardInfo@@QAE@ABV?$vector@V?$basic_string@DU?$char_traits@D@std@@V?$allocator@D@2@@std@@V?$allocator@V?$basic_string@DU?$char_traits@D@std@@V?$allocator@D@2@@std@@@2@@std@@H@Z$3 0041501e f   systeminfo.obj
 0001:00014029       __unwindfunclet$??0MotherboardInfo@@QAE@ABV?$vector@V?$basic_string@DU?$char_traits@D@std@@V?$allocator@D@2@@std@@V?$allocator@V?$basic_string@DU?$char_traits@D@std@@V?$allocator@D@2@@std@@@2@@std@@H@Z$4 00415029 f   systeminfo.obj
 0001:00014034       __unwindfunclet$??0MotherboardInfo@@QAE@ABV?$vector@V?$basic_string@DU?$char_traits@D@std@@V?$allocator@D@2@@std@@V?$allocator@V?$basic_string@DU?$char_traits@D@std@@V?$allocator@D@2@@std@@@2@@std@@H@Z$174 00415034 f   systeminfo.obj
 0001:0001403b       __unwindfunclet$??0MotherboardInfo@@QAE@ABV?$vector@V?$basic_string@DU?$char_traits@D@std@@V?$allocator@D@2@@std@@V?$allocator@V?$basic_string@DU?$char_traits@D@std@@V?$allocator@D@2@@std@@@2@@std@@H@Z$278 0041503b f   systeminfo.obj
 0001:00014042       __unwindfunclet$??0MotherboardInfo@@QAE@ABV?$vector@V?$basic_string@DU?$char_traits@D@std@@V?$allocator@D@2@@std@@V?$allocator@V?$basic_string@DU?$char_traits@D@std@@V?$allocator@D@2@@std@@@2@@std@@H@Z$382 00415042 f   systeminfo.obj
 0001:00014049       __unwindfunclet$??0MotherboardInfo@@QAE@ABV?$vector@V?$basic_string@DU?$char_traits@D@std@@V?$allocator@D@2@@std@@V?$allocator@V?$basic_string@DU?$char_traits@D@std@@V?$allocator@D@2@@std@@@2@@std@@H@Z$486 00415049 f   systeminfo.obj
 0001:00014050       __ehhandler$??0MotherboardInfo@@QAE@ABV?$vector@V?$basic_string@DU?$char_traits@D@std@@V?$allocator@D@2@@std@@V?$allocator@V?$basic_string@DU?$char_traits@D@std@@V?$allocator@D@2@@std@@@2@@std@@H@Z 00415050 f   systeminfo.obj
 0001:00014070       __unwindfunclet$?determineChipset@MotherboardInfo@@AAEXXZ$1 00415070 f   systeminfo.obj
 0001:00014086       __unwindfunclet$?determineChipset@MotherboardInfo@@AAEXXZ$2 00415086 f   systeminfo.obj
 0001:00014091       __unwindfunclet$?determineChipset@MotherboardInfo@@AAEXXZ$3 00415091 f   systeminfo.obj
 0001:00014099       __unwindfunclet$?determineChipset@MotherboardInfo@@AAEXXZ$86 00415099 f   systeminfo.obj
 0001:000140a0       __ehhandler$?determineChipset@MotherboardInfo@@AAEXXZ 004150a0 f   systeminfo.obj
 0001:000140d0       __unwindfunclet$??0MotherboardInfoDelegate@@QAE@XZ$0 004150d0 f   systeminfo.obj
 0001:000140db       __unwindfunclet$??0MotherboardInfoDelegate@@QAE@XZ$2 004150db f   systeminfo.obj
 0001:000140ee       __unwindfunclet$??0MotherboardInfoDelegate@@QAE@XZ$3 004150ee f   systeminfo.obj
 0001:000140f9       __unwindfunclet$??0MotherboardInfoDelegate@@QAE@XZ$4 004150f9 f   systeminfo.obj
 0001:00014101       __unwindfunclet$??0MotherboardInfoDelegate@@QAE@XZ$5 00415101 f   systeminfo.obj
 0001:00014109       __unwindfunclet$??0MotherboardInfoDelegate@@QAE@XZ$6 00415109 f   systeminfo.obj
 0001:00014111       __unwindfunclet$??0MotherboardInfoDelegate@@QAE@XZ$94 00415111 f   systeminfo.obj
 0001:00014116       __ehhandler$??0MotherboardInfoDelegate@@QAE@XZ 00415116 f   systeminfo.obj
 0001:00014140       __unwindfunclet$??0OSInfo@@QAE@ABV?$vector@V?$basic_string@DU?$char_traits@D@std@@V?$allocator@D@2@@std@@V?$allocator@V?$basic_string@DU?$char_traits@D@std@@V?$allocator@D@2@@std@@@2@@std@@H@Z$6 00415140 f   systeminfo.obj
 0001:00014148       __unwindfunclet$??0OSInfo@@QAE@ABV?$vector@V?$basic_string@DU?$char_traits@D@std@@V?$allocator@D@2@@std@@V?$allocator@V?$basic_string@DU?$char_traits@D@std@@V?$allocator@D@2@@std@@@2@@std@@H@Z$7 00415148 f   systeminfo.obj
 0001:00014153       __unwindfunclet$??0OSInfo@@QAE@ABV?$vector@V?$basic_string@DU?$char_traits@D@std@@V?$allocator@D@2@@std@@V?$allocator@V?$basic_string@DU?$char_traits@D@std@@V?$allocator@D@2@@std@@@2@@std@@H@Z$8 00415153 f   systeminfo.obj
 0001:0001415e       __unwindfunclet$??0OSInfo@@QAE@ABV?$vector@V?$basic_string@DU?$char_traits@D@std@@V?$allocator@D@2@@std@@V?$allocator@V?$basic_string@DU?$char_traits@D@std@@V?$allocator@D@2@@std@@@2@@std@@H@Z$9 0041515e f   systeminfo.obj
 0001:00014169       __unwindfunclet$??0OSInfo@@QAE@ABV?$vector@V?$basic_string@DU?$char_traits@D@std@@V?$allocator@D@2@@std@@V?$allocator@V?$basic_string@DU?$char_traits@D@std@@V?$allocator@D@2@@std@@@2@@std@@H@Z$10 00415169 f   systeminfo.obj
 0001:00014174       __unwindfunclet$??0OSInfo@@QAE@ABV?$vector@V?$basic_string@DU?$char_traits@D@std@@V?$allocator@D@2@@std@@V?$allocator@V?$basic_string@DU?$char_traits@D@std@@V?$allocator@D@2@@std@@@2@@std@@H@Z$11 00415174 f   systeminfo.obj
 0001:0001417f       __unwindfunclet$??0OSInfo@@QAE@ABV?$vector@V?$basic_string@DU?$char_traits@D@std@@V?$allocator@D@2@@std@@V?$allocator@V?$basic_string@DU?$char_traits@D@std@@V?$allocator@D@2@@std@@@2@@std@@H@Z$12 0041517f f   systeminfo.obj
 0001:0001418d       __unwindfunclet$??0OSInfo@@QAE@ABV?$vector@V?$basic_string@DU?$char_traits@D@std@@V?$allocator@D@2@@std@@V?$allocator@V?$basic_string@DU?$char_traits@D@std@@V?$allocator@D@2@@std@@@2@@std@@H@Z$13 0041518d f   systeminfo.obj
 0001:0001419b       __unwindfunclet$??0OSInfo@@QAE@ABV?$vector@V?$basic_string@DU?$char_traits@D@std@@V?$allocator@D@2@@std@@V?$allocator@V?$basic_string@DU?$char_traits@D@std@@V?$allocator@D@2@@std@@@2@@std@@H@Z$14 0041519b f   systeminfo.obj
 0001:000141a9       __unwindfunclet$??0OSInfo@@QAE@ABV?$vector@V?$basic_string@DU?$char_traits@D@std@@V?$allocator@D@2@@std@@V?$allocator@V?$basic_string@DU?$char_traits@D@std@@V?$allocator@D@2@@std@@@2@@std@@H@Z$15 004151a9 f   systeminfo.obj
 0001:000141b7       __unwindfunclet$??0OSInfo@@QAE@ABV?$vector@V?$basic_string@DU?$char_traits@D@std@@V?$allocator@D@2@@std@@V?$allocator@V?$basic_string@DU?$char_traits@D@std@@V?$allocator@D@2@@std@@@2@@std@@H@Z$16 004151b7 f   systeminfo.obj
 0001:000141c5       __unwindfunclet$??0OSInfo@@QAE@ABV?$vector@V?$basic_string@DU?$char_traits@D@std@@V?$allocator@D@2@@std@@V?$allocator@V?$basic_string@DU?$char_traits@D@std@@V?$allocator@D@2@@std@@@2@@std@@H@Z$17 004151c5 f   systeminfo.obj
 0001:000141d3       __unwindfunclet$??0OSInfo@@QAE@ABV?$vector@V?$basic_string@DU?$char_traits@D@std@@V?$allocator@D@2@@std@@V?$allocator@V?$basic_string@DU?$char_traits@D@std@@V?$allocator@D@2@@std@@@2@@std@@H@Z$18 004151d3 f   systeminfo.obj
 0001:000141e1       __unwindfunclet$??0OSInfo@@QAE@ABV?$vector@V?$basic_string@DU?$char_traits@D@std@@V?$allocator@D@2@@std@@V?$allocator@V?$basic_string@DU?$char_traits@D@std@@V?$allocator@D@2@@std@@@2@@std@@H@Z$19 004151e1 f   systeminfo.obj
 0001:000141ef       __unwindfunclet$??0OSInfo@@QAE@ABV?$vector@V?$basic_string@DU?$char_traits@D@std@@V?$allocator@D@2@@std@@V?$allocator@V?$basic_string@DU?$char_traits@D@std@@V?$allocator@D@2@@std@@@2@@std@@H@Z$459 004151ef f   systeminfo.obj
 0001:000141f6       __unwindfunclet$??0OSInfo@@QAE@ABV?$vector@V?$basic_string@DU?$char_traits@D@std@@V?$allocator@D@2@@std@@V?$allocator@V?$basic_string@DU?$char_traits@D@std@@V?$allocator@D@2@@std@@@2@@std@@H@Z$571 004151f6 f   systeminfo.obj
 0001:000141fd       __unwindfunclet$??0OSInfo@@QAE@ABV?$vector@V?$basic_string@DU?$char_traits@D@std@@V?$allocator@D@2@@std@@V?$allocator@V?$basic_string@DU?$char_traits@D@std@@V?$allocator@D@2@@std@@@2@@std@@H@Z$683 004151fd f   systeminfo.obj
 0001:00014204       __unwindfunclet$??0OSInfo@@QAE@ABV?$vector@V?$basic_string@DU?$char_traits@D@std@@V?$allocator@D@2@@std@@V?$allocator@V?$basic_string@DU?$char_traits@D@std@@V?$allocator@D@2@@std@@@2@@std@@H@Z$795 00415204 f   systeminfo.obj
 0001:0001420b       __unwindfunclet$??0OSInfo@@QAE@ABV?$vector@V?$basic_string@DU?$char_traits@D@std@@V?$allocator@D@2@@std@@V?$allocator@V?$basic_string@DU?$char_traits@D@std@@V?$allocator@D@2@@std@@@2@@std@@H@Z$907 0041520b f   systeminfo.obj
 0001:00014212       __unwindfunclet$??0OSInfo@@QAE@ABV?$vector@V?$basic_string@DU?$char_traits@D@std@@V?$allocator@D@2@@std@@V?$allocator@V?$basic_string@DU?$char_traits@D@std@@V?$allocator@D@2@@std@@@2@@std@@H@Z$1019 00415212 f   systeminfo.obj
 0001:00014219       __unwindfunclet$??0OSInfo@@QAE@ABV?$vector@V?$basic_string@DU?$char_traits@D@std@@V?$allocator@D@2@@std@@V?$allocator@V?$basic_string@DU?$char_traits@D@std@@V?$allocator@D@2@@std@@@2@@std@@H@Z$1131 00415219 f   systeminfo.obj
 0001:00014220       __unwindfunclet$??0OSInfo@@QAE@ABV?$vector@V?$basic_string@DU?$char_traits@D@std@@V?$allocator@D@2@@std@@V?$allocator@V?$basic_string@DU?$char_traits@D@std@@V?$allocator@D@2@@std@@@2@@std@@H@Z$1243 00415220 f   systeminfo.obj
 0001:00014227       __unwindfunclet$??0OSInfo@@QAE@ABV?$vector@V?$basic_string@DU?$char_traits@D@std@@V?$allocator@D@2@@std@@V?$allocator@V?$basic_string@DU?$char_traits@D@std@@V?$allocator@D@2@@std@@@2@@std@@H@Z$1355 00415227 f   systeminfo.obj
 0001:0001422e       __unwindfunclet$??0OSInfo@@QAE@ABV?$vector@V?$basic_string@DU?$char_traits@D@std@@V?$allocator@D@2@@std@@V?$allocator@V?$basic_string@DU?$char_traits@D@std@@V?$allocator@D@2@@std@@@2@@std@@H@Z$1467 0041522e f   systeminfo.obj
 0001:00014235       __unwindfunclet$??0OSInfo@@QAE@ABV?$vector@V?$basic_string@DU?$char_traits@D@std@@V?$allocator@D@2@@std@@V?$allocator@V?$basic_string@DU?$char_traits@D@std@@V?$allocator@D@2@@std@@@2@@std@@H@Z$1579 00415235 f   systeminfo.obj
 0001:0001423c       __unwindfunclet$??0OSInfo@@QAE@ABV?$vector@V?$basic_string@DU?$char_traits@D@std@@V?$allocator@D@2@@std@@V?$allocator@V?$basic_string@DU?$char_traits@D@std@@V?$allocator@D@2@@std@@@2@@std@@H@Z$31 0041523c f   systeminfo.obj
 0001:00014244       __unwindfunclet$??0OSInfo@@QAE@ABV?$vector@V?$basic_string@DU?$char_traits@D@std@@V?$allocator@D@2@@std@@V?$allocator@V?$basic_string@DU?$char_traits@D@std@@V?$allocator@D@2@@std@@@2@@std@@H@Z$32 00415244 f   systeminfo.obj
 0001:0001424c       __unwindfunclet$??0OSInfo@@QAE@ABV?$vector@V?$basic_string@DU?$char_traits@D@std@@V?$allocator@D@2@@std@@V?$allocator@V?$basic_string@DU?$char_traits@D@std@@V?$allocator@D@2@@std@@@2@@std@@H@Z$33 0041524c f   systeminfo.obj
 0001:00014257       __unwindfunclet$??0OSInfo@@QAE@ABV?$vector@V?$basic_string@DU?$char_traits@D@std@@V?$allocator@D@2@@std@@V?$allocator@V?$basic_string@DU?$char_traits@D@std@@V?$allocator@D@2@@std@@@2@@std@@H@Z$34 00415257 f   systeminfo.obj
 0001:00014262       __unwindfunclet$??0OSInfo@@QAE@ABV?$vector@V?$basic_string@DU?$char_traits@D@std@@V?$allocator@D@2@@std@@V?$allocator@V?$basic_string@DU?$char_traits@D@std@@V?$allocator@D@2@@std@@@2@@std@@H@Z$35 00415262 f   systeminfo.obj
 0001:0001426d       __unwindfunclet$??0OSInfo@@QAE@ABV?$vector@V?$basic_string@DU?$char_traits@D@std@@V?$allocator@D@2@@std@@V?$allocator@V?$basic_string@DU?$char_traits@D@std@@V?$allocator@D@2@@std@@@2@@std@@H@Z$1726 0041526d f   systeminfo.obj
 0001:00014274       __unwindfunclet$??0OSInfo@@QAE@ABV?$vector@V?$basic_string@DU?$char_traits@D@std@@V?$allocator@D@2@@std@@V?$allocator@V?$basic_string@DU?$char_traits@D@std@@V?$allocator@D@2@@std@@@2@@std@@H@Z$38 00415274 f   systeminfo.obj
 0001:0001427c       __unwindfunclet$??0OSInfo@@QAE@ABV?$vector@V?$basic_string@DU?$char_traits@D@std@@V?$allocator@D@2@@std@@V?$allocator@V?$basic_string@DU?$char_traits@D@std@@V?$allocator@D@2@@std@@@2@@std@@H@Z$39 0041527c f   systeminfo.obj
 0001:00014284       __unwindfunclet$??0OSInfo@@QAE@ABV?$vector@V?$basic_string@DU?$char_traits@D@std@@V?$allocator@D@2@@std@@V?$allocator@V?$basic_string@DU?$char_traits@D@std@@V?$allocator@D@2@@std@@@2@@std@@H@Z$40 00415284 f   systeminfo.obj
 0001:0001428f       __unwindfunclet$??0OSInfo@@QAE@ABV?$vector@V?$basic_string@DU?$char_traits@D@std@@V?$allocator@D@2@@std@@V?$allocator@V?$basic_string@DU?$char_traits@D@std@@V?$allocator@D@2@@std@@@2@@std@@H@Z$41 0041528f f   systeminfo.obj
 0001:0001429a       __unwindfunclet$??0OSInfo@@QAE@ABV?$vector@V?$basic_string@DU?$char_traits@D@std@@V?$allocator@D@2@@std@@V?$allocator@V?$basic_string@DU?$char_traits@D@std@@V?$allocator@D@2@@std@@@2@@std@@H@Z$42 0041529a f   systeminfo.obj
 0001:000142a5       __unwindfunclet$??0OSInfo@@QAE@ABV?$vector@V?$basic_string@DU?$char_traits@D@std@@V?$allocator@D@2@@std@@V?$allocator@V?$basic_string@DU?$char_traits@D@std@@V?$allocator@D@2@@std@@@2@@std@@H@Z$45 004152a5 f   systeminfo.obj
 0001:000142ad       __unwindfunclet$??0OSInfo@@QAE@ABV?$vector@V?$basic_string@DU?$char_traits@D@std@@V?$allocator@D@2@@std@@V?$allocator@V?$basic_string@DU?$char_traits@D@std@@V?$allocator@D@2@@std@@@2@@std@@H@Z$46 004152ad f   systeminfo.obj
 0001:000142b5       __unwindfunclet$??0OSInfo@@QAE@ABV?$vector@V?$basic_string@DU?$char_traits@D@std@@V?$allocator@D@2@@std@@V?$allocator@V?$basic_string@DU?$char_traits@D@std@@V?$allocator@D@2@@std@@@2@@std@@H@Z$47 004152b5 f   systeminfo.obj
 0001:000142c0       __unwindfunclet$??0OSInfo@@QAE@ABV?$vector@V?$basic_string@DU?$char_traits@D@std@@V?$allocator@D@2@@std@@V?$allocator@V?$basic_string@DU?$char_traits@D@std@@V?$allocator@D@2@@std@@@2@@std@@H@Z$48 004152c0 f   systeminfo.obj
 0001:000142cb       __unwindfunclet$??0OSInfo@@QAE@ABV?$vector@V?$basic_string@DU?$char_traits@D@std@@V?$allocator@D@2@@std@@V?$allocator@V?$basic_string@DU?$char_traits@D@std@@V?$allocator@D@2@@std@@@2@@std@@H@Z$49 004152cb f   systeminfo.obj
 0001:000142d6       __ehhandler$??0OSInfo@@QAE@ABV?$vector@V?$basic_string@DU?$char_traits@D@std@@V?$allocator@D@2@@std@@V?$allocator@V?$basic_string@DU?$char_traits@D@std@@V?$allocator@D@2@@std@@@2@@std@@H@Z 004152d6 f   systeminfo.obj
 0001:00014300       __unwindfunclet$??0OSInfoDelegate@@QAE@XZ$0 00415300 f   systeminfo.obj
 0001:0001430b       __unwindfunclet$??0OSInfoDelegate@@QAE@XZ$2 0041530b f   systeminfo.obj
 0001:0001431e       __unwindfunclet$??0OSInfoDelegate@@QAE@XZ$3 0041531e f   systeminfo.obj
 0001:00014329       __unwindfunclet$??0OSInfoDelegate@@QAE@XZ$4 00415329 f   systeminfo.obj
 0001:00014331       __unwindfunclet$??0OSInfoDelegate@@QAE@XZ$5 00415331 f   systeminfo.obj
 0001:00014339       __unwindfunclet$??0OSInfoDelegate@@QAE@XZ$6 00415339 f   systeminfo.obj
 0001:00014341       __unwindfunclet$??0OSInfoDelegate@@QAE@XZ$94 00415341 f   systeminfo.obj
 0001:00014346       __ehhandler$??0OSInfoDelegate@@QAE@XZ 00415346 f   systeminfo.obj
 0001:00014370       __unwindfunclet$??0RAMInfo@@QAE@ABV?$vector@V?$basic_string@DU?$char_traits@D@std@@V?$allocator@D@2@@std@@V?$allocator@V?$basic_string@DU?$char_traits@D@std@@V?$allocator@D@2@@std@@@2@@std@@H@Z$2 00415370 f   systeminfo.obj
 0001:0001437b       __unwindfunclet$??0RAMInfo@@QAE@ABV?$vector@V?$basic_string@DU?$char_traits@D@std@@V?$allocator@D@2@@std@@V?$allocator@V?$basic_string@DU?$char_traits@D@std@@V?$allocator@D@2@@std@@@2@@std@@H@Z$3 0041537b f   systeminfo.obj
 0001:00014389       __unwindfunclet$??0RAMInfo@@QAE@ABV?$vector@V?$basic_string@DU?$char_traits@D@std@@V?$allocator@D@2@@std@@V?$allocator@V?$basic_string@DU?$char_traits@D@std@@V?$allocator@D@2@@std@@@2@@std@@H@Z$4 00415389 f   systeminfo.obj
 0001:00014397       __unwindfunclet$??0RAMInfo@@QAE@ABV?$vector@V?$basic_string@DU?$char_traits@D@std@@V?$allocator@D@2@@std@@V?$allocator@V?$basic_string@DU?$char_traits@D@std@@V?$allocator@D@2@@std@@@2@@std@@H@Z$5 00415397 f   systeminfo.obj
 0001:000143a5       __unwindfunclet$??0RAMInfo@@QAE@ABV?$vector@V?$basic_string@DU?$char_traits@D@std@@V?$allocator@D@2@@std@@V?$allocator@V?$basic_string@DU?$char_traits@D@std@@V?$allocator@D@2@@std@@@2@@std@@H@Z$6 004153a5 f   systeminfo.obj
 0001:000143b3       __unwindfunclet$??0RAMInfo@@QAE@ABV?$vector@V?$basic_string@DU?$char_traits@D@std@@V?$allocator@D@2@@std@@V?$allocator@V?$basic_string@DU?$char_traits@D@std@@V?$allocator@D@2@@std@@@2@@std@@H@Z$7 004153b3 f   systeminfo.obj
 0001:000143c1       __unwindfunclet$??0RAMInfo@@QAE@ABV?$vector@V?$basic_string@DU?$char_traits@D@std@@V?$allocator@D@2@@std@@V?$allocator@V?$basic_string@DU?$char_traits@D@std@@V?$allocator@D@2@@std@@@2@@std@@H@Z$8 004153c1 f   systeminfo.obj
 0001:000143d2       __unwindfunclet$??0RAMInfo@@QAE@ABV?$vector@V?$basic_string@DU?$char_traits@D@std@@V?$allocator@D@2@@std@@V?$allocator@V?$basic_string@DU?$char_traits@D@std@@V?$allocator@D@2@@std@@@2@@std@@H@Z$9 004153d2 f   systeminfo.obj
 0001:000143e3       __unwindfunclet$??0RAMInfo@@QAE@ABV?$vector@V?$basic_string@DU?$char_traits@D@std@@V?$allocator@D@2@@std@@V?$allocator@V?$basic_string@DU?$char_traits@D@std@@V?$allocator@D@2@@std@@@2@@std@@H@Z$10 004153e3 f   systeminfo.obj
 0001:000143eb       __unwindfunclet$??0RAMInfo@@QAE@ABV?$vector@V?$basic_string@DU?$char_traits@D@std@@V?$allocator@D@2@@std@@V?$allocator@V?$basic_string@DU?$char_traits@D@std@@V?$allocator@D@2@@std@@@2@@std@@H@Z$307 004153eb f   systeminfo.obj
 0001:000143f2       __unwindfunclet$??0RAMInfo@@QAE@ABV?$vector@V?$basic_string@DU?$char_traits@D@std@@V?$allocator@D@2@@std@@V?$allocator@V?$basic_string@DU?$char_traits@D@std@@V?$allocator@D@2@@std@@@2@@std@@H@Z$419 004153f2 f   systeminfo.obj
 0001:000143f9       __unwindfunclet$??0RAMInfo@@QAE@ABV?$vector@V?$basic_string@DU?$char_traits@D@std@@V?$allocator@D@2@@std@@V?$allocator@V?$basic_string@DU?$char_traits@D@std@@V?$allocator@D@2@@std@@@2@@std@@H@Z$13 004153f9 f   systeminfo.obj
 0001:00014401       __unwindfunclet$??0RAMInfo@@QAE@ABV?$vector@V?$basic_string@DU?$char_traits@D@std@@V?$allocator@D@2@@std@@V?$allocator@V?$basic_string@DU?$char_traits@D@std@@V?$allocator@D@2@@std@@@2@@std@@H@Z$14 00415401 f   systeminfo.obj
 0001:0001440c       __unwindfunclet$??0RAMInfo@@QAE@ABV?$vector@V?$basic_string@DU?$char_traits@D@std@@V?$allocator@D@2@@std@@V?$allocator@V?$basic_string@DU?$char_traits@D@std@@V?$allocator@D@2@@std@@@2@@std@@H@Z$15 0041540c f   systeminfo.obj
 0001:00014414       __unwindfunclet$??0RAMInfo@@QAE@ABV?$vector@V?$basic_string@DU?$char_traits@D@std@@V?$allocator@D@2@@std@@V?$allocator@V?$basic_string@DU?$char_traits@D@std@@V?$allocator@D@2@@std@@@2@@std@@H@Z$16 00415414 f   systeminfo.obj
 0001:0001441f       __unwindfunclet$??0RAMInfo@@QAE@ABV?$vector@V?$basic_string@DU?$char_traits@D@std@@V?$allocator@D@2@@std@@V?$allocator@V?$basic_string@DU?$char_traits@D@std@@V?$allocator@D@2@@std@@@2@@std@@H@Z$17 0041541f f   systeminfo.obj
 0001:0001442a       __unwindfunclet$??0RAMInfo@@QAE@ABV?$vector@V?$basic_string@DU?$char_traits@D@std@@V?$allocator@D@2@@std@@V?$allocator@V?$basic_string@DU?$char_traits@D@std@@V?$allocator@D@2@@std@@@2@@std@@H@Z$566 0041542a f   systeminfo.obj
 0001:00014431       __unwindfunclet$??0RAMInfo@@QAE@ABV?$vector@V?$basic_string@DU?$char_traits@D@std@@V?$allocator@D@2@@std@@V?$allocator@V?$basic_string@DU?$char_traits@D@std@@V?$allocator@D@2@@std@@@2@@std@@H@Z$813 00415431 f   systeminfo.obj
 0001:00014438       __unwindfunclet$??0RAMInfo@@QAE@ABV?$vector@V?$basic_string@DU?$char_traits@D@std@@V?$allocator@D@2@@std@@V?$allocator@V?$basic_string@DU?$char_traits@D@std@@V?$allocator@D@2@@std@@@2@@std@@H@Z$21 00415438 f   systeminfo.obj
 0001:00014440       __unwindfunclet$??0RAMInfo@@QAE@ABV?$vector@V?$basic_string@DU?$char_traits@D@std@@V?$allocator@D@2@@std@@V?$allocator@V?$basic_string@DU?$char_traits@D@std@@V?$allocator@D@2@@std@@@2@@std@@H@Z$925 00415440 f   systeminfo.obj
 0001:00014447       __unwindfunclet$??0RAMInfo@@QAE@ABV?$vector@V?$basic_string@DU?$char_traits@D@std@@V?$allocator@D@2@@std@@V?$allocator@V?$basic_string@DU?$char_traits@D@std@@V?$allocator@D@2@@std@@@2@@std@@H@Z$1064 00415447 f   systeminfo.obj
 0001:0001444e       __unwindfunclet$??0RAMInfo@@QAE@ABV?$vector@V?$basic_string@DU?$char_traits@D@std@@V?$allocator@D@2@@std@@V?$allocator@V?$basic_string@DU?$char_traits@D@std@@V?$allocator@D@2@@std@@@2@@std@@H@Z$24 0041544e f   systeminfo.obj
 0001:00014456       __unwindfunclet$??0RAMInfo@@QAE@ABV?$vector@V?$basic_string@DU?$char_traits@D@std@@V?$allocator@D@2@@std@@V?$allocator@V?$basic_string@DU?$char_traits@D@std@@V?$allocator@D@2@@std@@@2@@std@@H@Z$1176 00415456 f   systeminfo.obj
 0001:0001445d       __unwindfunclet$??0RAMInfo@@QAE@ABV?$vector@V?$basic_string@DU?$char_traits@D@std@@V?$allocator@D@2@@std@@V?$allocator@V?$basic_string@DU?$char_traits@D@std@@V?$allocator@D@2@@std@@@2@@std@@H@Z$26 0041545d f   systeminfo.obj
 0001:00014468       __unwindfunclet$??0RAMInfo@@QAE@ABV?$vector@V?$basic_string@DU?$char_traits@D@std@@V?$allocator@D@2@@std@@V?$allocator@V?$basic_string@DU?$char_traits@D@std@@V?$allocator@D@2@@std@@@2@@std@@H@Z$1315 00415468 f   systeminfo.obj
 0001:0001446f       __unwindfunclet$??0RAMInfo@@QAE@ABV?$vector@V?$basic_string@DU?$char_traits@D@std@@V?$allocator@D@2@@std@@V?$allocator@V?$basic_string@DU?$char_traits@D@std@@V?$allocator@D@2@@std@@@2@@std@@H@Z$28 0041546f f   systeminfo.obj
 0001:0001447a       __unwindfunclet$??0RAMInfo@@QAE@ABV?$vector@V?$basic_string@DU?$char_traits@D@std@@V?$allocator@D@2@@std@@V?$allocator@V?$basic_string@DU?$char_traits@D@std@@V?$allocator@D@2@@std@@@2@@std@@H@Z$1459 0041547a f   systeminfo.obj
 0001:00014481       __ehhandler$??0RAMInfo@@QAE@ABV?$vector@V?$basic_string@DU?$char_traits@D@std@@V?$allocator@D@2@@std@@V?$allocator@V?$basic_string@DU?$char_traits@D@std@@V?$allocator@D@2@@std@@@2@@std@@H@Z 00415481 f   systeminfo.obj
 0001:000144b0       __ehhandler$?getMemoryType@RAMInfo@@ABE?AV?$basic_string@DU?$char_traits@D@std@@V?$allocator@D@2@@std@@ABV23@@Z 004154b0 f   systeminfo.obj
 0001:000144e0       __ehhandler$?getFormFactor@RAMInfo@@ABE?AV?$basic_string@DU?$char_traits@D@std@@V?$allocator@D@2@@std@@ABV23@@Z 004154e0 f   systeminfo.obj
 0001:00014510       __unwindfunclet$??0RAMInfoDelegate@@QAE@XZ$0 00415510 f   systeminfo.obj
 0001:0001451b       __unwindfunclet$??0RAMInfoDelegate@@QAE@XZ$2 0041551b f   systeminfo.obj
 0001:0001452e       __unwindfunclet$??0RAMInfoDelegate@@QAE@XZ$3 0041552e f   systeminfo.obj
 0001:00014539       __unwindfunclet$??0RAMInfoDelegate@@QAE@XZ$4 00415539 f   systeminfo.obj
 0001:00014541       __unwindfunclet$??0RAMInfoDelegate@@QAE@XZ$5 00415541 f   systeminfo.obj
 0001:00014549       __unwindfunclet$??0RAMInfoDelegate@@QAE@XZ$6 00415549 f   systeminfo.obj
 0001:00014551       __unwindfunclet$??0RAMInfoDelegate@@QAE@XZ$94 00415551 f   systeminfo.obj
 0001:00014556       __ehhandler$??0RAMInfoDelegate@@QAE@XZ 00415556 f   systeminfo.obj
 0001:00014580       __unwindfunclet$??0SystemCommand@@QAE@V?$initializer_list@V?$basic_string@DU?$char_traits@D@std@@V?$allocator@D@2@@std@@@std@@@Z$0 00415580 f   systeminfo.obj
 0001:0001458b       __ehhandler$??0SystemCommand@@QAE@V?$initializer_list@V?$basic_string@DU?$char_traits@D@std@@V?$allocator@D@2@@std@@@std@@@Z 0041558b f   systeminfo.obj
 0001:000145b0       __unwindfunclet$?stripAllFromString@SystemCommand@@AAE?AV?$basic_string@DU?$char_traits@D@std@@V?$allocator@D@2@@std@@ABV23@0@Z$0 004155b0 f   systeminfo.obj
 0001:000145b8       __unwindfunclet$?stripAllFromString@SystemCommand@@AAE?AV?$basic_string@DU?$char_traits@D@std@@V?$allocator@D@2@@std@@ABV23@0@Z$75 004155b8 f   systeminfo.obj
 0001:000145bf       __ehhandler$?stripAllFromString@SystemCommand@@AAE?AV?$basic_string@DU?$char_traits@D@std@@V?$allocator@D@2@@std@@ABV23@0@Z 004155bf f   systeminfo.obj
 0001:000145f0       __unwindfunclet$?stripFromString@SystemCommand@@AAE?AV?$basic_string@DU?$char_traits@D@std@@V?$allocator@D@2@@std@@ABV23@0@Z$0 004155f0 f   systeminfo.obj
 0001:000145f8       __unwindfunclet$?stripFromString@SystemCommand@@AAE?AV?$basic_string@DU?$char_traits@D@std@@V?$allocator@D@2@@std@@ABV23@0@Z$83 004155f8 f   systeminfo.obj
 0001:000145ff       __unwindfunclet$?stripFromString@SystemCommand@@AAE?AV?$basic_string@DU?$char_traits@D@std@@V?$allocator@D@2@@std@@ABV23@0@Z$4 004155ff f   systeminfo.obj
 0001:00014607       __unwindfunclet$?stripFromString@SystemCommand@@AAE?AV?$basic_string@DU?$char_traits@D@std@@V?$allocator@D@2@@std@@ABV23@0@Z$5 00415607 f   systeminfo.obj
 0001:0001460f       __ehhandler$?stripFromString@SystemCommand@@AAE?AV?$basic_string@DU?$char_traits@D@std@@V?$allocator@D@2@@std@@ABV23@0@Z 0041560f f   systeminfo.obj
 0001:00014640       __unwindfunclet$?stripPipeFromCommand@SystemCommand@@AAEXXZ$0 00415640 f   systeminfo.obj
 0001:00014648       __unwindfunclet$?stripPipeFromCommand@SystemCommand@@AAEXXZ$30 00415648 f   systeminfo.obj
 0001:0001464f       __unwindfunclet$?stripPipeFromCommand@SystemCommand@@AAEXXZ$2 0041564f f   systeminfo.obj
 0001:00014657       __unwindfunclet$?stripPipeFromCommand@SystemCommand@@AAEXXZ$166 00415657 f   systeminfo.obj
 0001:0001465e       __ehhandler$?stripPipeFromCommand@SystemCommand@@AAEXXZ 0041565e f   systeminfo.obj
 0001:00014680       __unwindfunclet$?systemCommandLaunch@SystemCommand@@AAEX_N@Z$0 00415680 f   systeminfo.obj
 0001:0001468b       __unwindfunclet$?systemCommandLaunch@SystemCommand@@AAEX_N@Z$2 0041568b f   systeminfo.obj
 0001:00014696       __unwindfunclet$?systemCommandLaunch@SystemCommand@@AAEX_N@Z$3 00415696 f   systeminfo.obj
 0001:000146a1       __unwindfunclet$?systemCommandLaunch@SystemCommand@@AAEX_N@Z$181 004156a1 f   systeminfo.obj
 0001:000146ac       __unwindfunclet$?systemCommandLaunch@SystemCommand@@AAEX_N@Z$273 004156ac f   systeminfo.obj
 0001:000146b3       __ehhandler$?systemCommandLaunch@SystemCommand@@AAEX_N@Z 004156b3 f   systeminfo.obj
 0001:000146e0       __unwindfunclet$??R<lambda_787d45c283701cc870e4fc26d5464600>@@QBE?AV?$basic_string@DU?$char_traits@D@std@@V?$allocator@D@2@@std@@ABV12@@Z$0 004156e0 f   systeminfo.obj
 0001:000146f9       __unwindfunclet$??R<lambda_787d45c283701cc870e4fc26d5464600>@@QBE?AV?$basic_string@DU?$char_traits@D@std@@V?$allocator@D@2@@std@@ABV12@@Z$1 004156f9 f   systeminfo.obj
 0001:00014701       __unwindfunclet$??R<lambda_787d45c283701cc870e4fc26d5464600>@@QBE?AV?$basic_string@DU?$char_traits@D@std@@V?$allocator@D@2@@std@@ABV12@@Z$2 00415701 f   systeminfo.obj
 0001:00014709       __unwindfunclet$??R<lambda_787d45c283701cc870e4fc26d5464600>@@QBE?AV?$basic_string@DU?$char_traits@D@std@@V?$allocator@D@2@@std@@ABV12@@Z$4 00415709 f   systeminfo.obj
 0001:0001471c       __unwindfunclet$??R<lambda_787d45c283701cc870e4fc26d5464600>@@QBE?AV?$basic_string@DU?$char_traits@D@std@@V?$allocator@D@2@@std@@ABV12@@Z$5 0041571c f   systeminfo.obj
 0001:00014724       __unwindfunclet$??R<lambda_787d45c283701cc870e4fc26d5464600>@@QBE?AV?$basic_string@DU?$char_traits@D@std@@V?$allocator@D@2@@std@@ABV12@@Z$151 00415724 f   systeminfo.obj
 0001:0001472b       __ehhandler$??R<lambda_787d45c283701cc870e4fc26d5464600>@@QBE?AV?$basic_string@DU?$char_traits@D@std@@V?$allocator@D@2@@std@@ABV12@@Z 0041572b f   systeminfo.obj
 0001:00014760       __ehhandler$??0?$vector@VRAMInfo@@V?$allocator@VRAMInfo@@@std@@@std@@QAE@ABV01@@Z 00415760 f   systeminfo.obj
 0001:00014780       __ehhandler$??0?$vector@VOSInfo@@V?$allocator@VOSInfo@@@std@@@std@@QAE@ABV01@@Z 00415780 f   systeminfo.obj
 0001:000147a0       __ehhandler$??0?$vector@VMotherboardInfo@@V?$allocator@VMotherboardInfo@@@std@@@std@@QAE@ABV01@@Z 004157a0 f   systeminfo.obj
 0001:000147c0       __ehhandler$??0?$vector@VGPUInfo@@V?$allocator@VGPUInfo@@@std@@@std@@QAE@ABV01@@Z 004157c0 f   systeminfo.obj
 0001:000147e0       __ehhandler$??0?$vector@VCPUInfo@@V?$allocator@VCPUInfo@@@std@@@std@@QAE@ABV01@@Z 004157e0 f   systeminfo.obj
 0001:00014800       __unwindfunclet$?push_back@?$vector@V?$basic_string@DU?$char_traits@D@std@@V?$allocator@D@2@@std@@V?$allocator@V?$basic_string@DU?$char_traits@D@std@@V?$allocator@D@2@@std@@@2@@std@@QAEXABV?$basic_string@DU?$char_traits@D@std@@V?$allocator@D@2@@2@@Z$33 00415800 f   systeminfo.obj
 0001:00014805       __unwindfunclet$?push_back@?$vector@V?$basic_string@DU?$char_traits@D@std@@V?$allocator@D@2@@std@@V?$allocator@V?$basic_string@DU?$char_traits@D@std@@V?$allocator@D@2@@std@@@2@@std@@QAEXABV?$basic_string@DU?$char_traits@D@std@@V?$allocator@D@2@@2@@Z$88 00415805 f   systeminfo.obj
 0001:0001480a       __ehhandler$?push_back@?$vector@V?$basic_string@DU?$char_traits@D@std@@V?$allocator@D@2@@std@@V?$allocator@V?$basic_string@DU?$char_traits@D@std@@V?$allocator@D@2@@std@@@2@@std@@QAEXABV?$basic_string@DU?$char_traits@D@std@@V?$allocator@D@2@@2@@Z 0041580a f   systeminfo.obj
 0001:00014830       __ehhandler$??0?$vector@V?$basic_string@DU?$char_traits@D@std@@V?$allocator@D@2@@std@@V?$allocator@V?$basic_string@DU?$char_traits@D@std@@V?$allocator@D@2@@std@@@2@@std@@QAE@ABV01@@Z 00415830 f   systeminfo.obj
 0001:00014850       __ehhandler$??4?$basic_string@DU?$char_traits@D@std@@V?$allocator@D@2@@std@@QAEAAV01@$$QAV01@@Z 00415850 f   systeminfo.obj
 0001:00014870       __unwindfunclet$??0?$basic_ifstream@DU?$char_traits@D@std@@@std@@QAE@XZ$0 00415870 f   systeminfo.obj
 0001:0001488d       __unwindfunclet$??0?$basic_ifstream@DU?$char_traits@D@std@@@std@@QAE@XZ$1 0041588d f   systeminfo.obj
 0001:00014899       __unwindfunclet$??0?$basic_ifstream@DU?$char_traits@D@std@@@std@@QAE@XZ$3 00415899 f   systeminfo.obj
 0001:000148a2       __ehhandler$??0?$basic_ifstream@DU?$char_traits@D@std@@@std@@QAE@XZ 004158a2 f   systeminfo.obj
 0001:000148c0       __unwindfunclet$?uflow@?$basic_filebuf@DU?$char_traits@D@std@@@std@@MAEHXZ$0 004158c0 f   systeminfo.obj
 0001:000148c8       __ehhandler$?uflow@?$basic_filebuf@DU?$char_traits@D@std@@@std@@MAEHXZ 004158c8 f   systeminfo.obj
 0001:000148f0       __unwindfunclet$?overflow@?$basic_filebuf@DU?$char_traits@D@std@@@std@@MAEHH@Z$0 004158f0 f   systeminfo.obj
 0001:000148f8       __ehhandler$?overflow@?$basic_filebuf@DU?$char_traits@D@std@@@std@@MAEHH@Z 004158f8 f   systeminfo.obj
 0001:00014920       __ehhandler$??1_Fac_node@std@@QAE@XZ 00415920 f   msvcprt:locale0_implib.obj
 0001:00014920       __ehhandler$??1?$basic_filebuf@DU?$char_traits@D@std@@@std@@UAE@XZ 00415920 f   systeminfo.obj
 0001:00014940       __unwindfunclet$?_Endwrite@?$basic_filebuf@DU?$char_traits@D@std@@@std@@IAE_NXZ$0 00415940 f   systeminfo.obj
 0001:00014948       __ehhandler$?_Endwrite@?$basic_filebuf@DU?$char_traits@D@std@@@std@@IAE_NXZ 00415948 f   systeminfo.obj
 0001:00014970       __unwindfunclet$??$use_facet@V?$ctype@D@std@@@std@@YAABV?$ctype@D@0@ABVlocale@0@@Z$0 00415970 f   systeminfo.obj
 0001:00014970       __unwindfunclet$??$use_facet@V?$codecvt@DDU_Mbstatet@@@std@@@std@@YAABV?$codecvt@DDU_Mbstatet@@@0@ABVlocale@0@@Z$0 00415970 f   systeminfo.obj
 0001:00014979       __ehhandler$??$use_facet@V?$codecvt@DDU_Mbstatet@@@std@@@std@@YAABV?$codecvt@DDU_Mbstatet@@@0@ABVlocale@0@@Z 00415979 f   systeminfo.obj
 0001:00014979       __ehhandler$??$use_facet@V?$ctype@D@std@@@std@@YAABV?$ctype@D@0@ABVlocale@0@@Z 00415979 f   systeminfo.obj
 0001:000149a0       __unwindfunclet$??$?6DU?$char_traits@D@std@@V?$allocator@D@1@@std@@YAAAV?$basic_ostream@DU?$char_traits@D@std@@@0@AAV10@ABV?$basic_string@DU?$char_traits@D@std@@V?$allocator@D@2@@0@@Z$7 004159a0 f   systeminfo.obj
 0001:000149a8       __unwindfunclet$??$?6DU?$char_traits@D@std@@V?$allocator@D@1@@std@@YAAAV?$basic_ostream@DU?$char_traits@D@std@@@0@AAV10@ABV?$basic_string@DU?$char_traits@D@std@@V?$allocator@D@2@@0@@Z$2 004159a8 f   systeminfo.obj
 0001:000149b0       __unwindfunclet$??$?6DU?$char_traits@D@std@@V?$allocator@D@1@@std@@YAAAV?$basic_ostream@DU?$char_traits@D@std@@@0@AAV10@ABV?$basic_string@DU?$char_traits@D@std@@V?$allocator@D@2@@0@@Z$15 004159b0 f   systeminfo.obj
 0001:000149b7       __unwindfunclet$??$?6DU?$char_traits@D@std@@V?$allocator@D@1@@std@@YAAAV?$basic_ostream@DU?$char_traits@D@std@@@0@AAV10@ABV?$basic_string@DU?$char_traits@D@std@@V?$allocator@D@2@@0@@Z$16 004159b7 f   systeminfo.obj
 0001:000149be       __ehhandler$??$?6DU?$char_traits@D@std@@V?$allocator@D@1@@std@@YAAAV?$basic_ostream@DU?$char_traits@D@std@@@0@AAV10@ABV?$basic_string@DU?$char_traits@D@std@@V?$allocator@D@2@@0@@Z 004159be f   systeminfo.obj
 0001:000149e0       __unwindfunclet$??$?HDU?$char_traits@D@std@@V?$allocator@D@1@@std@@YA?AV?$basic_string@DU?$char_traits@D@std@@V?$allocator@D@2@@0@ABV10@PBD@Z$0 004159e0 f   systeminfo.obj
 0001:000149f9       __ehhandler$??$?HDU?$char_traits@D@std@@V?$allocator@D@1@@std@@YA?AV?$basic_string@DU?$char_traits@D@std@@V?$allocator@D@2@@0@ABV10@PBD@Z 004159f9 f   systeminfo.obj
 0001:00014a20       __unwindfunclet$??$toString@_J@RAMInfo@@ABE?AV?$basic_string@DU?$char_traits@D@std@@V?$allocator@D@2@@std@@AB_J@Z$3 00415a20 f   systeminfo.obj
 0001:00014a20       __unwindfunclet$??$toString@_J@OSInfo@@ABE?AV?$basic_string@DU?$char_traits@D@std@@V?$allocator@D@2@@std@@AB_J@Z$3 00415a20 f   systeminfo.obj
 0001:00014a20       __unwindfunclet$??$toString@_J@GPUInfo@@ABE?AV?$basic_string@DU?$char_traits@D@std@@V?$allocator@D@2@@std@@AB_J@Z$3 00415a20 f   systeminfo.obj
 0001:00014a40       __unwindfunclet$??$toString@_J@RAMInfo@@ABE?AV?$basic_string@DU?$char_traits@D@std@@V?$allocator@D@2@@std@@AB_J@Z$4 00415a40 f   systeminfo.obj
 0001:00014a40       __unwindfunclet$??$toString@_J@OSInfo@@ABE?AV?$basic_string@DU?$char_traits@D@std@@V?$allocator@D@2@@std@@AB_J@Z$4 00415a40 f   systeminfo.obj
 0001:00014a40       __unwindfunclet$??$toString@_J@GPUInfo@@ABE?AV?$basic_string@DU?$char_traits@D@std@@V?$allocator@D@2@@std@@AB_J@Z$4 00415a40 f   systeminfo.obj
 0001:00014a4c       __unwindfunclet$??$toString@_J@OSInfo@@ABE?AV?$basic_string@DU?$char_traits@D@std@@V?$allocator@D@2@@std@@AB_J@Z$6 00415a4c f   systeminfo.obj
 0001:00014a4c       __unwindfunclet$??$toString@_J@RAMInfo@@ABE?AV?$basic_string@DU?$char_traits@D@std@@V?$allocator@D@2@@std@@AB_J@Z$6 00415a4c f   systeminfo.obj
 0001:00014a4c       __unwindfunclet$??$toString@_J@GPUInfo@@ABE?AV?$basic_string@DU?$char_traits@D@std@@V?$allocator@D@2@@std@@AB_J@Z$6 00415a4c f   systeminfo.obj
 0001:00014a58       __unwindfunclet$??$toString@_J@GPUInfo@@ABE?AV?$basic_string@DU?$char_traits@D@std@@V?$allocator@D@2@@std@@AB_J@Z$0 00415a58 f   systeminfo.obj
 0001:00014a58       __unwindfunclet$??$toString@_J@OSInfo@@ABE?AV?$basic_string@DU?$char_traits@D@std@@V?$allocator@D@2@@std@@AB_J@Z$0 00415a58 f   systeminfo.obj
 0001:00014a58       __unwindfunclet$??$toString@_J@RAMInfo@@ABE?AV?$basic_string@DU?$char_traits@D@std@@V?$allocator@D@2@@std@@AB_J@Z$0 00415a58 f   systeminfo.obj
 0001:00014a63       __unwindfunclet$??$toString@_J@OSInfo@@ABE?AV?$basic_string@DU?$char_traits@D@std@@V?$allocator@D@2@@std@@AB_J@Z$1 00415a63 f   systeminfo.obj
 0001:00014a63       __unwindfunclet$??$toString@_J@GPUInfo@@ABE?AV?$basic_string@DU?$char_traits@D@std@@V?$allocator@D@2@@std@@AB_J@Z$1 00415a63 f   systeminfo.obj
 0001:00014a63       __unwindfunclet$??$toString@_J@RAMInfo@@ABE?AV?$basic_string@DU?$char_traits@D@std@@V?$allocator@D@2@@std@@AB_J@Z$1 00415a63 f   systeminfo.obj
 0001:00014a85       __ehhandler$??$toString@_J@OSInfo@@ABE?AV?$basic_string@DU?$char_traits@D@std@@V?$allocator@D@2@@std@@AB_J@Z 00415a85 f   systeminfo.obj
 0001:00014a85       __ehhandler$??$toString@_J@GPUInfo@@ABE?AV?$basic_string@DU?$char_traits@D@std@@V?$allocator@D@2@@std@@AB_J@Z 00415a85 f   systeminfo.obj
 0001:00014a85       __ehhandler$??$toString@_J@RAMInfo@@ABE?AV?$basic_string@DU?$char_traits@D@std@@V?$allocator@D@2@@std@@AB_J@Z 00415a85 f   systeminfo.obj
 0001:00014ab0       __ehhandler$??$_Construct@PBV?$basic_string@DU?$char_traits@D@std@@V?$allocator@D@2@@std@@@?$vector@V?$basic_string@DU?$char_traits@D@std@@V?$allocator@D@2@@std@@V?$allocator@V?$basic_string@DU?$char_traits@D@std@@V?$allocator@D@2@@std@@@2@@std@@QAEXPBV?$basic_string@DU?$char_traits@D@std@@V?$allocator@D@2@@1@0Uforward_iterator_tag@1@@Z 00415ab0 f   systeminfo.obj
 0001:00014ad0       __unwindfunclet$??$?5DU?$char_traits@D@std@@V?$allocator@D@1@@std@@YAAAV?$basic_istream@DU?$char_traits@D@std@@@0@$$QAV10@AAV?$basic_string@DU?$char_traits@D@std@@V?$allocator@D@2@@0@@Z$4 00415ad0 f   systeminfo.obj
 0001:00014ad8       __unwindfunclet$??$?5DU?$char_traits@D@std@@V?$allocator@D@1@@std@@YAAAV?$basic_istream@DU?$char_traits@D@std@@@0@$$QAV10@AAV?$basic_string@DU?$char_traits@D@std@@V?$allocator@D@2@@0@@Z$2 00415ad8 f   systeminfo.obj
 0001:00014ae0       __unwindfunclet$??$?5DU?$char_traits@D@std@@V?$allocator@D@1@@std@@YAAAV?$basic_istream@DU?$char_traits@D@std@@@0@$$QAV10@AAV?$basic_string@DU?$char_traits@D@std@@V?$allocator@D@2@@0@@Z$3 00415ae0 f   systeminfo.obj
 0001:00014ae8       __unwindfunclet$??$?5DU?$char_traits@D@std@@V?$allocator@D@1@@std@@YAAAV?$basic_istream@DU?$char_traits@D@std@@@0@$$QAV10@AAV?$basic_string@DU?$char_traits@D@std@@V?$allocator@D@2@@0@@Z$5 00415ae8 f   systeminfo.obj
 0001:00014aef       __unwindfunclet$??$?5DU?$char_traits@D@std@@V?$allocator@D@1@@std@@YAAAV?$basic_istream@DU?$char_traits@D@std@@@0@$$QAV10@AAV?$basic_string@DU?$char_traits@D@std@@V?$allocator@D@2@@0@@Z$88 00415aef f   systeminfo.obj
 0001:00014af6       __ehhandler$??$?5DU?$char_traits@D@std@@V?$allocator@D@1@@std@@YAAAV?$basic_istream@DU?$char_traits@D@std@@@0@$$QAV10@AAV?$basic_string@DU?$char_traits@D@std@@V?$allocator@D@2@@0@@Z 00415af6 f   systeminfo.obj
 0001:00014b20       __unwindfunclet$??1sentry@?$basic_istream@DU?$char_traits@D@std@@@std@@QAE@XZ$0 00415b20 f   systeminfo.obj
 0001:00014b27       __ehhandler$??1sentry@?$basic_istream@DU?$char_traits@D@std@@@std@@QAE@XZ 00415b27 f   systeminfo.obj
 0001:00014b50       __unwindfunclet$??$_Uninitialized_copy_al_unchecked1@PBVRAMInfo@@PAV1@V?$allocator@VRAMInfo@@@std@@@std@@YAPAVRAMInfo@@PBV1@0PAV1@AAU?$_Wrap_alloc@V?$allocator@VRAMInfo@@@std@@@0@U_General_ptr_iterator_tag@0@U_Any_tag@0@@Z$4 00415b50 f   systeminfo.obj
 0001:00014b55       __ehhandler$??$_Uninitialized_copy_al_unchecked1@PBVRAMInfo@@PAV1@V?$allocator@VRAMInfo@@@std@@@std@@YAPAVRAMInfo@@PBV1@0PAV1@AAU?$_Wrap_alloc@V?$allocator@VRAMInfo@@@std@@@0@U_General_ptr_iterator_tag@0@U_Any_tag@0@@Z 00415b55 f   systeminfo.obj
 0001:00014b70       __unwindfunclet$??$_Uninitialized_copy_al_unchecked1@PBVOSInfo@@PAV1@V?$allocator@VOSInfo@@@std@@@std@@YAPAVOSInfo@@PBV1@0PAV1@AAU?$_Wrap_alloc@V?$allocator@VOSInfo@@@std@@@0@U_General_ptr_iterator_tag@0@U_Any_tag@0@@Z$4 00415b70 f   systeminfo.obj
 0001:00014b75       __ehhandler$??$_Uninitialized_copy_al_unchecked1@PBVOSInfo@@PAV1@V?$allocator@VOSInfo@@@std@@@std@@YAPAVOSInfo@@PBV1@0PAV1@AAU?$_Wrap_alloc@V?$allocator@VOSInfo@@@std@@@0@U_General_ptr_iterator_tag@0@U_Any_tag@0@@Z 00415b75 f   systeminfo.obj
 0001:00014b90       __unwindfunclet$??$_Uninitialized_copy_al_unchecked1@PBVMotherboardInfo@@PAV1@V?$allocator@VMotherboardInfo@@@std@@@std@@YAPAVMotherboardInfo@@PBV1@0PAV1@AAU?$_Wrap_alloc@V?$allocator@VMotherboardInfo@@@std@@@0@U_General_ptr_iterator_tag@0@U_Any_tag@0@@Z$4 00415b90 f   systeminfo.obj
 0001:00014b95       __ehhandler$??$_Uninitialized_copy_al_unchecked1@PBVMotherboardInfo@@PAV1@V?$allocator@VMotherboardInfo@@@std@@@std@@YAPAVMotherboardInfo@@PBV1@0PAV1@AAU?$_Wrap_alloc@V?$allocator@VMotherboardInfo@@@std@@@0@U_General_ptr_iterator_tag@0@U_Any_tag@0@@Z 00415b95 f   systeminfo.obj
 0001:00014bb0       __unwindfunclet$??$_Uninitialized_copy_al_unchecked1@PBVGPUInfo@@PAV1@V?$allocator@VGPUInfo@@@std@@@std@@YAPAVGPUInfo@@PBV1@0PAV1@AAU?$_Wrap_alloc@V?$allocator@VGPUInfo@@@std@@@0@U_General_ptr_iterator_tag@0@U_Any_tag@0@@Z$4 00415bb0 f   systeminfo.obj
 0001:00014bb5       __ehhandler$??$_Uninitialized_copy_al_unchecked1@PBVGPUInfo@@PAV1@V?$allocator@VGPUInfo@@@std@@@std@@YAPAVGPUInfo@@PBV1@0PAV1@AAU?$_Wrap_alloc@V?$allocator@VGPUInfo@@@std@@@0@U_General_ptr_iterator_tag@0@U_Any_tag@0@@Z 00415bb5 f   systeminfo.obj
 0001:00014bd0       __unwindfunclet$??$_Uninitialized_copy_al_unchecked1@PBVCPUInfo@@PAV1@V?$allocator@VCPUInfo@@@std@@@std@@YAPAVCPUInfo@@PBV1@0PAV1@AAU?$_Wrap_alloc@V?$allocator@VCPUInfo@@@std@@@0@U_General_ptr_iterator_tag@0@U_Any_tag@0@@Z$4 00415bd0 f   systeminfo.obj
 0001:00014bd5       __ehhandler$??$_Uninitialized_copy_al_unchecked1@PBVCPUInfo@@PAV1@V?$allocator@VCPUInfo@@@std@@@std@@YAPAVCPUInfo@@PBV1@0PAV1@AAU?$_Wrap_alloc@V?$allocator@VCPUInfo@@@std@@@0@U_General_ptr_iterator_tag@0@U_Any_tag@0@@Z 00415bd5 f   systeminfo.obj
 0001:00014bf0       __unwindfunclet$??$_Uninitialized_copy_al_unchecked1@PBV?$basic_string@DU?$char_traits@D@std@@V?$allocator@D@2@@std@@PAV12@V?$allocator@V?$basic_string@DU?$char_traits@D@std@@V?$allocator@D@2@@std@@@2@@std@@YAPAV?$basic_string@DU?$char_traits@D@std@@V?$allocator@D@2@@0@PBV10@0PAV10@AAU?$_Wrap_alloc@V?$allocator@V?$basic_string@DU?$char_traits@D@std@@V?$allocator@D@2@@std@@@std@@@0@U_General_ptr_iterator_tag@0@U_Any_tag@0@@Z$4 00415bf0 f   systeminfo.obj
 0001:00014bf5       __ehhandler$??$_Uninitialized_copy_al_unchecked1@PBV?$basic_string@DU?$char_traits@D@std@@V?$allocator@D@2@@std@@PAV12@V?$allocator@V?$basic_string@DU?$char_traits@D@std@@V?$allocator@D@2@@std@@@2@@std@@YAPAV?$basic_string@DU?$char_traits@D@std@@V?$allocator@D@2@@0@PBV10@0PAV10@AAU?$_Wrap_alloc@V?$allocator@V?$basic_string@DU?$char_traits@D@std@@V?$allocator@D@2@@std@@@std@@@0@U_General_ptr_iterator_tag@0@U_Any_tag@0@@Z 00415bf5 f   systeminfo.obj
 0001:00014c10       __unwindfunclet$??0RAMInfo@@QAE@ABV0@@Z$0 00415c10 f   systeminfo.obj
 0001:00014c18       __unwindfunclet$??0RAMInfo@@QAE@ABV0@@Z$1 00415c18 f   systeminfo.obj
 0001:00014c23       __unwindfunclet$??0RAMInfo@@QAE@ABV0@@Z$2 00415c23 f   systeminfo.obj
 0001:00014c2e       __unwindfunclet$??0RAMInfo@@QAE@ABV0@@Z$3 00415c2e f   systeminfo.obj
 0001:00014c39       __unwindfunclet$??0RAMInfo@@QAE@ABV0@@Z$4 00415c39 f   systeminfo.obj
 0001:00014c44       __unwindfunclet$??0RAMInfo@@QAE@ABV0@@Z$5 00415c44 f   systeminfo.obj
 0001:00014c4f       __unwindfunclet$??0RAMInfo@@QAE@ABV0@@Z$6 00415c4f f   systeminfo.obj
 0001:00014c5d       __ehhandler$??0RAMInfo@@QAE@ABV0@@Z 00415c5d f   systeminfo.obj
 0001:00014c80       __unwindfunclet$??0OSInfo@@QAE@ABV0@@Z$0 00415c80 f   systeminfo.obj
 0001:00014c88       __unwindfunclet$??0OSInfo@@QAE@ABV0@@Z$1 00415c88 f   systeminfo.obj
 0001:00014c93       __unwindfunclet$??0OSInfo@@QAE@ABV0@@Z$2 00415c93 f   systeminfo.obj
 0001:00014c9e       __unwindfunclet$??0OSInfo@@QAE@ABV0@@Z$3 00415c9e f   systeminfo.obj
 0001:00014ca9       __unwindfunclet$??0OSInfo@@QAE@ABV0@@Z$4 00415ca9 f   systeminfo.obj
 0001:00014cb4       __unwindfunclet$??0OSInfo@@QAE@ABV0@@Z$5 00415cb4 f   systeminfo.obj
 0001:00014cbf       __unwindfunclet$??0OSInfo@@QAE@ABV0@@Z$6 00415cbf f   systeminfo.obj
 0001:00014ccd       __unwindfunclet$??0OSInfo@@QAE@ABV0@@Z$7 00415ccd f   systeminfo.obj
 0001:00014cdb       __unwindfunclet$??0OSInfo@@QAE@ABV0@@Z$8 00415cdb f   systeminfo.obj
 0001:00014ce9       __unwindfunclet$??0OSInfo@@QAE@ABV0@@Z$9 00415ce9 f   systeminfo.obj
 0001:00014cf7       __unwindfunclet$??0OSInfo@@QAE@ABV0@@Z$10 00415cf7 f   systeminfo.obj
 0001:00014d05       __unwindfunclet$??0OSInfo@@QAE@ABV0@@Z$11 00415d05 f   systeminfo.obj
 0001:00014d13       __unwindfunclet$??0OSInfo@@QAE@ABV0@@Z$12 00415d13 f   systeminfo.obj
 0001:00014d21       __ehhandler$??0OSInfo@@QAE@ABV0@@Z 00415d21 f   systeminfo.obj
 0001:00014d40       __unwindfunclet$??0MotherboardInfo@@QAE@ABV0@@Z$0 00415d40 f   systeminfo.obj
 0001:00014d48       __unwindfunclet$??0MotherboardInfo@@QAE@ABV0@@Z$1 00415d48 f   systeminfo.obj
 0001:00014d53       __unwindfunclet$??0MotherboardInfo@@QAE@ABV0@@Z$2 00415d53 f   systeminfo.obj
 0001:00014d5e       __unwindfunclet$??0MotherboardInfo@@QAE@ABV0@@Z$3 00415d5e f   systeminfo.obj
 0001:00014d69       __ehhandler$??0MotherboardInfo@@QAE@ABV0@@Z 00415d69 f   systeminfo.obj
 0001:00014d90       __unwindfunclet$??0GPUInfo@@QAE@ABV0@@Z$0 00415d90 f   systeminfo.obj
 0001:00014d98       __unwindfunclet$??0GPUInfo@@QAE@ABV0@@Z$1 00415d98 f   systeminfo.obj
 0001:00014da3       __unwindfunclet$??0GPUInfo@@QAE@ABV0@@Z$2 00415da3 f   systeminfo.obj
 0001:00014dae       __unwindfunclet$??0GPUInfo@@QAE@ABV0@@Z$3 00415dae f   systeminfo.obj
 0001:00014db9       __unwindfunclet$??0GPUInfo@@QAE@ABV0@@Z$4 00415db9 f   systeminfo.obj
 0001:00014dc4       __unwindfunclet$??0GPUInfo@@QAE@ABV0@@Z$5 00415dc4 f   systeminfo.obj
 0001:00014dcf       __unwindfunclet$??0GPUInfo@@QAE@ABV0@@Z$6 00415dcf f   systeminfo.obj
 0001:00014ddd       __unwindfunclet$??0GPUInfo@@QAE@ABV0@@Z$7 00415ddd f   systeminfo.obj
 0001:00014deb       __unwindfunclet$??0GPUInfo@@QAE@ABV0@@Z$8 00415deb f   systeminfo.obj
 0001:00014df9       __ehhandler$??0GPUInfo@@QAE@ABV0@@Z 00415df9 f   systeminfo.obj
 0001:00014e20       __unwindfunclet$??0CPUInfo@@QAE@ABV0@@Z$0 00415e20 f   systeminfo.obj
 0001:00014e28       __unwindfunclet$??0CPUInfo@@QAE@ABV0@@Z$1 00415e28 f   systeminfo.obj
 0001:00014e33       __unwindfunclet$??0CPUInfo@@QAE@ABV0@@Z$2 00415e33 f   systeminfo.obj
 0001:00014e3e       __unwindfunclet$??0CPUInfo@@QAE@ABV0@@Z$3 00415e3e f   systeminfo.obj
 0001:00014e49       __unwindfunclet$??0CPUInfo@@QAE@ABV0@@Z$4 00415e49 f   systeminfo.obj
 0001:00014e54       __ehhandler$??0CPUInfo@@QAE@ABV0@@Z 00415e54 f   systeminfo.obj
 0001:00014e70       ??__F?TEMPERATURE_QUERY_STRING@CPUInfo@@0V?$basic_string@DU?$char_traits@D@std@@V?$allocator@D@2@@std@@B@@YAXXZ 00415e70 f   systeminfo.obj
 0001:00014ec0       ??__F?TEMPERATURE_ERROR_IDENTIFIER_STRING@CPUInfo@@0V?$basic_string@DU?$char_traits@D@std@@V?$allocator@D@2@@std@@B@@YAXXZ 00415ec0 f   systeminfo.obj
 0001:00014f10       ??__F?CLOCK_SPEED_QUERY_STRING@CPUInfo@@0V?$basic_string@DU?$char_traits@D@std@@V?$allocator@D@2@@std@@B@@YAXXZ 00415f10 f   systeminfo.obj
 0001:00014f60       ??__F?CURRENT_CLOCK_SPEED_IDENTIFIER_STRING@CPUInfo@@0V?$basic_string@DU?$char_traits@D@std@@V?$allocator@D@2@@std@@B@@YAXXZ 00415f60 f   systeminfo.obj
 0001:00014fb0       ??__F?NAME_IDENTIFIER_STRING@CPUInfo@@0V?$basic_string@DU?$char_traits@D@std@@V?$allocator@D@2@@std@@B@@YAXXZ 00415fb0 f   systeminfo.obj
 0001:00015000       ??__F?NUMBER_OF_CORES_IDENTIFIER_STRING@CPUInfo@@0V?$basic_string@DU?$char_traits@D@std@@V?$allocator@D@2@@std@@B@@YAXXZ 00416000 f   systeminfo.obj
 0001:00015050       ??__F?MANUFACTURER_IDENTIFIER_STRING@CPUInfo@@0V?$basic_string@DU?$char_traits@D@std@@V?$allocator@D@2@@std@@B@@YAXXZ 00416050 f   systeminfo.obj
 0001:000150a0       ??__F?ARCHITECTURE_IDENTIFIER_STRING@CPUInfo@@0V?$basic_string@DU?$char_traits@D@std@@V?$allocator@D@2@@std@@B@@YAXXZ 004160a0 f   systeminfo.obj
 0001:000150f0       ??__F?L2_CACHE_SIZE_IDENTIFIER_STRING@CPUInfo@@0V?$basic_string@DU?$char_traits@D@std@@V?$allocator@D@2@@std@@B@@YAXXZ 004160f0 f   systeminfo.obj
 0001:00015140       ??__F?L3_CACHE_SIZE_IDENTIFIER_STRING@CPUInfo@@0V?$basic_string@DU?$char_traits@D@std@@V?$allocator@D@2@@std@@B@@YAXXZ 00416140 f   systeminfo.obj
 0001:00015190       ??__F?CPU_INFO_QUERY_STRING@CPUInfoDelegate@@0V?$basic_string@DU?$char_traits@D@std@@V?$allocator@D@2@@std@@B@@YAXXZ 00416190 f   systeminfo.obj
 0001:000151e0       ??__F?CPU_INSTANCE_QUERY_STRING@CPUInfoDelegate@@0V?$basic_string@DU?$char_traits@D@std@@V?$allocator@D@2@@std@@B@@YAXXZ 004161e0 f   systeminfo.obj
 0001:00015230       ??__F?CPU_INFO_END_IDENTIFIER_STRING@CPUInfoDelegate@@0V?$basic_string@DU?$char_traits@D@std@@V?$allocator@D@2@@std@@B@@YAXXZ 00416230 f   systeminfo.obj
 0001:00015280       ??__F?NVIDIA_IDENTIFIER_STRING@GPUInfo@@0V?$basic_string@DU?$char_traits@D@std@@V?$allocator@D@2@@std@@B@@YAXXZ 00416280 f   systeminfo.obj
 0001:000152d0       ??__F?INTEL_IDENTIFIER_STRING@GPUInfo@@0V?$basic_string@DU?$char_traits@D@std@@V?$allocator@D@2@@std@@B@@YAXXZ 004162d0 f   systeminfo.obj
 0001:00015320       ??__F?AMD_IDENTIFIER_STRING@GPUInfo@@0V?$basic_string@DU?$char_traits@D@std@@V?$allocator@D@2@@std@@B@@YAXXZ 00416320 f   systeminfo.obj
 0001:00015370       ??__F?NAME_IDENTIFIER_STRING@GPUInfo@@0V?$basic_string@DU?$char_traits@D@std@@V?$allocator@D@2@@std@@B@@YAXXZ 00416370 f   systeminfo.obj
 0001:000153c0       ??__F?MANUFACTURER_IDENTIFIER_STRING@GPUInfo@@0V?$basic_string@DU?$char_traits@D@std@@V?$allocator@D@2@@std@@B@@YAXXZ 004163c0 f   systeminfo.obj
 0001:00015410       ??__F?ADAPTER_RAM_IDENTIFIER_STRING@GPUInfo@@0V?$basic_string@DU?$char_traits@D@std@@V?$allocator@D@2@@std@@B@@YAXXZ 00416410 f   systeminfo.obj
 0001:00015460       ??__F?REFRESH_RATE_IDENTIFIER_STRING@GPUInfo@@0V?$basic_string@DU?$char_traits@D@std@@V?$allocator@D@2@@std@@B@@YAXXZ 00416460 f   systeminfo.obj
 0001:000154b0       ??__F?DRIVER_VERSION_IDENTIFIER_STRING@GPUInfo@@0V?$basic_string@DU?$char_traits@D@std@@V?$allocator@D@2@@std@@B@@YAXXZ 004164b0 f   systeminfo.obj
 0001:00015500       ??__F?VIDEO_ARCHITECTURE_IDENTIFIER_STRING@GPUInfo@@0V?$basic_string@DU?$char_traits@D@std@@V?$allocator@D@2@@std@@B@@YAXXZ 00416500 f   systeminfo.obj
 0001:00015550       ??__F?VIDEO_MEMORY_TYPE_IDENTIFIER_STRING@GPUInfo@@0V?$basic_string@DU?$char_traits@D@std@@V?$allocator@D@2@@std@@B@@YAXXZ 00416550 f   systeminfo.obj
 0001:000155a0       ??__F?VIDEO_MODE_DESCRIPTION_IDENTIFIER_STRING@GPUInfo@@0V?$basic_string@DU?$char_traits@D@std@@V?$allocator@D@2@@std@@B@@YAXXZ 004165a0 f   systeminfo.obj
 0001:000155f0       ??__F?VIDEO_PROCESSOR_IDENTIFIER_STRING@GPUInfo@@0V?$basic_string@DU?$char_traits@D@std@@V?$allocator@D@2@@std@@B@@YAXXZ 004165f0 f   systeminfo.obj
 0001:00015640       ??__F?CAPTION_IDENTIFIER_STRING@GPUInfo@@0V?$basic_string@DU?$char_traits@D@std@@V?$allocator@D@2@@std@@B@@YAXXZ 00416640 f   systeminfo.obj
 0001:00015690       ??__F?GPU_INFO_QUERY_STRING@GPUInfoDelegate@@0V?$basic_string@DU?$char_traits@D@std@@V?$allocator@D@2@@std@@B@@YAXXZ 00416690 f   systeminfo.obj
 0001:000156e0       ??__F?GPU_INSTANCE_QUERY_STRING@GPUInfoDelegate@@0V?$basic_string@DU?$char_traits@D@std@@V?$allocator@D@2@@std@@B@@YAXXZ 004166e0 f   systeminfo.obj
 0001:00015730       ??__F?GPU_INFO_END_IDENTIFIER_STRING@GPUInfoDelegate@@0V?$basic_string@DU?$char_traits@D@std@@V?$allocator@D@2@@std@@B@@YAXXZ 00416730 f   systeminfo.obj
 0001:00015780       ??__F?CHIPSET_QUERY_STRING@MotherboardInfo@@0V?$basic_string@DU?$char_traits@D@std@@V?$allocator@D@2@@std@@B@@YAXXZ 00416780 f   systeminfo.obj
 0001:000157d0       ??__F?NAME_IDENTIFIER_STRING@MotherboardInfo@@0V?$basic_string@DU?$char_traits@D@std@@V?$allocator@D@2@@std@@B@@YAXXZ 004167d0 f   systeminfo.obj
 0001:00015820       ??__F?MANUFACTURER_IDENTIFIER_STRING@MotherboardInfo@@0V?$basic_string@DU?$char_traits@D@std@@V?$allocator@D@2@@std@@B@@YAXXZ 00416820 f   systeminfo.obj
 0001:00015870       ??__F?CHIPSET_IDENTIFIER_STRING@MotherboardInfo@@0V?$basic_string@DU?$char_traits@D@std@@V?$allocator@D@2@@std@@B@@YAXXZ 00416870 f   systeminfo.obj
 0001:000158c0       ??__F?CHIPSET_END_IDENTIFIER_STRING@MotherboardInfo@@0V?$basic_string@DU?$char_traits@D@std@@V?$allocator@D@2@@std@@B@@YAXXZ 004168c0 f   systeminfo.obj
 0001:00015910       ??__F?SERIAL_NUMBER_IDENTIFIER_STRING@MotherboardInfo@@0V?$basic_string@DU?$char_traits@D@std@@V?$allocator@D@2@@std@@B@@YAXXZ 00416910 f   systeminfo.obj
 0001:00015960       ??__F?VERSION_IDENTIFIER_STRING@MotherboardInfo@@0V?$basic_string@DU?$char_traits@D@std@@V?$allocator@D@2@@std@@B@@YAXXZ 00416960 f   systeminfo.obj
 0001:000159b0       ??__F?MOTHERBOARD_INFO_QUERY_STRING@MotherboardInfoDelegate@@0V?$basic_string@DU?$char_traits@D@std@@V?$allocator@D@2@@std@@B@@YAXXZ 004169b0 f   systeminfo.obj
 0001:00015a00       ??__F?MOTHERBOARD_INSTANCE_QUERY_STRING@MotherboardInfoDelegate@@0V?$basic_string@DU?$char_traits@D@std@@V?$allocator@D@2@@std@@B@@YAXXZ 00416a00 f   systeminfo.obj
 0001:00015a50       ??__F?MOTHERBOARD_INFO_END_IDENTIFIER_STRING@MotherboardInfoDelegate@@0V?$basic_string@DU?$char_traits@D@std@@V?$allocator@D@2@@std@@B@@YAXXZ 00416a50 f   systeminfo.obj
 0001:00015aa0       ??__F?ARCHITECTURE_IDENTIFIER_STRING@OSInfo@@0V?$basic_string@DU?$char_traits@D@std@@V?$allocator@D@2@@std@@B@@YAXXZ 00416aa0 f   systeminfo.obj
 0001:00015af0       ??__F?CAPTION_INDENTIFIER_STRING@OSInfo@@0V?$basic_string@DU?$char_traits@D@std@@V?$allocator@D@2@@std@@B@@YAXXZ 00416af0 f   systeminfo.obj
 0001:00015b40       ??__F?NAME_IDENTIFIER_STRING@OSInfo@@0V?$basic_string@DU?$char_traits@D@std@@V?$allocator@D@2@@std@@B@@YAXXZ 00416b40 f   systeminfo.obj
 0001:00015b90       ??__F?MANUFACTURER_IDENTIFIER_STRING@OSInfo@@0V?$basic_string@DU?$char_traits@D@std@@V?$allocator@D@2@@std@@B@@YAXXZ 00416b90 f   systeminfo.obj
 0001:00015be0       ??__F?VERSION_IDENTIFIER_STRING@OSInfo@@0V?$basic_string@DU?$char_traits@D@std@@V?$allocator@D@2@@std@@B@@YAXXZ 00416be0 f   systeminfo.obj
 0001:00015c30       ??__F?CURRENT_USER_IDENTIFIER_STRING@OSInfo@@0V?$basic_string@DU?$char_traits@D@std@@V?$allocator@D@2@@std@@B@@YAXXZ 00416c30 f   systeminfo.obj
 0001:00015c80       ??__F?INSTALL_DATE_IDENTIFIER_STRING@OSInfo@@0V?$basic_string@DU?$char_traits@D@std@@V?$allocator@D@2@@std@@B@@YAXXZ 00416c80 f   systeminfo.obj
 0001:00015cd0       ??__F?BUILD_NUMBER_IDENTIFIER_STRING@OSInfo@@0V?$basic_string@DU?$char_traits@D@std@@V?$allocator@D@2@@std@@B@@YAXXZ 00416cd0 f   systeminfo.obj
 0001:00015d20       ??__F?LAST_BOOT_UP_TIME_IDENTIFIER_STRING@OSInfo@@0V?$basic_string@DU?$char_traits@D@std@@V?$allocator@D@2@@std@@B@@YAXXZ 00416d20 f   systeminfo.obj
 0001:00015d70       ??__F?BOOT_DEVICE_IDENTIFIER_STRING@OSInfo@@0V?$basic_string@DU?$char_traits@D@std@@V?$allocator@D@2@@std@@B@@YAXXZ 00416d70 f   systeminfo.obj
 0001:00015dc0       ??__F?SERIAL_NUMBER_IDENTIFIER_STRING@OSInfo@@0V?$basic_string@DU?$char_traits@D@std@@V?$allocator@D@2@@std@@B@@YAXXZ 00416dc0 f   systeminfo.obj
 0001:00015e10       ??__F?TOTAL_VIRTUAL_MEMORY_SIZE_IDENTIFIER_STRING@OSInfo@@0V?$basic_string@DU?$char_traits@D@std@@V?$allocator@D@2@@std@@B@@YAXXZ 00416e10 f   systeminfo.obj
 0001:00015e60       ??__F?TOTAL_VISIBLE_MEMORY_SIZE_IDENTIFIER_STRING@OSInfo@@0V?$basic_string@DU?$char_traits@D@std@@V?$allocator@D@2@@std@@B@@YAXXZ 00416e60 f   systeminfo.obj
 0001:00015eb0       ??__F?TOTAL_SWAP_SIZE_IDENTIFIER_STRING@OSInfo@@0V?$basic_string@DU?$char_traits@D@std@@V?$allocator@D@2@@std@@B@@YAXXZ 00416eb0 f   systeminfo.obj
 0001:00015f00       ??__F?FREE_PHYSICAL_MEMORY_IDENTIFIER_STRING@OSInfo@@0V?$basic_string@DU?$char_traits@D@std@@V?$allocator@D@2@@std@@B@@YAXXZ 00416f00 f   systeminfo.obj
 0001:00015f50       ??__F?FREE_PHYSICAL_MEMORY_QUERY_STRING@OSInfo@@0V?$basic_string@DU?$char_traits@D@std@@V?$allocator@D@2@@std@@B@@YAXXZ 00416f50 f   systeminfo.obj
 0001:00015fa0       ??__F?FREE_VIRTUAL_MEMORY_IDENTIFIER_STRING@OSInfo@@0V?$basic_string@DU?$char_traits@D@std@@V?$allocator@D@2@@std@@B@@YAXXZ 00416fa0 f   systeminfo.obj
 0001:00015ff0       ??__F?FREE_VIRTUAL_MEMORY_QUERY_STRING@OSInfo@@0V?$basic_string@DU?$char_traits@D@std@@V?$allocator@D@2@@std@@B@@YAXXZ 00416ff0 f   systeminfo.obj
 0001:00016040       ??__F?FREE_SPACE_IN_PAGING_FILES_IDENTIFIER_STRING@OSInfo@@0V?$basic_string@DU?$char_traits@D@std@@V?$allocator@D@2@@std@@B@@YAXXZ 00417040 f   systeminfo.obj
 0001:00016090       ??__F?FREE_SPACE_IN_PAGING_FILES_QUERY_STRING@OSInfo@@0V?$basic_string@DU?$char_traits@D@std@@V?$allocator@D@2@@std@@B@@YAXXZ 00417090 f   systeminfo.obj
 0001:000160e0       ??__F?USED_SPACE_IN_PAGING_FILE_IDENTIFIER_STRING@OSInfo@@0V?$basic_string@DU?$char_traits@D@std@@V?$allocator@D@2@@std@@B@@YAXXZ 004170e0 f   systeminfo.obj
 0001:00016130       ??__F?USED_SPACE_IN_PAGING_FILE_QUERY_STRING@OSInfo@@0V?$basic_string@DU?$char_traits@D@std@@V?$allocator@D@2@@std@@B@@YAXXZ 00417130 f   systeminfo.obj
 0001:00016180       ??__F?CURRENT_DATE_TIME_IDENTIFIER_STRING@OSInfo@@0V?$basic_string@DU?$char_traits@D@std@@V?$allocator@D@2@@std@@B@@YAXXZ 00417180 f   systeminfo.obj
 0001:000161d0       ??__F?CURRENT_DATE_TIME_QUERY_STRING@OSInfo@@0V?$basic_string@DU?$char_traits@D@std@@V?$allocator@D@2@@std@@B@@YAXXZ 004171d0 f   systeminfo.obj
 0001:00016220       ??__F?OS_INFO_QUERY_STRING@OSInfoDelegate@@0V?$basic_string@DU?$char_traits@D@std@@V?$allocator@D@2@@std@@B@@YAXXZ 00417220 f   systeminfo.obj
 0001:00016270       ??__F?OS_INSTANCE_QUERY_STRING@OSInfoDelegate@@0V?$basic_string@DU?$char_traits@D@std@@V?$allocator@D@2@@std@@B@@YAXXZ 00417270 f   systeminfo.obj
 0001:000162c0       ??__F?OS_INFO_END_IDENTIFIER_STRING@OSInfoDelegate@@0V?$basic_string@DU?$char_traits@D@std@@V?$allocator@D@2@@std@@B@@YAXXZ 004172c0 f   systeminfo.obj
 0001:00016310       ??__F?NAME_IDENTIFIER_STRING@RAMInfo@@0V?$basic_string@DU?$char_traits@D@std@@V?$allocator@D@2@@std@@B@@YAXXZ 00417310 f   systeminfo.obj
 0001:00016360       ??__F?MANUFACTURER_IDENTIFIER_STRING@RAMInfo@@0V?$basic_string@DU?$char_traits@D@std@@V?$allocator@D@2@@std@@B@@YAXXZ 00417360 f   systeminfo.obj
 0001:000163b0       ??__F?CAPACITY_IDENTIFIER_STRING@RAMInfo@@0V?$basic_string@DU?$char_traits@D@std@@V?$allocator@D@2@@std@@B@@YAXXZ 004173b0 f   systeminfo.obj
 0001:00016400       ??__F?SERIAL_NUMBER_IDENTIFIER_STRING@RAMInfo@@0V?$basic_string@DU?$char_traits@D@std@@V?$allocator@D@2@@std@@B@@YAXXZ 00417400 f   systeminfo.obj
 0001:00016450       ??__F?FORM_FACTOR_IDENTIFIER_STRING@RAMInfo@@0V?$basic_string@DU?$char_traits@D@std@@V?$allocator@D@2@@std@@B@@YAXXZ 00417450 f   systeminfo.obj
 0001:000164a0       ??__F?PART_NUMBER_IDENTIFIER_STRING@RAMInfo@@0V?$basic_string@DU?$char_traits@D@std@@V?$allocator@D@2@@std@@B@@YAXXZ 004174a0 f   systeminfo.obj
 0001:000164f0       ??__F?MEMORY_TYPE_IDENTIFIER_STRING@RAMInfo@@0V?$basic_string@DU?$char_traits@D@std@@V?$allocator@D@2@@std@@B@@YAXXZ 004174f0 f   systeminfo.obj
 0001:00016540       ??__F?CLOCK_SPEED_IDENTIFIER_STRING@RAMInfo@@0V?$basic_string@DU?$char_traits@D@std@@V?$allocator@D@2@@std@@B@@YAXXZ 00417540 f   systeminfo.obj
 0001:00016590       ??__F?BACKUP_CLOCK_SPEED_IDENTIFIER_STRING@RAMInfo@@0V?$basic_string@DU?$char_traits@D@std@@V?$allocator@D@2@@std@@B@@YAXXZ 00417590 f   systeminfo.obj
 0001:000165e0       ??__F?RAM_INFO_QUERY_STRING@RAMInfoDelegate@@0V?$basic_string@DU?$char_traits@D@std@@V?$allocator@D@2@@std@@B@@YAXXZ 004175e0 f   systeminfo.obj
 0001:00016630       ??__F?RAM_INSTANCE_QUERY_STRING@RAMInfoDelegate@@0V?$basic_string@DU?$char_traits@D@std@@V?$allocator@D@2@@std@@B@@YAXXZ 00417630 f   systeminfo.obj
 0001:00016680       ??__F?RAM_INFO_END_IDENTIFIER_STRING@RAMInfoDelegate@@0V?$basic_string@DU?$char_traits@D@std@@V?$allocator@D@2@@std@@B@@YAXXZ 00417680 f   systeminfo.obj
 0001:000166c2       ??__F_Fac_tidy_reg@std@@YAXXZ 004176c2 f   msvcprt:locale0_implib.obj
 0002:000002bc       ?pre_cpp_initializer@@3P6AXXZA 004182bc     MSVCRT:exe_winmain.obj
 0002:000002c0       ?_Fac_tidy_reg$initializer$@std@@3P6AXXZA 004182c0     msvcprt:locale0_implib.obj
 0002:000002c4       ?g_hWarcraftWnd$initializer$@@3P6AXXZA 004182c4     Main.obj
 0002:000002c8       ??TEMPERATURE_QUERY_STRING$initializer$@CPUInfo@@0P6AXXZA@@3P6AXXZA 004182c8     systeminfo.obj
 0002:000002cc       ??TEMPERATURE_ERROR_IDENTIFIER_STRING$initializer$@CPUInfo@@0P6AXXZA@@3P6AXXZA 004182cc     systeminfo.obj
 0002:000002d0       ??CLOCK_SPEED_QUERY_STRING$initializer$@CPUInfo@@0P6AXXZA@@3P6AXXZA 004182d0     systeminfo.obj
 0002:000002d4       ??CURRENT_CLOCK_SPEED_IDENTIFIER_STRING$initializer$@CPUInfo@@0P6AXXZA@@3P6AXXZA 004182d4     systeminfo.obj
 0002:000002d8       ??NAME_IDENTIFIER_STRING$initializer$@CPUInfo@@0P6AXXZA@@3P6AXXZA 004182d8     systeminfo.obj
 0002:000002dc       ??NUMBER_OF_CORES_IDENTIFIER_STRING$initializer$@CPUInfo@@0P6AXXZA@@3P6AXXZA 004182dc     systeminfo.obj
 0002:000002e0       ??MANUFACTURER_IDENTIFIER_STRING$initializer$@CPUInfo@@0P6AXXZA@@3P6AXXZA 004182e0     systeminfo.obj
 0002:000002e4       ??ARCHITECTURE_IDENTIFIER_STRING$initializer$@CPUInfo@@0P6AXXZA@@3P6AXXZA 004182e4     systeminfo.obj
 0002:000002e8       ??L2_CACHE_SIZE_IDENTIFIER_STRING$initializer$@CPUInfo@@0P6AXXZA@@3P6AXXZA 004182e8     systeminfo.obj
 0002:000002ec       ??L3_CACHE_SIZE_IDENTIFIER_STRING$initializer$@CPUInfo@@0P6AXXZA@@3P6AXXZA 004182ec     systeminfo.obj
 0002:000002f0       ??CPU_INFO_QUERY_STRING$initializer$@CPUInfoDelegate@@0P6AXXZA@@3P6AXXZA 004182f0     systeminfo.obj
 0002:000002f4       ??CPU_INSTANCE_QUERY_STRING$initializer$@CPUInfoDelegate@@0P6AXXZA@@3P6AXXZA 004182f4     systeminfo.obj
 0002:000002f8       ??CPU_INFO_END_IDENTIFIER_STRING$initializer$@CPUInfoDelegate@@0P6AXXZA@@3P6AXXZA 004182f8     systeminfo.obj
 0002:000002fc       ??NVIDIA_IDENTIFIER_STRING$initializer$@GPUInfo@@0P6AXXZA@@3P6AXXZA 004182fc     systeminfo.obj
 0002:00000300       ??INTEL_IDENTIFIER_STRING$initializer$@GPUInfo@@0P6AXXZA@@3P6AXXZA 00418300     systeminfo.obj
 0002:00000304       ??AMD_IDENTIFIER_STRING$initializer$@GPUInfo@@0P6AXXZA@@3P6AXXZA 00418304     systeminfo.obj
 0002:00000308       ??NAME_IDENTIFIER_STRING$initializer$@GPUInfo@@0P6AXXZA@@3P6AXXZA 00418308     systeminfo.obj
 0002:0000030c       ??MANUFACTURER_IDENTIFIER_STRING$initializer$@GPUInfo@@0P6AXXZA@@3P6AXXZA 0041830c     systeminfo.obj
 0002:00000310       ??ADAPTER_RAM_IDENTIFIER_STRING$initializer$@GPUInfo@@0P6AXXZA@@3P6AXXZA 00418310     systeminfo.obj
 0002:00000314       ??REFRESH_RATE_IDENTIFIER_STRING$initializer$@GPUInfo@@0P6AXXZA@@3P6AXXZA 00418314     systeminfo.obj
 0002:00000318       ??DRIVER_VERSION_IDENTIFIER_STRING$initializer$@GPUInfo@@0P6AXXZA@@3P6AXXZA 00418318     systeminfo.obj
 0002:0000031c       ??VIDEO_ARCHITECTURE_IDENTIFIER_STRING$initializer$@GPUInfo@@0P6AXXZA@@3P6AXXZA 0041831c     systeminfo.obj
 0002:00000320       ??VIDEO_MEMORY_TYPE_IDENTIFIER_STRING$initializer$@GPUInfo@@0P6AXXZA@@3P6AXXZA 00418320     systeminfo.obj
 0002:00000324       ??VIDEO_MODE_DESCRIPTION_IDENTIFIER_STRING$initializer$@GPUInfo@@0P6AXXZA@@3P6AXXZA 00418324     systeminfo.obj
 0002:00000328       ??VIDEO_PROCESSOR_IDENTIFIER_STRING$initializer$@GPUInfo@@0P6AXXZA@@3P6AXXZA 00418328     systeminfo.obj
 0002:0000032c       ??CAPTION_IDENTIFIER_STRING$initializer$@GPUInfo@@0P6AXXZA@@3P6AXXZA 0041832c     systeminfo.obj
 0002:00000330       ??GPU_INFO_QUERY_STRING$initializer$@GPUInfoDelegate@@0P6AXXZA@@3P6AXXZA 00418330     systeminfo.obj
 0002:00000334       ??GPU_INSTANCE_QUERY_STRING$initializer$@GPUInfoDelegate@@0P6AXXZA@@3P6AXXZA 00418334     systeminfo.obj
 0002:00000338       ??GPU_INFO_END_IDENTIFIER_STRING$initializer$@GPUInfoDelegate@@0P6AXXZA@@3P6AXXZA 00418338     systeminfo.obj
 0002:0000033c       ??CHIPSET_QUERY_STRING$initializer$@MotherboardInfo@@0P6AXXZA@@3P6AXXZA 0041833c     systeminfo.obj
 0002:00000340       ??NAME_IDENTIFIER_STRING$initializer$@MotherboardInfo@@0P6AXXZA@@3P6AXXZA 00418340     systeminfo.obj
 0002:00000344       ??MANUFACTURER_IDENTIFIER_STRING$initializer$@MotherboardInfo@@0P6AXXZA@@3P6AXXZA 00418344     systeminfo.obj
 0002:00000348       ??CHIPSET_IDENTIFIER_STRING$initializer$@MotherboardInfo@@0P6AXXZA@@3P6AXXZA 00418348     systeminfo.obj
 0002:0000034c       ??CHIPSET_END_IDENTIFIER_STRING$initializer$@MotherboardInfo@@0P6AXXZA@@3P6AXXZA 0041834c     systeminfo.obj
 0002:00000350       ??SERIAL_NUMBER_IDENTIFIER_STRING$initializer$@MotherboardInfo@@0P6AXXZA@@3P6AXXZA 00418350     systeminfo.obj
 0002:00000354       ??VERSION_IDENTIFIER_STRING$initializer$@MotherboardInfo@@0P6AXXZA@@3P6AXXZA 00418354     systeminfo.obj
 0002:00000358       ??MOTHERBOARD_INFO_QUERY_STRING$initializer$@MotherboardInfoDelegate@@0P6AXXZA@@3P6AXXZA 00418358     systeminfo.obj
 0002:0000035c       ??MOTHERBOARD_INSTANCE_QUERY_STRING$initializer$@MotherboardInfoDelegate@@0P6AXXZA@@3P6AXXZA 0041835c     systeminfo.obj
 0002:00000360       ??MOTHERBOARD_INFO_END_IDENTIFIER_STRING$initializer$@MotherboardInfoDelegate@@0P6AXXZA@@3P6AXXZA 00418360     systeminfo.obj
 0002:00000364       ??ARCHITECTURE_IDENTIFIER_STRING$initializer$@OSInfo@@0P6AXXZA@@3P6AXXZA 00418364     systeminfo.obj
 0002:00000368       ??CAPTION_INDENTIFIER_STRING$initializer$@OSInfo@@0P6AXXZA@@3P6AXXZA 00418368     systeminfo.obj
 0002:0000036c       ??NAME_IDENTIFIER_STRING$initializer$@OSInfo@@0P6AXXZA@@3P6AXXZA 0041836c     systeminfo.obj
 0002:00000370       ??MANUFACTURER_IDENTIFIER_STRING$initializer$@OSInfo@@0P6AXXZA@@3P6AXXZA 00418370     systeminfo.obj
 0002:00000374       ??VERSION_IDENTIFIER_STRING$initializer$@OSInfo@@0P6AXXZA@@3P6AXXZA 00418374     systeminfo.obj
 0002:00000378       ??CURRENT_USER_IDENTIFIER_STRING$initializer$@OSInfo@@0P6AXXZA@@3P6AXXZA 00418378     systeminfo.obj
 0002:0000037c       ??INSTALL_DATE_IDENTIFIER_STRING$initializer$@OSInfo@@0P6AXXZA@@3P6AXXZA 0041837c     systeminfo.obj
 0002:00000380       ??BUILD_NUMBER_IDENTIFIER_STRING$initializer$@OSInfo@@0P6AXXZA@@3P6AXXZA 00418380     systeminfo.obj
 0002:00000384       ??LAST_BOOT_UP_TIME_IDENTIFIER_STRING$initializer$@OSInfo@@0P6AXXZA@@3P6AXXZA 00418384     systeminfo.obj
 0002:00000388       ??BOOT_DEVICE_IDENTIFIER_STRING$initializer$@OSInfo@@0P6AXXZA@@3P6AXXZA 00418388     systeminfo.obj
 0002:0000038c       ??SERIAL_NUMBER_IDENTIFIER_STRING$initializer$@OSInfo@@0P6AXXZA@@3P6AXXZA 0041838c     systeminfo.obj
 0002:00000390       ??TOTAL_VIRTUAL_MEMORY_SIZE_IDENTIFIER_STRING$initializer$@OSInfo@@0P6AXXZA@@3P6AXXZA 00418390     systeminfo.obj
 0002:00000394       ??TOTAL_VISIBLE_MEMORY_SIZE_IDENTIFIER_STRING$initializer$@OSInfo@@0P6AXXZA@@3P6AXXZA 00418394     systeminfo.obj
 0002:00000398       ??TOTAL_SWAP_SIZE_IDENTIFIER_STRING$initializer$@OSInfo@@0P6AXXZA@@3P6AXXZA 00418398     systeminfo.obj
 0002:0000039c       ??FREE_PHYSICAL_MEMORY_IDENTIFIER_STRING$initializer$@OSInfo@@0P6AXXZA@@3P6AXXZA 0041839c     systeminfo.obj
 0002:000003a0       ??FREE_PHYSICAL_MEMORY_QUERY_STRING$initializer$@OSInfo@@0P6AXXZA@@3P6AXXZA 004183a0     systeminfo.obj
 0002:000003a4       ??FREE_VIRTUAL_MEMORY_IDENTIFIER_STRING$initializer$@OSInfo@@0P6AXXZA@@3P6AXXZA 004183a4     systeminfo.obj
 0002:000003a8       ??FREE_VIRTUAL_MEMORY_QUERY_STRING$initializer$@OSInfo@@0P6AXXZA@@3P6AXXZA 004183a8     systeminfo.obj
 0002:000003ac       ??FREE_SPACE_IN_PAGING_FILES_IDENTIFIER_STRING$initializer$@OSInfo@@0P6AXXZA@@3P6AXXZA 004183ac     systeminfo.obj
 0002:000003b0       ??FREE_SPACE_IN_PAGING_FILES_QUERY_STRING$initializer$@OSInfo@@0P6AXXZA@@3P6AXXZA 004183b0     systeminfo.obj
 0002:000003b4       ??USED_SPACE_IN_PAGING_FILE_IDENTIFIER_STRING$initializer$@OSInfo@@0P6AXXZA@@3P6AXXZA 004183b4     systeminfo.obj
 0002:000003b8       ??USED_SPACE_IN_PAGING_FILE_QUERY_STRING$initializer$@OSInfo@@0P6AXXZA@@3P6AXXZA 004183b8     systeminfo.obj
 0002:000003bc       ??CURRENT_DATE_TIME_IDENTIFIER_STRING$initializer$@OSInfo@@0P6AXXZA@@3P6AXXZA 004183bc     systeminfo.obj
 0002:000003c0       ??CURRENT_DATE_TIME_QUERY_STRING$initializer$@OSInfo@@0P6AXXZA@@3P6AXXZA 004183c0     systeminfo.obj
 0002:000003c4       ??OS_INFO_QUERY_STRING$initializer$@OSInfoDelegate@@0P6AXXZA@@3P6AXXZA 004183c4     systeminfo.obj
 0002:000003c8       ??OS_INSTANCE_QUERY_STRING$initializer$@OSInfoDelegate@@0P6AXXZA@@3P6AXXZA 004183c8     systeminfo.obj
 0002:000003cc       ??OS_INFO_END_IDENTIFIER_STRING$initializer$@OSInfoDelegate@@0P6AXXZA@@3P6AXXZA 004183cc     systeminfo.obj
 0002:000003d0       ??NAME_IDENTIFIER_STRING$initializer$@RAMInfo@@0P6AXXZA@@3P6AXXZA 004183d0     systeminfo.obj
 0002:000003d4       ??MANUFACTURER_IDENTIFIER_STRING$initializer$@RAMInfo@@0P6AXXZA@@3P6AXXZA 004183d4     systeminfo.obj
 0002:000003d8       ??CAPACITY_IDENTIFIER_STRING$initializer$@RAMInfo@@0P6AXXZA@@3P6AXXZA 004183d8     systeminfo.obj
 0002:000003dc       ??SERIAL_NUMBER_IDENTIFIER_STRING$initializer$@RAMInfo@@0P6AXXZA@@3P6AXXZA 004183dc     systeminfo.obj
 0002:000003e0       ??FORM_FACTOR_IDENTIFIER_STRING$initializer$@RAMInfo@@0P6AXXZA@@3P6AXXZA 004183e0     systeminfo.obj
 0002:000003e4       ??PART_NUMBER_IDENTIFIER_STRING$initializer$@RAMInfo@@0P6AXXZA@@3P6AXXZA 004183e4     systeminfo.obj
 0002:000003e8       ??MEMORY_TYPE_IDENTIFIER_STRING$initializer$@RAMInfo@@0P6AXXZA@@3P6AXXZA 004183e8     systeminfo.obj
 0002:000003ec       ??CLOCK_SPEED_IDENTIFIER_STRING$initializer$@RAMInfo@@0P6AXXZA@@3P6AXXZA 004183ec     systeminfo.obj
 0002:000003f0       ??BACKUP_CLOCK_SPEED_IDENTIFIER_STRING$initializer$@RAMInfo@@0P6AXXZA@@3P6AXXZA 004183f0     systeminfo.obj
 0002:000003f4       ??RAM_INFO_QUERY_STRING$initializer$@RAMInfoDelegate@@0P6AXXZA@@3P6AXXZA 004183f4     systeminfo.obj
 0002:000003f8       ??RAM_INSTANCE_QUERY_STRING$initializer$@RAMInfoDelegate@@0P6AXXZA@@3P6AXXZA 004183f8     systeminfo.obj
 0002:000003fc       ??RAM_INFO_END_IDENTIFIER_STRING$initializer$@RAMInfoDelegate@@0P6AXXZA@@3P6AXXZA 004183fc     systeminfo.obj
 0002:00000408       ?pre_c_initializer@@3P6AHXZA 00418408     MSVCRT:exe_winmain.obj
 0002:0000040c       ?post_pgo_initializer@@3P6AHXZA 0041840c     MSVCRT:exe_winmain.obj
 0002:00000438       _GS_ExceptionPointers      00418438     MSVCRT:gs_report.obj
 0002:000019d0       __ehfuncinfo$?KEY@@YA?AV?$basic_string@DU?$char_traits@D@std@@V?$allocator@D@2@@std@@XZ 004199d0     Main.obj
 0002:000019f8       __unwindtable$?KEY@@YA?AV?$basic_string@DU?$char_traits@D@std@@V?$allocator@D@2@@std@@XZ 004199f8     Main.obj
 0002:00001a50       __ehfuncinfo$?_Copy@?$basic_string@DU?$char_traits@D@std@@V?$allocator@D@2@@std@@QAEXII@Z 00419a50     Main.obj
 0002:00001a74       __unwindtable$?_Copy@?$basic_string@DU?$char_traits@D@std@@V?$allocator@D@2@@std@@QAEXII@Z 00419a74     Main.obj
 0002:00001a94       __tryblocktable$?_Copy@?$basic_string@DU?$char_traits@D@std@@V?$allocator@D@2@@std@@QAEXII@Z 00419a94     Main.obj
 0002:00001abc       __catchsym$?_Copy@?$basic_string@DU?$char_traits@D@std@@V?$allocator@D@2@@std@@QAEXII@Z$110 00419abc     Main.obj
 0002:00001acc       __catchsym$?_Copy@?$basic_string@DU?$char_traits@D@std@@V?$allocator@D@2@@std@@QAEXII@Z$111 00419acc     Main.obj
 0002:00001adc       __ehfuncinfo$??$?6U?$char_traits@D@std@@@std@@YAAAV?$basic_ostream@DU?$char_traits@D@std@@@0@AAV10@PBD@Z 00419adc     Main.obj
 0002:00001b00       __unwindtable$??$?6U?$char_traits@D@std@@@std@@YAAAV?$basic_ostream@DU?$char_traits@D@std@@@0@AAV10@PBD@Z 00419b00     Main.obj
 0002:00001b30       __tryblocktable$??$?6U?$char_traits@D@std@@@std@@YAAAV?$basic_ostream@DU?$char_traits@D@std@@@0@AAV10@PBD@Z 00419b30     Main.obj
 0002:00001b44       __catchsym$??$?6U?$char_traits@D@std@@@std@@YAAAV?$basic_ostream@DU?$char_traits@D@std@@@0@AAV10@PBD@Z$10 00419b44     Main.obj
 0002:00001b54       __ehfuncinfo$??$make_unique@VRAMInfoDelegate@@$$V@std@@YA?AV?$unique_ptr@VRAMInfoDelegate@@U?$default_delete@VRAMInfoDelegate@@@std@@@0@XZ 00419b54     Main.obj
 0002:00001b54       __ehfuncinfo$??$make_unique@VOSInfoDelegate@@$$V@std@@YA?AV?$unique_ptr@VOSInfoDelegate@@U?$default_delete@VOSInfoDelegate@@@std@@@0@XZ 00419b54     Main.obj
 0002:00001b54       __ehfuncinfo$??$make_unique@VGPUInfoDelegate@@$$V@std@@YA?AV?$unique_ptr@VGPUInfoDelegate@@U?$default_delete@VGPUInfoDelegate@@@std@@@0@XZ 00419b54     Main.obj
 0002:00001b54       __ehfuncinfo$??$make_unique@VMotherboardInfoDelegate@@$$V@std@@YA?AV?$unique_ptr@VMotherboardInfoDelegate@@U?$default_delete@VMotherboardInfoDelegate@@@std@@@0@XZ 00419b54     Main.obj
 0002:00001b54       __ehfuncinfo$??$make_unique@VCPUInfoDelegate@@$$V@std@@YA?AV?$unique_ptr@VCPUInfoDelegate@@U?$default_delete@VCPUInfoDelegate@@@std@@@0@XZ 00419b54     Main.obj
 0002:00001b78       __unwindtable$??$make_unique@VOSInfoDelegate@@$$V@std@@YA?AV?$unique_ptr@VOSInfoDelegate@@U?$default_delete@VOSInfoDelegate@@@std@@@0@XZ 00419b78     Main.obj
 0002:00001b78       __unwindtable$??$make_unique@VCPUInfoDelegate@@$$V@std@@YA?AV?$unique_ptr@VCPUInfoDelegate@@U?$default_delete@VCPUInfoDelegate@@@std@@@0@XZ 00419b78     Main.obj
 0002:00001b78       __unwindtable$??$make_unique@VGPUInfoDelegate@@$$V@std@@YA?AV?$unique_ptr@VGPUInfoDelegate@@U?$default_delete@VGPUInfoDelegate@@@std@@@0@XZ 00419b78     Main.obj
 0002:00001b78       __unwindtable$??$make_unique@VRAMInfoDelegate@@$$V@std@@YA?AV?$unique_ptr@VRAMInfoDelegate@@U?$default_delete@VRAMInfoDelegate@@@std@@@0@XZ 00419b78     Main.obj
 0002:00001b78       __unwindtable$??$make_unique@VMotherboardInfoDelegate@@$$V@std@@YA?AV?$unique_ptr@VMotherboardInfoDelegate@@U?$default_delete@VMotherboardInfoDelegate@@@std@@@0@XZ 00419b78     Main.obj
 0002:00001b80       __ehfuncinfo$??1?$function@$$A6A?AV?$basic_string@DU?$char_traits@D@std@@V?$allocator@D@2@@std@@ABV12@@Z@std@@QAE@XZ 00419b80     systeminfo.obj
 0002:00001b80       __ehfuncinfo$??1sentry@?$basic_ostream@DU?$char_traits@D@std@@@std@@QAE@XZ 00419b80     Main.obj
 0002:00001ba4       __unwindtable$??1?$function@$$A6A?AV?$basic_string@DU?$char_traits@D@std@@V?$allocator@D@2@@std@@ABV12@@Z@std@@QAE@XZ 00419ba4     systeminfo.obj
 0002:00001ba4       __unwindtable$??1sentry@?$basic_ostream@DU?$char_traits@D@std@@@std@@QAE@XZ 00419ba4     Main.obj
 0002:00001bac       __ehfuncinfo$??1_Fac_node@std@@QAE@XZ 00419bac     msvcprt:locale0_implib.obj
 0002:00001bac       __ehfuncinfo$??1_Sentry_base@?$basic_ostream@DU?$char_traits@D@std@@@std@@QAE@XZ 00419bac     Main.obj
 0002:00001bac       __ehfuncinfo$??1_Sentry_base@?$basic_istream@DU?$char_traits@D@std@@@std@@QAE@XZ 00419bac     systeminfo.obj
 0002:00001bac       __ehfuncinfo$??4?$basic_string@DU?$char_traits@D@std@@V?$allocator@D@2@@std@@QAEAAV01@$$QAV01@@Z 00419bac     systeminfo.obj
 0002:00001bac       __ehfuncinfo$??1?$basic_filebuf@DU?$char_traits@D@std@@@std@@UAE@XZ 00419bac     systeminfo.obj
 0002:00001bac       __ehfuncinfo$??1locale@std@@QAE@XZ 00419bac     systeminfo.obj
 0002:00001bd0       __ehfuncinfo$??0CPUInfo@@QAE@ABV?$vector@V?$basic_string@DU?$char_traits@D@std@@V?$allocator@D@2@@std@@V?$allocator@V?$basic_string@DU?$char_traits@D@std@@V?$allocator@D@2@@std@@@2@@std@@H@Z 00419bd0     systeminfo.obj
 0002:00001bf8       __unwindtable$??0CPUInfo@@QAE@ABV?$vector@V?$basic_string@DU?$char_traits@D@std@@V?$allocator@D@2@@std@@V?$allocator@V?$basic_string@DU?$char_traits@D@std@@V?$allocator@D@2@@std@@@2@@std@@H@Z 00419bf8     systeminfo.obj
 0002:00001c70       __ehfuncinfo$?getArchitecture@CPUInfo@@ABE?AV?$basic_string@DU?$char_traits@D@std@@V?$allocator@D@2@@std@@AAV23@@Z 00419c70     systeminfo.obj
 0002:00001c94       __unwindtable$?getArchitecture@CPUInfo@@ABE?AV?$basic_string@DU?$char_traits@D@std@@V?$allocator@D@2@@std@@AAV23@@Z 00419c94     systeminfo.obj
 0002:00001ca4       __tryblocktable$?getArchitecture@CPUInfo@@ABE?AV?$basic_string@DU?$char_traits@D@std@@V?$allocator@D@2@@std@@AAV23@@Z 00419ca4     systeminfo.obj
 0002:00001cb8       __catchsym$?getArchitecture@CPUInfo@@ABE?AV?$basic_string@DU?$char_traits@D@std@@V?$allocator@D@2@@std@@AAV23@@Z$84 00419cb8     systeminfo.obj
 0002:00001cc8       __ehfuncinfo$??0CPUInfoDelegate@@QAE@XZ 00419cc8     systeminfo.obj
 0002:00001cf0       __unwindtable$??0CPUInfoDelegate@@QAE@XZ 00419cf0     systeminfo.obj
 0002:00001d30       __ehfuncinfo$??0GPUInfo@@QAE@ABV?$vector@V?$basic_string@DU?$char_traits@D@std@@V?$allocator@D@2@@std@@V?$allocator@V?$basic_string@DU?$char_traits@D@std@@V?$allocator@D@2@@std@@@2@@std@@H@Z 00419d30     systeminfo.obj
 0002:00001d54       __tryblocktable$??0GPUInfo@@QAE@ABV?$vector@V?$basic_string@DU?$char_traits@D@std@@V?$allocator@D@2@@std@@V?$allocator@V?$basic_string@DU?$char_traits@D@std@@V?$allocator@D@2@@std@@@2@@std@@H@Z 00419d54     systeminfo.obj
 0002:00001d68       __unwindtable$??0GPUInfo@@QAE@ABV?$vector@V?$basic_string@DU?$char_traits@D@std@@V?$allocator@D@2@@std@@V?$allocator@V?$basic_string@DU?$char_traits@D@std@@V?$allocator@D@2@@std@@@2@@std@@H@Z 00419d68     systeminfo.obj
 0002:00001e58       __catchsym$??0GPUInfo@@QAE@ABV?$vector@V?$basic_string@DU?$char_traits@D@std@@V?$allocator@D@2@@std@@V?$allocator@V?$basic_string@DU?$char_traits@D@std@@V?$allocator@D@2@@std@@@2@@std@@H@Z$1699 00419e58     systeminfo.obj
 0002:00001e68       __ehfuncinfo$?getVideoArchitecture@GPUInfo@@ABE?AV?$basic_string@DU?$char_traits@D@std@@V?$allocator@D@2@@std@@ABV23@@Z 00419e68     systeminfo.obj
 0002:00001e8c       __unwindtable$?getVideoArchitecture@GPUInfo@@ABE?AV?$basic_string@DU?$char_traits@D@std@@V?$allocator@D@2@@std@@ABV23@@Z 00419e8c     systeminfo.obj
 0002:00001e9c       __tryblocktable$?getVideoArchitecture@GPUInfo@@ABE?AV?$basic_string@DU?$char_traits@D@std@@V?$allocator@D@2@@std@@ABV23@@Z 00419e9c     systeminfo.obj
 0002:00001eb0       __catchsym$?getVideoArchitecture@GPUInfo@@ABE?AV?$basic_string@DU?$char_traits@D@std@@V?$allocator@D@2@@std@@ABV23@@Z$32 00419eb0     systeminfo.obj
 0002:00001ec0       __ehfuncinfo$?getVideoMemoryType@GPUInfo@@ABE?AV?$basic_string@DU?$char_traits@D@std@@V?$allocator@D@2@@std@@ABV23@@Z 00419ec0     systeminfo.obj
 0002:00001ee4       __unwindtable$?getVideoMemoryType@GPUInfo@@ABE?AV?$basic_string@DU?$char_traits@D@std@@V?$allocator@D@2@@std@@ABV23@@Z 00419ee4     systeminfo.obj
 0002:00001ef4       __tryblocktable$?getVideoMemoryType@GPUInfo@@ABE?AV?$basic_string@DU?$char_traits@D@std@@V?$allocator@D@2@@std@@ABV23@@Z 00419ef4     systeminfo.obj
 0002:00001f08       __catchsym$?getVideoMemoryType@GPUInfo@@ABE?AV?$basic_string@DU?$char_traits@D@std@@V?$allocator@D@2@@std@@ABV23@@Z$32 00419f08     systeminfo.obj
 0002:00001f18       __ehfuncinfo$??0GPUInfoDelegate@@QAE@XZ 00419f18     systeminfo.obj
 0002:00001f40       __unwindtable$??0GPUInfoDelegate@@QAE@XZ 00419f40     systeminfo.obj
 0002:00001f80       __ehfuncinfo$??0MotherboardInfo@@QAE@ABV?$vector@V?$basic_string@DU?$char_traits@D@std@@V?$allocator@D@2@@std@@V?$allocator@V?$basic_string@DU?$char_traits@D@std@@V?$allocator@D@2@@std@@@2@@std@@H@Z 00419f80     systeminfo.obj
 0002:00001fa8       __unwindtable$??0MotherboardInfo@@QAE@ABV?$vector@V?$basic_string@DU?$char_traits@D@std@@V?$allocator@D@2@@std@@V?$allocator@V?$basic_string@DU?$char_traits@D@std@@V?$allocator@D@2@@std@@@2@@std@@H@Z 00419fa8     systeminfo.obj
 0002:00001ff0       __ehfuncinfo$?determineChipset@MotherboardInfo@@AAEXXZ 00419ff0     systeminfo.obj
 0002:00002014       __unwindtable$?determineChipset@MotherboardInfo@@AAEXXZ 0041a014     systeminfo.obj
 0002:00002040       __ehfuncinfo$??0MotherboardInfoDelegate@@QAE@XZ 0041a040     systeminfo.obj
 0002:00002068       __unwindtable$??0MotherboardInfoDelegate@@QAE@XZ 0041a068     systeminfo.obj
 0002:000020a8       __ehfuncinfo$??0OSInfo@@QAE@ABV?$vector@V?$basic_string@DU?$char_traits@D@std@@V?$allocator@D@2@@std@@V?$allocator@V?$basic_string@DU?$char_traits@D@std@@V?$allocator@D@2@@std@@@2@@std@@H@Z 0041a0a8     systeminfo.obj
 0002:000020cc       __tryblocktable$??0OSInfo@@QAE@ABV?$vector@V?$basic_string@DU?$char_traits@D@std@@V?$allocator@D@2@@std@@V?$allocator@V?$basic_string@DU?$char_traits@D@std@@V?$allocator@D@2@@std@@@2@@std@@H@Z 0041a0cc     systeminfo.obj
 0002:00002108       __unwindtable$??0OSInfo@@QAE@ABV?$vector@V?$basic_string@DU?$char_traits@D@std@@V?$allocator@D@2@@std@@V?$allocator@V?$basic_string@DU?$char_traits@D@std@@V?$allocator@D@2@@std@@@2@@std@@H@Z 0041a108     systeminfo.obj
 0002:00002280       __catchsym$??0OSInfo@@QAE@ABV?$vector@V?$basic_string@DU?$char_traits@D@std@@V?$allocator@D@2@@std@@V?$allocator@V?$basic_string@DU?$char_traits@D@std@@V?$allocator@D@2@@std@@@2@@std@@H@Z$1825 0041a280     systeminfo.obj
 0002:00002290       __catchsym$??0OSInfo@@QAE@ABV?$vector@V?$basic_string@DU?$char_traits@D@std@@V?$allocator@D@2@@std@@V?$allocator@V?$basic_string@DU?$char_traits@D@std@@V?$allocator@D@2@@std@@@2@@std@@H@Z$1826 0041a290     systeminfo.obj
 0002:000022a0       __catchsym$??0OSInfo@@QAE@ABV?$vector@V?$basic_string@DU?$char_traits@D@std@@V?$allocator@D@2@@std@@V?$allocator@V?$basic_string@DU?$char_traits@D@std@@V?$allocator@D@2@@std@@@2@@std@@H@Z$1827 0041a2a0     systeminfo.obj
 0002:000022b0       __ehfuncinfo$??0OSInfoDelegate@@QAE@XZ 0041a2b0     systeminfo.obj
 0002:000022d8       __unwindtable$??0OSInfoDelegate@@QAE@XZ 0041a2d8     systeminfo.obj
 0002:00002318       __ehfuncinfo$??0RAMInfo@@QAE@ABV?$vector@V?$basic_string@DU?$char_traits@D@std@@V?$allocator@D@2@@std@@V?$allocator@V?$basic_string@DU?$char_traits@D@std@@V?$allocator@D@2@@std@@@2@@std@@H@Z 0041a318     systeminfo.obj
 0002:0000233c       __tryblocktable$??0RAMInfo@@QAE@ABV?$vector@V?$basic_string@DU?$char_traits@D@std@@V?$allocator@D@2@@std@@V?$allocator@V?$basic_string@DU?$char_traits@D@std@@V?$allocator@D@2@@std@@@2@@std@@H@Z 0041a33c     systeminfo.obj
 0002:00002350       __unwindtable$??0RAMInfo@@QAE@ABV?$vector@V?$basic_string@DU?$char_traits@D@std@@V?$allocator@D@2@@std@@V?$allocator@V?$basic_string@DU?$char_traits@D@std@@V?$allocator@D@2@@std@@@2@@std@@H@Z 0041a350     systeminfo.obj
 0002:00002438       __catchsym$??0RAMInfo@@QAE@ABV?$vector@V?$basic_string@DU?$char_traits@D@std@@V?$allocator@D@2@@std@@V?$allocator@V?$basic_string@DU?$char_traits@D@std@@V?$allocator@D@2@@std@@@2@@std@@H@Z$1681 0041a438     systeminfo.obj
 0002:00002448       __ehfuncinfo$?getMemoryType@RAMInfo@@ABE?AV?$basic_string@DU?$char_traits@D@std@@V?$allocator@D@2@@std@@ABV23@@Z 0041a448     systeminfo.obj
 0002:0000246c       __unwindtable$?getMemoryType@RAMInfo@@ABE?AV?$basic_string@DU?$char_traits@D@std@@V?$allocator@D@2@@std@@ABV23@@Z 0041a46c     systeminfo.obj
 0002:0000247c       __tryblocktable$?getMemoryType@RAMInfo@@ABE?AV?$basic_string@DU?$char_traits@D@std@@V?$allocator@D@2@@std@@ABV23@@Z 0041a47c     systeminfo.obj
 0002:00002490       __catchsym$?getMemoryType@RAMInfo@@ABE?AV?$basic_string@DU?$char_traits@D@std@@V?$allocator@D@2@@std@@ABV23@@Z$32 0041a490     systeminfo.obj
 0002:000024a0       __ehfuncinfo$?getFormFactor@RAMInfo@@ABE?AV?$basic_string@DU?$char_traits@D@std@@V?$allocator@D@2@@std@@ABV23@@Z 0041a4a0     systeminfo.obj
 0002:000024c4       __unwindtable$?getFormFactor@RAMInfo@@ABE?AV?$basic_string@DU?$char_traits@D@std@@V?$allocator@D@2@@std@@ABV23@@Z 0041a4c4     systeminfo.obj
 0002:000024d4       __tryblocktable$?getFormFactor@RAMInfo@@ABE?AV?$basic_string@DU?$char_traits@D@std@@V?$allocator@D@2@@std@@ABV23@@Z 0041a4d4     systeminfo.obj
 0002:000024e8       __catchsym$?getFormFactor@RAMInfo@@ABE?AV?$basic_string@DU?$char_traits@D@std@@V?$allocator@D@2@@std@@ABV23@@Z$32 0041a4e8     systeminfo.obj
 0002:000024f8       __ehfuncinfo$??0RAMInfoDelegate@@QAE@XZ 0041a4f8     systeminfo.obj
 0002:00002520       __unwindtable$??0RAMInfoDelegate@@QAE@XZ 0041a520     systeminfo.obj
 0002:00002560       __ehfuncinfo$??0SystemCommand@@QAE@V?$initializer_list@V?$basic_string@DU?$char_traits@D@std@@V?$allocator@D@2@@std@@@std@@@Z 0041a560     systeminfo.obj
 0002:00002584       __unwindtable$??0SystemCommand@@QAE@V?$initializer_list@V?$basic_string@DU?$char_traits@D@std@@V?$allocator@D@2@@std@@@std@@@Z 0041a584     systeminfo.obj
 0002:0000258c       __ehfuncinfo$?stripAllFromString@SystemCommand@@AAE?AV?$basic_string@DU?$char_traits@D@std@@V?$allocator@D@2@@std@@ABV23@0@Z 0041a58c     systeminfo.obj
 0002:000025b0       __unwindtable$?stripAllFromString@SystemCommand@@AAE?AV?$basic_string@DU?$char_traits@D@std@@V?$allocator@D@2@@std@@ABV23@0@Z 0041a5b0     systeminfo.obj
 0002:000025c0       __ehfuncinfo$?stripFromString@SystemCommand@@AAE?AV?$basic_string@DU?$char_traits@D@std@@V?$allocator@D@2@@std@@ABV23@0@Z 0041a5c0     systeminfo.obj
 0002:000025e4       __unwindtable$?stripFromString@SystemCommand@@AAE?AV?$basic_string@DU?$char_traits@D@std@@V?$allocator@D@2@@std@@ABV23@0@Z 0041a5e4     systeminfo.obj
 0002:00002604       __ehfuncinfo$?stripPipeFromCommand@SystemCommand@@AAEXXZ 0041a604     systeminfo.obj
 0002:00002628       __unwindtable$?stripPipeFromCommand@SystemCommand@@AAEXXZ 0041a628     systeminfo.obj
 0002:00002648       __ehfuncinfo$?systemCommandLaunch@SystemCommand@@AAEX_N@Z 0041a648     systeminfo.obj
 0002:0000266c       __unwindtable$?systemCommandLaunch@SystemCommand@@AAEX_N@Z 0041a66c     systeminfo.obj
 0002:00002694       __ehfuncinfo$??R<lambda_787d45c283701cc870e4fc26d5464600>@@QBE?AV?$basic_string@DU?$char_traits@D@std@@V?$allocator@D@2@@std@@ABV12@@Z 0041a694     systeminfo.obj
 0002:000026b8       __unwindtable$??R<lambda_787d45c283701cc870e4fc26d5464600>@@QBE?AV?$basic_string@DU?$char_traits@D@std@@V?$allocator@D@2@@std@@ABV12@@Z 0041a6b8     systeminfo.obj
 0002:000026f0       __ehfuncinfo$??0?$vector@VRAMInfo@@V?$allocator@VRAMInfo@@@std@@@std@@QAE@ABV01@@Z 0041a6f0     systeminfo.obj
 0002:00002714       __unwindtable$??0?$vector@VRAMInfo@@V?$allocator@VRAMInfo@@@std@@@std@@QAE@ABV01@@Z 0041a714     systeminfo.obj
 0002:00002724       __tryblocktable$??0?$vector@VRAMInfo@@V?$allocator@VRAMInfo@@@std@@@std@@QAE@ABV01@@Z 0041a724     systeminfo.obj
 0002:00002738       __catchsym$??0?$vector@VRAMInfo@@V?$allocator@VRAMInfo@@@std@@@std@@QAE@ABV01@@Z$67 0041a738     systeminfo.obj
 0002:00002748       __ehfuncinfo$??0?$vector@VOSInfo@@V?$allocator@VOSInfo@@@std@@@std@@QAE@ABV01@@Z 0041a748     systeminfo.obj
 0002:0000276c       __unwindtable$??0?$vector@VOSInfo@@V?$allocator@VOSInfo@@@std@@@std@@QAE@ABV01@@Z 0041a76c     systeminfo.obj
 0002:0000277c       __tryblocktable$??0?$vector@VOSInfo@@V?$allocator@VOSInfo@@@std@@@std@@QAE@ABV01@@Z 0041a77c     systeminfo.obj
 0002:00002790       __catchsym$??0?$vector@VOSInfo@@V?$allocator@VOSInfo@@@std@@@std@@QAE@ABV01@@Z$67 0041a790     systeminfo.obj
 0002:000027a0       __ehfuncinfo$??0?$vector@VMotherboardInfo@@V?$allocator@VMotherboardInfo@@@std@@@std@@QAE@ABV01@@Z 0041a7a0     systeminfo.obj
 0002:000027c4       __unwindtable$??0?$vector@VMotherboardInfo@@V?$allocator@VMotherboardInfo@@@std@@@std@@QAE@ABV01@@Z 0041a7c4     systeminfo.obj
 0002:000027d4       __tryblocktable$??0?$vector@VMotherboardInfo@@V?$allocator@VMotherboardInfo@@@std@@@std@@QAE@ABV01@@Z 0041a7d4     systeminfo.obj
 0002:000027e8       __catchsym$??0?$vector@VMotherboardInfo@@V?$allocator@VMotherboardInfo@@@std@@@std@@QAE@ABV01@@Z$67 0041a7e8     systeminfo.obj
 0002:000027f8       __ehfuncinfo$??0?$vector@VGPUInfo@@V?$allocator@VGPUInfo@@@std@@@std@@QAE@ABV01@@Z 0041a7f8     systeminfo.obj
 0002:0000281c       __unwindtable$??0?$vector@VGPUInfo@@V?$allocator@VGPUInfo@@@std@@@std@@QAE@ABV01@@Z 0041a81c     systeminfo.obj
 0002:0000282c       __tryblocktable$??0?$vector@VGPUInfo@@V?$allocator@VGPUInfo@@@std@@@std@@QAE@ABV01@@Z 0041a82c     systeminfo.obj
 0002:00002840       __catchsym$??0?$vector@VGPUInfo@@V?$allocator@VGPUInfo@@@std@@@std@@QAE@ABV01@@Z$67 0041a840     systeminfo.obj
 0002:00002850       __ehfuncinfo$??0?$vector@VCPUInfo@@V?$allocator@VCPUInfo@@@std@@@std@@QAE@ABV01@@Z 0041a850     systeminfo.obj
 0002:00002874       __unwindtable$??0?$vector@VCPUInfo@@V?$allocator@VCPUInfo@@@std@@@std@@QAE@ABV01@@Z 0041a874     systeminfo.obj
 0002:00002884       __tryblocktable$??0?$vector@VCPUInfo@@V?$allocator@VCPUInfo@@@std@@@std@@QAE@ABV01@@Z 0041a884     systeminfo.obj
 0002:00002898       __catchsym$??0?$vector@VCPUInfo@@V?$allocator@VCPUInfo@@@std@@@std@@QAE@ABV01@@Z$67 0041a898     systeminfo.obj
 0002:000028a8       __ehfuncinfo$?push_back@?$vector@V?$basic_string@DU?$char_traits@D@std@@V?$allocator@D@2@@std@@V?$allocator@V?$basic_string@DU?$char_traits@D@std@@V?$allocator@D@2@@std@@@2@@std@@QAEXABV?$basic_string@DU?$char_traits@D@std@@V?$allocator@D@2@@2@@Z 0041a8a8     systeminfo.obj
 0002:000028cc       __unwindtable$?push_back@?$vector@V?$basic_string@DU?$char_traits@D@std@@V?$allocator@D@2@@std@@V?$allocator@V?$basic_string@DU?$char_traits@D@std@@V?$allocator@D@2@@std@@@2@@std@@QAEXABV?$basic_string@DU?$char_traits@D@std@@V?$allocator@D@2@@2@@Z 0041a8cc     systeminfo.obj
 0002:000028dc       __ehfuncinfo$??0?$vector@V?$basic_string@DU?$char_traits@D@std@@V?$allocator@D@2@@std@@V?$allocator@V?$basic_string@DU?$char_traits@D@std@@V?$allocator@D@2@@std@@@2@@std@@QAE@ABV01@@Z 0041a8dc     systeminfo.obj
 0002:00002900       __unwindtable$??0?$vector@V?$basic_string@DU?$char_traits@D@std@@V?$allocator@D@2@@std@@V?$allocator@V?$basic_string@DU?$char_traits@D@std@@V?$allocator@D@2@@std@@@2@@std@@QAE@ABV01@@Z 0041a900     systeminfo.obj
 0002:00002910       __tryblocktable$??0?$vector@V?$basic_string@DU?$char_traits@D@std@@V?$allocator@D@2@@std@@V?$allocator@V?$basic_string@DU?$char_traits@D@std@@V?$allocator@D@2@@std@@@2@@std@@QAE@ABV01@@Z 0041a910     systeminfo.obj
 0002:00002924       __catchsym$??0?$vector@V?$basic_string@DU?$char_traits@D@std@@V?$allocator@D@2@@std@@V?$allocator@V?$basic_string@DU?$char_traits@D@std@@V?$allocator@D@2@@std@@@2@@std@@QAE@ABV01@@Z$67 0041a924     systeminfo.obj
 0002:00002934       __ehfuncinfo$??0?$basic_ifstream@DU?$char_traits@D@std@@@std@@QAE@XZ 0041a934     systeminfo.obj
 0002:00002958       __unwindtable$??0?$basic_ifstream@DU?$char_traits@D@std@@@std@@QAE@XZ 0041a958     systeminfo.obj
 0002:00002970       __ehfuncinfo$?uflow@?$basic_filebuf@DU?$char_traits@D@std@@@std@@MAEHXZ 0041a970     systeminfo.obj
 0002:00002994       __unwindtable$?uflow@?$basic_filebuf@DU?$char_traits@D@std@@@std@@MAEHXZ 0041a994     systeminfo.obj
 0002:0000299c       __ehfuncinfo$?overflow@?$basic_filebuf@DU?$char_traits@D@std@@@std@@MAEHH@Z 0041a99c     systeminfo.obj
 0002:000029c0       __unwindtable$?overflow@?$basic_filebuf@DU?$char_traits@D@std@@@std@@MAEHH@Z 0041a9c0     systeminfo.obj
 0002:000029c8       __ehfuncinfo$?_Endwrite@?$basic_filebuf@DU?$char_traits@D@std@@@std@@IAE_NXZ 0041a9c8     systeminfo.obj
 0002:000029ec       __unwindtable$?_Endwrite@?$basic_filebuf@DU?$char_traits@D@std@@@std@@IAE_NXZ 0041a9ec     systeminfo.obj
 0002:000029f4       __ehfuncinfo$??$use_facet@V?$codecvt@DDU_Mbstatet@@@std@@@std@@YAABV?$codecvt@DDU_Mbstatet@@@0@ABVlocale@0@@Z 0041a9f4     systeminfo.obj
 0002:000029f4       __ehfuncinfo$??$use_facet@V?$ctype@D@std@@@std@@YAABV?$ctype@D@0@ABVlocale@0@@Z 0041a9f4     systeminfo.obj
 0002:00002a18       __unwindtable$??$use_facet@V?$codecvt@DDU_Mbstatet@@@std@@@std@@YAABV?$codecvt@DDU_Mbstatet@@@0@ABVlocale@0@@Z 0041aa18     systeminfo.obj
 0002:00002a18       __unwindtable$??$use_facet@V?$ctype@D@std@@@std@@YAABV?$ctype@D@0@ABVlocale@0@@Z 0041aa18     systeminfo.obj
 0002:00002a20       __ehfuncinfo$??$?6DU?$char_traits@D@std@@V?$allocator@D@1@@std@@YAAAV?$basic_ostream@DU?$char_traits@D@std@@@0@AAV10@ABV?$basic_string@DU?$char_traits@D@std@@V?$allocator@D@2@@0@@Z 0041aa20     systeminfo.obj
 0002:00002a44       __unwindtable$??$?6DU?$char_traits@D@std@@V?$allocator@D@1@@std@@YAAAV?$basic_ostream@DU?$char_traits@D@std@@@0@AAV10@ABV?$basic_string@DU?$char_traits@D@std@@V?$allocator@D@2@@0@@Z 0041aa44     systeminfo.obj
 0002:00002a74       __tryblocktable$??$?6DU?$char_traits@D@std@@V?$allocator@D@1@@std@@YAAAV?$basic_ostream@DU?$char_traits@D@std@@@0@AAV10@ABV?$basic_string@DU?$char_traits@D@std@@V?$allocator@D@2@@0@@Z 0041aa74     systeminfo.obj
 0002:00002a88       __catchsym$??$?6DU?$char_traits@D@std@@V?$allocator@D@1@@std@@YAAAV?$basic_ostream@DU?$char_traits@D@std@@@0@AAV10@ABV?$basic_string@DU?$char_traits@D@std@@V?$allocator@D@2@@0@@Z$17 0041aa88     systeminfo.obj
 0002:00002a98       __ehfuncinfo$??$?HDU?$char_traits@D@std@@V?$allocator@D@1@@std@@YA?AV?$basic_string@DU?$char_traits@D@std@@V?$allocator@D@2@@0@ABV10@PBD@Z 0041aa98     systeminfo.obj
 0002:00002abc       __unwindtable$??$?HDU?$char_traits@D@std@@V?$allocator@D@1@@std@@YA?AV?$basic_string@DU?$char_traits@D@std@@V?$allocator@D@2@@0@ABV10@PBD@Z 0041aabc     systeminfo.obj
 0002:00002ac4       __ehfuncinfo$??$toString@_J@RAMInfo@@ABE?AV?$basic_string@DU?$char_traits@D@std@@V?$allocator@D@2@@std@@AB_J@Z 0041aac4     systeminfo.obj
 0002:00002ac4       __ehfuncinfo$??$toString@_J@OSInfo@@ABE?AV?$basic_string@DU?$char_traits@D@std@@V?$allocator@D@2@@std@@AB_J@Z 0041aac4     systeminfo.obj
 0002:00002ac4       __ehfuncinfo$??$toString@_J@GPUInfo@@ABE?AV?$basic_string@DU?$char_traits@D@std@@V?$allocator@D@2@@std@@AB_J@Z 0041aac4     systeminfo.obj
 0002:00002ae8       __unwindtable$??$toString@_J@GPUInfo@@ABE?AV?$basic_string@DU?$char_traits@D@std@@V?$allocator@D@2@@std@@AB_J@Z 0041aae8     systeminfo.obj
 0002:00002ae8       __unwindtable$??$toString@_J@RAMInfo@@ABE?AV?$basic_string@DU?$char_traits@D@std@@V?$allocator@D@2@@std@@AB_J@Z 0041aae8     systeminfo.obj
 0002:00002ae8       __unwindtable$??$toString@_J@OSInfo@@ABE?AV?$basic_string@DU?$char_traits@D@std@@V?$allocator@D@2@@std@@AB_J@Z 0041aae8     systeminfo.obj
 0002:00002b10       __ehfuncinfo$??$_Construct@PBV?$basic_string@DU?$char_traits@D@std@@V?$allocator@D@2@@std@@@?$vector@V?$basic_string@DU?$char_traits@D@std@@V?$allocator@D@2@@std@@V?$allocator@V?$basic_string@DU?$char_traits@D@std@@V?$allocator@D@2@@std@@@2@@std@@QAEXPBV?$basic_string@DU?$char_traits@D@std@@V?$allocator@D@2@@1@0Uforward_iterator_tag@1@@Z 0041ab10     systeminfo.obj
 0002:00002b34       __unwindtable$??$_Construct@PBV?$basic_string@DU?$char_traits@D@std@@V?$allocator@D@2@@std@@@?$vector@V?$basic_string@DU?$char_traits@D@std@@V?$allocator@D@2@@std@@V?$allocator@V?$basic_string@DU?$char_traits@D@std@@V?$allocator@D@2@@std@@@2@@std@@QAEXPBV?$basic_string@DU?$char_traits@D@std@@V?$allocator@D@2@@1@0Uforward_iterator_tag@1@@Z 0041ab34     systeminfo.obj
 0002:00002b44       __tryblocktable$??$_Construct@PBV?$basic_string@DU?$char_traits@D@std@@V?$allocator@D@2@@std@@@?$vector@V?$basic_string@DU?$char_traits@D@std@@V?$allocator@D@2@@std@@V?$allocator@V?$basic_string@DU?$char_traits@D@std@@V?$allocator@D@2@@std@@@2@@std@@QAEXPBV?$basic_string@DU?$char_traits@D@std@@V?$allocator@D@2@@1@0Uforward_iterator_tag@1@@Z 0041ab44     systeminfo.obj
 0002:00002b58       __catchsym$??$_Construct@PBV?$basic_string@DU?$char_traits@D@std@@V?$allocator@D@2@@std@@@?$vector@V?$basic_string@DU?$char_traits@D@std@@V?$allocator@D@2@@std@@V?$allocator@V?$basic_string@DU?$char_traits@D@std@@V?$allocator@D@2@@std@@@2@@std@@QAEXPBV?$basic_string@DU?$char_traits@D@std@@V?$allocator@D@2@@1@0Uforward_iterator_tag@1@@Z$43 0041ab58     systeminfo.obj
 0002:00002b68       __ehfuncinfo$??$?5DU?$char_traits@D@std@@V?$allocator@D@1@@std@@YAAAV?$basic_istream@DU?$char_traits@D@std@@@0@$$QAV10@AAV?$basic_string@DU?$char_traits@D@std@@V?$allocator@D@2@@0@@Z 0041ab68     systeminfo.obj
 0002:00002b8c       __unwindtable$??$?5DU?$char_traits@D@std@@V?$allocator@D@1@@std@@YAAAV?$basic_istream@DU?$char_traits@D@std@@@0@$$QAV10@AAV?$basic_string@DU?$char_traits@D@std@@V?$allocator@D@2@@0@@Z 0041ab8c     systeminfo.obj
 0002:00002bc4       __tryblocktable$??$?5DU?$char_traits@D@std@@V?$allocator@D@1@@std@@YAAAV?$basic_istream@DU?$char_traits@D@std@@@0@$$QAV10@AAV?$basic_string@DU?$char_traits@D@std@@V?$allocator@D@2@@0@@Z 0041abc4     systeminfo.obj
 0002:00002bd8       __catchsym$??$?5DU?$char_traits@D@std@@V?$allocator@D@1@@std@@YAAAV?$basic_istream@DU?$char_traits@D@std@@@0@$$QAV10@AAV?$basic_string@DU?$char_traits@D@std@@V?$allocator@D@2@@0@@Z$89 0041abd8     systeminfo.obj
 0002:00002be8       __ehfuncinfo$??1sentry@?$basic_istream@DU?$char_traits@D@std@@@std@@QAE@XZ 0041abe8     systeminfo.obj
 0002:00002c0c       __unwindtable$??1sentry@?$basic_istream@DU?$char_traits@D@std@@@std@@QAE@XZ 0041ac0c     systeminfo.obj
 0002:00002c14       __ehfuncinfo$??$_Uninitialized_copy_al_unchecked1@PBVRAMInfo@@PAV1@V?$allocator@VRAMInfo@@@std@@@std@@YAPAVRAMInfo@@PBV1@0PAV1@AAU?$_Wrap_alloc@V?$allocator@VRAMInfo@@@std@@@0@U_General_ptr_iterator_tag@0@U_Any_tag@0@@Z 0041ac14     systeminfo.obj
 0002:00002c38       __unwindtable$??$_Uninitialized_copy_al_unchecked1@PBVRAMInfo@@PAV1@V?$allocator@VRAMInfo@@@std@@@std@@YAPAVRAMInfo@@PBV1@0PAV1@AAU?$_Wrap_alloc@V?$allocator@VRAMInfo@@@std@@@0@U_General_ptr_iterator_tag@0@U_Any_tag@0@@Z 0041ac38     systeminfo.obj
 0002:00002c50       __tryblocktable$??$_Uninitialized_copy_al_unchecked1@PBVRAMInfo@@PAV1@V?$allocator@VRAMInfo@@@std@@@std@@YAPAVRAMInfo@@PBV1@0PAV1@AAU?$_Wrap_alloc@V?$allocator@VRAMInfo@@@std@@@0@U_General_ptr_iterator_tag@0@U_Any_tag@0@@Z 0041ac50     systeminfo.obj
 0002:00002c64       __catchsym$??$_Uninitialized_copy_al_unchecked1@PBVRAMInfo@@PAV1@V?$allocator@VRAMInfo@@@std@@@std@@YAPAVRAMInfo@@PBV1@0PAV1@AAU?$_Wrap_alloc@V?$allocator@VRAMInfo@@@std@@@0@U_General_ptr_iterator_tag@0@U_Any_tag@0@@Z$6 0041ac64     systeminfo.obj
 0002:00002c74       __ehfuncinfo$??$_Uninitialized_copy_al_unchecked1@PBVOSInfo@@PAV1@V?$allocator@VOSInfo@@@std@@@std@@YAPAVOSInfo@@PBV1@0PAV1@AAU?$_Wrap_alloc@V?$allocator@VOSInfo@@@std@@@0@U_General_ptr_iterator_tag@0@U_Any_tag@0@@Z 0041ac74     systeminfo.obj
 0002:00002c98       __unwindtable$??$_Uninitialized_copy_al_unchecked1@PBVOSInfo@@PAV1@V?$allocator@VOSInfo@@@std@@@std@@YAPAVOSInfo@@PBV1@0PAV1@AAU?$_Wrap_alloc@V?$allocator@VOSInfo@@@std@@@0@U_General_ptr_iterator_tag@0@U_Any_tag@0@@Z 0041ac98     systeminfo.obj
 0002:00002cb0       __tryblocktable$??$_Uninitialized_copy_al_unchecked1@PBVOSInfo@@PAV1@V?$allocator@VOSInfo@@@std@@@std@@YAPAVOSInfo@@PBV1@0PAV1@AAU?$_Wrap_alloc@V?$allocator@VOSInfo@@@std@@@0@U_General_ptr_iterator_tag@0@U_Any_tag@0@@Z 0041acb0     systeminfo.obj
 0002:00002cc4       __catchsym$??$_Uninitialized_copy_al_unchecked1@PBVOSInfo@@PAV1@V?$allocator@VOSInfo@@@std@@@std@@YAPAVOSInfo@@PBV1@0PAV1@AAU?$_Wrap_alloc@V?$allocator@VOSInfo@@@std@@@0@U_General_ptr_iterator_tag@0@U_Any_tag@0@@Z$6 0041acc4     systeminfo.obj
 0002:00002cd4       __ehfuncinfo$??$_Uninitialized_copy_al_unchecked1@PBVMotherboardInfo@@PAV1@V?$allocator@VMotherboardInfo@@@std@@@std@@YAPAVMotherboardInfo@@PBV1@0PAV1@AAU?$_Wrap_alloc@V?$allocator@VMotherboardInfo@@@std@@@0@U_General_ptr_iterator_tag@0@U_Any_tag@0@@Z 0041acd4     systeminfo.obj
 0002:00002cf8       __unwindtable$??$_Uninitialized_copy_al_unchecked1@PBVMotherboardInfo@@PAV1@V?$allocator@VMotherboardInfo@@@std@@@std@@YAPAVMotherboardInfo@@PBV1@0PAV1@AAU?$_Wrap_alloc@V?$allocator@VMotherboardInfo@@@std@@@0@U_General_ptr_iterator_tag@0@U_Any_tag@0@@Z 0041acf8     systeminfo.obj
 0002:00002d10       __tryblocktable$??$_Uninitialized_copy_al_unchecked1@PBVMotherboardInfo@@PAV1@V?$allocator@VMotherboardInfo@@@std@@@std@@YAPAVMotherboardInfo@@PBV1@0PAV1@AAU?$_Wrap_alloc@V?$allocator@VMotherboardInfo@@@std@@@0@U_General_ptr_iterator_tag@0@U_Any_tag@0@@Z 0041ad10     systeminfo.obj
 0002:00002d24       __catchsym$??$_Uninitialized_copy_al_unchecked1@PBVMotherboardInfo@@PAV1@V?$allocator@VMotherboardInfo@@@std@@@std@@YAPAVMotherboardInfo@@PBV1@0PAV1@AAU?$_Wrap_alloc@V?$allocator@VMotherboardInfo@@@std@@@0@U_General_ptr_iterator_tag@0@U_Any_tag@0@@Z$6 0041ad24     systeminfo.obj
 0002:00002d34       __ehfuncinfo$??$_Uninitialized_copy_al_unchecked1@PBVGPUInfo@@PAV1@V?$allocator@VGPUInfo@@@std@@@std@@YAPAVGPUInfo@@PBV1@0PAV1@AAU?$_Wrap_alloc@V?$allocator@VGPUInfo@@@std@@@0@U_General_ptr_iterator_tag@0@U_Any_tag@0@@Z 0041ad34     systeminfo.obj
 0002:00002d58       __unwindtable$??$_Uninitialized_copy_al_unchecked1@PBVGPUInfo@@PAV1@V?$allocator@VGPUInfo@@@std@@@std@@YAPAVGPUInfo@@PBV1@0PAV1@AAU?$_Wrap_alloc@V?$allocator@VGPUInfo@@@std@@@0@U_General_ptr_iterator_tag@0@U_Any_tag@0@@Z 0041ad58     systeminfo.obj
 0002:00002d70       __tryblocktable$??$_Uninitialized_copy_al_unchecked1@PBVGPUInfo@@PAV1@V?$allocator@VGPUInfo@@@std@@@std@@YAPAVGPUInfo@@PBV1@0PAV1@AAU?$_Wrap_alloc@V?$allocator@VGPUInfo@@@std@@@0@U_General_ptr_iterator_tag@0@U_Any_tag@0@@Z 0041ad70     systeminfo.obj
 0002:00002d84       __catchsym$??$_Uninitialized_copy_al_unchecked1@PBVGPUInfo@@PAV1@V?$allocator@VGPUInfo@@@std@@@std@@YAPAVGPUInfo@@PBV1@0PAV1@AAU?$_Wrap_alloc@V?$allocator@VGPUInfo@@@std@@@0@U_General_ptr_iterator_tag@0@U_Any_tag@0@@Z$6 0041ad84     systeminfo.obj
 0002:00002d94       __ehfuncinfo$??$_Uninitialized_copy_al_unchecked1@PBVCPUInfo@@PAV1@V?$allocator@VCPUInfo@@@std@@@std@@YAPAVCPUInfo@@PBV1@0PAV1@AAU?$_Wrap_alloc@V?$allocator@VCPUInfo@@@std@@@0@U_General_ptr_iterator_tag@0@U_Any_tag@0@@Z 0041ad94     systeminfo.obj
 0002:00002db8       __unwindtable$??$_Uninitialized_copy_al_unchecked1@PBVCPUInfo@@PAV1@V?$allocator@VCPUInfo@@@std@@@std@@YAPAVCPUInfo@@PBV1@0PAV1@AAU?$_Wrap_alloc@V?$allocator@VCPUInfo@@@std@@@0@U_General_ptr_iterator_tag@0@U_Any_tag@0@@Z 0041adb8     systeminfo.obj
 0002:00002dd0       __tryblocktable$??$_Uninitialized_copy_al_unchecked1@PBVCPUInfo@@PAV1@V?$allocator@VCPUInfo@@@std@@@std@@YAPAVCPUInfo@@PBV1@0PAV1@AAU?$_Wrap_alloc@V?$allocator@VCPUInfo@@@std@@@0@U_General_ptr_iterator_tag@0@U_Any_tag@0@@Z 0041add0     systeminfo.obj
 0002:00002de4       __catchsym$??$_Uninitialized_copy_al_unchecked1@PBVCPUInfo@@PAV1@V?$allocator@VCPUInfo@@@std@@@std@@YAPAVCPUInfo@@PBV1@0PAV1@AAU?$_Wrap_alloc@V?$allocator@VCPUInfo@@@std@@@0@U_General_ptr_iterator_tag@0@U_Any_tag@0@@Z$6 0041ade4     systeminfo.obj
 0002:00002df4       __ehfuncinfo$??$_Uninitialized_copy_al_unchecked1@PBV?$basic_string@DU?$char_traits@D@std@@V?$allocator@D@2@@std@@PAV12@V?$allocator@V?$basic_string@DU?$char_traits@D@std@@V?$allocator@D@2@@std@@@2@@std@@YAPAV?$basic_string@DU?$char_traits@D@std@@V?$allocator@D@2@@0@PBV10@0PAV10@AAU?$_Wrap_alloc@V?$allocator@V?$basic_string@DU?$char_traits@D@std@@V?$allocator@D@2@@std@@@std@@@0@U_General_ptr_iterator_tag@0@U_Any_tag@0@@Z 0041adf4     systeminfo.obj
 0002:00002e18       __unwindtable$??$_Uninitialized_copy_al_unchecked1@PBV?$basic_string@DU?$char_traits@D@std@@V?$allocator@D@2@@std@@PAV12@V?$allocator@V?$basic_string@DU?$char_traits@D@std@@V?$allocator@D@2@@std@@@2@@std@@YAPAV?$basic_string@DU?$char_traits@D@std@@V?$allocator@D@2@@0@PBV10@0PAV10@AAU?$_Wrap_alloc@V?$allocator@V?$basic_string@DU?$char_traits@D@std@@V?$allocator@D@2@@std@@@std@@@0@U_General_ptr_iterator_tag@0@U_Any_tag@0@@Z 0041ae18     systeminfo.obj
 0002:00002e30       __tryblocktable$??$_Uninitialized_copy_al_unchecked1@PBV?$basic_string@DU?$char_traits@D@std@@V?$allocator@D@2@@std@@PAV12@V?$allocator@V?$basic_string@DU?$char_traits@D@std@@V?$allocator@D@2@@std@@@2@@std@@YAPAV?$basic_string@DU?$char_traits@D@std@@V?$allocator@D@2@@0@PBV10@0PAV10@AAU?$_Wrap_alloc@V?$allocator@V?$basic_string@DU?$char_traits@D@std@@V?$allocator@D@2@@std@@@std@@@0@U_General_ptr_iterator_tag@0@U_Any_tag@0@@Z 0041ae30     systeminfo.obj
 0002:00002e44       __catchsym$??$_Uninitialized_copy_al_unchecked1@PBV?$basic_string@DU?$char_traits@D@std@@V?$allocator@D@2@@std@@PAV12@V?$allocator@V?$basic_string@DU?$char_traits@D@std@@V?$allocator@D@2@@std@@@2@@std@@YAPAV?$basic_string@DU?$char_traits@D@std@@V?$allocator@D@2@@0@PBV10@0PAV10@AAU?$_Wrap_alloc@V?$allocator@V?$basic_string@DU?$char_traits@D@std@@V?$allocator@D@2@@std@@@std@@@0@U_General_ptr_iterator_tag@0@U_Any_tag@0@@Z$37 0041ae44     systeminfo.obj
 0002:00002e54       __ehfuncinfo$??0RAMInfo@@QAE@ABV0@@Z 0041ae54     systeminfo.obj
 0002:00002e78       __unwindtable$??0RAMInfo@@QAE@ABV0@@Z 0041ae78     systeminfo.obj
 0002:00002eb0       __ehfuncinfo$??0OSInfo@@QAE@ABV0@@Z 0041aeb0     systeminfo.obj
 0002:00002ed8       __unwindtable$??0OSInfo@@QAE@ABV0@@Z 0041aed8     systeminfo.obj
 0002:00002f40       __ehfuncinfo$??0MotherboardInfo@@QAE@ABV0@@Z 0041af40     systeminfo.obj
 0002:00002f64       __unwindtable$??0MotherboardInfo@@QAE@ABV0@@Z 0041af64     systeminfo.obj
 0002:00002f88       __ehfuncinfo$??0GPUInfo@@QAE@ABV0@@Z 0041af88     systeminfo.obj
 0002:00002fb0       __unwindtable$??0GPUInfo@@QAE@ABV0@@Z 0041afb0     systeminfo.obj
 0002:00002ff8       __ehfuncinfo$??0CPUInfo@@QAE@ABV0@@Z 0041aff8     systeminfo.obj
 0002:0000301c       __unwindtable$??0CPUInfo@@QAE@ABV0@@Z 0041b01c     systeminfo.obj
 0002:00003048       __sehtable$??_M@YGXPAXIIP6EX0@Z@Z 0041b048     MSVCRT:ehvecdtr.obj
 0002:00003068       __sehtable$?__ArrayUnwind@@YGXPAXIIP6EX0@Z@Z 0041b068     MSVCRT:ehvecdtr.obj
 0002:00003088       __sehtable$___scrt_is_nonwritable_in_current_image 0041b088     MSVCRT:utility.obj
 0002:000030a8       __sehtable$?__scrt_common_main_seh@@YAHXZ 0041b0a8     MSVCRT:exe_winmain.obj
 0002:0000361e       .idata$6                   0041b61e     kernel32:KERNEL32.dll
 0002:0000377e       .idata$6                   0041b77e     user32:USER32.dll
 0002:0000379e       .idata$6                   0041b79e     gdi32:GDI32.dll
 0002:000037ec       .idata$6                   0041b7ec     advapi32:ADVAPI32.dll
 0002:00004386       .idata$6                   0041c386     msvcprt:MSVCP140.dll
 0002:000043a6       .idata$6                   0041c3a6     d3d9:d3d9.dll
 0002:000043c2       .idata$6                   0041c3c2     d3dx9:d3dx9_43.dll
 0002:0000448e       .idata$6                   0041c48e     vcruntime:VCRUNTIME140.dll
 0002:000047c2       .idata$6                   0041c7c2     ucrt:api-ms-win-crt-stdio-l1-1-0.dll
 0002:000047e2       .idata$6                   0041c7e2     ucrt:api-ms-win-crt-runtime-l1-1-0.dll
 0002:00004804       .idata$6                   0041c804     ucrt:api-ms-win-crt-convert-l1-1-0.dll
 0002:00004826       .idata$6                   0041c826     ucrt:api-ms-win-crt-filesystem-l1-1-0.dll
 0002:0000484c       .idata$6                   0041c84c     ucrt:api-ms-win-crt-heap-l1-1-0.dll
 0002:0000486c       .idata$6                   0041c86c     ucrt:api-ms-win-crt-math-l1-1-0.dll
 0002:0000488c       .idata$6                   0041c88c     ucrt:api-ms-win-crt-locale-l1-1-0.dll
 0003:00000480       ?_Fac_head@std@@3PAU_Fac_node@1@A 0041d480     msvcprt:locale0_implib.obj
 0003:00000484       ?_Fac_tidy_reg@std@@3U_Fac_tidy_reg_t@1@B 0041d484     msvcprt:locale0_implib.obj
 0003:00000490       ?module_local_atexit_table@@3U_onexit_table_t@@A 0041d490     MSVCRT:utility.obj
 0003:0000049c       ?module_local_at_quick_exit_table@@3U_onexit_table_t@@A 0041d49c     MSVCRT:utility.obj
 0003:000004a8       ?is_initialized_as_dll@@3_NA 0041d4a8     MSVCRT:utility.obj
 0003:000004b0       _GS_ExceptionRecord        0041d4b0     MSVCRT:gs_report.obj
 0003:00000500       _GS_ContextRecord          0041d500     MSVCRT:gs_report.obj
 0004:00000000       __guard_fids_??__E_Fac_tidy_reg@std@@YAXXZ 0041f000     msvcprt:locale0_implib.obj
 0004:00000004       __guard_fids__             0041f004     msvcprt:locale0_implib.obj
 0004:00000008       __guard_fids__             0041f008     MSVCRT:std_type_info_static.obj
 0004:0000000c       __guard_fids__             0041f00c     MSVCRT:exe_winmain.obj
 0004:00000010       __guard_fids__             0041f010     MSVCRT:exe_winmain.obj
 0004:00000014       __guard_fids__             0041f014     MSVCRT:exe_winmain.obj
 0004:00000018       __guard_fids_?pre_c_initialization@@YAHXZ 0041f018     MSVCRT:exe_winmain.obj
 0004:00000020       __guard_fids__             0041f020     MSVCRT:throw_bad_alloc.obj
 0004:00000028       __guard_fids__             0041f028     MSVCRT:throw_bad_alloc.obj
 0004:00000030       __guard_fids__             0041f030     MSVCRT:throw_bad_alloc.obj
 0004:00000038       __guard_fids__             0041f038     MSVCRT:throw_bad_alloc.obj
 0004:0000003c       __guard_fids__             0041f03c     MSVCRT:throw_bad_alloc.obj
 0004:00000040       __guard_fids__             0041f040     MSVCRT:throw_bad_alloc.obj
 0004:00000044       __guard_fids__             0041f044     MSVCRT:throw_bad_alloc.obj
 0004:00000048       __guard_fids___except_handler4 0041f048     MSVCRT:_chandler4gs_.obj
 0004:0000004c       __guard_fids____scrt_set_unhandled_exception_filter 0041f04c     MSVCRT:utility_desktop.obj
 0004:00000050       __guard_fids__             0041f050     MSVCRT:guard_support.obj
 0005:00000060       $R000000                   00420060     * linker generated manifest res *
