 Warcraft III - External MapHack

 Timestamp is 60900339 (Mon May  3 17:05:45 2021)

 Preferred load address is 00400000

 Start         Length     Name                   Class
 0001:00000000 000013d0H .text$di                CODE
 0001:000013d0 00051a00H .text$mn                CODE
 0001:00052dd0 00001380H .text$x                 CODE
 0001:00054150 0000185cH .text$yd                CODE
 0002:00000000 000004b0H .idata$5                DATA
 0002:000004b0 00000004H .00cfg                  DATA
 0002:000004b4 00000004H .CRT$XCA                DATA
 0002:000004b8 00000004H .CRT$XCAA               DATA
 0002:000004bc 00000004H .CRT$XCL                DATA
 0002:000004c0 0000013cH .CRT$XCU                DATA
 0002:000005fc 00000004H .CRT$XCZ                DATA
 0002:00000600 00000004H .CRT$XIA                DATA
 0002:00000604 00000004H .CRT$XIAA               DATA
 0002:00000608 00000004H .CRT$XIAC               DATA
 0002:0000060c 00000004H .CRT$XIZ                DATA
 0002:00000610 00000004H .CRT$XPA                DATA
 0002:00000614 00000004H .CRT$XPZ                DATA
 0002:00000618 00000004H .CRT$XTA                DATA
 0002:0000061c 00000004H .CRT$XTZ                DATA
 0002:00000620 00009894H .rdata                  DATA
 0002:00009eb4 000005acH .rdata$r                DATA
 0002:0000a460 000000f8H .rdata$sxdata           DATA
 0002:0000a558 000002ecH .rdata$zzzdbg           DATA
 0002:0000a844 00000004H .rtc$IAA                DATA
 0002:0000a848 00000004H .rtc$IZZ                DATA
 0002:0000a84c 00000004H .rtc$TAA                DATA
 0002:0000a850 00000008H .rtc$TZZ                DATA
 0002:0000a858 0000181cH .xdata$x                DATA
 0002:0000c074 00000000H .edata                  DATA
 0002:0000c074 000001a4H .idata$2                DATA
 0002:0000c218 00000014H .idata$3                DATA
 0002:0000c22c 000004b0H .idata$4                DATA
 0002:0000c6dc 000019baH .idata$6                DATA
 0003:00000000 00000058H .data                   DATA
 0003:00000058 00000458H .data$r                 DATA
 0003:000004b0 00000c20H .bss                    DATA
 0004:00000000 00000054H .gfids$y                DATA
 0005:00000000 00000060H .rsrc$01                DATA
 0005:00000060 00000188H .rsrc$02                DATA

  Address         Publics by Value              Rva+Base       Lib:Object

 0000:00000000       ___guard_fids_count        00000000     <absolute>
 0000:00000000       ___guard_longjmp_table     00000000     <absolute>
 0000:00000000       ___guard_longjmp_count     00000000     <absolute>
 0000:00000000       ___guard_iat_table         00000000     <absolute>
 0000:00000000       ___guard_iat_count         00000000     <absolute>
 0000:00000000       ___dynamic_value_reloc_table 00000000     <absolute>
 0000:00000000       ___guard_fids_table        00000000     <absolute>
 0000:0000003e       ___safe_se_handler_count   0000003e     <absolute>
 0000:00000100       ___guard_flags             00000100     <absolute>
 0000:00000000       ___ImageBase               00400000     <linker-defined>
 0001:000013d0       _WinMain@16                004023d0 f   Main.obj
 0001:00001630       ?Render@@YAXXZ             00402630 f   Main.obj
 0001:00001a40       ?DrawEspBox@@YAXUD3DXVECTOR2@@0MK@Z 00402a40 f   Main.obj
 0001:00001c70       ?D3DInit@@YAHPAUHWND__@@@Z 00402c70 f   Main.obj
 0001:00001d30       ?WndProc@@YGJPAUHWND__@@IIJ@Z 00402d30 f   Main.obj
 0001:00001d80       ?GetProcessHandle@@YAPAXXZ 00402d80 f   Main.obj
 0001:00001f00       ___local_stdio_printf_options 00402f00 f i protect.obj
 0001:00001f10       __vsnprintf_l              00402f10 f i protect.obj
 0001:00001f50       _sprintf                   00402f50 f i protect.obj
 0001:00001f70       ?stoi@std@@YAHABV?$basic_string@DU?$char_traits@D@std@@V?$allocator@D@2@@1@PAIH@Z 00402f70 f i protect.obj
 0001:00001ff0       ?to_string@std@@YA?AV?$basic_string@DU?$char_traits@D@std@@V?$allocator@D@2@@1@H@Z 00402ff0 f i protect.obj
 0001:00002010       ?Gen@@YAKV?$basic_string@DU?$char_traits@D@std@@V?$allocator@D@2@@std@@@Z 00403010 f   protect.obj
 0001:00002060       ?KEY@@YA?AV?$basic_string@DU?$char_traits@D@std@@V?$allocator@D@2@@std@@XZ 00403060 f   protect.obj
 0001:000046a0       ?write_to_string@@YAIPAXII0@Z 004056a0 f   protect.obj
 0001:00004750       ?IsValidTime@@YA_NHHH@Z    00405750 f   protect.obj
 0001:00004950       ??1?$unique_ptr@VOSInfoDelegate@@U?$default_delete@VOSInfoDelegate@@@std@@@std@@QAE@XZ 00405950 f i protect.obj
 0001:00004970       ??1?$unique_ptr@VGPUInfoDelegate@@U?$default_delete@VGPUInfoDelegate@@@std@@@std@@QAE@XZ 00405970 f i protect.obj
 0001:00004990       ??1?$unique_ptr@VRAMInfoDelegate@@U?$default_delete@VRAMInfoDelegate@@@std@@@std@@QAE@XZ 00405990 f i protect.obj
 0001:000049b0       ??1?$unique_ptr@VMotherboardInfoDelegate@@U?$default_delete@VMotherboardInfoDelegate@@@std@@@std@@QAE@XZ 004059b0 f i protect.obj
 0001:000049d0       ??1?$unique_ptr@VCPUInfoDelegate@@U?$default_delete@VCPUInfoDelegate@@@std@@@std@@QAE@XZ 004059d0 f i protect.obj
 0001:000049f0       ??1?$vector@VRAMInfo@@V?$allocator@VRAMInfo@@@std@@@std@@QAE@XZ 004059f0 f i protect.obj
 0001:00004a00       ??1?$vector@VOSInfo@@V?$allocator@VOSInfo@@@std@@@std@@QAE@XZ 00405a00 f i protect.obj
 0001:00004a10       ??1?$vector@VMotherboardInfo@@V?$allocator@VMotherboardInfo@@@std@@@std@@QAE@XZ 00405a10 f i protect.obj
 0001:00004a20       ??1?$vector@VGPUInfo@@V?$allocator@VGPUInfo@@@std@@@std@@QAE@XZ 00405a20 f i protect.obj
 0001:00004a30       ??1?$vector@VCPUInfo@@V?$allocator@VCPUInfo@@@std@@@std@@QAE@XZ 00405a30 f i protect.obj
 0001:00004a40       ?substr@?$basic_string@DU?$char_traits@D@std@@V?$allocator@D@2@@std@@QBE?AV12@II@Z 00405a40 f i protect.obj
 0001:00004a80       ?_Myptr@?$_String_val@U?$_Simple_types@D@std@@@std@@QAEPADXZ 00405a80 f i protect.obj
 0001:00004a80       ?c_str@?$basic_string@DU?$char_traits@D@std@@V?$allocator@D@2@@std@@QBEPBDXZ 00405a80 f i protect.obj
 0001:00004a90       ?append@?$basic_string@DU?$char_traits@D@std@@V?$allocator@D@2@@std@@QAEAAV12@ABV12@II@Z 00405a90 f i protect.obj
 0001:00004b80       ??Y?$basic_string@DU?$char_traits@D@std@@V?$allocator@D@2@@std@@QAEAAV01@PBD@Z 00405b80 f i protect.obj
 0001:00004bc0       ??1?$basic_string@DU?$char_traits@D@std@@V?$allocator@D@2@@std@@QAE@XZ 00405bc0 f i protect.obj
 0001:00004c00       ??0?$basic_string@DU?$char_traits@D@std@@V?$allocator@D@2@@std@@QAE@$$QAV01@@Z 00405c00 f i protect.obj
 0001:00004c80       ??0?$basic_string@DU?$char_traits@D@std@@V?$allocator@D@2@@std@@QAE@PBD@Z 00405c80 f i protect.obj
 0001:00004ce0       _Curl_free_idnconverted_hostname 00405ce0 f i libcurl:url.obj
 0001:00004ce0       @_guard_check_icall_nop@4  00405ce0 f i MSVCRT:guard_support.obj
 0001:00004ce0       __initialize_denormal_control 00405ce0 f i MSVCRT:denormal_control.obj
 0001:00004ce0       ??1?$_String_alloc@U?$_String_base_types@DV?$allocator@D@std@@@std@@@std@@QAE@XZ 00405ce0 f i protect.obj
 0001:00004ce0       __initialize_invalid_parameter_handler 00405ce0 f i MSVCRT:invalid_parameter_handler.obj
 0001:00004ce0       ??3@YAXPAX0@Z              00405ce0 f i systeminfo.obj
 0001:00004cf0       ?_Tidy@?$vector@VRAMInfo@@V?$allocator@VRAMInfo@@@std@@@std@@IAEXXZ 00405cf0 f i protect.obj
 0001:00004d50       ?_Tidy@?$vector@VOSInfo@@V?$allocator@VOSInfo@@@std@@@std@@IAEXXZ 00405d50 f i protect.obj
 0001:00004db0       ?_Tidy@?$vector@VMotherboardInfo@@V?$allocator@VMotherboardInfo@@@std@@@std@@IAEXXZ 00405db0 f i protect.obj
 0001:00004e10       ?_Tidy@?$vector@VGPUInfo@@V?$allocator@VGPUInfo@@@std@@@std@@IAEXXZ 00405e10 f i protect.obj
 0001:00004e70       ?_Tidy@?$vector@VCPUInfo@@V?$allocator@VCPUInfo@@@std@@@std@@IAEXXZ 00405e70 f i protect.obj
 0001:00004ed0       ??1sentry@?$basic_ostream@DU?$char_traits@D@std@@@std@@QAE@XZ 00405ed0 f i protect.obj
 0001:00004f40       ?_Grow@?$basic_string@DU?$char_traits@D@std@@V?$allocator@D@2@@std@@QAE_NI_N@Z 00405f40 f i protect.obj
 0001:00004ff0       ?_Eos@?$basic_string@DU?$char_traits@D@std@@V?$allocator@D@2@@std@@QAEXI@Z 00405ff0 f i protect.obj
 0001:00005020       ?_Traits_compare@?$basic_string@DU?$char_traits@D@std@@V?$allocator@D@2@@std@@SAHQBDI0I@Z 00406020 f i protect.obj
 0001:000050b0       ?erase@?$basic_string@DU?$char_traits@D@std@@V?$allocator@D@2@@std@@QAEAAV12@II@Z 004060b0 f i protect.obj
 0001:00005150       ?assign@?$basic_string@DU?$char_traits@D@std@@V?$allocator@D@2@@std@@QAEAAV12@PBDI@Z 00406150 f i protect.obj
 0001:00005250       ?assign@?$basic_string@DU?$char_traits@D@std@@V?$allocator@D@2@@std@@QAEAAV12@ABV12@II@Z 00406250 f i protect.obj
 0001:00005370       ?append@?$basic_string@DU?$char_traits@D@std@@V?$allocator@D@2@@std@@QAEAAV12@PBDI@Z 00406370 f i protect.obj
 0001:00005490       ?_Assign_rv@?$basic_string@DU?$char_traits@D@std@@V?$allocator@D@2@@std@@QAEX$$QAV12@@Z 00406490 f i protect.obj
 0001:00005500       ?deallocate@?$_Wrap_alloc@V?$allocator@VRAMInfo@@@std@@@std@@QAEXPAVRAMInfo@@I@Z 00406500 f i protect.obj
 0001:00005570       ?deallocate@?$_Wrap_alloc@V?$allocator@VOSInfo@@@std@@@std@@QAEXPAVOSInfo@@I@Z 00406570 f i protect.obj
 0001:000055e0       ?deallocate@?$_Wrap_alloc@V?$allocator@VMotherboardInfo@@@std@@@std@@QAEXPAVMotherboardInfo@@I@Z 004065e0 f i protect.obj
 0001:00005640       ?deallocate@?$_Wrap_alloc@V?$allocator@VGPUInfo@@@std@@@std@@QAEXPAVGPUInfo@@I@Z 00406640 f i protect.obj
 0001:000056b0       ?deallocate@?$_Wrap_alloc@V?$allocator@VCPUInfo@@@std@@@std@@QAEXPAVCPUInfo@@I@Z 004066b0 f i protect.obj
 0001:00005720       ??1_Sentry_base@?$basic_ostream@DU?$char_traits@D@std@@@std@@QAE@XZ 00406720 f i protect.obj
 0001:00005720       ??1_Sentry_base@?$basic_istream@DU?$char_traits@D@std@@@std@@QAE@XZ 00406720 f i systeminfo.obj
 0001:00005770       ?deallocate@?$_Wrap_alloc@V?$allocator@D@std@@@std@@QAEXPADI@Z 00406770 f i protect.obj
 0001:00005770       ?deallocate@?$allocator@D@std@@QAEXPADI@Z 00406770 f i protect.obj
 0001:000057c0       ?_Copy@?$basic_string@DU?$char_traits@D@std@@V?$allocator@D@2@@std@@QAEXII@Z 004067c0 f i protect.obj
 0001:00005950       ?allocate@?$allocator@D@std@@QAEPADI@Z 00406950 f i protect.obj
 0001:00005950       ?allocate@?$_Wrap_alloc@V?$allocator@D@std@@@std@@QAEPADI@Z 00406950 f i protect.obj
 0001:000059a0       ??$_Integral_to_string@DH@std@@YA?AV?$basic_string@DU?$char_traits@D@std@@V?$allocator@D@2@@0@H@Z 004069a0 f i protect.obj
 0001:00005a60       ??$?6U?$char_traits@D@std@@@std@@YAAAV?$basic_ostream@DU?$char_traits@D@std@@@0@AAV10@PBD@Z 00406a60 f i protect.obj
 0001:00005ca0       ??$endl@DU?$char_traits@D@std@@@std@@YAAAV?$basic_ostream@DU?$char_traits@D@std@@@0@AAV10@@Z 00406ca0 f i protect.obj
 0001:00005cd0       ??$make_unique@VCPUInfoDelegate@@$$V@std@@YA?AV?$unique_ptr@VCPUInfoDelegate@@U?$default_delete@VCPUInfoDelegate@@@std@@@0@XZ 00406cd0 f i protect.obj
 0001:00005d50       ??$make_unique@VMotherboardInfoDelegate@@$$V@std@@YA?AV?$unique_ptr@VMotherboardInfoDelegate@@U?$default_delete@VMotherboardInfoDelegate@@@std@@@0@XZ 00406d50 f i protect.obj
 0001:00005dd0       ??$make_unique@VRAMInfoDelegate@@$$V@std@@YA?AV?$unique_ptr@VRAMInfoDelegate@@U?$default_delete@VRAMInfoDelegate@@@std@@@0@XZ 00406dd0 f i protect.obj
 0001:00005e50       ??$make_unique@VGPUInfoDelegate@@$$V@std@@YA?AV?$unique_ptr@VGPUInfoDelegate@@U?$default_delete@VGPUInfoDelegate@@@std@@@0@XZ 00406e50 f i protect.obj
 0001:00005ed0       ??$make_unique@VOSInfoDelegate@@$$V@std@@YA?AV?$unique_ptr@VOSInfoDelegate@@U?$default_delete@VOSInfoDelegate@@@std@@@0@XZ 00406ed0 f i protect.obj
 0001:00005f50       ??$destroy@PAD@?$_Wrap_alloc@V?$allocator@D@std@@@std@@QAEXPAPAD@Z 00406f50 f i protect.obj
 0001:00005f60       ??$_Destroy_range@V?$allocator@VRAMInfo@@@std@@PAVRAMInfo@@@std@@YAXPAVRAMInfo@@0AAU?$_Wrap_alloc@V?$allocator@VRAMInfo@@@std@@@0@@Z 00406f60 f i protect.obj
 0001:00005f90       ??$_Destroy_range@V?$allocator@VOSInfo@@@std@@PAVOSInfo@@@std@@YAXPAVOSInfo@@0AAU?$_Wrap_alloc@V?$allocator@VOSInfo@@@std@@@0@@Z 00406f90 f i protect.obj
 0001:00005fc0       ??$_Destroy_range@V?$allocator@VMotherboardInfo@@@std@@PAVMotherboardInfo@@@std@@YAXPAVMotherboardInfo@@0AAU?$_Wrap_alloc@V?$allocator@VMotherboardInfo@@@std@@@0@@Z 00406fc0 f i protect.obj
 0001:00005ff0       ??$_Destroy_range@V?$allocator@VGPUInfo@@@std@@PAVGPUInfo@@@std@@YAXPAVGPUInfo@@0AAU?$_Wrap_alloc@V?$allocator@VGPUInfo@@@std@@@0@@Z 00406ff0 f i protect.obj
 0001:00006020       ??$_Destroy_range@V?$allocator@VCPUInfo@@@std@@PAVCPUInfo@@@std@@YAXPAVCPUInfo@@0AAU?$_Wrap_alloc@V?$allocator@VCPUInfo@@@std@@@0@@Z 00407020 f i protect.obj
 0001:00006050       ??0?$_Wrap_alloc@V?$allocator@D@std@@@std@@QAE@XZ 00407050 f i protect.obj
 0001:00006060       ??1RAMInfo@@QAE@XZ         00407060 f i protect.obj
 0001:000061e0       ??1OSInfo@@QAE@XZ          004071e0 f i protect.obj
 0001:00006480       ??1MotherboardInfo@@QAE@XZ 00407480 f i protect.obj
 0001:00006570       ??1GPUInfo@@QAE@XZ         00407570 f i protect.obj
 0001:00006750       ??1CPUInfo@@QAE@XZ         00407750 f i protect.obj
 0001:00006870       ??0exception@std@@QAE@ABV01@@Z 00407870 f i systeminfo.obj
 0001:000068a0       ?what@exception@std@@UBEPBDXZ 004078a0 f i systeminfo.obj
 0001:000068b0       ??_Ebad_cast@std@@UAEPAXI@Z 004078b0 f i * CIL library *:* CIL module *
 0001:000068b0       ??_Gbad_cast@std@@UAEPAXI@Z 004078b0 f i systeminfo.obj
 0001:000068b0       ??_Gexception@std@@UAEPAXI@Z 004078b0 f i systeminfo.obj
 0001:000068b0       ??_Eexception@std@@UAEPAXI@Z 004078b0 f i * CIL library *:* CIL module *
 0001:000068f0       ??1bad_cast@std@@UAE@XZ    004078f0 f i systeminfo.obj
 0001:00006910       ??1locale@std@@QAE@XZ      00407910 f i systeminfo.obj
 0001:00006960       ?stoll@std@@YA_JABV?$basic_string@DU?$char_traits@D@std@@V?$allocator@D@2@@1@PAIH@Z 00407960 f i systeminfo.obj
 0001:000069e0       ??0CPUInfo@@QAE@ABV?$vector@V?$basic_string@DU?$char_traits@D@std@@V?$allocator@D@2@@std@@V?$allocator@V?$basic_string@DU?$char_traits@D@std@@V?$allocator@D@2@@std@@@2@@std@@H@Z 004079e0 f   systeminfo.obj
 0001:00007380       ?name@GPUInfo@@QBE?AV?$basic_string@DU?$char_traits@D@std@@V?$allocator@D@2@@std@@XZ 00408380 f   systeminfo.obj
 0001:00007380       ?name@CPUInfo@@QBE?AV?$basic_string@DU?$char_traits@D@std@@V?$allocator@D@2@@std@@XZ 00408380 f   systeminfo.obj
 0001:00007380       ?name@RAMInfo@@QBE?AV?$basic_string@DU?$char_traits@D@std@@V?$allocator@D@2@@std@@XZ 00408380 f   systeminfo.obj
 0001:00007380       ?name@OSInfo@@QBE?AV?$basic_string@DU?$char_traits@D@std@@V?$allocator@D@2@@std@@XZ 00408380 f   systeminfo.obj
 0001:00007380       ?name@MotherboardInfo@@QBE?AV?$basic_string@DU?$char_traits@D@std@@V?$allocator@D@2@@std@@XZ 00408380 f   systeminfo.obj
 0001:000073c0       ?manufacturer@MotherboardInfo@@QBE?AV?$basic_string@DU?$char_traits@D@std@@V?$allocator@D@2@@std@@XZ 004083c0 f   systeminfo.obj
 0001:000073c0       ?manufacturer@RAMInfo@@QBE?AV?$basic_string@DU?$char_traits@D@std@@V?$allocator@D@2@@std@@XZ 004083c0 f   systeminfo.obj
 0001:000073c0       ?manufacturer@OSInfo@@QBE?AV?$basic_string@DU?$char_traits@D@std@@V?$allocator@D@2@@std@@XZ 004083c0 f   systeminfo.obj
 0001:000073c0       ?manufacturer@CPUInfo@@QBE?AV?$basic_string@DU?$char_traits@D@std@@V?$allocator@D@2@@std@@XZ 004083c0 f   systeminfo.obj
 0001:000073c0       ?manufacturer@GPUInfo@@QBE?AV?$basic_string@DU?$char_traits@D@std@@V?$allocator@D@2@@std@@XZ 004083c0 f   systeminfo.obj
 0001:00007400       ?caption@GPUInfo@@QBE?AV?$basic_string@DU?$char_traits@D@std@@V?$allocator@D@2@@std@@XZ 00408400 f   systeminfo.obj
 0001:00007400       ?numberOfCores@CPUInfo@@QBE?AV?$basic_string@DU?$char_traits@D@std@@V?$allocator@D@2@@std@@XZ 00408400 f   systeminfo.obj
 0001:00007400       ?capacity@RAMInfo@@QBE?AV?$basic_string@DU?$char_traits@D@std@@V?$allocator@D@2@@std@@XZ 00408400 f   systeminfo.obj
 0001:00007400       ?chipset@MotherboardInfo@@QBE?AV?$basic_string@DU?$char_traits@D@std@@V?$allocator@D@2@@std@@XZ 00408400 f   systeminfo.obj
 0001:00007440       ?serialNumber@RAMInfo@@QBE?AV?$basic_string@DU?$char_traits@D@std@@V?$allocator@D@2@@std@@XZ 00408440 f   systeminfo.obj
 0001:00007440       ?serialNumber@MotherboardInfo@@QBE?AV?$basic_string@DU?$char_traits@D@std@@V?$allocator@D@2@@std@@XZ 00408440 f   systeminfo.obj
 0001:00007440       ?adapterRAM@GPUInfo@@QBE?AV?$basic_string@DU?$char_traits@D@std@@V?$allocator@D@2@@std@@XZ 00408440 f   systeminfo.obj
 0001:00007440       ?architecture@CPUInfo@@QBE?AV?$basic_string@DU?$char_traits@D@std@@V?$allocator@D@2@@std@@XZ 00408440 f   systeminfo.obj
 0001:00007440       ?caption@OSInfo@@QBE?AV?$basic_string@DU?$char_traits@D@std@@V?$allocator@D@2@@std@@XZ 00408440 f   systeminfo.obj
 0001:00007480       ?version@MotherboardInfo@@QBE?AV?$basic_string@DU?$char_traits@D@std@@V?$allocator@D@2@@std@@XZ 00408480 f   systeminfo.obj
 0001:00007480       ?L2CacheSize@CPUInfo@@QBE?AV?$basic_string@DU?$char_traits@D@std@@V?$allocator@D@2@@std@@XZ 00408480 f   systeminfo.obj
 0001:00007480       ?version@OSInfo@@QBE?AV?$basic_string@DU?$char_traits@D@std@@V?$allocator@D@2@@std@@XZ 00408480 f   systeminfo.obj
 0001:00007480       ?formFactor@RAMInfo@@QBE?AV?$basic_string@DU?$char_traits@D@std@@V?$allocator@D@2@@std@@XZ 00408480 f   systeminfo.obj
 0001:000074c0       ?partNumber@RAMInfo@@QBE?AV?$basic_string@DU?$char_traits@D@std@@V?$allocator@D@2@@std@@XZ 004084c0 f   systeminfo.obj
 0001:000074c0       ?driverVersion@GPUInfo@@QBE?AV?$basic_string@DU?$char_traits@D@std@@V?$allocator@D@2@@std@@XZ 004084c0 f   systeminfo.obj
 0001:000074c0       ?currentUser@OSInfo@@QBE?AV?$basic_string@DU?$char_traits@D@std@@V?$allocator@D@2@@std@@XZ 004084c0 f   systeminfo.obj
 0001:000074c0       ?L3CacheSize@CPUInfo@@QBE?AV?$basic_string@DU?$char_traits@D@std@@V?$allocator@D@2@@std@@XZ 004084c0 f   systeminfo.obj
 0001:00007500       ??1SystemCommand@@QAE@XZ   00408500 f i systeminfo.obj
 0001:000075e0       ?getArchitecture@CPUInfo@@ABE?AV?$basic_string@DU?$char_traits@D@std@@V?$allocator@D@2@@std@@AAV23@@Z 004085e0 f   systeminfo.obj
 0001:00007740       ??0CPUInfoDelegate@@QAE@XZ 00408740 f   systeminfo.obj
 0001:00007a70       ?determineNumberOfCPUInfoItems@CPUInfoDelegate@@AAEXABV?$vector@V?$basic_string@DU?$char_traits@D@std@@V?$allocator@D@2@@std@@V?$allocator@V?$basic_string@DU?$char_traits@D@std@@V?$allocator@D@2@@std@@@2@@std@@@Z 00408a70 f   systeminfo.obj
 0001:00007ac0       ?cpuInfoVector@CPUInfoDelegate@@QBE?AV?$vector@VCPUInfo@@V?$allocator@VCPUInfo@@@std@@@std@@XZ 00408ac0 f   systeminfo.obj
 0001:00007ae0       ??0GPUInfo@@QAE@ABV?$vector@V?$basic_string@DU?$char_traits@D@std@@V?$allocator@D@2@@std@@V?$allocator@V?$basic_string@DU?$char_traits@D@std@@V?$allocator@D@2@@std@@@2@@std@@H@Z 00408ae0 f   systeminfo.obj
 0001:00008bc0       ?getVideoArchitecture@GPUInfo@@ABE?AV?$basic_string@DU?$char_traits@D@std@@V?$allocator@D@2@@std@@ABV23@@Z 00409bc0 f   systeminfo.obj
 0001:00008f30       ?getVideoMemoryType@GPUInfo@@ABE?AV?$basic_string@DU?$char_traits@D@std@@V?$allocator@D@2@@std@@ABV23@@Z 00409f30 f   systeminfo.obj
 0001:000091e0       ?videoArchitecture@GPUInfo@@QBE?AV?$basic_string@DU?$char_traits@D@std@@V?$allocator@D@2@@std@@XZ 0040a1e0 f   systeminfo.obj
 0001:000091e0       ?memoryType@RAMInfo@@QBE?AV?$basic_string@DU?$char_traits@D@std@@V?$allocator@D@2@@std@@XZ 0040a1e0 f   systeminfo.obj
 0001:000091e0       ?installDate@OSInfo@@QBE?AV?$basic_string@DU?$char_traits@D@std@@V?$allocator@D@2@@std@@XZ 0040a1e0 f   systeminfo.obj
 0001:00009220       ?bootDevice@OSInfo@@QBE?AV?$basic_string@DU?$char_traits@D@std@@V?$allocator@D@2@@std@@XZ 0040a220 f   systeminfo.obj
 0001:00009220       ?videoProcessor@GPUInfo@@QBE?AV?$basic_string@DU?$char_traits@D@std@@V?$allocator@D@2@@std@@XZ 0040a220 f   systeminfo.obj
 0001:00009260       ?videoModeDescription@GPUInfo@@QBE?AV?$basic_string@DU?$char_traits@D@std@@V?$allocator@D@2@@std@@XZ 0040a260 f   systeminfo.obj
 0001:000092a0       ??0GPUInfoDelegate@@QAE@XZ 0040a2a0 f   systeminfo.obj
 0001:000095d0       ?determineNumberOfGPUInfoItems@GPUInfoDelegate@@AAEXABV?$vector@V?$basic_string@DU?$char_traits@D@std@@V?$allocator@D@2@@std@@V?$allocator@V?$basic_string@DU?$char_traits@D@std@@V?$allocator@D@2@@std@@@2@@std@@@Z 0040a5d0 f   systeminfo.obj
 0001:00009620       ?gpuInfoVector@GPUInfoDelegate@@QBE?AV?$vector@VGPUInfo@@V?$allocator@VGPUInfo@@@std@@@std@@XZ 0040a620 f   systeminfo.obj
 0001:00009640       ??0MotherboardInfo@@QAE@ABV?$vector@V?$basic_string@DU?$char_traits@D@std@@V?$allocator@D@2@@std@@V?$allocator@V?$basic_string@DU?$char_traits@D@std@@V?$allocator@D@2@@std@@@2@@std@@H@Z 0040a640 f   systeminfo.obj
 0001:00009b70       ?determineChipset@MotherboardInfo@@AAEXXZ 0040ab70 f   systeminfo.obj
 0001:00009de0       ??0MotherboardInfoDelegate@@QAE@XZ 0040ade0 f   systeminfo.obj
 0001:0000a110       ?determineNumberOfMotherboardInfoItems@MotherboardInfoDelegate@@AAEXABV?$vector@V?$basic_string@DU?$char_traits@D@std@@V?$allocator@D@2@@std@@V?$allocator@V?$basic_string@DU?$char_traits@D@std@@V?$allocator@D@2@@std@@@2@@std@@@Z 0040b110 f   systeminfo.obj
 0001:0000a160       ?motherboardInfoVector@MotherboardInfoDelegate@@QBE?AV?$vector@VMotherboardInfo@@V?$allocator@VMotherboardInfo@@@std@@@std@@XZ 0040b160 f   systeminfo.obj
 0001:0000a180       ??0OSInfo@@QAE@ABV?$vector@V?$basic_string@DU?$char_traits@D@std@@V?$allocator@D@2@@std@@V?$allocator@V?$basic_string@DU?$char_traits@D@std@@V?$allocator@D@2@@std@@@2@@std@@H@Z 0040b180 f   systeminfo.obj
 0001:0000b7b0       ?buildNumber@OSInfo@@QBE?AV?$basic_string@DU?$char_traits@D@std@@V?$allocator@D@2@@std@@XZ 0040c7b0 f   systeminfo.obj
 0001:0000b7f0       ?serialNumber@OSInfo@@QBE?AV?$basic_string@DU?$char_traits@D@std@@V?$allocator@D@2@@std@@XZ 0040c7f0 f   systeminfo.obj
 0001:0000b830       ?totalVirtualMemory@OSInfo@@QBE?AV?$basic_string@DU?$char_traits@D@std@@V?$allocator@D@2@@std@@XZ 0040c830 f   systeminfo.obj
 0001:0000b870       ?totalVisibleMemory@OSInfo@@QBE?AV?$basic_string@DU?$char_traits@D@std@@V?$allocator@D@2@@std@@XZ 0040c870 f   systeminfo.obj
 0001:0000b8b0       ?totalSwapSize@OSInfo@@QBE?AV?$basic_string@DU?$char_traits@D@std@@V?$allocator@D@2@@std@@XZ 0040c8b0 f   systeminfo.obj
 0001:0000b8f0       ??0OSInfoDelegate@@QAE@XZ  0040c8f0 f   systeminfo.obj
 0001:0000bc20       ?determineNumberOfOSInfoItems@OSInfoDelegate@@AAEXABV?$vector@V?$basic_string@DU?$char_traits@D@std@@V?$allocator@D@2@@std@@V?$allocator@V?$basic_string@DU?$char_traits@D@std@@V?$allocator@D@2@@std@@@2@@std@@@Z 0040cc20 f   systeminfo.obj
 0001:0000bc70       ?osInfoVector@OSInfoDelegate@@QBE?AV?$vector@VOSInfo@@V?$allocator@VOSInfo@@@std@@@std@@XZ 0040cc70 f   systeminfo.obj
 0001:0000bc90       ??0RAMInfo@@QAE@ABV?$vector@V?$basic_string@DU?$char_traits@D@std@@V?$allocator@D@2@@std@@V?$allocator@V?$basic_string@DU?$char_traits@D@std@@V?$allocator@D@2@@std@@@2@@std@@H@Z 0040cc90 f   systeminfo.obj
 0001:0000ccb0       ?getMemoryType@RAMInfo@@ABE?AV?$basic_string@DU?$char_traits@D@std@@V?$allocator@D@2@@std@@ABV23@@Z 0040dcb0 f   systeminfo.obj
 0001:0000d150       ?getFormFactor@RAMInfo@@ABE?AV?$basic_string@DU?$char_traits@D@std@@V?$allocator@D@2@@std@@ABV23@@Z 0040e150 f   systeminfo.obj
 0001:0000d5c0       ??0RAMInfoDelegate@@QAE@XZ 0040e5c0 f   systeminfo.obj
 0001:0000d8f0       ?determineNumberOfRAMInfoItems@RAMInfoDelegate@@AAEXABV?$vector@V?$basic_string@DU?$char_traits@D@std@@V?$allocator@D@2@@std@@V?$allocator@V?$basic_string@DU?$char_traits@D@std@@V?$allocator@D@2@@std@@@2@@std@@@Z 0040e8f0 f   systeminfo.obj
 0001:0000d940       ?ramInfoVector@RAMInfoDelegate@@QBE?AV?$vector@VRAMInfo@@V?$allocator@VRAMInfo@@@std@@@std@@XZ 0040e940 f   systeminfo.obj
 0001:0000d960       ??0SystemCommand@@QAE@V?$initializer_list@V?$basic_string@DU?$char_traits@D@std@@V?$allocator@D@2@@std@@@std@@@Z 0040e960 f   systeminfo.obj
 0001:0000da20       ?outputAsVector@SystemCommand@@QAE?AV?$vector@V?$basic_string@DU?$char_traits@D@std@@V?$allocator@D@2@@std@@V?$allocator@V?$basic_string@DU?$char_traits@D@std@@V?$allocator@D@2@@std@@@2@@std@@XZ 0040ea20 f   systeminfo.obj
 0001:0000da50       ?stripAllFromString@SystemCommand@@AAE?AV?$basic_string@DU?$char_traits@D@std@@V?$allocator@D@2@@std@@ABV23@0@Z 0040ea50 f   systeminfo.obj
 0001:0000dbb0       ?stripFromString@SystemCommand@@AAE?AV?$basic_string@DU?$char_traits@D@std@@V?$allocator@D@2@@std@@ABV23@0@Z 0040ebb0 f   systeminfo.obj
 0001:0000ddd0       ?stripPipeFromCommand@SystemCommand@@AAEXXZ 0040edd0 f   systeminfo.obj
 0001:0000df70       ?systemCommandLaunch@SystemCommand@@AAEX_N@Z 0040ef70 f   systeminfo.obj
 0001:0000e610       ??0?$vector@VRAMInfo@@V?$allocator@VRAMInfo@@@std@@@std@@QAE@ABV01@@Z 0040f610 f i systeminfo.obj
 0001:0000e700       ??0?$vector@VOSInfo@@V?$allocator@VOSInfo@@@std@@@std@@QAE@ABV01@@Z 0040f700 f i systeminfo.obj
 0001:0000e7f0       ??0?$vector@VMotherboardInfo@@V?$allocator@VMotherboardInfo@@@std@@@std@@QAE@ABV01@@Z 0040f7f0 f i systeminfo.obj
 0001:0000e8e0       ??0?$vector@VGPUInfo@@V?$allocator@VGPUInfo@@@std@@@std@@QAE@ABV01@@Z 0040f8e0 f i systeminfo.obj
 0001:0000e9d0       ??0?$vector@VCPUInfo@@V?$allocator@VCPUInfo@@@std@@@std@@QAE@ABV01@@Z 0040f9d0 f i systeminfo.obj
 0001:0000eac0       ??R?$_Func_class@V?$basic_string@DU?$char_traits@D@std@@V?$allocator@D@2@@std@@ABV12@@std@@QBE?AV?$basic_string@DU?$char_traits@D@std@@V?$allocator@D@2@@1@ABV21@@Z 0040fac0 f i systeminfo.obj
 0001:0000eaf0       ??1?$function@$$A6A?AV?$basic_string@DU?$char_traits@D@std@@V?$allocator@D@2@@std@@ABV12@@Z@std@@QAE@XZ 0040faf0 f i systeminfo.obj
 0001:0000eb50       ?push_back@?$vector@V?$basic_string@DU?$char_traits@D@std@@V?$allocator@D@2@@std@@V?$allocator@V?$basic_string@DU?$char_traits@D@std@@V?$allocator@D@2@@std@@@2@@std@@QAEXABV?$basic_string@DU?$char_traits@D@std@@V?$allocator@D@2@@2@@Z 0040fb50 f i systeminfo.obj
 0001:0000ec30       ??1?$vector@V?$basic_string@DU?$char_traits@D@std@@V?$allocator@D@2@@std@@V?$allocator@V?$basic_string@DU?$char_traits@D@std@@V?$allocator@D@2@@std@@@2@@std@@QAE@XZ 0040fc30 f i systeminfo.obj
 0001:0000ec30       ?_Tidy@?$vector@V?$basic_string@DU?$char_traits@D@std@@V?$allocator@D@2@@std@@V?$allocator@V?$basic_string@DU?$char_traits@D@std@@V?$allocator@D@2@@std@@@2@@std@@IAEXXZ 0040fc30 f i systeminfo.obj
 0001:0000ec90       ??0?$vector@V?$basic_string@DU?$char_traits@D@std@@V?$allocator@D@2@@std@@V?$allocator@V?$basic_string@DU?$char_traits@D@std@@V?$allocator@D@2@@std@@@2@@std@@QAE@ABV01@@Z 0040fc90 f i systeminfo.obj
 0001:0000ed80       ?find@?$basic_string@DU?$char_traits@D@std@@V?$allocator@D@2@@std@@QBEIABV12@I@Z 0040fd80 f i systeminfo.obj
 0001:0000eda0       ??4?$basic_string@DU?$char_traits@D@std@@V?$allocator@D@2@@std@@QAEAAV01@PBD@Z 0040fda0 f i systeminfo.obj
 0001:0000ede0       ??4?$basic_string@DU?$char_traits@D@std@@V?$allocator@D@2@@std@@QAEAAV01@$$QAV01@@Z 0040fde0 f i systeminfo.obj
 0001:0000ee60       ??0?$basic_string@DU?$char_traits@D@std@@V?$allocator@D@2@@std@@QAE@ID@Z 0040fe60 f i systeminfo.obj
 0001:0000eec0       ??0?$basic_ifstream@DU?$char_traits@D@std@@@std@@QAE@XZ 0040fec0 f i systeminfo.obj
 0001:0000efa0       ?imbue@?$basic_filebuf@DU?$char_traits@D@std@@@std@@MAEXABVlocale@2@@Z 0040ffa0 f i systeminfo.obj
 0001:0000efe0       ?sync@?$basic_filebuf@DU?$char_traits@D@std@@@std@@MAEHXZ 0040ffe0 f i systeminfo.obj
 0001:0000f010       ?setbuf@?$basic_filebuf@DU?$char_traits@D@std@@@std@@MAEPAV?$basic_streambuf@DU?$char_traits@D@std@@@2@PAD_J@Z 00410010 f i systeminfo.obj
 0001:0000f100       ?seekpos@?$basic_filebuf@DU?$char_traits@D@std@@@std@@MAE?AV?$fpos@U_Mbstatet@@@2@V32@H@Z 00410100 f i systeminfo.obj
 0001:0000f210       ?seekoff@?$basic_filebuf@DU?$char_traits@D@std@@@std@@MAE?AV?$fpos@U_Mbstatet@@@2@_JHH@Z 00410210 f i systeminfo.obj
 0001:0000f330       ?uflow@?$basic_filebuf@DU?$char_traits@D@std@@@std@@MAEHXZ 00410330 f i systeminfo.obj
 0001:0000f5d0       ?underflow@?$basic_filebuf@DU?$char_traits@D@std@@@std@@MAEHXZ 004105d0 f i systeminfo.obj
 0001:0000f610       ?pbackfail@?$basic_filebuf@DU?$char_traits@D@std@@@std@@MAEHH@Z 00410610 f i systeminfo.obj
 0001:0000f6a0       ?overflow@?$basic_filebuf@DU?$char_traits@D@std@@@std@@MAEHH@Z 004106a0 f i systeminfo.obj
 0001:0000f900       ?_Unlock@?$basic_filebuf@DU?$char_traits@D@std@@@std@@UAEXXZ 00410900 f i systeminfo.obj
 0001:0000f910       ?_Lock@?$basic_filebuf@DU?$char_traits@D@std@@@std@@UAEXXZ 00410910 f i systeminfo.obj
 0001:0000f920       ??1?$basic_filebuf@DU?$char_traits@D@std@@@std@@UAE@XZ 00410920 f i systeminfo.obj
 0001:0000f9e0       ??_G?$basic_ifstream@DU?$char_traits@D@std@@@std@@UAEPAXI@Z 004109e0 f i systeminfo.obj
 0001:0000f9e0       ??_E?$basic_ifstream@DU?$char_traits@D@std@@@std@@UAEPAXI@Z 004109e0 f i * CIL library *:* CIL module *
 0001:0000fa40       ??_G?$basic_filebuf@DU?$char_traits@D@std@@@std@@UAEPAXI@Z 00410a40 f i systeminfo.obj
 0001:0000fa40       ??_E?$basic_filebuf@DU?$char_traits@D@std@@@std@@UAEPAXI@Z 00410a40 f i * CIL library *:* CIL module *
 0001:0000fa70       ?_Reserve@?$vector@V?$basic_string@DU?$char_traits@D@std@@V?$allocator@D@2@@std@@V?$allocator@V?$basic_string@DU?$char_traits@D@std@@V?$allocator@D@2@@std@@@2@@std@@IAEXI@Z 00410a70 f i systeminfo.obj
 0001:0000fb00       ?find@?$basic_string@DU?$char_traits@D@std@@V?$allocator@D@2@@std@@QBEIPBDII@Z 00410b00 f i systeminfo.obj
 0001:0000fbf0       ?insert@?$basic_string@DU?$char_traits@D@std@@V?$allocator@D@2@@std@@QAEAAV12@IABV12@II@Z 00410bf0 f i systeminfo.obj
 0001:0000fd20       ?_Set_back@?$basic_filebuf@DU?$char_traits@D@std@@@std@@AAEXXZ 00410d20 f i systeminfo.obj
 0001:0000fd60       ?_Reset_back@?$basic_filebuf@DU?$char_traits@D@std@@@std@@AAEXXZ 00410d60 f i systeminfo.obj
 0001:0000fd90       ?_Endwrite@?$basic_filebuf@DU?$char_traits@D@std@@@std@@IAE_NXZ 00410d90 f i systeminfo.obj
 0001:0000ff40       ?allocate@?$_Wrap_alloc@V?$allocator@VRAMInfo@@@std@@@std@@QAEPAVRAMInfo@@I@Z 00410f40 f i systeminfo.obj
 0001:0000ffa0       ?allocate@?$_Wrap_alloc@V?$allocator@VOSInfo@@@std@@@std@@QAEPAVOSInfo@@I@Z 00410fa0 f i systeminfo.obj
 0001:00010000       ?allocate@?$_Wrap_alloc@V?$allocator@VMotherboardInfo@@@std@@@std@@QAEPAVMotherboardInfo@@I@Z 00411000 f i systeminfo.obj
 0001:00010060       ?allocate@?$_Wrap_alloc@V?$allocator@VGPUInfo@@@std@@@std@@QAEPAVGPUInfo@@I@Z 00411060 f i systeminfo.obj
 0001:000100c0       ?allocate@?$_Wrap_alloc@V?$allocator@VCPUInfo@@@std@@@std@@QAEPAVCPUInfo@@I@Z 004110c0 f i systeminfo.obj
 0001:00010120       ?deallocate@?$_Wrap_alloc@V?$allocator@V?$basic_string@DU?$char_traits@D@std@@V?$allocator@D@2@@std@@@std@@@std@@QAEXPAV?$basic_string@DU?$char_traits@D@std@@V?$allocator@D@2@@2@I@Z 00411120 f i systeminfo.obj
 0001:00010190       ?allocate@?$_Wrap_alloc@V?$allocator@V?$basic_string@DU?$char_traits@D@std@@V?$allocator@D@2@@std@@@std@@@std@@QAEPAV?$basic_string@DU?$char_traits@D@std@@V?$allocator@D@2@@2@I@Z 00411190 f i systeminfo.obj
 0001:000101f0       ?_Reallocate@?$vector@V?$basic_string@DU?$char_traits@D@std@@V?$allocator@D@2@@std@@V?$allocator@V?$basic_string@DU?$char_traits@D@std@@V?$allocator@D@2@@std@@@2@@std@@IAEXI@Z 004111f0 f i systeminfo.obj
 0001:000102e0       ?_Chassign@?$basic_string@DU?$char_traits@D@std@@V?$allocator@D@2@@std@@QAEXIID@Z 004112e0 f i systeminfo.obj
 0001:00010320       ??$use_facet@V?$ctype@D@std@@@std@@YAABV?$ctype@D@0@ABVlocale@0@@Z 00411320 f i systeminfo.obj
 0001:00010430       ??$?6DU?$char_traits@D@std@@V?$allocator@D@1@@std@@YAAAV?$basic_ostream@DU?$char_traits@D@std@@@0@AAV10@ABV?$basic_string@DU?$char_traits@D@std@@V?$allocator@D@2@@0@@Z 00411430 f i systeminfo.obj
 0001:00010630       ??$?HDU?$char_traits@D@std@@V?$allocator@D@1@@std@@YA?AV?$basic_string@DU?$char_traits@D@std@@V?$allocator@D@2@@0@ABV10@PBD@Z 00411630 f i systeminfo.obj
 0001:00010740       ??$?HDU?$char_traits@D@std@@V?$allocator@D@1@@std@@YA?AV?$basic_string@DU?$char_traits@D@std@@V?$allocator@D@2@@0@$$QAV10@PBD@Z 00411740 f i systeminfo.obj
 0001:00010790       ??$?8DU?$char_traits@D@std@@V?$allocator@D@1@@std@@YA_NABV?$basic_string@DU?$char_traits@D@std@@V?$allocator@D@2@@0@PBD@Z 00411790 f i systeminfo.obj
 0001:000107d0       ??$toString@_J@RAMInfo@@ABE?AV?$basic_string@DU?$char_traits@D@std@@V?$allocator@D@2@@std@@AB_J@Z 004117d0 f i systeminfo.obj
 0001:000107d0       ??$toString@_J@OSInfo@@ABE?AV?$basic_string@DU?$char_traits@D@std@@V?$allocator@D@2@@std@@AB_J@Z 004117d0 f i systeminfo.obj
 0001:000107d0       ??$toString@_J@GPUInfo@@ABE?AV?$basic_string@DU?$char_traits@D@std@@V?$allocator@D@2@@std@@AB_J@Z 004117d0 f i systeminfo.obj
 0001:000109b0       ??$?HDU?$char_traits@D@std@@V?$allocator@D@1@@std@@YA?AV?$basic_string@DU?$char_traits@D@std@@V?$allocator@D@2@@0@$$QAV10@0@Z 004119b0 f i systeminfo.obj
 0001:00010a10       ??$use_facet@V?$codecvt@DDU_Mbstatet@@@std@@@std@@YAABV?$codecvt@DDU_Mbstatet@@@0@ABVlocale@0@@Z 00411a10 f i systeminfo.obj
 0001:00010b20       ??0bad_cast@std@@QAE@ABV01@@Z 00411b20 f i systeminfo.obj
 0001:00010b60       ??_D?$basic_stringstream@DU?$char_traits@D@std@@V?$allocator@D@2@@std@@QAEXXZ 00411b60 f i systeminfo.obj
 0001:00010bb0       ?_Reserve@?$vector@VRAMInfo@@V?$allocator@VRAMInfo@@@std@@@std@@IAEXI@Z 00411bb0 f i systeminfo.obj
 0001:00010c40       ?_Reserve@?$vector@VOSInfo@@V?$allocator@VOSInfo@@@std@@@std@@IAEXI@Z 00411c40 f i systeminfo.obj
 0001:00010cd0       ?_Reserve@?$vector@VMotherboardInfo@@V?$allocator@VMotherboardInfo@@@std@@@std@@IAEXI@Z 00411cd0 f i systeminfo.obj
 0001:00010d70       ?_Reserve@?$vector@VGPUInfo@@V?$allocator@VGPUInfo@@@std@@@std@@IAEXI@Z 00411d70 f i systeminfo.obj
 0001:00010e00       ?_Reserve@?$vector@VCPUInfo@@V?$allocator@VCPUInfo@@@std@@@std@@IAEXI@Z 00411e00 f i systeminfo.obj
 0001:00010ea0       ?seekpos@?$basic_stringbuf@DU?$char_traits@D@std@@V?$allocator@D@2@@std@@MAE?AV?$fpos@U_Mbstatet@@@2@V32@H@Z 00411ea0 f i systeminfo.obj
 0001:00010fe0       ?seekoff@?$basic_stringbuf@DU?$char_traits@D@std@@V?$allocator@D@2@@std@@MAE?AV?$fpos@U_Mbstatet@@@2@_JHH@Z 00411fe0 f i systeminfo.obj
 0001:000111b0       ?underflow@?$basic_stringbuf@DU?$char_traits@D@std@@V?$allocator@D@2@@std@@MAEHXZ 004121b0 f i systeminfo.obj
 0001:00011210       ?pbackfail@?$basic_stringbuf@DU?$char_traits@D@std@@V?$allocator@D@2@@std@@MAEHH@Z 00412210 f i systeminfo.obj
 0001:00011270       ?overflow@?$basic_stringbuf@DU?$char_traits@D@std@@V?$allocator@D@2@@std@@MAEHH@Z 00412270 f i systeminfo.obj
 0001:00011440       ??_G?$basic_stringstream@DU?$char_traits@D@std@@V?$allocator@D@2@@std@@UAEPAXI@Z 00412440 f i systeminfo.obj
 0001:00011440       ??_E?$basic_stringstream@DU?$char_traits@D@std@@V?$allocator@D@2@@std@@UAEPAXI@Z 00412440 f i * CIL library *:* CIL module *
 0001:000114b0       ??_E?$basic_stringbuf@DU?$char_traits@D@std@@V?$allocator@D@2@@std@@UAEPAXI@Z 004124b0 f i * CIL library *:* CIL module *
 0001:000114b0       ??_G?$basic_stringbuf@DU?$char_traits@D@std@@V?$allocator@D@2@@std@@UAEPAXI@Z 004124b0 f i systeminfo.obj
 0001:000114f0       ?_Reallocate@?$vector@VRAMInfo@@V?$allocator@VRAMInfo@@@std@@@std@@IAEXI@Z 004124f0 f i systeminfo.obj
 0001:000115f0       ?_Reallocate@?$vector@VOSInfo@@V?$allocator@VOSInfo@@@std@@@std@@IAEXI@Z 004125f0 f i systeminfo.obj
 0001:000116f0       ?_Reallocate@?$vector@VMotherboardInfo@@V?$allocator@VMotherboardInfo@@@std@@@std@@IAEXI@Z 004126f0 f i systeminfo.obj
 0001:000117f0       ?_Reallocate@?$vector@VGPUInfo@@V?$allocator@VGPUInfo@@@std@@@std@@IAEXI@Z 004127f0 f i systeminfo.obj
 0001:000118f0       ?_Reallocate@?$vector@VCPUInfo@@V?$allocator@VCPUInfo@@@std@@@std@@IAEXI@Z 004128f0 f i systeminfo.obj
 0001:000119f0       ?_Tidy@?$basic_stringbuf@DU?$char_traits@D@std@@V?$allocator@D@2@@std@@IAEXXZ 004129f0 f i systeminfo.obj
 0001:00011ab0       ??$_Construct@PBV?$basic_string@DU?$char_traits@D@std@@V?$allocator@D@2@@std@@@?$vector@V?$basic_string@DU?$char_traits@D@std@@V?$allocator@D@2@@std@@V?$allocator@V?$basic_string@DU?$char_traits@D@std@@V?$allocator@D@2@@std@@@2@@std@@QAEXPBV?$basic_string@DU?$char_traits@D@std@@V?$allocator@D@2@@1@0Uforward_iterator_tag@1@@Z 00412ab0 f i systeminfo.obj
 0001:00011b90       ??$_Destroy_range1@V?$allocator@V?$basic_string@DU?$char_traits@D@std@@V?$allocator@D@2@@std@@@std@@PAV?$basic_string@DU?$char_traits@D@std@@V?$allocator@D@2@@2@@std@@YAXPAV?$basic_string@DU?$char_traits@D@std@@V?$allocator@D@2@@0@0AAU?$_Wrap_alloc@V?$allocator@V?$basic_string@DU?$char_traits@D@std@@V?$allocator@D@2@@std@@@std@@@0@U?$integral_constant@_N$0A@@0@@Z 00412b90 f i systeminfo.obj
 0001:00011be0       ??$?5DU?$char_traits@D@std@@V?$allocator@D@1@@std@@YAAAV?$basic_istream@DU?$char_traits@D@std@@@0@$$QAV10@AAV?$basic_string@DU?$char_traits@D@std@@V?$allocator@D@2@@0@@Z 00412be0 f i systeminfo.obj
 0001:00011e40       ??1sentry@?$basic_istream@DU?$char_traits@D@std@@@std@@QAE@XZ 00412e40 f i systeminfo.obj
 0001:00011e90       ?_Delete_this@?$_Func_impl@V<lambda_787d45c283701cc870e4fc26d5464600>@@V?$allocator@H@std@@V?$basic_string@DU?$char_traits@D@std@@V?$allocator@D@2@@3@ABV43@@std@@EAEX_N@Z 00412e90 f i systeminfo.obj
 0001:00011eb0       ?_Get@?$_Func_impl@V<lambda_787d45c283701cc870e4fc26d5464600>@@V?$allocator@H@std@@V?$basic_string@DU?$char_traits@D@std@@V?$allocator@D@2@@3@ABV43@@std@@EBEPBXXZ 00412eb0 f i systeminfo.obj
 0001:00011ec0       ?_Target_type@?$_Func_impl@V<lambda_787d45c283701cc870e4fc26d5464600>@@V?$allocator@H@std@@V?$basic_string@DU?$char_traits@D@std@@V?$allocator@D@2@@3@ABV43@@std@@EBEABVtype_info@@XZ 00412ec0 f i systeminfo.obj
 0001:00011ed0       ?_Do_call@?$_Func_impl@V<lambda_787d45c283701cc870e4fc26d5464600>@@V?$allocator@H@std@@V?$basic_string@DU?$char_traits@D@std@@V?$allocator@D@2@@3@ABV43@@std@@EAE?AV?$basic_string@DU?$char_traits@D@std@@V?$allocator@D@2@@2@ABV32@@Z 00412ed0 f i systeminfo.obj
 0001:00011f00       ?_Move@?$_Func_impl@V<lambda_787d45c283701cc870e4fc26d5464600>@@V?$allocator@H@std@@V?$basic_string@DU?$char_traits@D@std@@V?$allocator@D@2@@3@ABV43@@std@@EAEPAV?$_Func_base@V?$basic_string@DU?$char_traits@D@std@@V?$allocator@D@2@@std@@ABV12@@2@PAX@Z 00412f00 f i systeminfo.obj
 0001:00011f00       ?_Copy@?$_Func_impl@V<lambda_787d45c283701cc870e4fc26d5464600>@@V?$allocator@H@std@@V?$basic_string@DU?$char_traits@D@std@@V?$allocator@D@2@@3@ABV43@@std@@EBEPAV?$_Func_base@V?$basic_string@DU?$char_traits@D@std@@V?$allocator@D@2@@std@@ABV12@@2@PAX@Z 00412f00 f i systeminfo.obj
 0001:00011f20       ??$_Uninitialized_copy_al_unchecked1@PBVRAMInfo@@PAV1@V?$allocator@VRAMInfo@@@std@@@std@@YAPAVRAMInfo@@PBV1@0PAV1@AAU?$_Wrap_alloc@V?$allocator@VRAMInfo@@@std@@@0@U_General_ptr_iterator_tag@0@U_Any_tag@0@@Z 00412f20 f i systeminfo.obj
 0001:00011fc0       ??$_Uninitialized_copy_al_unchecked1@PBVOSInfo@@PAV1@V?$allocator@VOSInfo@@@std@@@std@@YAPAVOSInfo@@PBV1@0PAV1@AAU?$_Wrap_alloc@V?$allocator@VOSInfo@@@std@@@0@U_General_ptr_iterator_tag@0@U_Any_tag@0@@Z 00412fc0 f i systeminfo.obj
 0001:00012060       ??$_Uninitialized_copy_al_unchecked1@PBVMotherboardInfo@@PAV1@V?$allocator@VMotherboardInfo@@@std@@@std@@YAPAVMotherboardInfo@@PBV1@0PAV1@AAU?$_Wrap_alloc@V?$allocator@VMotherboardInfo@@@std@@@0@U_General_ptr_iterator_tag@0@U_Any_tag@0@@Z 00413060 f i systeminfo.obj
 0001:000120f0       ??$_Uninitialized_copy_al_unchecked1@PBVGPUInfo@@PAV1@V?$allocator@VGPUInfo@@@std@@@std@@YAPAVGPUInfo@@PBV1@0PAV1@AAU?$_Wrap_alloc@V?$allocator@VGPUInfo@@@std@@@0@U_General_ptr_iterator_tag@0@U_Any_tag@0@@Z 004130f0 f i systeminfo.obj
 0001:00012190       ??$_Uninitialized_copy_al_unchecked1@PBVCPUInfo@@PAV1@V?$allocator@VCPUInfo@@@std@@@std@@YAPAVCPUInfo@@PBV1@0PAV1@AAU?$_Wrap_alloc@V?$allocator@VCPUInfo@@@std@@@0@U_General_ptr_iterator_tag@0@U_Any_tag@0@@Z 00413190 f i systeminfo.obj
 0001:00012230       ??$_Uninitialized_copy_al_unchecked1@PBV?$basic_string@DU?$char_traits@D@std@@V?$allocator@D@2@@std@@PAV12@V?$allocator@V?$basic_string@DU?$char_traits@D@std@@V?$allocator@D@2@@std@@@2@@std@@YAPAV?$basic_string@DU?$char_traits@D@std@@V?$allocator@D@2@@0@PBV10@0PAV10@AAU?$_Wrap_alloc@V?$allocator@V?$basic_string@DU?$char_traits@D@std@@V?$allocator@D@2@@std@@@std@@@0@U_General_ptr_iterator_tag@0@U_Any_tag@0@@Z 00413230 f i systeminfo.obj
 0001:000122f0       ??$_Uninitialized_move_al_unchecked1@PAV?$basic_string@DU?$char_traits@D@std@@V?$allocator@D@2@@std@@PAV12@V?$allocator@V?$basic_string@DU?$char_traits@D@std@@V?$allocator@D@2@@std@@@2@@std@@YAPAV?$basic_string@DU?$char_traits@D@std@@V?$allocator@D@2@@0@PAV10@00AAU?$_Wrap_alloc@V?$allocator@V?$basic_string@DU?$char_traits@D@std@@V?$allocator@D@2@@std@@@std@@@0@U_General_ptr_iterator_tag@0@U_Any_tag@0@@Z 004132f0 f i systeminfo.obj
 0001:00012330       ??$_Invoke_ret@V?$basic_string@DU?$char_traits@D@std@@V?$allocator@D@2@@std@@AAV<lambda_787d45c283701cc870e4fc26d5464600>@@ABV12@@std@@YA?AV?$basic_string@DU?$char_traits@D@std@@V?$allocator@D@2@@0@U?$_Forced@V?$basic_string@DU?$char_traits@D@std@@V?$allocator@D@2@@std@@$0A@@0@AAV<lambda_787d45c283701cc870e4fc26d5464600>@@ABV10@@Z 00413330 f i systeminfo.obj
 0001:00012360       ??$invoke@AAV<lambda_787d45c283701cc870e4fc26d5464600>@@ABV?$basic_string@DU?$char_traits@D@std@@V?$allocator@D@2@@std@@@std@@YA?AV?$basic_string@DU?$char_traits@D@std@@V?$allocator@D@2@@0@AAV<lambda_787d45c283701cc870e4fc26d5464600>@@ABV10@@Z 00413360 f i systeminfo.obj
 0001:00012390       ??$_Uninitialized_move_al_unchecked1@PAVRAMInfo@@PAV1@V?$allocator@VRAMInfo@@@std@@@std@@YAPAVRAMInfo@@PAV1@00AAU?$_Wrap_alloc@V?$allocator@VRAMInfo@@@std@@@0@U_General_ptr_iterator_tag@0@U_Any_tag@0@@Z 00413390 f i systeminfo.obj
 0001:00012440       ??$_Uninitialized_move_al_unchecked1@PAVOSInfo@@PAV1@V?$allocator@VOSInfo@@@std@@@std@@YAPAVOSInfo@@PAV1@00AAU?$_Wrap_alloc@V?$allocator@VOSInfo@@@std@@@0@U_General_ptr_iterator_tag@0@U_Any_tag@0@@Z 00413440 f i systeminfo.obj
 0001:00012480       ??$_Uninitialized_move_al_unchecked1@PAVMotherboardInfo@@PAV1@V?$allocator@VMotherboardInfo@@@std@@@std@@YAPAVMotherboardInfo@@PAV1@00AAU?$_Wrap_alloc@V?$allocator@VMotherboardInfo@@@std@@@0@U_General_ptr_iterator_tag@0@U_Any_tag@0@@Z 00413480 f i systeminfo.obj
 0001:000124f0       ??$_Uninitialized_move_al_unchecked1@PAVGPUInfo@@PAV1@V?$allocator@VGPUInfo@@@std@@@std@@YAPAVGPUInfo@@PAV1@00AAU?$_Wrap_alloc@V?$allocator@VGPUInfo@@@std@@@0@U_General_ptr_iterator_tag@0@U_Any_tag@0@@Z 004134f0 f i systeminfo.obj
 0001:00012530       ??$_Uninitialized_move_al_unchecked1@PAVCPUInfo@@PAV1@V?$allocator@VCPUInfo@@@std@@@std@@YAPAVCPUInfo@@PAV1@00AAU?$_Wrap_alloc@V?$allocator@VCPUInfo@@@std@@@0@U_General_ptr_iterator_tag@0@U_Any_tag@0@@Z 00413530 f i systeminfo.obj
 0001:000125c0       ??$_Call@AAV<lambda_787d45c283701cc870e4fc26d5464600>@@ABV?$basic_string@DU?$char_traits@D@std@@V?$allocator@D@2@@std@@@_Invoker_functor@std@@SA?AV?$basic_string@DU?$char_traits@D@std@@V?$allocator@D@2@@1@AAV<lambda_787d45c283701cc870e4fc26d5464600>@@ABV21@@Z 004135c0 f i systeminfo.obj
 0001:000125f0       ??0RAMInfo@@QAE@ABV0@@Z    004135f0 f i systeminfo.obj
 0001:000127d0       ??0OSInfo@@QAE@ABV0@@Z     004137d0 f i systeminfo.obj
 0001:00012b00       ??0MotherboardInfo@@QAE@ABV0@@Z 00413b00 f i systeminfo.obj
 0001:00012c40       ??0GPUInfo@@QAE@ABV0@@Z    00413c40 f i systeminfo.obj
 0001:00012e90       ??0CPUInfo@@QAE@ABV0@@Z    00413e90 f i systeminfo.obj
 0001:00013000       ??0OSInfo@@QAE@$$QAV0@@Z   00414000 f i systeminfo.obj
 0001:000130f0       ??0GPUInfo@@QAE@$$QAV0@@Z  004140f0 f i systeminfo.obj
 0001:00013198       ??_E?$basic_stringstream@DU?$char_traits@D@std@@V?$allocator@D@2@@std@@$4PPPPPPPM@A@AEPAXI@Z 00414198 f i systeminfo.obj
 0001:000131a0       ??_E?$basic_ifstream@DU?$char_traits@D@std@@@std@@$4PPPPPPPM@A@AEPAXI@Z 004141a0 f i systeminfo.obj
 0001:000131a8       ??1_Fac_node@std@@QAE@XZ   004141a8 f i msvcprt:locale0_implib.obj
 0001:00013207       ??1_Fac_tidy_reg_t@std@@QAE@XZ 00414207 f i msvcprt:locale0_implib.obj
 0001:0001322e       ?_Facet_Register@std@@YAXPAV_Facet_base@1@@Z 0041422e f   msvcprt:locale0_implib.obj
 0001:0001325c       ?_Lock@?$basic_streambuf@DU?$char_traits@D@std@@@std@@UAEXXZ 0041425c f   msvcprt:MSVCP140.dll
 0001:00013262       ?_Unlock@?$basic_streambuf@DU?$char_traits@D@std@@@std@@UAEXXZ 00414262 f   msvcprt:MSVCP140.dll
 0001:00013268       ?showmanyc@?$basic_streambuf@DU?$char_traits@D@std@@@std@@MAE_JXZ 00414268 f   msvcprt:MSVCP140.dll
 0001:0001326e       ?uflow@?$basic_streambuf@DU?$char_traits@D@std@@@std@@MAEHXZ 0041426e f   msvcprt:MSVCP140.dll
 0001:00013274       ?xsgetn@?$basic_streambuf@DU?$char_traits@D@std@@@std@@MAE_JPAD_J@Z 00414274 f   msvcprt:MSVCP140.dll
 0001:0001327a       ?xsputn@?$basic_streambuf@DU?$char_traits@D@std@@@std@@MAE_JPBD_J@Z 0041427a f   msvcprt:MSVCP140.dll
 0001:00013280       ?setbuf@?$basic_streambuf@DU?$char_traits@D@std@@@std@@MAEPAV12@PAD_J@Z 00414280 f   msvcprt:MSVCP140.dll
 0001:00013286       ?sync@?$basic_streambuf@DU?$char_traits@D@std@@@std@@MAEHXZ 00414286 f   msvcprt:MSVCP140.dll
 0001:0001328c       ?imbue@?$basic_streambuf@DU?$char_traits@D@std@@@std@@MAEXABVlocale@2@@Z 0041428c f   msvcprt:MSVCP140.dll
 0001:00013292       @__security_check_cookie@4 00414292 f   MSVCRT:_secchk_.obj
 0001:000132a3       ??2@YAPAXI@Z               004142a3 f   MSVCRT:new_scalar.obj
 0001:000132d6       ??3@YAXPAX@Z               004142d6 f   MSVCRT:delete_scalar.obj
 0001:000132db       ??3@YAXPAXI@Z              004142db f   MSVCRT:delete_scalar_size.obj
 0001:000132e9       ??_M@YGXPAXIIP6EX0@Z@Z     004142e9 f   MSVCRT:ehvecdtr.obj
 0001:00013363       ?__ArrayUnwind@@YGXPAXIIP6EX0@Z@Z 00414363 f   MSVCRT:ehvecdtr.obj
 0001:00013414       ___scrt_acquire_startup_lock 00414414 f   MSVCRT:utility.obj
 0001:00013449       ___scrt_initialize_crt     00414449 f   MSVCRT:utility.obj
 0001:00013482       ___scrt_initialize_onexit_tables 00414482 f   MSVCRT:utility.obj
 0001:00013519       ___scrt_is_nonwritable_in_current_image 00414519 f   MSVCRT:utility.obj
 0001:000135a3       ___scrt_release_startup_lock 004145a3 f   MSVCRT:utility.obj
 0001:000135c0       ___scrt_uninitialize_crt   004145c0 f   MSVCRT:utility.obj
 0001:000135e8       __onexit                   004145e8 f   MSVCRT:utility.obj
 0001:00013623       _atexit                    00414623 f   MSVCRT:utility.obj
 0001:00013638       ??_Gtype_info@@UAEPAXI@Z   00414638 f i MSVCRT:std_type_info_static.obj
 0001:00013638       ??_Etype_info@@UAEPAXI@Z   00414638 f i MSVCRT:std_type_info_static.obj
 0001:00013881       _WinMainCRTStartup         00414881 f   MSVCRT:exe_winmain.obj
 0001:0001388b       @_guard_check_icall@4      0041488b f i MSVCRT:checkcfg.obj
 0001:00013891       ___raise_securityfailure   00414891 f   MSVCRT:gs_report.obj
 0001:000138b9       ___report_gsfailure        004148b9 f   MSVCRT:gs_report.obj
 0001:000139b4       ___report_rangecheckfailure 004149b4 f   MSVCRT:gs_report.obj
 0001:000139c0       ___report_securityfailure  004149c0 f   MSVCRT:gs_report.obj
 0001:00013a90       ??0bad_alloc@std@@QAE@ABV01@@Z 00414a90 f i MSVCRT:throw_bad_alloc.obj
 0001:00013aab       ??0bad_alloc@std@@QAE@XZ   00414aab f i MSVCRT:throw_bad_alloc.obj
 0001:00013ac3       ??0bad_array_new_length@std@@QAE@ABV01@@Z 00414ac3 f i MSVCRT:throw_bad_alloc.obj
 0001:00013ade       ??0bad_array_new_length@std@@QAE@XZ 00414ade f i MSVCRT:throw_bad_alloc.obj
 0001:00013af6       ??1bad_alloc@std@@UAE@XZ   00414af6 f i MSVCRT:throw_bad_alloc.obj
 0001:00013af6       ??1bad_array_new_length@std@@UAE@XZ 00414af6 f i MSVCRT:throw_bad_alloc.obj
 0001:00013b07       ??_Gbad_alloc@std@@UAEPAXI@Z 00414b07 f i MSVCRT:throw_bad_alloc.obj
 0001:00013b07       ??_Ebad_array_new_length@std@@UAEPAXI@Z 00414b07 f i MSVCRT:throw_bad_alloc.obj
 0001:00013b07       ??_Ebad_alloc@std@@UAEPAXI@Z 00414b07 f i MSVCRT:throw_bad_alloc.obj
 0001:00013b07       ??_Gbad_array_new_length@std@@UAEPAXI@Z 00414b07 f i MSVCRT:throw_bad_alloc.obj
 0001:00013b34       ?__scrt_throw_std_bad_alloc@@YAXXZ 00414b34 f   MSVCRT:throw_bad_alloc.obj
 0001:00013b51       ?__scrt_throw_std_bad_array_new_length@@YAXXZ 00414b51 f   MSVCRT:throw_bad_alloc.obj
 0001:00013b70       __SEH_prolog4              00414b70 f   MSVCRT:_sehprolg4_.obj
 0001:00013bb6       __SEH_epilog4              00414bb6 f   MSVCRT:_sehprolg4_.obj
 0001:00013bcb       __except_handler4          00414bcb f   MSVCRT:_chandler4gs_.obj
 0001:00013bee       ___isa_available_init      00414bee f   MSVCRT:_cpu_disp_.obj
 0001:00013d92       __get_startup_argv_mode    00414d92 f   MSVCRT:argv_mode.obj
 0001:00013d96       ___scrt_is_ucrt_dll_in_use 00414d96 f   MSVCRT:ucrt_detection.obj
 0001:00013da2       ___scrt_fastfail           00414da2 f   MSVCRT:utility_desktop.obj
 0001:00013ebd       ___scrt_get_show_window_mode 00414ebd f   MSVCRT:utility_desktop.obj
 0001:00013ef0       __get_startup_thread_locale_mode 00414ef0 f   MSVCRT:thread_locale.obj
 0001:00013ef0       _Curl_if2ip                00414ef0 f   libcurl:if2ip.obj
 0001:00013ef0       _Curl_posttransfer         00414ef0 f   libcurl:transfer.obj
 0001:00013ef0       ___scrt_initialize_winrt   00414ef0 f   MSVCRT:utility_desktop.obj
 0001:00013ef0       _Curl_resolver_global_init 00414ef0 f   libcurl:asyn-thread.obj
 0001:00013ef0       __get_startup_commit_mode  00414ef0 f   MSVCRT:commit_mode.obj
 0001:00013ef0       __get_startup_new_mode     00414ef0 f   MSVCRT:new_mode.obj
 0001:00013ef0       _Curl_ssl_backend          00414ef0 f   libcurl:vtls.obj
 0001:00013ef0       __matherr                  00414ef0 f   MSVCRT:matherr.obj
 0001:00013ef3       ___scrt_is_managed_app     00414ef3 f   MSVCRT:utility_desktop.obj
 0001:00013f37       ___scrt_set_unhandled_exception_filter 00414f37 f   MSVCRT:utility_desktop.obj
 0001:00013f43       ___scrt_unhandled_exception_filter@4 00414f43 f   MSVCRT:utility_desktop.obj
 0001:00013f84       ___security_init_cookie    00414f84 f   MSVCRT:gs_support.obj
 0001:00014020       __get_startup_file_mode    00415020 f   MSVCRT:file_mode.obj
 0001:00014026       ?__scrt_initialize_type_info@@YAXXZ 00415026 f   MSVCRT:tncleanup.obj
 0001:00014032       __initialize_default_precision 00415032 f   MSVCRT:default_precision.obj
 0001:00014053       ___local_stdio_scanf_options 00415053 f i MSVCRT:default_local_stdio_options.obj
 0001:00014059       ___scrt_initialize_default_local_stdio_options 00415059 f   MSVCRT:default_local_stdio_options.obj
 0001:00014076       ___scrt_is_user_matherr_present 00415076 f   MSVCRT:matherr_detection.obj
 0001:00014082       ___scrt_get_dyn_tls_init_callback 00415082 f   MSVCRT:dyn_tls_init.obj
 0001:00014088       ___scrt_get_dyn_tls_dtor_callback 00415088 f   MSVCRT:dyn_tls_dtor.obj
 0001:0001408e       __RTC_Initialize           0041508e f   MSVCRT:_initsect_.obj
 0001:000140b9       __RTC_Terminate            004150b9 f   MSVCRT:_initsect_.obj
 0001:000140f0       _curl_easy_cleanup         004150f0 f   libcurl:easy.obj
 0001:00014110       _curl_easy_init            00415110 f   libcurl:easy.obj
 0001:00014150       _curl_easy_perform         00415150 f   libcurl:easy.obj
 0001:00014170       _curl_global_init          00415170 f   libcurl:easy.obj
 0001:00014390       _Curl_setblobopt           00415390 f   libcurl:setopt.obj
 0001:00014430       _Curl_setstropt            00415430 f   libcurl:setopt.obj
 0001:000144a0       _Curl_vsetopt              004154a0 f   libcurl:setopt.obj
 0001:00017110       _curl_easy_setopt          00418110 f   libcurl:setopt.obj
 0001:00017200       _Curl_slist_append_nodup   00418200 f   libcurl:slist.obj
 0001:00017240       _curl_slist_append         00418240 f   libcurl:slist.obj
 0001:00017280       _curl_slist_free_all       00418280 f   libcurl:slist.obj
 0001:000172e0       _Curl_attach_connnection   004182e0 f   libcurl:multi.obj
 0001:00017310       _Curl_detach_connnection   00418310 f   libcurl:multi.obj
 0001:00017340       _Curl_expire               00418340 f   libcurl:multi.obj
 0001:000174a0       _Curl_expire_clear         004184a0 f   libcurl:multi.obj
 0001:00017540       _Curl_expire_done          00418540 f   libcurl:multi.obj
 0001:00017550       _Curl_multi_closed         00418550 f   libcurl:multi.obj
 0001:000175b0       _Curl_multi_handle         004185b0 f   libcurl:multi.obj
 0001:00017700       _Curl_multi_max_host_connections 00418700 f   libcurl:multi.obj
 0001:00017720       _Curl_multi_max_total_connections 00418720 f   libcurl:multi.obj
 0001:00017740       _Curl_multiplex_wanted     00418740 f   libcurl:multi.obj
 0001:00017760       _Curl_preconnect           00418760 f   libcurl:multi.obj
 0001:000177a0       _Curl_set_in_callback      004187a0 f   libcurl:multi.obj
 0001:000177d0       _Curl_update_timer         004187d0 f   libcurl:multi.obj
 0001:00017a00       _curl_multi_add_handle     00418a00 f   libcurl:multi.obj
 0001:00017b90       _curl_multi_cleanup        00418b90 f   libcurl:multi.obj
 0001:00017c90       _curl_multi_info_read      00418c90 f   libcurl:multi.obj
 0001:00017d00       _curl_multi_perform        00418d00 f   libcurl:multi.obj
 0001:00017e10       _curl_multi_poll           00418e10 f   libcurl:multi.obj
 0001:00017e30       _curl_multi_remove_handle  00418e30 f   libcurl:multi.obj
 0001:00018000       _curl_multi_setopt         00419000 f   libcurl:multi.obj
 0001:00018170       _curl_multi_timeout        00419170 f   libcurl:multi.obj
 0001:00019da0       _Curl_resolver_cleanup     0041ada0 f   libcurl:asyn-thread.obj
 0001:0001a170       _Curl_cookie_add           0041b170 f   libcurl:cookie.obj
 0001:0001aea0       _Curl_cookie_cleanup       0041bea0 f   libcurl:cookie.obj
 0001:0001aef0       _Curl_cookie_clearall      0041bef0 f   libcurl:cookie.obj
 0001:0001af30       _Curl_cookie_clearsess     0041bf30 f   libcurl:cookie.obj
 0001:0001afb0       _Curl_cookie_freelist      0041bfb0 f   libcurl:cookie.obj
 0001:0001afe0       _Curl_cookie_getlist       0041bfe0 f   libcurl:cookie.obj
 0001:0001b150       _Curl_cookie_init          0041c150 f   libcurl:cookie.obj
 0001:0001b330       _Curl_cookie_loadfiles     0041c330 f   libcurl:cookie.obj
 0001:0001b3b0       _Curl_flush_cookies        0041c3b0 f   libcurl:cookie.obj
 0001:0001be00       _sscanf                    0041ce00 f i libcurl:cookie.obj
 0001:0001beb0       _Curl_resolver_cancel      0041ceb0 f   libcurl:asyn-thread.obj
 0001:0001bec0       _Curl_resolver_getaddrinfo 0041cec0 f   libcurl:asyn-thread.obj
 0001:0001bf80       _Curl_resolver_getsock     0041cf80 f   libcurl:asyn-thread.obj
 0001:0001c040       _Curl_resolver_init        0041d040 f   libcurl:asyn-thread.obj
 0001:0001c070       _Curl_resolver_is_resolved 0041d070 f   libcurl:asyn-thread.obj
 0001:0001c1c0       _Curl_resolver_kill        0041d1c0 f   libcurl:asyn-thread.obj
 0001:0001c1f0       _Curl_resolver_wait_resolv 0041d1f0 f   libcurl:asyn-thread.obj
 0001:0001c680       _Curl_dyn_add              0041d680 f   libcurl:dynbuf.obj
 0001:0001c6b0       _Curl_dyn_addf             0041d6b0 f   libcurl:dynbuf.obj
 0001:0001c6d0       _Curl_dyn_addn             0041d6d0 f   libcurl:dynbuf.obj
 0001:0001c6e0       _Curl_dyn_free             0041d6e0 f   libcurl:dynbuf.obj
 0001:0001c710       _Curl_dyn_init             0041d710 f   libcurl:dynbuf.obj
 0001:0001c740       _Curl_dyn_len              0041d740 f   libcurl:dynbuf.obj
 0001:0001c750       _Curl_dyn_reset            0041d750 f   libcurl:dynbuf.obj
 0001:0001c770       _Curl_dyn_ptr              0041d770 f   libcurl:dynbuf.obj
 0001:0001c770       _Curl_dyn_uptr             0041d770 f   libcurl:dynbuf.obj
 0001:0001c780       _Curl_dyn_vaddf            0041d780 f   libcurl:dynbuf.obj
 0001:0001cd50       _Curl_mime_add_header      0041dd50 f   libcurl:mime.obj
 0001:0001cdb0       _Curl_mime_cleanpart       0041ddb0 f   libcurl:mime.obj
 0001:0001ce20       _Curl_mime_contenttype     0041de20 f   libcurl:mime.obj
 0001:0001ce90       _Curl_mime_initpart        0041de90 f   libcurl:mime.obj
 0001:0001cee0       _Curl_mime_prepare_headers 0041dee0 f   libcurl:mime.obj
 0001:0001d1f0       _Curl_mime_read            0041e1f0 f   libcurl:mime.obj
 0001:0001d220       _Curl_mime_rewind          0041e220 f   libcurl:mime.obj
 0001:0001d240       _Curl_mime_set_subparts    0041e240 f   libcurl:mime.obj
 0001:0001d310       _Curl_mime_size            0041e310 f   libcurl:mime.obj
 0001:0001d520       _curl_mime_addpart         0041e520 f   libcurl:mime.obj
 0001:0001d580       _curl_mime_data            0041e580 f   libcurl:mime.obj
 0001:0001d620       _curl_mime_data_cb         0041e620 f   libcurl:mime.obj
 0001:0001d670       _curl_mime_filedata        0041e670 f   libcurl:mime.obj
 0001:0001d790       _curl_mime_filename        0041e790 f   libcurl:mime.obj
 0001:0001d7e0       _curl_mime_free            0041e7e0 f   libcurl:mime.obj
 0001:0001d830       _curl_mime_headers         0041e830 f   libcurl:mime.obj
 0001:0001d880       _curl_mime_init            0041e880 f   libcurl:mime.obj
 0001:0001d900       _curl_mime_name            0041e900 f   libcurl:mime.obj
 0001:0001d950       _curl_mime_subparts        0041e950 f   libcurl:mime.obj
 0001:0001d970       _curl_mime_type            0041e970 f   libcurl:mime.obj
 0001:0001e600       _Curl_conncache_add_conn   0041f600 f   libcurl:conncache.obj
 0001:0001e700       _Curl_conncache_close_all_connections 0041f700 f   libcurl:conncache.obj
 0001:0001e7b0       _Curl_conncache_destroy    0041f7b0 f   libcurl:conncache.obj
 0001:0001e7d0       _Curl_conncache_extract_bundle 0041f7d0 f   libcurl:conncache.obj
 0001:0001e880       _Curl_conncache_extract_oldest 0041f880 f   libcurl:conncache.obj
 0001:0001e9b0       _Curl_conncache_find_bundle 0041f9b0 f   libcurl:conncache.obj
 0001:0001ea50       _Curl_conncache_foreach    0041fa50 f   libcurl:conncache.obj
 0001:0001eb20       _Curl_conncache_init       0041fb20 f   libcurl:conncache.obj
 0001:0001eb90       _Curl_conncache_remove_conn 0041fb90 f   libcurl:conncache.obj
 0001:0001ec20       _Curl_conncache_return_conn 0041fc20 f   libcurl:conncache.obj
 0001:0001eca0       _Curl_conncache_size       0041fca0 f   libcurl:conncache.obj
 0001:0001f760       _Curl_builtin_scheme       00420760 f   libcurl:url.obj
 0001:0001f7a0       _Curl_close                004207a0 f   libcurl:url.obj
 0001:0001fb20       _Curl_connect              00420b20 f   libcurl:url.obj
 0001:0001fbe0       _Curl_disconnect           00420be0 f   libcurl:url.obj
 0001:0001fc70       _Curl_free_request_state   00420c70 f   libcurl:url.obj
 0001:0001fce0       _Curl_freeset              00420ce0 f   libcurl:url.obj
 0001:0001fdb0       _Curl_idnconvert_hostname  00420db0 f   libcurl:url.obj
 0001:0001fde0       _Curl_init_do              00420de0 f   libcurl:url.obj
 0001:0001feb0       _Curl_init_userdefined     00420eb0 f   libcurl:url.obj
 0001:00020100       _Curl_is_ASCII_name        00421100 f   libcurl:url.obj
 0001:00020130       _Curl_open                 00421130 f   libcurl:url.obj
 0001:00020210       _Curl_parse_login_details  00421210 f   libcurl:url.obj
 0001:00020430       _Curl_setup_conn           00421430 f   libcurl:url.obj
 0001:00020530       _Curl_uc_to_curlcode       00421530 f   libcurl:url.obj
 0001:00020570       _Curl_verboseconnect       00421570 f   libcurl:url.obj
 0001:00023570       _Curl_initinfo             00424570 f   libcurl:getinfo.obj
 0001:00023710       _Curl_memdup               00424710 f   libcurl:strdup.obj
 0001:00023740       _Curl_saferealloc          00424740 f   libcurl:strdup.obj
 0001:00023770       _Curl_client_write         00424770 f   libcurl:sendf.obj
 0001:000237a0       _Curl_debug                004247a0 f   libcurl:sendf.obj
 0001:00023830       _Curl_failf                00424830 f   libcurl:sendf.obj
 0001:000238f0       _Curl_infof                004248f0 f   libcurl:sendf.obj
 0001:000239b0       _Curl_read                 004249b0 f   libcurl:sendf.obj
 0001:00023a20       _Curl_read_plain           00424a20 f   libcurl:sendf.obj
 0001:00023a70       _Curl_recv_has_postponed_data 00424a70 f   libcurl:sendf.obj
 0001:00023aa0       _Curl_recv_plain           00424aa0 f   libcurl:sendf.obj
 0001:00023ba0       _Curl_send_plain           00424ba0 f   libcurl:sendf.obj
 0001:00023c90       _Curl_write                00424c90 f   libcurl:sendf.obj
 0001:00023d00       _Curl_write_plain          00424d00 f   libcurl:sendf.obj
 0001:000240c0       _Curl_addr2string          004250c0 f   libcurl:connect.obj
 0001:00024160       _Curl_closesocket          00425160 f   libcurl:connect.obj
 0001:000241e0       _Curl_conn_data_pending    004251e0 f   libcurl:connect.obj
 0001:00024230       _Curl_connalive            00425230 f   libcurl:connect.obj
 0001:00024270       _Curl_conncontrol          00425270 f   libcurl:connect.obj
 0001:000242c0       _Curl_connecthost          004252c0 f   libcurl:connect.obj
 0001:00024430       _Curl_conninfo_local       00425430 f   libcurl:connect.obj
 0001:00024510       _Curl_conninfo_remote      00425510 f   libcurl:connect.obj
 0001:00024610       _Curl_is_connected         00425610 f   libcurl:connect.obj
 0001:00024b40       _Curl_persistconninfo      00425b40 f   libcurl:connect.obj
 0001:00024c10       _Curl_sndbufset            00425c10 f   libcurl:connect.obj
 0001:00024cb0       _Curl_socket               00425cb0 f   libcurl:connect.obj
 0001:00024dd0       _Curl_timeleft             00425dd0 f   libcurl:connect.obj
 0001:00024f50       _Curl_updateconninfo       00425f50 f   libcurl:connect.obj
 0001:00025d20       _curlx_read                00426d20 f   libcurl:warnless.obj
 0001:00025d40       _curlx_uztosz              00426d40 f   libcurl:warnless.obj
 0001:00025d40       _curlx_uztosi              00426d40 f   libcurl:warnless.obj
 0001:00025d40       _curlx_sltosi              00426d40 f   libcurl:warnless.obj
 0001:00025d50       _curlx_sltoui              00426d50 f   libcurl:warnless.obj
 0001:00025d50       _curlx_sotouz              00426d50 f   libcurl:warnless.obj
 0001:00025d50       _curlx_uztoui              00426d50 f   libcurl:warnless.obj
 0001:00025d60       _curlx_ultouc              00426d60 f   libcurl:warnless.obj
 0001:00025d70       _curlx_sltous              00426d70 f   libcurl:warnless.obj
 0001:00025d70       _curlx_uitous              00426d70 f   libcurl:warnless.obj
 0001:00025d70       _curlx_ultous              00426d70 f   libcurl:warnless.obj
 0001:00025d80       _curlx_write               00426d80 f   libcurl:warnless.obj
 0001:00025da0       _Curl_http_auth_cleanup_digest 00426da0 f   libcurl:http_digest.obj
 0001:00025dd0       _Curl_input_digest         00426dd0 f   libcurl:http_digest.obj
 0001:00025e40       _Curl_output_digest        00426e40 f   libcurl:http_digest.obj
 0001:00025fa0       _Curl_load_library         00426fa0 f   libcurl:system_win32.obj
 0001:000260f0       _Curl_win32_init           004270f0 f   libcurl:system_win32.obj
 0001:000261b0       _Curl_alpnid2str           004271b0 f   libcurl:altsvc.obj
 0001:000261e0       _Curl_altsvc_cleanup       004271e0 f   libcurl:altsvc.obj
 0001:00026230       _Curl_altsvc_ctrl          00427230 f   libcurl:altsvc.obj
 0001:00026250       _Curl_altsvc_init          00427250 f   libcurl:altsvc.obj
 0001:00026280       _Curl_altsvc_load          00427280 f   libcurl:altsvc.obj
 0001:00026290       _Curl_altsvc_lookup        00427290 f   libcurl:altsvc.obj
 0001:00026330       _Curl_altsvc_parse         00427330 f   libcurl:altsvc.obj
 0001:00026810       _Curl_altsvc_save          00427810 f   libcurl:altsvc.obj
 0001:00026e50       _Curl_raw_toupper          00427e50 f   libcurl:strcase.obj
 0001:00026e70       _Curl_safe_strcasecompare  00427e70 f   libcurl:strcase.obj
 0001:00026ea0       _Curl_strcasecompare       00427ea0 f   libcurl:strcase.obj
 0001:00026f10       _Curl_strncasecompare      00427f10 f   libcurl:strcase.obj
 0001:00026fa0       _Curl_strntolower          00427fa0 f   libcurl:strcase.obj
 0001:00026fe0       _Curl_strntoupper          00427fe0 f   libcurl:strcase.obj
 0001:00027020       _curl_strequal             00428020 f   libcurl:strcase.obj
 0001:00027030       _curl_strnequal            00428030 f   libcurl:strcase.obj
 0001:00027130       _Curl_all_content_encodings 00428130 f   libcurl:content_encoding.obj
 0001:00027230       _Curl_build_unencoding_stack 00428230 f   libcurl:content_encoding.obj
 0001:00027340       _Curl_unencode_cleanup     00428340 f   libcurl:content_encoding.obj
 0001:00027380       _Curl_unencode_write       00428380 f   libcurl:content_encoding.obj
 0001:00027460       _Curl_share_lock           00428460 f   libcurl:share.obj
 0001:000274a0       _Curl_share_unlock         004284a0 f   libcurl:share.obj
 0001:000274e0       _Curl_now                  004284e0 f   libcurl:timeval.obj
 0001:00027580       _Curl_timediff             00428580 f   libcurl:timeval.obj
 0001:00027610       _Curl_timediff_us          00428610 f   libcurl:timeval.obj
 0001:00027680       _Curl_llist_count          00428680 f   libcurl:llist.obj
 0001:00027680       _Curl_ftp_parselist_geterror 00428680 f   libcurl:ftplistparser.obj
 0001:00027690       _Curl_llist_destroy        00428690 f   libcurl:llist.obj
 0001:000276c0       _Curl_llist_init           004286c0 f   libcurl:llist.obj
 0001:000276f0       _Curl_llist_insert_next    004286f0 f   libcurl:llist.obj
 0001:00027770       _Curl_llist_remove         00428770 f   libcurl:llist.obj
 0001:000277f0       _Curl_hash_add             004287f0 f   libcurl:hash.obj
 0001:00027880       _Curl_hash_clean           00428880 f   libcurl:hash.obj
 0001:000278a0       _Curl_hash_clean_with_criterium 004288a0 f   libcurl:hash.obj
 0001:00027920       _Curl_hash_delete          00428920 f   libcurl:hash.obj
 0001:000279a0       _Curl_hash_destroy         004289a0 f   libcurl:hash.obj
 0001:000279f0       _Curl_hash_init            004289f0 f   libcurl:hash.obj
 0001:00027a80       _Curl_hash_next_element    00428a80 f   libcurl:hash.obj
 0001:00027af0       _Curl_hash_pick            00428af0 f   libcurl:hash.obj
 0001:00027b60       _Curl_hash_start_iterate   00428b60 f   libcurl:hash.obj
 0001:00027b80       _Curl_hash_str             00428b80 f   libcurl:hash.obj
 0001:00027bd0       _Curl_str_key_compare      00428bd0 f   libcurl:hash.obj
 0001:00027cc0       _Curl_ipv6works            00428cc0 f   libcurl:hostip6.obj
 0001:00027d10       _Curl_ipvalid              00428d10 f   libcurl:hostip6.obj
 0001:00027d30       _Curl_cache_addr           00428d30 f   libcurl:hostip.obj
 0001:00027e50       _Curl_fetch_addr           00428e50 f   libcurl:hostip.obj
 0001:00027ea0       _Curl_hostcache_clean      00428ea0 f   libcurl:hostip.obj
 0001:00027ef0       _Curl_hostcache_prune      00428ef0 f   libcurl:hostip.obj
 0001:00027f60       _Curl_loadhostpairs        00428f60 f   libcurl:hostip.obj
 0001:000283f0       _Curl_mk_dnscache          004293f0 f   libcurl:hostip.obj
 0001:00028420       _Curl_num_addresses        00429420 f   libcurl:hostip.obj
 0001:00028440       _Curl_once_resolved        00429440 f   libcurl:hostip.obj
 0001:000284a0       _Curl_printable_address    004294a0 f   libcurl:hostip.obj
 0001:000284f0       _Curl_resolv               004294f0 f   libcurl:hostip.obj
 0001:00028720       _Curl_resolv_check         00429720 f   libcurl:hostip.obj
 0001:00028750       _Curl_resolv_getsock       00429750 f   libcurl:hostip.obj
 0001:00028770       _Curl_resolv_timeout       00429770 f   libcurl:hostip.obj
 0001:000287b0       _Curl_resolv_unlock        004297b0 f   libcurl:hostip.obj
 0001:00028800       _Curl_resolver_error       00429800 f   libcurl:hostip.obj
 0001:00028c20       _Curl_splay                00429c20 f   libcurl:splay.obj
 0001:00028d80       _Curl_splaygetbest         00429d80 f   libcurl:splay.obj
 0001:00028e30       _Curl_splayinsert          00429e30 f   libcurl:splay.obj
 0001:00028f30       _Curl_splayremove          00429f30 f   libcurl:splay.obj
 0001:000290f0       _Curl_http                 0042a0f0 f   libcurl:http.obj
 0001:000296c0       _Curl_http_done            0042a6c0 f   libcurl:http.obj
 0001:000297a0       _Curl_http_connect         0042a7a0 f   libcurl:http.obj
 0001:00029820       _Curl_add_custom_headers   0042a820 f   libcurl:http.obj
 0001:00029b50       _Curl_add_timecondition    0042ab50 f   libcurl:http.obj
 0001:00029c90       _Curl_buffer_send          0042ac90 f   libcurl:http.obj
 0001:00029f10       _Curl_checkProxyheaders    0042af10 f   libcurl:http.obj
 0001:00029f90       _Curl_compareheader        0042af90 f   libcurl:http.obj
 0001:0002a060       _Curl_copy_header_value    0042b060 f   libcurl:http.obj
 0001:0002a130       _Curl_http_auth_act        0042b130 f   libcurl:http.obj
 0001:0002a340       _Curl_http_body            0042b340 f   libcurl:http.obj
 0001:0002a520       _Curl_http_bodysend        0042b520 f   libcurl:http.obj
 0001:0002ac60       _Curl_http_compile_trailers 0042bc60 f   libcurl:http.obj
 0001:0002acf0       _Curl_http_cookies         0042bcf0 f   libcurl:http.obj
 0001:0002ae80       _Curl_http_firstwrite      0042be80 f   libcurl:http.obj
 0001:0002af90       _Curl_http_header          0042bf90 f   libcurl:http.obj
 0001:0002b660       _Curl_http_host            0042c660 f   libcurl:http.obj
 0001:0002b890       _Curl_http_input_auth      0042c890 f   libcurl:http.obj
 0001:0002ba60       _Curl_http_method          0042ca60 f   libcurl:http.obj
 0001:0002bb10       _Curl_http_output_auth     0042cb10 f   libcurl:http.obj
 0001:0002bc60       _Curl_http_range           0042cc60 f   libcurl:http.obj
 0001:0002bda0       _Curl_http_readwrite_headers 0042cda0 f   libcurl:http.obj
 0001:0002c640       _Curl_http_resume          0042d640 f   libcurl:http.obj
 0001:0002c830       _Curl_http_statusline      0042d830 f   libcurl:http.obj
 0001:0002c950       _Curl_http_target          0042d950 f   libcurl:http.obj
 0001:0002cb40       _Curl_http_useragent       0042db40 f   libcurl:http.obj
 0001:0002d580       _Curl_wildcard_dtor        0042e580 f   libcurl:wildcard.obj
 0001:0002d5f0       _Curl_wildcard_init        0042e5f0 f   libcurl:wildcard.obj
 0001:0002d630       _Curl_socketpair           0042e630 f   libcurl:socketpair.obj
 0001:0002d820       _Curl_checkheaders         0042e820 f   libcurl:transfer.obj
 0001:0002d880       _Curl_done_sending         0042e880 f   libcurl:transfer.obj
 0001:0002d8b0       _Curl_fillreadbuffer       0042e8b0 f   libcurl:transfer.obj
 0001:0002dc70       _Curl_follow               0042ec70 f   libcurl:transfer.obj
 0001:0002dfd0       _Curl_get_upload_buffer    0042efd0 f   libcurl:transfer.obj
 0001:0002e010       _Curl_init_CONNECT         0042f010 f   libcurl:transfer.obj
 0001:0002e030       _Curl_meets_timecondition  0042f030 f   libcurl:transfer.obj
 0001:0002e0a0       _Curl_pretransfer          0042f0a0 f   libcurl:transfer.obj
 0001:0002e3c0       _Curl_readrewind           0042f3c0 f   libcurl:transfer.obj
 0001:0002e530       _Curl_readwrite            0042f530 f   libcurl:transfer.obj
 0001:0002e850       _Curl_retry_request        0042f850 f   libcurl:transfer.obj
 0001:0002e9b0       _Curl_setup_transfer       0042f9b0 f   libcurl:transfer.obj
 0001:0002eb50       _Curl_single_getsock       0042fb50 f   libcurl:transfer.obj
 0001:0002f6d0       _curlx_nonblock            004306d0 f   libcurl:nonblock.obj
 0001:0002f700       _Curl_pgrsDone             00430700 f   libcurl:progress.obj
 0001:0002f760       _Curl_pgrsLimitWaitTime    00430760 f   libcurl:progress.obj
 0001:0002f830       _Curl_pgrsResetTransferSizes 00430830 f   libcurl:progress.obj
 0001:0002f850       _Curl_pgrsSetDownloadCounter 00430850 f   libcurl:progress.obj
 0001:0002f870       _Curl_pgrsSetDownloadSize  00430870 f   libcurl:progress.obj
 0001:0002f8c0       _Curl_pgrsSetUploadCounter 004308c0 f   libcurl:progress.obj
 0001:0002f8e0       _Curl_pgrsSetUploadSize    004308e0 f   libcurl:progress.obj
 0001:0002f930       _Curl_pgrsStartNow         00430930 f   libcurl:progress.obj
 0001:0002f9d0       _Curl_pgrsTime             004309d0 f   libcurl:progress.obj
 0001:0002fb40       _Curl_pgrsUpdate           00430b40 f   libcurl:progress.obj
 0001:0002fcd0       _Curl_ratelimit            00430cd0 f   libcurl:progress.obj
 0001:000308d0       _Curl_poll                 004318d0 f   libcurl:select.obj
 0001:00030b80       _Curl_socket_check         00431b80 f   libcurl:select.obj
 0001:00030c90       _Curl_wait_ms              00431c90 f   libcurl:select.obj
 0001:00030e10       _Curl_speedcheck           00431e10 f   libcurl:speedcheck.obj
 0001:00030f10       _Curl_speedinit            00431f10 f   libcurl:speedcheck.obj
 0001:000318a0       _Curl_connect_complete     004328a0 f   libcurl:http_proxy.obj
 0001:000318c0       _Curl_connect_free         004328c0 f   libcurl:http_proxy.obj
 0001:000318f0       _Curl_connect_ongoing      004328f0 f   libcurl:http_proxy.obj
 0001:00031910       _Curl_proxyCONNECT         00432910 f   libcurl:http_proxy.obj
 0001:00031970       _Curl_proxy_connect        00432970 f   libcurl:http_proxy.obj
 0001:00031b70       _Curl_SOCKS4               00432b70 f   libcurl:socks.obj
 0001:000321f0       _Curl_SOCKS5               004331f0 f   libcurl:socks.obj
 0001:00032dc0       _Curl_SOCKS_getsock        00433dc0 f   libcurl:socks.obj
 0001:00032e40       _Curl_dyn_vprintf          00433e40 f   libcurl:mprintf.obj
 0001:00032f00       _curl_maprintf             00433f00 f   libcurl:mprintf.obj
 0001:00032f20       _curl_mfprintf             00433f20 f   libcurl:mprintf.obj
 0001:00032f40       _curl_msnprintf            00433f40 f   libcurl:mprintf.obj
 0001:00032f60       _curl_mvaprintf            00433f60 f   libcurl:mprintf.obj
 0001:00032fe0       _curl_mvsnprintf           00433fe0 f   libcurl:mprintf.obj
 0001:000343c0       _curlx_win32_access        004353c0 f   libcurl:curl_multibyte.obj
 0001:000343d0       _curlx_win32_fopen         004353d0 f   libcurl:curl_multibyte.obj
 0001:000343e0       _curlx_win32_open          004353e0 f   libcurl:curl_multibyte.obj
 0001:00034410       _curlx_win32_stat          00435410 f   libcurl:curl_multibyte.obj
 0001:00034420       _Curl_strtok_r             00435420 f   libcurl:strtok.obj
 0001:000344a0       _curlx_strtoofft           004354a0 f   libcurl:strtoofft.obj
 0001:00034560       _Curl_get_line             00435560 f   libcurl:curl_get_line.obj
 0001:000345d0       _Curl_memrchr              004355d0 f   libcurl:curl_memrchr.obj
 0001:00034600       _Curl_inet_pton            00435600 f   libcurl:inet_pton.obj
 0001:00034910       _Curl_getdate_capped       00435910 f   libcurl:parsedate.obj
 0001:00034980       _Curl_gmtime               00435980 f   libcurl:parsedate.obj
 0001:00035040       _Curl_rand                 00436040 f   libcurl:rand.obj
 0001:000350a0       _Curl_rand_hex             004360a0 f   libcurl:rand.obj
 0001:000351e0       _Curl_rename               004361e0 f   libcurl:rename.obj
 0001:000352c0       _Curl_freeaddrinfo         004362c0 f   libcurl:curl_addrinfo.obj
 0001:000352f0       _Curl_getaddrinfo_ex       004362f0 f   libcurl:curl_addrinfo.obj
 0001:00035480       _Curl_he2ai                00436480 f   libcurl:curl_addrinfo.obj
 0001:000355c0       _Curl_ip2addr              004365c0 f   libcurl:curl_addrinfo.obj
 0001:00035690       _Curl_str2addr             00436690 f   libcurl:curl_addrinfo.obj
 0001:00035720       _Curl_unix2addr            00436720 f   libcurl:curl_addrinfo.obj
 0001:000357d0       _Curl_addrinfo_callback    004367d0 f   libcurl:hostasyn.obj
 0001:00035860       _Curl_getaddrinfo          00436860 f   libcurl:hostasyn.obj
 0001:00035870       _Curl_thread_create        00436870 f   libcurl:curl_threads.obj
 0001:000358a0       _Curl_thread_destroy       004368a0 f   libcurl:curl_threads.obj
 0001:000358b0       _Curl_thread_join          004368b0 f   libcurl:curl_threads.obj
 0001:00037d40       _Curl_pop3_write           00438d40 f   libcurl:pop3.obj
 0001:00039000       _Curl_smtp_escape_eob      0043a000 f   libcurl:smtp.obj
 0001:0003b230       _Curl_GetFTPResponse       0043c230 f   libcurl:ftp.obj
 0001:000447a0       _Curl_rtsp_parseheader     004457a0 f   libcurl:rtsp.obj
 0001:00046750       _curl_getenv               00447750 f   libcurl:getenv.obj
 0001:00046760       _Curl_is_absolute_url      00447760 f   libcurl:urlapi.obj
 0001:00046b70       _curl_url                  00447b70 f   libcurl:urlapi.obj
 0001:00046b80       _curl_url_cleanup          00447b80 f   libcurl:urlapi.obj
 0001:00046ba0       _curl_url_dup              00447ba0 f   libcurl:urlapi.obj
 0001:00046cc0       _curl_url_get              00447cc0 f   libcurl:urlapi.obj
 0001:000471d0       _curl_url_set              004481d0 f   libcurl:urlapi.obj
 0001:000482e0       _Curl_isalnum              004492e0 f   libcurl:curl_ctype.obj
 0001:00048300       _Curl_isalpha              00449300 f   libcurl:curl_ctype.obj
 0001:00048320       _Curl_iscntrl              00449320 f   libcurl:curl_ctype.obj
 0001:00048340       _Curl_isdigit              00449340 f   libcurl:curl_ctype.obj
 0001:00048360       _Curl_isgraph              00449360 f   libcurl:curl_ctype.obj
 0001:00048380       _Curl_islower              00449380 f   libcurl:curl_ctype.obj
 0001:000483a0       _Curl_isprint              004493a0 f   libcurl:curl_ctype.obj
 0001:000483c0       _Curl_isspace              004493c0 f   libcurl:curl_ctype.obj
 0001:000483e0       _Curl_isupper              004493e0 f   libcurl:curl_ctype.obj
 0001:00048400       _Curl_isxdigit             00449400 f   libcurl:curl_ctype.obj
 0001:00048420       _Curl_parsenetrc           00449420 f   libcurl:netrc.obj
 0001:00048980       _Curl_clone_primary_ssl_config 00449980 f   libcurl:vtls.obj
 0001:00048b20       _Curl_free_primary_ssl_config 00449b20 f   libcurl:vtls.obj
 0001:00048bd0       _Curl_ssl_config_matches   00449bd0 f   libcurl:vtls.obj
 0001:00048df0       _Curl_isunreserved         00449df0 f   libcurl:escape.obj
 0001:00048e80       _Curl_urldecode            00449e80 f   libcurl:escape.obj
 0001:00048fa0       _Curl_http_auth_cleanup_ntlm 00449fa0 f   libcurl:http_ntlm.obj
 0001:00048fd0       _Curl_input_ntlm           00449fd0 f   libcurl:http_ntlm.obj
 0001:000490e0       _Curl_output_ntlm          0044a0e0 f   libcurl:http_ntlm.obj
 0001:000492f0       _Curl_strerror             0044a2f0 f   libcurl:strerror.obj
 0001:000493f0       _curl_easy_strerror        0044a3f0 f   libcurl:strerror.obj
 0001:00049c10       _Curl_ipv6_scope           0044ac10 f   libcurl:if2ip.obj
 0001:00049cb0       _Curl_inet_ntop            0044acb0 f   libcurl:inet_ntop.obj
 0001:00049fe0       _curlx_verify_windows_version 0044afe0 f   libcurl:version_win32.obj
 0001:0004a140       _Curl_auth_create_digest_http_message 0044b140 f   libcurl:digest.obj
 0001:0004a1b0       _Curl_auth_create_digest_md5_message 0044b1b0 f   libcurl:digest.obj
 0001:0004a700       _Curl_auth_decode_digest_http_message 0044b700 f   libcurl:digest.obj
 0001:0004abc0       _Curl_auth_digest_cleanup  0044bbc0 f   libcurl:digest.obj
 0001:0004ac40       _Curl_auth_digest_get_pair 0044bc40 f   libcurl:digest.obj
 0001:0004b520       _Curl_chunked_strerror     0044c520 f   libcurl:http_chunks.obj
 0001:0004b580       _Curl_httpchunk_init       0044c580 f   libcurl:http_chunks.obj
 0001:0004b5b0       _Curl_httpchunk_read       0044c5b0 f   libcurl:http_chunks.obj
 0001:0004b940       _Curl_doh                  0044c940 f   libcurl:doh.obj
 0001:0004ba60       _Curl_doh_is_resolved      0044ca60 f   libcurl:doh.obj
 0001:0004ceb0       _Curl_getformdata          0044deb0 f   libcurl:formdata.obj
 0001:0004d1e0       _Curl_base64_decode        0044e1e0 f   libcurl:base64.obj
 0001:0004d2e0       _Curl_base64_encode        0044e2e0 f   libcurl:base64.obj
 0001:0004d310       _Curl_base64url_encode     0044e310 f   libcurl:base64.obj
 0001:0004d5b0       _Curl_auth_cleanup_ntlm    0044e5b0 f   libcurl:ntlm.obj
 0001:0004d5e0       _Curl_auth_create_ntlm_type1_message 0044e5e0 f   libcurl:ntlm.obj
 0001:0004d690       _Curl_auth_create_ntlm_type3_message 0044e690 f   libcurl:ntlm.obj
 0001:0004dc30       _Curl_auth_decode_ntlm_type2_message 0044ec30 f   libcurl:ntlm.obj
 0001:0004de20       _Curl_output_aws_sigv4     0044ee20 f   libcurl:http_aws_sigv4.obj
 0001:0004e830       _Curl_fileinfo_alloc       0044f830 f   libcurl:fileinfo.obj
 0001:0004e840       _Curl_fileinfo_cleanup     0044f840 f   libcurl:fileinfo.obj
 0001:0004e870       _Curl_pp_disconnect        0044f870 f   libcurl:pingpong.obj
 0001:0004e8a0       _Curl_pp_flushsend         0044f8a0 f   libcurl:pingpong.obj
 0001:0004e920       _Curl_pp_getsock           0044f920 f   libcurl:pingpong.obj
 0001:0004e950       _Curl_pp_init              0044f950 f   libcurl:pingpong.obj
 0001:0004e990       _Curl_pp_moredata          0044f990 f   libcurl:pingpong.obj
 0001:0004e9c0       _Curl_pp_readresp          0044f9c0 f   libcurl:pingpong.obj
 0001:0004ec80       _Curl_pp_sendf             0044fc80 f   libcurl:pingpong.obj
 0001:0004eca0       _Curl_pp_setup             0044fca0 f   libcurl:pingpong.obj
 0001:0004ecc0       _Curl_pp_state_timeout     0044fcc0 f   libcurl:pingpong.obj
 0001:0004ed90       _Curl_pp_statemach         0044fd90 f   libcurl:pingpong.obj
 0001:0004eee0       _Curl_pp_vsendf            0044fee0 f   libcurl:pingpong.obj
 0001:0004efe0       _Curl_sasl_can_authenticate 0044ffe0 f   libcurl:curl_sasl.obj
 0001:0004f010       _Curl_sasl_cleanup         00450010 f   libcurl:curl_sasl.obj
 0001:0004f030       _Curl_sasl_continue        00450030 f   libcurl:curl_sasl.obj
 0001:0004f4e0       _Curl_sasl_decode_mech     004504e0 f   libcurl:curl_sasl.obj
 0001:0004f5e0       _Curl_sasl_init            004505e0 f   libcurl:curl_sasl.obj
 0001:0004f620       _Curl_sasl_parse_url_auth_option 00450620 f   libcurl:curl_sasl.obj
 0001:0004f6a0       _Curl_sasl_start           004506a0 f   libcurl:curl_sasl.obj
 0001:0004fb10       _Curl_MD5_final            00450b10 f   libcurl:md5.obj
 0001:0004fb40       _Curl_MD5_init             00450b40 f   libcurl:md5.obj
 0001:0004fb90       _Curl_md5it                00450b90 f   libcurl:md5.obj
 0001:0004fbd0       _Curl_gethostname          00450bd0 f   libcurl:curl_gethostname.obj
 0001:0004fc10       _Curl_ftp_parselist        00450c10 f   libcurl:ftplistparser.obj
 0001:000507b0       _Curl_ftp_parselist_data_alloc 004517b0 f   libcurl:ftplistparser.obj
 0001:000507c0       _Curl_ftp_parselist_data_free 004517c0 f   libcurl:ftplistparser.obj
 0001:00050a40       _Curl_range                00451a40 f   libcurl:curl_range.obj
 0001:00050ba0       _Curl_ntlm_core_lm_resp    00451ba0 f   libcurl:curl_ntlm_core.obj
 0001:00050be0       _Curl_ntlm_core_mk_lm_hash 00451be0 f   libcurl:curl_ntlm_core.obj
 0001:00050c90       _Curl_ntlm_core_mk_lmv2_resp 00451c90 f   libcurl:curl_ntlm_core.obj
 0001:00050d10       _Curl_ntlm_core_mk_nt_hash 00451d10 f   libcurl:curl_ntlm_core.obj
 0001:00050da0       _Curl_ntlm_core_mk_ntlmv2_hash 00451da0 f   libcurl:curl_ntlm_core.obj
 0001:00050e30       _Curl_ntlm_core_mk_ntlmv2_resp 00451e30 f   libcurl:curl_ntlm_core.obj
 0001:000511c0       _Curl_read16_be            004521c0 f   libcurl:curl_endian.obj
 0001:000511e0       _Curl_read16_le            004521e0 f   libcurl:curl_endian.obj
 0001:00051200       _Curl_read32_le            00452200 f   libcurl:curl_endian.obj
 0001:00051230       _Curl_dedotdotify          00452230 f   libcurl:dotdot.obj
 0001:000514b0       _Curl_auth_build_spn       004524b0 f   libcurl:vauth.obj
 0001:000515b0       _Curl_sha256it             004525b0 f   libcurl:sha256.obj
 0001:000515f0       _Curl_HMAC_final           004525f0 f   libcurl:hmac.obj
 0001:00051640       _Curl_HMAC_init            00452640 f   libcurl:hmac.obj
 0001:00051750       _Curl_MD5_update           00452750 f   libcurl:md5.obj
 0001:00051750       _Curl_HMAC_update          00452750 f   libcurl:hmac.obj
 0001:00051770       _Curl_hmacit               00452770 f   libcurl:hmac.obj
 0001:000517c0       _Curl_auth_create_external_message 004527c0 f   libcurl:cleartext.obj
 0001:000517d0       _Curl_auth_create_login_message 004527d0 f   libcurl:cleartext.obj
 0001:00051840       _Curl_auth_create_plain_message 00452840 f   libcurl:cleartext.obj
 0001:00051950       _Curl_auth_create_cram_md5_message 00452950 f   libcurl:cram.obj
 0001:00051aa0       _Curl_auth_decode_cram_md5_message 00452aa0 f   libcurl:cram.obj
 0001:00051af0       _Curl_auth_create_oauth_bearer_message 00452af0 f   libcurl:oauth2.obj
 0001:00051b70       _Curl_auth_create_xoauth_bearer_message 00452b70 f   libcurl:oauth2.obj
 0001:00051bd0       _Curl_fnmatch              00452bd0 f   libcurl:curl_fnmatch.obj
 0001:000524f0       _Curl_des_set_odd_parity   004534f0 f   libcurl:curl_des.obj
 0001:00052540       _Curl_md4it                00453540 f   libcurl:md4.obj
 0001:000525ea       ___WSAFDIsSet@8            004535ea f   ws2_32:WS2_32.dll
 0001:000525f0       ___std_exception_destroy   004535f0 f   vcruntime:VCRUNTIME140.dll
 0001:000525f6       __purecall                 004535f6 f   vcruntime:VCRUNTIME140.dll
 0001:000525fc       ___CxxFrameHandler3        004535fc f   vcruntime:VCRUNTIME140.dll
 0001:00052602       __CxxThrowException@8      00453602 f   vcruntime:VCRUNTIME140.dll
 0001:00052608       __except_handler4_common   00453608 f   vcruntime:VCRUNTIME140.dll
 0001:0005260e       _memset                    0045360e f   vcruntime:VCRUNTIME140.dll
 0001:00052614       _memcpy                    00453614 f   vcruntime:VCRUNTIME140.dll
 0001:0005261a       __callnewh                 0045361a f   ucrt:api-ms-win-crt-heap-l1-1-0.dll
 0001:00052620       _malloc                    00453620 f   ucrt:api-ms-win-crt-heap-l1-1-0.dll
 0001:00052626       _free                      00453626 f   ucrt:api-ms-win-crt-heap-l1-1-0.dll
 0001:0005262c       _terminate                 0045362c f   ucrt:api-ms-win-crt-runtime-l1-1-0.dll
 0001:00052632       __configure_narrow_argv    00453632 f   ucrt:api-ms-win-crt-runtime-l1-1-0.dll
 0001:00052638       __initialize_narrow_environment 00453638 f   ucrt:api-ms-win-crt-runtime-l1-1-0.dll
 0001:0005263e       __initialize_onexit_table  0045363e f   ucrt:api-ms-win-crt-runtime-l1-1-0.dll
 0001:00052644       __register_onexit_function 00453644 f   ucrt:api-ms-win-crt-runtime-l1-1-0.dll
 0001:0005264a       __crt_atexit               0045364a f   ucrt:api-ms-win-crt-runtime-l1-1-0.dll
 0001:00052650       __cexit                    00453650 f   ucrt:api-ms-win-crt-runtime-l1-1-0.dll
 0001:00052656       __seh_filter_exe           00453656 f   ucrt:api-ms-win-crt-runtime-l1-1-0.dll
 0001:0005265c       __set_app_type             0045365c f   ucrt:api-ms-win-crt-runtime-l1-1-0.dll
 0001:00052662       ___setusermatherr          00453662 f   ucrt:api-ms-win-crt-math-l1-1-0.dll
 0001:00052668       __get_narrow_winmain_command_line 00453668 f   ucrt:api-ms-win-crt-runtime-l1-1-0.dll
 0001:0005266e       __initterm                 0045366e f   ucrt:api-ms-win-crt-runtime-l1-1-0.dll
 0001:00052674       __initterm_e               00453674 f   ucrt:api-ms-win-crt-runtime-l1-1-0.dll
 0001:0005267a       _exit                      0045367a f   ucrt:api-ms-win-crt-runtime-l1-1-0.dll
 0001:00052680       __exit                     00453680 f   ucrt:api-ms-win-crt-runtime-l1-1-0.dll
 0001:00052686       __set_fmode                00453686 f   ucrt:api-ms-win-crt-stdio-l1-1-0.dll
 0001:0005268c       __c_exit                   0045368c f   ucrt:api-ms-win-crt-runtime-l1-1-0.dll
 0001:00052692       __register_thread_local_exe_atexit_callback 00453692 f   ucrt:api-ms-win-crt-runtime-l1-1-0.dll
 0001:00052698       __configthreadlocale       00453698 f   ucrt:api-ms-win-crt-locale-l1-1-0.dll
 0001:0005269e       __set_new_mode             0045369e f   ucrt:api-ms-win-crt-heap-l1-1-0.dll
 0001:000526a4       ___p__commode              004536a4 f   ucrt:api-ms-win-crt-stdio-l1-1-0.dll
 0001:000526aa       __controlfp_s              004536aa f   ucrt:api-ms-win-crt-runtime-l1-1-0.dll
 0001:000526b0       _realloc                   004536b0 f   ucrt:api-ms-win-crt-heap-l1-1-0.dll
 0001:000526b6       _calloc                    004536b6 f   ucrt:api-ms-win-crt-heap-l1-1-0.dll
 0001:000526bc       _IsProcessorFeaturePresent@4 004536bc f   kernel32:KERNEL32.dll
 0001:000526d0       __alldiv                   004536d0 f   MSVCRT:lldiv.obj
 0001:00052780       __alloca_probe             00453780 f   MSVCRT:chkstk.obj
 0001:00052780       __chkstk                   00453780 f   MSVCRT:chkstk.obj
 0001:000527b0       __ftoui3                   004537b0 f   MSVCRT:_ftol3_.obj
 0001:000527bf       __ftoul3                   004537bf f   MSVCRT:_ftol3_.obj
 0001:000527ce       __ftol3                    004537ce f   MSVCRT:_ftol3_.obj
 0001:000527db       __ftol3_NaN                004537db f   MSVCRT:_ftol3_.obj
 0001:000527f3       __ftol3_work               004537f3 f   MSVCRT:_ftol3_.obj
 0001:00052879       __ftol3_common             00453879 f   MSVCRT:_ftol3_.obj
 0001:0005293b       __ftol3_arg_error          0045393b f   MSVCRT:_ftol3_.obj
 0001:0005294d       __ftol3_except             0045394d f   MSVCRT:_ftol3_.obj
 0001:00052991       __dtoui3                   00453991 f   MSVCRT:_ftol3_.obj
 0001:000529a0       __dtoul3                   004539a0 f   MSVCRT:_ftol3_.obj
 0001:000529af       __dtol3                    004539af f   MSVCRT:_ftol3_.obj
 0001:000529bc       __dtol3_NaN                004539bc f   MSVCRT:_ftol3_.obj
 0001:000529d9       __dtol3_work               004539d9 f   MSVCRT:_ftol3_.obj
 0001:00052ac0       __ultod3                   00453ac0 f   MSVCRT:_ftol3_.obj
 0001:00052b00       __ltod3                    00453b00 f   MSVCRT:_ftol3_.obj
 0001:00052b30       __alldvrm                  00453b30 f   MSVCRT:lldvrm.obj
 0001:00052c10       __allmul                   00453c10 f   MSVCRT:llmul.obj
 0001:00052c50       __allrem                   00453c50 f   MSVCRT:llrem.obj
 0001:00052d10       __aulldvrm                 00453d10 f   MSVCRT:ulldvrm.obj
 0001:00052da6       __except1                  00453da6 f   ucrt:api-ms-win-crt-math-l1-1-0.dll
 0001:00052dac       __strdup                   00453dac f   ucrt:api-ms-win-crt-string-l1-1-0.dll
 0001:00052dac       _strdup                    00453dac f   ucrt:api-ms-win-crt-string-l1-1-0.dll
 0001:00052dc0       _Curl_auth_is_ntlm_supported 00453dc0 f   libcurl:ntlm.obj
 0001:00052dc0       ___scrt_stub_for_acrt_initialize 00453dc0 f   MSVCRT:ucrt_stubs.obj
 0001:00052dc0       _Curl_auth_is_digest_supported 00453dc0 f   libcurl:digest.obj
 0001:00052dc0       ___acrt_initialize         00453dc0 f   MSVCRT:ucrt_stubs.obj
 0001:00052dc0       ___scrt_stub_for_acrt_uninitialize 00453dc0 f   MSVCRT:ucrt_stubs.obj
 0001:00052dc0       __should_initialize_environment 00453dc0 f   MSVCRT:env_mode.obj
 0001:00052dc0       ___vcrt_initialize         00453dc0 f   MSVCRT:ucrt_stubs.obj
 0001:00052dc0       ___vcrt_uninitialize       00453dc0 f   MSVCRT:ucrt_stubs.obj
 0001:00052dc0       ___acrt_uninitialize       00453dc0 f   MSVCRT:ucrt_stubs.obj
 0002:00000000       __imp__CryptImportKey@24   00457000     advapi32:ADVAPI32.dll
 0002:00000004       __imp__CryptDestroyKey@4   00457004     advapi32:ADVAPI32.dll
 0002:00000008       __imp__CryptDestroyHash@4  00457008     advapi32:ADVAPI32.dll
 0002:0000000c       __imp__CryptHashData@16    0045700c     advapi32:ADVAPI32.dll
 0002:00000010       __imp__CryptCreateHash@20  00457010     advapi32:ADVAPI32.dll
 0002:00000014       __imp__CryptGetHashParam@20 00457014     advapi32:ADVAPI32.dll
 0002:00000018       __imp__CryptReleaseContext@8 00457018     advapi32:ADVAPI32.dll
 0002:0000001c       __imp__CryptAcquireContextA@20 0045701c     advapi32:ADVAPI32.dll
 0002:00000020       __imp__CryptEncrypt@28     00457020     advapi32:ADVAPI32.dll
 0002:00000024       __imp__AdjustTokenPrivileges@24 00457024     advapi32:ADVAPI32.dll
 0002:00000028       __imp__LookupPrivilegeValueA@12 00457028     advapi32:ADVAPI32.dll
 0002:0000002c       __imp__OpenProcessToken@12 0045702c     advapi32:ADVAPI32.dll
 0002:00000030       \177ADVAPI32_NULL_THUNK_DATA 00457030     advapi32:ADVAPI32.dll
 0002:00000034       __imp__CreateSolidBrush@4  00457034     gdi32:GDI32.dll
 0002:00000038       \177GDI32_NULL_THUNK_DATA  00457038     gdi32:GDI32.dll
 0002:0000003c       __imp__GetCurrentProcessId@0 0045703c     kernel32:KERNEL32.dll
 0002:00000040       __imp__GetCurrentThreadId@0 00457040     kernel32:KERNEL32.dll
 0002:00000044       __imp__GetSystemTimeAsFileTime@4 00457044     kernel32:KERNEL32.dll
 0002:00000048       __imp__InitializeSListHead@4 00457048     kernel32:KERNEL32.dll
 0002:0000004c       __imp__EnterCriticalSection@4 0045704c     kernel32:KERNEL32.dll
 0002:00000050       __imp__QueryPerformanceCounter@4 00457050     kernel32:KERNEL32.dll
 0002:00000054       __imp__InitializeCriticalSectionEx@12 00457054     kernel32:KERNEL32.dll
 0002:00000058       __imp__DeleteCriticalSection@4 00457058     kernel32:KERNEL32.dll
 0002:0000005c       __imp__SleepEx@8           0045705c     kernel32:KERNEL32.dll
 0002:00000060       __imp__QueryPerformanceFrequency@4 00457060     kernel32:KERNEL32.dll
 0002:00000064       __imp__GetSystemDirectoryA@8 00457064     kernel32:KERNEL32.dll
 0002:00000068       __imp__LeaveCriticalSection@4 00457068     kernel32:KERNEL32.dll
 0002:0000006c       __imp__GetModuleHandleW@4  0045706c     kernel32:KERNEL32.dll
 0002:00000070       __imp__GetStartupInfoW@4   00457070     kernel32:KERNEL32.dll
 0002:00000074       __imp__IsDebuggerPresent@0 00457074     kernel32:KERNEL32.dll
 0002:00000078       __imp__IsProcessorFeaturePresent@4 00457078     kernel32:KERNEL32.dll
 0002:0000007c       __imp__TerminateProcess@8  0045707c     kernel32:KERNEL32.dll
 0002:00000080       __imp__GetModuleHandleA@4  00457080     kernel32:KERNEL32.dll
 0002:00000084       __imp__GetProcAddress@8    00457084     kernel32:KERNEL32.dll
 0002:00000088       __imp__LoadLibraryA@4      00457088     kernel32:KERNEL32.dll
 0002:0000008c       __imp__GetTickCount@0      0045708c     kernel32:KERNEL32.dll
 0002:00000090       __imp__Sleep@4             00457090     kernel32:KERNEL32.dll
 0002:00000094       __imp__MoveFileExA@12      00457094     kernel32:KERNEL32.dll
 0002:00000098       __imp__WaitForSingleObjectEx@12 00457098     kernel32:KERNEL32.dll
 0002:0000009c       __imp__GetStdHandle@4      0045709c     kernel32:KERNEL32.dll
 0002:000000a0       __imp__GetFileType@4       004570a0     kernel32:KERNEL32.dll
 0002:000000a4       __imp__ReadFile@20         004570a4     kernel32:KERNEL32.dll
 0002:000000a8       __imp__PeekNamedPipe@24    004570a8     kernel32:KERNEL32.dll
 0002:000000ac       __imp__WaitForMultipleObjects@16 004570ac     kernel32:KERNEL32.dll
 0002:000000b0       __imp__GetEnvironmentVariableA@12 004570b0     kernel32:KERNEL32.dll
 0002:000000b4       __imp__GetLastError@0      004570b4     kernel32:KERNEL32.dll
 0002:000000b8       __imp__SetLastError@4      004570b8     kernel32:KERNEL32.dll
 0002:000000bc       __imp__FormatMessageW@28   004570bc     kernel32:KERNEL32.dll
 0002:000000c0       __imp__VerSetConditionMask@16 004570c0     kernel32:KERNEL32.dll
 0002:000000c4       __imp__VerifyVersionInfoA@16 004570c4     kernel32:KERNEL32.dll
 0002:000000c8       __imp__SetUnhandledExceptionFilter@4 004570c8     kernel32:KERNEL32.dll
 0002:000000cc       __imp__AllocConsole@0      004570cc     kernel32:KERNEL32.dll
 0002:000000d0       __imp__K32EnumProcessModules@16 004570d0     kernel32:KERNEL32.dll
 0002:000000d4       __imp__ReadProcessMemory@20 004570d4     kernel32:KERNEL32.dll
 0002:000000d8       __imp__CloseHandle@4       004570d8     kernel32:KERNEL32.dll
 0002:000000dc       __imp__K32GetModuleFileNameExA@16 004570dc     kernel32:KERNEL32.dll
 0002:000000e0       __imp__OpenProcess@12      004570e0     kernel32:KERNEL32.dll
 0002:000000e4       __imp__GetCurrentProcess@0 004570e4     kernel32:KERNEL32.dll
 0002:000000e8       __imp__UnhandledExceptionFilter@4 004570e8     kernel32:KERNEL32.dll
 0002:000000ec       \177KERNEL32_NULL_THUNK_DATA 004570ec     kernel32:KERNEL32.dll
 0002:000000f0       __imp_?snextc@?$basic_streambuf@DU?$char_traits@D@std@@@std@@QAEHXZ 004570f0     msvcprt:MSVCP140.dll
 0002:000000f4       __imp_??0?$basic_iostream@DU?$char_traits@D@std@@@std@@QAE@PAV?$basic_streambuf@DU?$char_traits@D@std@@@1@@Z 004570f4     msvcprt:MSVCP140.dll
 0002:000000f8       __imp_??6?$basic_ostream@DU?$char_traits@D@std@@@std@@QAEAAV01@_J@Z 004570f8     msvcprt:MSVCP140.dll
 0002:000000fc       __imp_?_Getcat@?$codecvt@DDU_Mbstatet@@@std@@SAIPAPBVfacet@locale@2@PBV42@@Z 004570fc     msvcprt:MSVCP140.dll
 0002:00000100       __imp_?sgetc@?$basic_streambuf@DU?$char_traits@D@std@@@std@@QAEHXZ 00457100     msvcprt:MSVCP140.dll
 0002:00000104       __imp_??0?$basic_streambuf@DU?$char_traits@D@std@@@std@@IAE@XZ 00457104     msvcprt:MSVCP140.dll
 0002:00000108       __imp_?_Init@?$basic_streambuf@DU?$char_traits@D@std@@@std@@IAEXXZ 00457108     msvcprt:MSVCP140.dll
 0002:0000010c       __imp_?unshift@?$codecvt@DDU_Mbstatet@@@std@@QBEHAAU_Mbstatet@@PAD1AAPAD@Z 0045710c     msvcprt:MSVCP140.dll
 0002:00000110       __imp_??0?$basic_ios@DU?$char_traits@D@std@@@std@@IAE@XZ 00457110     msvcprt:MSVCP140.dll
 0002:00000114       __imp_?_Ipfx@?$basic_istream@DU?$char_traits@D@std@@@std@@QAE_N_N@Z 00457114     msvcprt:MSVCP140.dll
 0002:00000118       __imp_??0?$basic_istream@DU?$char_traits@D@std@@@std@@QAE@PAV?$basic_streambuf@DU?$char_traits@D@std@@@1@_N@Z 00457118     msvcprt:MSVCP140.dll
 0002:0000011c       __imp_?in@?$codecvt@DDU_Mbstatet@@@std@@QBEHAAU_Mbstatet@@PBD1AAPBDPAD3AAPAD@Z 0045711c     msvcprt:MSVCP140.dll
 0002:00000120       __imp_?out@?$codecvt@DDU_Mbstatet@@@std@@QBEHAAU_Mbstatet@@PBD1AAPBDPAD3AAPAD@Z 00457120     msvcprt:MSVCP140.dll
 0002:00000124       __imp_??1?$basic_ios@DU?$char_traits@D@std@@@std@@UAE@XZ 00457124     msvcprt:MSVCP140.dll
 0002:00000128       __imp_??1?$basic_streambuf@DU?$char_traits@D@std@@@std@@UAE@XZ 00457128     msvcprt:MSVCP140.dll
 0002:0000012c       __imp_?_Lock@?$basic_streambuf@DU?$char_traits@D@std@@@std@@UAEXXZ 0045712c     msvcprt:MSVCP140.dll
 0002:00000130       __imp_?_Unlock@?$basic_streambuf@DU?$char_traits@D@std@@@std@@UAEXXZ 00457130     msvcprt:MSVCP140.dll
 0002:00000134       __imp_?showmanyc@?$basic_streambuf@DU?$char_traits@D@std@@@std@@MAE_JXZ 00457134     msvcprt:MSVCP140.dll
 0002:00000138       __imp_?uflow@?$basic_streambuf@DU?$char_traits@D@std@@@std@@MAEHXZ 00457138     msvcprt:MSVCP140.dll
 0002:0000013c       __imp_?xsgetn@?$basic_streambuf@DU?$char_traits@D@std@@@std@@MAE_JPAD_J@Z 0045713c     msvcprt:MSVCP140.dll
 0002:00000140       __imp_?xsputn@?$basic_streambuf@DU?$char_traits@D@std@@@std@@MAE_JPBD_J@Z 00457140     msvcprt:MSVCP140.dll
 0002:00000144       __imp_?setbuf@?$basic_streambuf@DU?$char_traits@D@std@@@std@@MAEPAV12@PAD_J@Z 00457144     msvcprt:MSVCP140.dll
 0002:00000148       __imp_?sync@?$basic_streambuf@DU?$char_traits@D@std@@@std@@MAEHXZ 00457148     msvcprt:MSVCP140.dll
 0002:0000014c       __imp_?imbue@?$basic_streambuf@DU?$char_traits@D@std@@@std@@MAEXABVlocale@2@@Z 0045714c     msvcprt:MSVCP140.dll
 0002:00000150       __imp_??1?$basic_istream@DU?$char_traits@D@std@@@std@@UAE@XZ 00457150     msvcprt:MSVCP140.dll
 0002:00000154       __imp_??1?$basic_iostream@DU?$char_traits@D@std@@@std@@UAE@XZ 00457154     msvcprt:MSVCP140.dll
 0002:00000158       __imp_?getloc@ios_base@std@@QBE?AVlocale@2@XZ 00457158     msvcprt:MSVCP140.dll
 0002:0000015c       __imp_?_Getcat@?$ctype@D@std@@SAIPAPBVfacet@locale@2@PBV42@@Z 0045715c     msvcprt:MSVCP140.dll
 0002:00000160       __imp_?always_noconv@codecvt_base@std@@QBE_NXZ 00457160     msvcprt:MSVCP140.dll
 0002:00000164       __imp_??Bid@locale@std@@QAEIXZ 00457164     msvcprt:MSVCP140.dll
 0002:00000168       __imp_?id@?$ctype@D@std@@2V0locale@2@A 00457168     msvcprt:MSVCP140.dll
 0002:0000016c       __imp_?id@?$codecvt@DDU_Mbstatet@@@std@@2V0locale@2@A 0045716c     msvcprt:MSVCP140.dll
 0002:00000170       __imp_?_Xbad_function_call@std@@YAXXZ 00457170     msvcprt:MSVCP140.dll
 0002:00000174       __imp_?_BADOFF@std@@3_JB   00457174     msvcprt:MSVCP140.dll
 0002:00000178       __imp_?_Getgloballocale@locale@std@@CAPAV_Locimp@12@XZ 00457178     msvcprt:MSVCP140.dll
 0002:0000017c       __imp_??0_Lockit@std@@QAE@H@Z 0045717c     msvcprt:MSVCP140.dll
 0002:00000180       __imp_??1_Lockit@std@@QAE@XZ 00457180     msvcprt:MSVCP140.dll
 0002:00000184       __imp_??6?$basic_ostream@DU?$char_traits@D@std@@@std@@QAEAAV01@H@Z 00457184     msvcprt:MSVCP140.dll
 0002:00000188       __imp_??6?$basic_ostream@DU?$char_traits@D@std@@@std@@QAEAAV01@P6AAAV01@AAV01@@Z@Z 00457188     msvcprt:MSVCP140.dll
 0002:0000018c       __imp_?setstate@?$basic_ios@DU?$char_traits@D@std@@@std@@QAEXH_N@Z 0045718c     msvcprt:MSVCP140.dll
 0002:00000190       __imp_?flush@?$basic_ostream@DU?$char_traits@D@std@@@std@@QAEAAV12@XZ 00457190     msvcprt:MSVCP140.dll
 0002:00000194       __imp_?_Osfx@?$basic_ostream@DU?$char_traits@D@std@@@std@@QAEXXZ 00457194     msvcprt:MSVCP140.dll
 0002:00000198       __imp_?sputc@?$basic_streambuf@DU?$char_traits@D@std@@@std@@QAEHD@Z 00457198     msvcprt:MSVCP140.dll
 0002:0000019c       __imp_?put@?$basic_ostream@DU?$char_traits@D@std@@@std@@QAEAAV12@D@Z 0045719c     msvcprt:MSVCP140.dll
 0002:000001a0       __imp_?sputn@?$basic_streambuf@DU?$char_traits@D@std@@@std@@QAE_JPBD_J@Z 004571a0     msvcprt:MSVCP140.dll
 0002:000001a4       __imp_?widen@?$basic_ios@DU?$char_traits@D@std@@@std@@QBEDD@Z 004571a4     msvcprt:MSVCP140.dll
 0002:000001a8       __imp_?_Xlength_error@std@@YAXPBD@Z 004571a8     msvcprt:MSVCP140.dll
 0002:000001ac       __imp_?_Xout_of_range@std@@YAXPBD@Z 004571ac     msvcprt:MSVCP140.dll
 0002:000001b0       __imp_?_Xinvalid_argument@std@@YAXPBD@Z 004571b0     msvcprt:MSVCP140.dll
 0002:000001b4       __imp_?_Xbad_alloc@std@@YAXXZ 004571b4     msvcprt:MSVCP140.dll
 0002:000001b8       __imp_?uncaught_exception@std@@YA_NXZ 004571b8     msvcprt:MSVCP140.dll
 0002:000001bc       __imp_?cout@std@@3V?$basic_ostream@DU?$char_traits@D@std@@@1@A 004571bc     msvcprt:MSVCP140.dll
 0002:000001c0       \177MSVCP140_NULL_THUNK_DATA 004571c0     msvcprt:MSVCP140.dll
 0002:000001c4       __imp__GetWindowThreadProcessId@8 004571c4     user32:USER32.dll
 0002:000001c8       __imp__GetMessageA@16      004571c8     user32:USER32.dll
 0002:000001cc       __imp__DispatchMessageA@4  004571cc     user32:USER32.dll
 0002:000001d0       __imp__GetWindowRect@8     004571d0     user32:USER32.dll
 0002:000001d4       __imp__DestroyWindow@4     004571d4     user32:USER32.dll
 0002:000001d8       __imp__ShowWindow@8        004571d8     user32:USER32.dll
 0002:000001dc       __imp__GetForegroundWindow@0 004571dc     user32:USER32.dll
 0002:000001e0       __imp__MoveWindow@24       004571e0     user32:USER32.dll
 0002:000001e4       __imp__DefWindowProcA@16   004571e4     user32:USER32.dll
 0002:000001e8       __imp__CreateWindowExA@48  004571e8     user32:USER32.dll
 0002:000001ec       __imp__SetLayeredWindowAttributes@16 004571ec     user32:USER32.dll
 0002:000001f0       __imp__TranslateMessage@4  004571f0     user32:USER32.dll
 0002:000001f4       __imp__UnregisterClassA@8  004571f4     user32:USER32.dll
 0002:000001f8       __imp__PostQuitMessage@4   004571f8     user32:USER32.dll
 0002:000001fc       __imp__FindWindowA@8       004571fc     user32:USER32.dll
 0002:00000200       __imp__RegisterClassExA@4  00457200     user32:USER32.dll
 0002:00000204       __imp__UpdateWindow@4      00457204     user32:USER32.dll
 0002:00000208       \177USER32_NULL_THUNK_DATA 00457208     user32:USER32.dll
 0002:0000020c       __imp__strrchr             0045720c     vcruntime:VCRUNTIME140.dll
 0002:00000210       __imp__strchr              00457210     vcruntime:VCRUNTIME140.dll
 0002:00000214       __imp__memcpy              00457214     vcruntime:VCRUNTIME140.dll
 0002:00000218       __imp__memset              00457218     vcruntime:VCRUNTIME140.dll
 0002:0000021c       __imp__strstr              0045721c     vcruntime:VCRUNTIME140.dll
 0002:00000220       __imp__memmove             00457220     vcruntime:VCRUNTIME140.dll
 0002:00000224       __imp____std_terminate     00457224     vcruntime:VCRUNTIME140.dll
 0002:00000228       __imp____std_exception_destroy 00457228     vcruntime:VCRUNTIME140.dll
 0002:0000022c       __imp____std_exception_copy 0045722c     vcruntime:VCRUNTIME140.dll
 0002:00000230       __imp___purecall           00457230     vcruntime:VCRUNTIME140.dll
 0002:00000234       __imp__memchr              00457234     vcruntime:VCRUNTIME140.dll
 0002:00000238       __imp____CxxFrameHandler3  00457238     vcruntime:VCRUNTIME140.dll
 0002:0000023c       __imp___CxxThrowException@8 0045723c     vcruntime:VCRUNTIME140.dll
 0002:00000240       __imp___except_handler4_common 00457240     vcruntime:VCRUNTIME140.dll
 0002:00000244       \177VCRUNTIME140_NULL_THUNK_DATA 00457244     vcruntime:VCRUNTIME140.dll
 0002:00000248       __imp__ber_free            00457248     wldap32:WLDAP32.dll
 0002:0000024c       __imp__ldap_memfree        0045724c     wldap32:WLDAP32.dll
 0002:00000250       __imp__ldap_get_dn         00457250     wldap32:WLDAP32.dll
 0002:00000254       __imp__ldap_value_free_len 00457254     wldap32:WLDAP32.dll
 0002:00000258       __imp__ldap_get_values_len 00457258     wldap32:WLDAP32.dll
 0002:0000025c       __imp__ldap_next_attribute 0045725c     wldap32:WLDAP32.dll
 0002:00000260       __imp__ldap_search_s       00457260     wldap32:WLDAP32.dll
 0002:00000264       __imp__ldap_simple_bind_s  00457264     wldap32:WLDAP32.dll
 0002:00000268       __imp__ldap_set_option     00457268     wldap32:WLDAP32.dll
 0002:0000026c       __imp__ldap_first_attribute 0045726c     wldap32:WLDAP32.dll
 0002:00000270       __imp__ldap_unbind_s       00457270     wldap32:WLDAP32.dll
 0002:00000274       __imp__ldap_sslinit        00457274     wldap32:WLDAP32.dll
 0002:00000278       __imp__ldap_init           00457278     wldap32:WLDAP32.dll
 0002:0000027c       __imp__ldap_msgfree        0045727c     wldap32:WLDAP32.dll
 0002:00000280       __imp__ldap_err2string     00457280     wldap32:WLDAP32.dll
 0002:00000284       __imp__ldap_next_entry     00457284     wldap32:WLDAP32.dll
 0002:00000288       __imp__ldap_first_entry    00457288     wldap32:WLDAP32.dll
 0002:0000028c       \177WLDAP32_NULL_THUNK_DATA 0045728c     wldap32:WLDAP32.dll
 0002:00000290       __imp__htons@4             00457290     ws2_32:WS2_32.dll
 0002:00000294       __imp__ntohs@4             00457294     ws2_32:WS2_32.dll
 0002:00000298       __imp__setsockopt@20       00457298     ws2_32:WS2_32.dll
 0002:0000029c       __imp__socket@12           0045729c     ws2_32:WS2_32.dll
 0002:000002a0       __imp__getsockopt@20       004572a0     ws2_32:WS2_32.dll
 0002:000002a4       __imp__getsockname@12      004572a4     ws2_32:WS2_32.dll
 0002:000002a8       __imp__WSASetLastError@4   004572a8     ws2_32:WS2_32.dll
 0002:000002ac       __imp__getpeername@12      004572ac     ws2_32:WS2_32.dll
 0002:000002b0       __imp__WSAStartup@8        004572b0     ws2_32:WS2_32.dll
 0002:000002b4       __imp__WSACleanup@0        004572b4     ws2_32:WS2_32.dll
 0002:000002b8       __imp__accept@12           004572b8     ws2_32:WS2_32.dll
 0002:000002bc       __imp__htonl@4             004572bc     ws2_32:WS2_32.dll
 0002:000002c0       __imp__listen@8            004572c0     ws2_32:WS2_32.dll
 0002:000002c4       __imp__ioctlsocket@12      004572c4     ws2_32:WS2_32.dll
 0002:000002c8       __imp____WSAFDIsSet@8      004572c8     ws2_32:WS2_32.dll
 0002:000002cc       __imp__select@20           004572cc     ws2_32:WS2_32.dll
 0002:000002d0       __imp__getaddrinfo@16      004572d0     ws2_32:WS2_32.dll
 0002:000002d4       __imp__freeaddrinfo@4      004572d4     ws2_32:WS2_32.dll
 0002:000002d8       __imp__WSACloseEvent@4     004572d8     ws2_32:WS2_32.dll
 0002:000002dc       __imp__WSACreateEvent@0    004572dc     ws2_32:WS2_32.dll
 0002:000002e0       __imp__WSAEnumNetworkEvents@12 004572e0     ws2_32:WS2_32.dll
 0002:000002e4       __imp__WSAEventSelect@12   004572e4     ws2_32:WS2_32.dll
 0002:000002e8       __imp__recvfrom@24         004572e8     ws2_32:WS2_32.dll
 0002:000002ec       __imp__sendto@24           004572ec     ws2_32:WS2_32.dll
 0002:000002f0       __imp__gethostname@8       004572f0     ws2_32:WS2_32.dll
 0002:000002f4       __imp__connect@12          004572f4     ws2_32:WS2_32.dll
 0002:000002f8       __imp__bind@12             004572f8     ws2_32:WS2_32.dll
 0002:000002fc       __imp__WSAGetLastError@0   004572fc     ws2_32:WS2_32.dll
 0002:00000300       __imp__send@16             00457300     ws2_32:WS2_32.dll
 0002:00000304       __imp__recv@16             00457304     ws2_32:WS2_32.dll
 0002:00000308       __imp__closesocket@4       00457308     ws2_32:WS2_32.dll
 0002:0000030c       __imp__WSAIoctl@36         0045730c     ws2_32:WS2_32.dll
 0002:00000310       \177WS2_32_NULL_THUNK_DATA 00457310     ws2_32:WS2_32.dll
 0002:00000314       __imp__atoi                00457314     ucrt:api-ms-win-crt-convert-l1-1-0.dll
 0002:00000318       __imp__strtoll             00457318     ucrt:api-ms-win-crt-convert-l1-1-0.dll
 0002:0000031c       __imp__strtol              0045731c     ucrt:api-ms-win-crt-convert-l1-1-0.dll
 0002:00000320       __imp__wcstombs            00457320     ucrt:api-ms-win-crt-convert-l1-1-0.dll
 0002:00000324       __imp__strtoul             00457324     ucrt:api-ms-win-crt-convert-l1-1-0.dll
 0002:00000328       \177api-ms-win-crt-convert-l1-1-0_NULL_THUNK_DATA 00457328     ucrt:api-ms-win-crt-convert-l1-1-0.dll
 0002:0000032c       __imp___unlink             0045732c     ucrt:api-ms-win-crt-filesystem-l1-1-0.dll
 0002:0000032c       __imp__unlink              0045732c     ucrt:api-ms-win-crt-filesystem-l1-1-0.dll
 0002:00000330       __imp___fstat64            00457330     ucrt:api-ms-win-crt-filesystem-l1-1-0.dll
 0002:00000334       __imp___stat64             00457334     ucrt:api-ms-win-crt-filesystem-l1-1-0.dll
 0002:00000338       __imp___access             00457338     ucrt:api-ms-win-crt-filesystem-l1-1-0.dll
 0002:0000033c       __imp___unlock_file        0045733c     ucrt:api-ms-win-crt-filesystem-l1-1-0.dll
 0002:00000340       __imp___lock_file          00457340     ucrt:api-ms-win-crt-filesystem-l1-1-0.dll
 0002:00000344       \177api-ms-win-crt-filesystem-l1-1-0_NULL_THUNK_DATA 00457344     ucrt:api-ms-win-crt-filesystem-l1-1-0.dll
 0002:00000348       __imp__realloc             00457348     ucrt:api-ms-win-crt-heap-l1-1-0.dll
 0002:0000034c       __imp___callnewh           0045734c     ucrt:api-ms-win-crt-heap-l1-1-0.dll
 0002:00000350       __imp__malloc              00457350     ucrt:api-ms-win-crt-heap-l1-1-0.dll
 0002:00000354       __imp__free                00457354     ucrt:api-ms-win-crt-heap-l1-1-0.dll
 0002:00000358       __imp__calloc              00457358     ucrt:api-ms-win-crt-heap-l1-1-0.dll
 0002:0000035c       __imp___set_new_mode       0045735c     ucrt:api-ms-win-crt-heap-l1-1-0.dll
 0002:00000360       \177api-ms-win-crt-heap-l1-1-0_NULL_THUNK_DATA 00457360     ucrt:api-ms-win-crt-heap-l1-1-0.dll
 0002:00000364       __imp___configthreadlocale 00457364     ucrt:api-ms-win-crt-locale-l1-1-0.dll
 0002:00000368       \177api-ms-win-crt-locale-l1-1-0_NULL_THUNK_DATA 00457368     ucrt:api-ms-win-crt-locale-l1-1-0.dll
 0002:0000036c       __imp____setusermatherr    0045736c     ucrt:api-ms-win-crt-math-l1-1-0.dll
 0002:00000370       __imp___except1            00457370     ucrt:api-ms-win-crt-math-l1-1-0.dll
 0002:00000374       \177api-ms-win-crt-math-l1-1-0_NULL_THUNK_DATA 00457374     ucrt:api-ms-win-crt-math-l1-1-0.dll
 0002:00000378       __imp___mbspbrk            00457378     ucrt:api-ms-win-crt-multibyte-l1-1-0.dll
 0002:0000037c       \177api-ms-win-crt-multibyte-l1-1-0_NULL_THUNK_DATA 0045737c     ucrt:api-ms-win-crt-multibyte-l1-1-0.dll
 0002:00000380       __imp___initialize_onexit_table 00457380     ucrt:api-ms-win-crt-runtime-l1-1-0.dll
 0002:00000384       __imp___register_onexit_function 00457384     ucrt:api-ms-win-crt-runtime-l1-1-0.dll
 0002:00000388       __imp___beginthreadex      00457388     ucrt:api-ms-win-crt-runtime-l1-1-0.dll
 0002:0000038c       __imp___errno              0045738c     ucrt:api-ms-win-crt-runtime-l1-1-0.dll
 0002:00000390       __imp___initialize_narrow_environment 00457390     ucrt:api-ms-win-crt-runtime-l1-1-0.dll
 0002:00000394       __imp___controlfp_s        00457394     ucrt:api-ms-win-crt-runtime-l1-1-0.dll
 0002:00000398       __imp___getpid             00457398     ucrt:api-ms-win-crt-runtime-l1-1-0.dll
 0002:0000039c       __imp___invalid_parameter_noinfo_noreturn 0045739c     ucrt:api-ms-win-crt-runtime-l1-1-0.dll
 0002:000003a0       __imp____sys_nerr          004573a0     ucrt:api-ms-win-crt-runtime-l1-1-0.dll
 0002:000003a4       __imp___cexit              004573a4     ucrt:api-ms-win-crt-runtime-l1-1-0.dll
 0002:000003a8       __imp___seh_filter_exe     004573a8     ucrt:api-ms-win-crt-runtime-l1-1-0.dll
 0002:000003ac       __imp___set_app_type       004573ac     ucrt:api-ms-win-crt-runtime-l1-1-0.dll
 0002:000003b0       __imp___configure_narrow_argv 004573b0     ucrt:api-ms-win-crt-runtime-l1-1-0.dll
 0002:000003b4       __imp___get_narrow_winmain_command_line 004573b4     ucrt:api-ms-win-crt-runtime-l1-1-0.dll
 0002:000003b8       __imp__strerror            004573b8     ucrt:api-ms-win-crt-runtime-l1-1-0.dll
 0002:000003bc       __imp__terminate           004573bc     ucrt:api-ms-win-crt-runtime-l1-1-0.dll
 0002:000003c0       __imp__system              004573c0     ucrt:api-ms-win-crt-runtime-l1-1-0.dll
 0002:000003c4       __imp___initterm           004573c4     ucrt:api-ms-win-crt-runtime-l1-1-0.dll
 0002:000003c8       __imp___invalid_parameter_noinfo 004573c8     ucrt:api-ms-win-crt-runtime-l1-1-0.dll
 0002:000003cc       __imp___crt_atexit         004573cc     ucrt:api-ms-win-crt-runtime-l1-1-0.dll
 0002:000003d0       __imp___register_thread_local_exe_atexit_callback 004573d0     ucrt:api-ms-win-crt-runtime-l1-1-0.dll
 0002:000003d4       __imp___c_exit             004573d4     ucrt:api-ms-win-crt-runtime-l1-1-0.dll
 0002:000003d8       __imp___initterm_e         004573d8     ucrt:api-ms-win-crt-runtime-l1-1-0.dll
 0002:000003dc       __imp___exit               004573dc     ucrt:api-ms-win-crt-runtime-l1-1-0.dll
 0002:000003e0       __imp__exit                004573e0     ucrt:api-ms-win-crt-runtime-l1-1-0.dll
 0002:000003e4       \177api-ms-win-crt-runtime-l1-1-0_NULL_THUNK_DATA 004573e4     ucrt:api-ms-win-crt-runtime-l1-1-0.dll
 0002:000003e8       __imp___set_fmode          004573e8     ucrt:api-ms-win-crt-stdio-l1-1-0.dll
 0002:000003ec       __imp___pclose             004573ec     ucrt:api-ms-win-crt-stdio-l1-1-0.dll
 0002:000003f0       __imp__fclose              004573f0     ucrt:api-ms-win-crt-stdio-l1-1-0.dll
 0002:000003f4       __imp__fputs               004573f4     ucrt:api-ms-win-crt-stdio-l1-1-0.dll
 0002:000003f8       __imp__fflush              004573f8     ucrt:api-ms-win-crt-stdio-l1-1-0.dll
 0002:000003fc       __imp____p__commode        004573fc     ucrt:api-ms-win-crt-stdio-l1-1-0.dll
 0002:00000400       __imp__fputc               00457400     ucrt:api-ms-win-crt-stdio-l1-1-0.dll
 0002:00000404       __imp___lseeki64           00457404     ucrt:api-ms-win-crt-stdio-l1-1-0.dll
 0002:00000408       __imp____stdio_common_vsprintf 00457408     ucrt:api-ms-win-crt-stdio-l1-1-0.dll
 0002:0000040c       __imp__freopen_s           0045740c     ucrt:api-ms-win-crt-stdio-l1-1-0.dll
 0002:00000410       __imp___open               00457410     ucrt:api-ms-win-crt-stdio-l1-1-0.dll
 0002:00000414       __imp__fopen               00457414     ucrt:api-ms-win-crt-stdio-l1-1-0.dll
 0002:00000418       __imp__fread               00457418     ucrt:api-ms-win-crt-stdio-l1-1-0.dll
 0002:0000041c       __imp____acrt_iob_func     0045741c     ucrt:api-ms-win-crt-stdio-l1-1-0.dll
 0002:00000420       __imp__fseek               00457420     ucrt:api-ms-win-crt-stdio-l1-1-0.dll
 0002:00000424       __imp__feof                00457424     ucrt:api-ms-win-crt-stdio-l1-1-0.dll
 0002:00000428       __imp___read               00457428     ucrt:api-ms-win-crt-stdio-l1-1-0.dll
 0002:00000428       __imp__read                00457428     ucrt:api-ms-win-crt-stdio-l1-1-0.dll
 0002:0000042c       __imp___write              0045742c     ucrt:api-ms-win-crt-stdio-l1-1-0.dll
 0002:0000042c       __imp__write               0045742c     ucrt:api-ms-win-crt-stdio-l1-1-0.dll
 0002:00000430       __imp___get_stream_buffer_pointers 00457430     ucrt:api-ms-win-crt-stdio-l1-1-0.dll
 0002:00000434       __imp___fseeki64           00457434     ucrt:api-ms-win-crt-stdio-l1-1-0.dll
 0002:00000438       __imp__fsetpos             00457438     ucrt:api-ms-win-crt-stdio-l1-1-0.dll
 0002:0000043c       __imp__ungetc              0045743c     ucrt:api-ms-win-crt-stdio-l1-1-0.dll
 0002:00000440       __imp___popen              00457440     ucrt:api-ms-win-crt-stdio-l1-1-0.dll
 0002:00000444       __imp__setvbuf             00457444     ucrt:api-ms-win-crt-stdio-l1-1-0.dll
 0002:00000448       __imp__fgetpos             00457448     ucrt:api-ms-win-crt-stdio-l1-1-0.dll
 0002:0000044c       __imp__fwrite              0045744c     ucrt:api-ms-win-crt-stdio-l1-1-0.dll
 0002:00000450       __imp__fgets               00457450     ucrt:api-ms-win-crt-stdio-l1-1-0.dll
 0002:00000454       __imp____stdio_common_vsscanf 00457454     ucrt:api-ms-win-crt-stdio-l1-1-0.dll
 0002:00000458       __imp__fgetc               00457458     ucrt:api-ms-win-crt-stdio-l1-1-0.dll
 0002:0000045c       __imp___close              0045745c     ucrt:api-ms-win-crt-stdio-l1-1-0.dll
 0002:0000045c       __imp__close               0045745c     ucrt:api-ms-win-crt-stdio-l1-1-0.dll
 0002:00000460       \177api-ms-win-crt-stdio-l1-1-0_NULL_THUNK_DATA 00457460     ucrt:api-ms-win-crt-stdio-l1-1-0.dll
 0002:00000464       __imp__strncmp             00457464     ucrt:api-ms-win-crt-string-l1-1-0.dll
 0002:00000468       __imp__tolower             00457468     ucrt:api-ms-win-crt-string-l1-1-0.dll
 0002:0000046c       __imp__strspn              0045746c     ucrt:api-ms-win-crt-string-l1-1-0.dll
 0002:00000470       __imp__strcspn             00457470     ucrt:api-ms-win-crt-string-l1-1-0.dll
 0002:00000474       __imp__strpbrk             00457474     ucrt:api-ms-win-crt-string-l1-1-0.dll
 0002:00000478       __imp__strncpy             00457478     ucrt:api-ms-win-crt-string-l1-1-0.dll
 0002:0000047c       __imp___strdup             0045747c     ucrt:api-ms-win-crt-string-l1-1-0.dll
 0002:0000047c       __imp__strdup              0045747c     ucrt:api-ms-win-crt-string-l1-1-0.dll
 0002:00000480       \177api-ms-win-crt-string-l1-1-0_NULL_THUNK_DATA 00457480     ucrt:api-ms-win-crt-string-l1-1-0.dll
 0002:00000484       __imp___gmtime64           00457484     ucrt:api-ms-win-crt-time-l1-1-0.dll
 0002:00000488       __imp___time64             00457488     ucrt:api-ms-win-crt-time-l1-1-0.dll
 0002:0000048c       __imp__strftime            0045748c     ucrt:api-ms-win-crt-time-l1-1-0.dll
 0002:00000490       __imp___localtime64        00457490     ucrt:api-ms-win-crt-time-l1-1-0.dll
 0002:00000494       \177api-ms-win-crt-time-l1-1-0_NULL_THUNK_DATA 00457494     ucrt:api-ms-win-crt-time-l1-1-0.dll
 0002:00000498       __imp__qsort               00457498     ucrt:api-ms-win-crt-utility-l1-1-0.dll
 0002:0000049c       \177api-ms-win-crt-utility-l1-1-0_NULL_THUNK_DATA 0045749c     ucrt:api-ms-win-crt-utility-l1-1-0.dll
 0002:000004a0       __imp__Direct3DCreate9@4   004574a0     d3d9:d3d9.dll
 0002:000004a4       \177d3d9_NULL_THUNK_DATA   004574a4     d3d9:d3d9.dll
 0002:000004a8       __imp__D3DXCreateLine@8    004574a8     d3dx9:d3dx9_43.dll
 0002:000004ac       \177d3dx9_43_NULL_THUNK_DATA 004574ac     d3dx9:d3dx9_43.dll
 0002:000004b0       ___guard_check_icall_fptr  004574b0     MSVCRT:guard_support.obj
 0002:000004b4       ___xc_a                    004574b4     MSVCRT:initializers.obj
 0002:000005fc       ___xc_z                    004575fc     MSVCRT:initializers.obj
 0002:00000600       ___xi_a                    00457600     MSVCRT:initializers.obj
 0002:0000060c       ___xi_z                    0045760c     MSVCRT:initializers.obj
 0002:00000610       ___xp_a                    00457610     MSVCRT:initializers.obj
 0002:00000614       ___xp_z                    00457614     MSVCRT:initializers.obj
 0002:00000618       ___xt_a                    00457618     MSVCRT:initializers.obj
 0002:0000061c       ___xt_z                    0045761c     MSVCRT:initializers.obj
 0002:00000624       ??_7type_info@@6B@         00457624     MSVCRT:std_type_info_static.obj
 0002:00000634       ??_7exception@std@@6B@     00457634     MSVCRT:throw_bad_alloc.obj
 0002:00000640       ??_7bad_alloc@std@@6B@     00457640     MSVCRT:throw_bad_alloc.obj
 0002:00000648       ??_C@_0P@GHFPNOJB@bad?5allocation?$AA@ 00457648     MSVCRT:throw_bad_alloc.obj
 0002:0000065c       ??_7bad_array_new_length@std@@6B@ 0045765c     MSVCRT:throw_bad_alloc.obj
 0002:00000664       ??_C@_0BF@KINCDENJ@bad?5array?5new?5length?$AA@ 00457664     MSVCRT:throw_bad_alloc.obj
 0002:0000067c       ??_C@_0CJ@FAHCKHJA@easy?5handle?5already?5used?5in?5mult@ 0045767c     libcurl:easy.obj
 0002:000006a8       ??_C@_03NIFPGLBG@ALL?$AA@  004576a8     libcurl:setopt.obj
 0002:000006ac       ??_C@_04BFMIILII@SESS?$AA@ 004576ac     libcurl:setopt.obj
 0002:000006b4       ??_C@_05KALGKIBB@FLUSH?$AA@ 004576b4     libcurl:setopt.obj
 0002:000006bc       ??_C@_06DCHFNDBF@RELOAD?$AA@ 004576bc     libcurl:setopt.obj
 0002:000006c4       ??_C@_0M@ICGHKGOK@Set?9Cookie?3?$AA@ 004576c4     libcurl:setopt.obj
 0002:00000728       ??_C@_0CH@LECELJNK@Connection?5?$CD?$CFld?5to?5host?5?$CFs?5left?5@ 00457728     libcurl:multi.obj
 0002:00000750       ??_C@_03OFAPEBGM@?$CFs?6?$AA@ 00457750     libcurl:multi.obj
 0002:00000754       ??_C@_0CN@BEDJOLPM@Resolving?5timed?5out?5after?5?$CFI64d?5@ 00457754     libcurl:multi.obj
 0002:00000784       ??_C@_0CO@PINFDPJN@Connection?5timed?5out?5after?5?$CFI64d@ 00457784     libcurl:multi.obj
 0002:000007b8       ??_C@_0FE@NBLGEINA@Operation?5timed?5out?5after?5?$CFI64d?5@ 004577b8     libcurl:multi.obj
 0002:00000810       ??_C@_0EH@GJEAMCHA@Operation?5timed?5out?5after?5?$CFI64d?5@ 00457810     libcurl:multi.obj
 0002:00000858       ??_C@_0CH@NOKKCOPP@Transfer?5was?5pending?0?5now?5try?5an@ 00457858     libcurl:multi.obj
 0002:00000880       ??_C@_0CG@EBAFLAEC@Hostname?5?8?$CFs?8?5was?5found?5in?5DNS?5c@ 00457880     libcurl:multi.obj
 0002:000008a8       ??_C@_0CJ@OALAEPML@Internal?5error?5removing?5splay?5no@ 004578a8     libcurl:multi.obj
 0002:000008d4       ??_C@_0CJ@EHKACPHP@Internal?5error?5clearing?5splay?5no@ 004578d4     libcurl:multi.obj
 0002:00000900       ??_C@_01KMDKNFGN@?1?$AA@   00457900     libcurl:cookie.obj
 0002:00000904       ??_C@_0CE@BBKJHKDF@ignoring?5failed?5cookie_init?5for?5@ 00457904     libcurl:cookie.obj
 0002:00000928       ??_C@_09IPAEKDAI@localhost?$AA@ 00457928     libcurl:cookie.obj
 0002:00000934       ??_C@_0BK@IIFEHJP@?$CF4095?$FL?$FO?$DL?$AN?6?$DN?$FN?5?$DN?$CF4095?$FL?$FO?$DL?$AN?6?$FN?$AA@ 00457934     libcurl:cookie.obj
 0002:00000950       ??_C@_0DE@IBKAGOK@oversized?5cookie?5dropped?0?5name?1v@ 00457950     libcurl:cookie.obj
 0002:00000984       ??_C@_09OLPEHKPE@__Secure?9?$AA@ 00457984     libcurl:cookie.obj
 0002:00000990       ??_C@_07DBHHKFCO@__Host?9?$AA@ 00457990     libcurl:cookie.obj
 0002:00000998       ??_C@_06CKKGAKDB@secure?$AA@ 00457998     libcurl:cookie.obj
 0002:000009a0       ??_C@_08LKPJDOCJ@httponly?$AA@ 004579a0     libcurl:cookie.obj
 0002:000009ac       ??_C@_04LNEJFJGI@path?$AA@ 004579ac     libcurl:cookie.obj
 0002:000009b4       ??_C@_06LKIIGAOE@domain?$AA@ 004579b4     libcurl:cookie.obj
 0002:000009bc       ??_C@_0CO@IPHLIEKA@skipped?5cookie?5with?5bad?5tailmatc@ 004579bc     libcurl:cookie.obj
 0002:000009ec       ??_C@_07CPCPJPKL@version?$AA@ 004579ec     libcurl:cookie.obj
 0002:000009f4       ??_C@_07PEFKGEJF@max?9age?$AA@ 004579f4     libcurl:cookie.obj
 0002:000009fc       ??_C@_07MJGJEDBB@expires?$AA@ 004579fc     libcurl:cookie.obj
 0002:00000a04       ??_C@_0L@KAKJBGGD@?$CDHttpOnly_?$AA@ 00457a04     libcurl:cookie.obj
 0002:00000a10       ??_C@_01GPOEFGEJ@?7?$AA@   00457a10     libcurl:cookie.obj
 0002:00000a14       ??_C@_04HCDDPBNL@TRUE?$AA@ 00457a14     libcurl:cookie.obj
 0002:00000a1c       ??_C@_05MAJJAKPI@FALSE?$AA@ 00457a1c     libcurl:cookie.obj
 0002:00000a24       ??_C@_08IMELJCAM@Replaced?$AA@ 00457a24     libcurl:cookie.obj
 0002:00000a30       ??_C@_05BNECJBCE@Added?$AA@ 00457a30     libcurl:cookie.obj
 0002:00000a38       ??_C@_0DI@KHDIKDMI@?$CFs?5cookie?5?$CFs?$DN?$CC?$CFs?$CC?5for?5domain?5?$CFs?0@ 00457a38     libcurl:cookie.obj
 0002:00000a70       ??_C@_04CGFJFPFD@none?$AA@ 00457a70     libcurl:cookie.obj
 0002:00000a78       ??_C@_01JOAMLHOP@?9?$AA@   00457a78     libcurl:cookie.obj
 0002:00000a7c       ??_C@_02BMJICGCB@rt?$AA@   00457a7c     libcurl:cookie.obj
 0002:00000a80       ??_C@_07CIFAGBMG@unknown?$AA@ 00457a80     libcurl:cookie.obj
 0002:00000a88       ??_C@_0BM@FIJJOLNN@?$CFs?$CFs?$CFs?7?$CFs?7?$CFs?7?$CFs?7?$CFI64d?7?$CFs?7?$CFs?$AA@ 00457a88     libcurl:cookie.obj
 0002:00000aa4       ??_C@_09HFHMDOBG@?$CFs?4?$CFs?4tmp?$AA@ 00457aa4     libcurl:cookie.obj
 0002:00000ab0       ??_C@_02BKFDOEMK@wt?$AA@   00457ab0     libcurl:cookie.obj
 0002:00000ab8       ??_C@_0IE@HIOMJDLH@?$CD?5Netscape?5HTTP?5Cookie?5File?6?$CD?5ht@ 00457ab8     libcurl:cookie.obj
 0002:00000b3c       ??_C@_0BJ@LMHKHCLE@?$CD?6?$CD?5Fatal?5libcurl?5error?6?$AA@ 00457b3c     libcurl:cookie.obj
 0002:00000b58       ??_C@_0CH@EIDBEPEM@WARNING?3?5failed?5to?5save?5cookies?5@ 00457b58     libcurl:cookie.obj
 0002:00000b80       ??_C@_02DPKJAMEF@?$CFd?$AA@ 00457b80     libcurl:asyn-thread.obj
 0002:00000b84       ??_C@_0CF@DENKCHCB@getaddrinfo?$CI?$CJ?5thread?5failed?5to?5s@ 00457b84     libcurl:asyn-thread.obj
 0002:00000da4       ??_C@_04JFHMGKLD@?4gif?$AA@ 00457da4     libcurl:mime.obj
 0002:00000dac       ??_C@_09HADNJIG@image?1gif?$AA@ 00457dac     libcurl:mime.obj
 0002:00000db8       ??_C@_04GNPKBLNA@?4jpg?$AA@ 00457db8     libcurl:mime.obj
 0002:00000dc0       ??_C@_0L@PJKHLKFB@image?1jpeg?$AA@ 00457dc0     libcurl:mime.obj
 0002:00000dcc       ??_C@_05KPIGABMB@?4jpeg?$AA@ 00457dcc     libcurl:mime.obj
 0002:00000dd4       ??_C@_04EEOGCCFB@?4png?$AA@ 00457dd4     libcurl:mime.obj
 0002:00000ddc       ??_C@_09NGJJJBGE@image?1png?$AA@ 00457ddc     libcurl:mime.obj
 0002:00000de8       ??_C@_04EEGGHPHH@?4svg?$AA@ 00457de8     libcurl:mime.obj
 0002:00000df0       ??_C@_0O@MMMFMLNF@image?1svg?$CLxml?$AA@ 00457df0     libcurl:mime.obj
 0002:00000e00       ??_C@_04LCMACLFG@?4txt?$AA@ 00457e00     libcurl:mime.obj
 0002:00000e08       ??_C@_0L@NPNLKGOJ@text?1plain?$AA@ 00457e08     libcurl:mime.obj
 0002:00000e14       ??_C@_04DKBFJDAN@?4htm?$AA@ 00457e14     libcurl:mime.obj
 0002:00000e1c       ??_C@_09KABDMIOB@text?1html?$AA@ 00457e1c     libcurl:mime.obj
 0002:00000e28       ??_C@_05LHMDENIF@?4html?$AA@ 00457e28     libcurl:mime.obj
 0002:00000e30       ??_C@_04FAGKJGMG@?4pdf?$AA@ 00457e30     libcurl:mime.obj
 0002:00000e38       ??_C@_0BA@MHMDKHOF@application?1pdf?$AA@ 00457e38     libcurl:mime.obj
 0002:00000e48       ??_C@_04GAOAGNCM@?4xml?$AA@ 00457e48     libcurl:mime.obj
 0002:00000e50       ??_C@_0BA@PHEJFMAP@application?1xml?$AA@ 00457e50     libcurl:mime.obj
 0002:00000e60       ??_C@_06FNFBAEBE@binary?$AA@ 00457e60     libcurl:mime.obj
 0002:00000e68       ??_C@_04DFPGIIHA@8bit?$AA@ 00457e68     libcurl:mime.obj
 0002:00000e70       ??_C@_04LHKGBPKB@7bit?$AA@ 00457e70     libcurl:mime.obj
 0002:00000e78       ??_C@_06JEFEFGEJ@base64?$AA@ 00457e78     libcurl:mime.obj
 0002:00000e80       ??_C@_0BB@CAHAECFA@quoted?9printable?$AA@ 00457e80     libcurl:mime.obj
 0002:00000e94       ??_C@_02JDPG@rb?$AA@       00457e94     libcurl:mime.obj
 0002:00000e98       ??_C@_0N@LAFFMKKA@Content?9Type?$AA@ 00457e98     libcurl:mime.obj
 0002:00000ea8       ??_C@_04LOEPKDGL@?$AN?6?9?9?$AA@ 00457ea8     libcurl:mime.obj
 0002:00000eb0       ??_C@_04KAODOPGN@?9?9?$AN?6?$AA@ 00457eb0     libcurl:mime.obj
 0002:00000eb8       ??_C@_0BP@IAECJDB@Can?8t?5add?5itself?5as?5a?5subpart?$CB?$AA@ 00457eb8     libcurl:mime.obj
 0002:00000ed8       ??_C@_0M@MJDFHGPO@?$DL?5boundary?$DN?$AA@ 00457ed8     libcurl:mime.obj
 0002:00000ee4       ??_C@_0BF@JGMBPGGP@Content?9Type?3?5?$CFs?$CFs?$CFs?$AA@ 00457ee4     libcurl:mime.obj
 0002:00000efc       ??_C@_0BA@LBPJGHIO@multipart?1mixed?$AA@ 00457efc     libcurl:mime.obj
 0002:00000f0c       ??_C@_0BJ@JDCJMJCJ@application?1octet?9stream?$AA@ 00457f0c     libcurl:mime.obj
 0002:00000f28       ??_C@_0BE@LMOOGHBG@Content?9Disposition?$AA@ 00457f28     libcurl:mime.obj
 0002:00000f3c       ??_C@_0L@LMJJPMNG@multipart?1?$AA@ 00457f3c     libcurl:mime.obj
 0002:00000f48       ??_C@_0L@HBDHCFKP@attachment?$AA@ 00457f48     libcurl:mime.obj
 0002:00000f54       ??_C@_0N@EBLPPAMO@?$DL?5filename?$DN?$CC?$AA@ 00457f54     libcurl:mime.obj
 0002:00000f64       ??_C@_08LCJOLIGB@?$DL?5name?$DN?$CC?$AA@ 00457f64     libcurl:mime.obj
 0002:00000f70       ??_C@_0CE@DDNMPDM@Content?9Disposition?3?5?$CFs?$CFs?$CFs?$CFs?$CFs?$CF@ 00457f70     libcurl:mime.obj
 0002:00000f94       ??_C@_0BK@MJFMDPAI@Content?9Transfer?9Encoding?$AA@ 00457f94     libcurl:mime.obj
 0002:00000fb0       ??_C@_0BO@GPACEDCJ@Content?9Transfer?9Encoding?3?5?$CFs?$AA@ 00457fb0     libcurl:mime.obj
 0002:00000fd0       ??_C@_0BE@PILCJFLE@multipart?1form?9data?$AA@ 00457fd0     libcurl:mime.obj
 0002:00000fe4       ??_C@_09DMEGNLGK@form?9data?$AA@ 00457fe4     libcurl:mime.obj
 0002:00000ff0       __xmm@2d2d2d2d2d2d2d2d2d2d2d2d2d2d2d2d 00457ff0     libcurl:mime.obj
 0002:00001000       ??_C@_05MLEOJOPP@?$CFld?$CFs?$AA@ 00458000     libcurl:conncache.obj
 0002:00001008       ??_C@_0DD@OLONMPCM@Connection?5cache?5is?5full?0?5closin@ 00458008     libcurl:conncache.obj
 0002:000010cc       ??_C@_0O@PKKFKPHL@?$DMno?5protocol?$DO?$AA@ 004580cc     libcurl:url.obj
 0002:000010dc       ??_C@_0BI@DDGGAIOA@Closing?5connection?5?$CFld?6?$AA@ 004580dc     libcurl:url.obj
 0002:000010f4       ??_C@_0DB@DJFDJCOE@Too?5old?5connection?5?$CI?$CFld?5seconds?$CJ@ 004580f4     libcurl:url.obj
 0002:00001128       ??_C@_0CC@JFLBHGMD@Connection?5?$CFld?5seems?5to?5be?5dead?$CB@ 00458128     libcurl:url.obj
 0002:0000114c       ??_C@_0O@EFAPFLJF@can?5multiplex?$AA@ 0045814c     libcurl:url.obj
 0002:0000115c       ??_C@_08HGENMDLD@serially?$AA@ 0045815c     libcurl:url.obj
 0002:00001168       ??_C@_0CD@OCDJOGEP@Found?5bundle?5for?5host?5?$CFs?3?5?$CFp?5?$FL?$CFs@ 00458168     libcurl:url.obj
 0002:0000118c       ??_C@_0CM@DIEBCPAL@Server?5doesn?8t?5support?5multiplex@ 0045818c     libcurl:url.obj
 0002:000011b8       ??_C@_0CI@GFGFLNAA@Server?5doesn?8t?5support?5multiplex@ 004581b8     libcurl:url.obj
 0002:000011e0       ??_C@_0CE@OANFFLBC@Could?5multiplex?0?5but?5not?5asked?5t@ 004581e0     libcurl:url.obj
 0002:00001204       ??_C@_0CK@OJMDJFJB@Can?5not?5multiplex?0?5even?5if?5we?5wa@ 00458204     libcurl:url.obj
 0002:00001230       ??_C@_0DG@ICACGPNK@Connection?5?$CD?$CFld?5is?5still?5name?5re@ 00458230     libcurl:url.obj
 0002:00001268       ??_C@_0DA@HEGJMKAL@Connection?5?$CD?$CFld?5isn?8t?5open?5enoug@ 00458268     libcurl:url.obj
 0002:00001298       ??_C@_0BP@IJOBPHC@Multiplexed?5connection?5found?$CB?6?$AA@ 00458298     libcurl:url.obj
 0002:000012b8       ??_C@_0DP@IINEECKA@Found?5pending?5candidate?5for?5reus@ 004582b8     libcurl:url.obj
 0002:000012f8       ??_C@_0CG@GIJHGMPJ@Connected?5to?5?$CFs?5?$CI?$CFs?$CJ?5port?5?$CFld?5?$CI?$CD@ 004582f8     libcurl:url.obj
 0002:00001320       ??_C@_0DG@OJGGOHOC@IDN?5support?5not?5present?0?5can?8t?5p@ 00458320     libcurl:url.obj
 0002:00001358       ??_C@_0DD@CPLPHJPM@Protocol?5?$CC?$CFs?$CC?5not?5supported?5or?5d@ 00458358     libcurl:url.obj
 0002:0000138c       ??_C@_0BI@BEHOBPHB@Invalid?5zoneid?3?5?$CFs?$DL?5?$CFs?6?$AA@ 0045838c     libcurl:url.obj
 0002:000013a4       ??_C@_07NCHOALFK@?$CFs?3?1?1?$CFs?$AA@ 004583a4     libcurl:url.obj
 0002:000013ac       ??_C@_04DAMGJPCA@file?$AA@ 004583ac     libcurl:url.obj
 0002:000013b4       ??_C@_06OJJNHGNN@?$CFI64d?9?$AA@ 004583b4     libcurl:url.obj
 0002:000013bc       ??_C@_02KEGNLNML@?0?5?$AA@ 004583bc     libcurl:url.obj
 0002:000013c0       ??_C@_01NBENCBCI@?$CK?$AA@ 004583c0     libcurl:url.obj
 0002:000013c4       ??_C@_06PIGEBLLD@_proxy?$AA@ 004583c4     libcurl:url.obj
 0002:000013cc       ??_C@_0L@BKCFCEPH@http_proxy?$AA@ 004583cc     libcurl:url.obj
 0002:000013d8       ??_C@_09IFLEAELB@all_proxy?$AA@ 004583d8     libcurl:url.obj
 0002:000013e4       ??_C@_09HKPIAANK@ALL_PROXY?$AA@ 004583e4     libcurl:url.obj
 0002:000013f0       ??_C@_0CE@MLGGMLP@Uses?5proxy?5env?5variable?5?$CFs?5?$DN?$DN?5?8?$CF@ 004583f0     libcurl:url.obj
 0002:00001414       ??_C@_05BCHGOAMK@https?$AA@ 00458414     libcurl:url.obj
 0002:0000141c       ??_C@_07FDHAHIOH@socks5h?$AA@ 0045841c     libcurl:url.obj
 0002:00001424       ??_C@_06IAICDOJI@socks5?$AA@ 00458424     libcurl:url.obj
 0002:0000142c       ??_C@_07IDHAKJJJ@socks4a?$AA@ 0045842c     libcurl:url.obj
 0002:00001434       ??_C@_06JJJJAPNJ@socks4?$AA@ 00458434     libcurl:url.obj
 0002:0000143c       ??_C@_05LBOKJHLG@socks?$AA@ 0045843c     libcurl:url.obj
 0002:00001444       ??_C@_04IAFLKNP@http?$AA@  00458444     libcurl:url.obj
 0002:0000144c       ??_C@_0CC@CEKBDKLM@Unsupported?5proxy?5scheme?5for?5?8?$CFs@ 0045844c     libcurl:url.obj
 0002:00001470       ??_C@_0CB@HLNKMBJD@Unsupported?5proxy?5syntax?5in?5?8?$CFs?8@ 00458470     libcurl:url.obj
 0002:00001498       ??_C@_0EK@MGMANAOF@Unsupported?5proxy?5?8?$CFs?8?0?5libcurl?5@ 00458498     libcurl:url.obj
 0002:000014e4       ??_C@_0BA@GJPPEADO@memory?5shortage?$AA@ 004584e4     libcurl:url.obj
 0002:000014f4       ??_C@_08BOGLDIEC@no_proxy?$AA@ 004584f4     libcurl:url.obj
 0002:00001500       ??_C@_08KOHKDPPJ@NO_PROXY?$AA@ 00458500     libcurl:url.obj
 0002:0000150c       ??_C@_0DG@MFBPPKBC@Couldn?8t?5find?5host?5?$CFs?5in?5the?5?$CFs?5@ 0045850c     libcurl:url.obj
 0002:00001544       ??_C@_09BMFBKPHA@anonymous?$AA@ 00458544     libcurl:url.obj
 0002:00001550       ??_C@_0BA@LJIKBFGM@ftp?$EAexample?4com?$AA@ 00458550     libcurl:url.obj
 0002:00001560       ??_C@_03MMIJIMKH@?$CF25?$AA@ 00458560     libcurl:url.obj
 0002:00001564       ??_C@_0CN@NDBDIMOC@Please?5URL?5encode?5?$CF?$CF?5as?5?$CF?$CF25?0?5se@ 00458564     libcurl:url.obj
 0002:00001594       ??_C@_0BN@IHHAEPKG@Invalid?5IPv6?5address?5format?6?$AA@ 00458594     libcurl:url.obj
 0002:000015b4       ??_C@_0DF@IONEKJDD@No?5valid?5port?5number?5in?5connect?5@ 004585b4     libcurl:url.obj
 0002:000015ec       ??_C@_01LBDDMOBJ@?$FN?$AA@ 004585ec     libcurl:url.obj
 0002:000015f0       ??_C@_01OHGJGJJP@?$FL?$AA@ 004585f0     libcurl:url.obj
 0002:000015f4       ??_C@_06DIJPEION@?$CFs?$CFs?$CFs?$AA@ 004585f4     libcurl:url.obj
 0002:000015fc       ??_C@_0BM@PMENCPCA@Connecting?5to?5hostname?3?5?$CFs?6?$AA@ 004585fc     libcurl:url.obj
 0002:00001618       ??_C@_0BI@BICCPIEJ@Connecting?5to?5port?3?5?$CFd?6?$AA@ 00458618     libcurl:url.obj
 0002:00001630       ??_C@_0DA@NFHFFFEO@Alt?9svc?5connecting?5from?5?$FL?$CFs?$FN?$CFs?3?$CF@ 00458630     libcurl:url.obj
 0002:00001660       ??_C@_0CA@PCHAHPEF@Unix?5socket?5path?5too?5long?3?5?8?$CFs?8?$AA@ 00458660     libcurl:url.obj
 0002:00001680       ??_C@_0BL@CBGJLMGC@Could?5not?5resolve?5host?3?5?$CFs?$AA@ 00458680     libcurl:url.obj
 0002:0000169c       ??_C@_0BM@PBLGFFN@Couldn?8t?5resolve?5proxy?5?8?$CFs?8?$AA@ 0045869c     libcurl:url.obj
 0002:000016b8       ??_C@_05BFHPMDA@proxy?$AA@ 004586b8     libcurl:url.obj
 0002:000016c0       ??_C@_04OODOLJMA@host?$AA@ 004586c0     libcurl:url.obj
 0002:000016c8       ??_C@_0DB@KBMGPDLF@Re?9using?5existing?5connection?$CB?5?$CI?$CD@ 004586c8     libcurl:url.obj
 0002:000016fc       ??_C@_0CN@MPPLPHGC@No?5more?5connections?5allowed?5to?5h@ 004586fc     libcurl:url.obj
 0002:0000172c       ??_C@_0CD@DJOOMEOI@No?5connections?5available?5in?5cach@ 0045872c     libcurl:url.obj
 0002:00001750       ??_C@_0BL@LKODOMNP@No?5connections?5available?4?6?$AA@ 00458750     libcurl:url.obj
 0002:0000176c       ??_C@_0CO@KHIJKMHA@NTLM?5picked?5AND?5auth?5done?5set?0?5c@ 0045876c     libcurl:url.obj
 0002:0000179c       ??_C@_0DE@GICFFDLJ@NTLM?9proxy?5picked?5AND?5auth?5done?5@ 0045879c     libcurl:url.obj
 0002:000017d0       ??_C@_04BINJNOJD@HEAD?$AA@ 004587d0     libcurl:getinfo.obj
 0002:000017d8       ??_C@_04HCJEIHPL@POST?$AA@ 004587d8     libcurl:getinfo.obj
 0002:000017e0       ??_C@_03KBBGFLEK@PUT?$AA@  004587e0     libcurl:getinfo.obj
 0002:000017e4       ??_C@_03HAPOJHBM@GET?$AA@  004587e4     libcurl:getinfo.obj
 0002:00001800       ??_C@_04MPPNMCOK@?4?4?4?6?$AA@ 00458800     libcurl:sendf.obj
 0002:00001808       ??_C@_03KHICJKCI@?4?4?4?$AA@ 00458808     libcurl:sendf.obj
 0002:0000180c       ??_C@_0BB@JCBOFDKN@Send?5failure?3?5?$CFs?$AA@ 0045880c     libcurl:sendf.obj
 0002:00001820       ??_C@_0BB@GOGKBCCD@Recv?5failure?3?5?$CFs?$AA@ 00458820     libcurl:sendf.obj
 0002:00001834       ??_C@_0DD@KHGMOPKJ@Write?5callback?5asked?5for?5PAUSE?5w@ 00458834     libcurl:sendf.obj
 0002:00001868       ??_C@_0CG@EMCHOAAB@Failure?5writing?5output?5to?5destin@ 00458868     libcurl:sendf.obj
 0002:00001890       ??_C@_0BG@OFFCIDAN@Failed?5writing?5header?$AA@ 00458890     libcurl:sendf.obj
 0002:000018a8       ??_C@_0CF@PEMBPPBD@Failed?5to?5set?5SO_KEEPALIVE?5on?5fd@ 004588a8     libcurl:connect.obj
 0002:000018d0       ??_C@_0CP@NKGEMNPP@Failed?5to?5set?5SIO_KEEPALIVE_VALS@ 004588d0     libcurl:connect.obj
 0002:00001900       ??_C@_03FIFADKBL@if?$CB?$AA@ 00458900     libcurl:connect.obj
 0002:00001904       ??_C@_05BHBFOJOK@host?$CB?$AA@ 00458904     libcurl:connect.obj
 0002:0000190c       ??_C@_0CA@NNLJLENH@Couldn?8t?5bind?5to?5interface?5?8?$CFs?8?$AA@ 0045890c     libcurl:connect.obj
 0002:0000192c       ??_C@_0DF@GKHAKMGC@Local?5Interface?5?$CFs?5is?5ip?5?$CFs?5usin@ 0045892c     libcurl:connect.obj
 0002:00001964       ??_C@_0DA@OPBJKDFD@Name?5?8?$CFs?8?5family?5?$CFi?5resolved?5to?5@ 00458964     libcurl:connect.obj
 0002:00001994       ??_C@_0BG@CIMNBOAN@Couldn?8t?5bind?5to?5?8?$CFs?8?$AA@ 00458994     libcurl:connect.obj
 0002:000019ac       ??_C@_0CH@DDKDPEAI@getsockname?$CI?$CJ?5failed?5with?5errno?5@ 004589ac     libcurl:connect.obj
 0002:000019d4       ??_C@_0BB@PLFEKLHG@Local?5port?3?5?$CFhu?6?$AA@ 004589d4     libcurl:connect.obj
 0002:000019e8       ??_C@_0CM@IFAJKKEJ@Bind?5to?5local?5port?5?$CFhu?5failed?0?5t@ 004589e8     libcurl:connect.obj
 0002:00001a14       ??_C@_0BO@NNMFENBA@bind?5failed?5with?5errno?5?$CFd?3?5?$CFs?$AA@ 00458a14     libcurl:connect.obj
 0002:00001a34       ??_C@_0CH@IBJKPDAO@getpeername?$CI?$CJ?5failed?5with?5errno?5@ 00458a34     libcurl:connect.obj
 0002:00001a5c       ??_C@_0CL@PFOECMOH@ssrem?5inet_ntop?$CI?$CJ?5failed?5with?5er@ 00458a5c     libcurl:connect.obj
 0002:00001a88       ??_C@_0CL@FJICKPK@ssloc?5inet_ntop?$CI?$CJ?5failed?5with?5er@ 00458a88     libcurl:connect.obj
 0002:00001ab4       ??_C@_0BP@FBEALKHG@unknown?5proxytype?5option?5given?$AA@ 00458ab4     libcurl:connect.obj
 0002:00001ad4       ??_C@_0BE@GAEGKOEF@Connection?5time?9out?$AA@ 00458ad4     libcurl:connect.obj
 0002:00001ae8       ??_C@_0CG@OOKPFHPB@After?5?$CFI64dms?5connect?5time?0?5move@ 00458ae8     libcurl:connect.obj
 0002:00001b10       ??_C@_0CD@INOOPIKI@connect?5to?5?$CFs?5port?5?$CFld?5failed?3?5?$CF@ 00458b10     libcurl:connect.obj
 0002:00001b34       ??_C@_0CF@PFFPOJAN@Failed?5to?5connect?5to?5?$CFs?5port?5?$CFld@ 00458b34     libcurl:connect.obj
 0002:00001b5c       ??_C@_0BP@MAILANNH@Could?5not?5set?5TCP_NODELAY?3?5?$CFs?6?$AA@ 00458b5c     libcurl:connect.obj
 0002:00001b7c       ??_C@_0CN@NLCIOFFH@sa_addr?5inet_ntop?$CI?$CJ?5failed?5with?5@ 00458b7c     libcurl:connect.obj
 0002:00001bac       ??_C@_0BD@MPJNDNNC@?5?5Trying?5?$CFs?3?$CFd?4?4?4?6?$AA@ 00458bac     libcurl:connect.obj
 0002:00001bc0       ??_C@_0CD@EAMEJFBB@Immediate?5connect?5fail?5for?5?$CFs?3?5?$CF@ 00458bc0     libcurl:connect.obj
 0002:00001be4       ??_C@_06MHCCOJOO@Digest?$AA@ 00458be4     libcurl:http_digest.obj
 0002:00001bec       ??_C@_04EBNJJJJI@?$CF?4?$CKs?$AA@ 00458bec     libcurl:http_digest.obj
 0002:00001bf4       ??_C@_06MJEPAECD@Proxy?9?$AA@ 00458bf4     libcurl:http_digest.obj
 0002:00001bfc       ??_C@_0BN@NPMGGCBO@?$CFsAuthorization?3?5Digest?5?$CFs?$AN?6?$AA@ 00458bfc     libcurl:http_digest.obj
 0002:00001c1c       ??_C@_0N@BBCKHBCL@iphlpapi?4dll?$AA@ 00458c1c     libcurl:system_win32.obj
 0002:00001c2c       ??_C@_0P@GFPCJLDD@if_nametoindex?$AA@ 00458c2c     libcurl:system_win32.obj
 0002:00001c3c       ??_C@_08PNLNEKOB@kernel32?$AA@ 00458c3c     libcurl:system_win32.obj
 0002:00001c48       ??_C@_0P@GILJFMCJ@LoadLibraryExA?$AA@ 00458c48     libcurl:system_win32.obj
 0002:00001c58       ??_C@_02HHAEMJFE@?2?1?$AA@ 00458c58     libcurl:system_win32.obj
 0002:00001c5c       ??_C@_0BA@NMFGOKJN@AddDllDirectory?$AA@ 00458c5c     libcurl:system_win32.obj
 0002:00001c6c       ??_C@_02IACHLLMH@h1?$AA@   00458c6c     libcurl:altsvc.obj
 0002:00001c70       ??_C@_02KLAKOIAE@h2?$AA@   00458c70     libcurl:altsvc.obj
 0002:00001c74       ??_C@_02LCBBNJEF@h3?$AA@   00458c74     libcurl:altsvc.obj
 0002:00001c78       ??_C@_0CM@DAEANJFD@?$CF10s?5?$CF512s?5?$CFu?5?$CF10s?5?$CF512s?5?$CFu?5?$CC?$CF64@ 00458c78     libcurl:altsvc.obj
 0002:00001ca4       ??_C@_0DF@DAAFPCNG@?$CFs?5?$CFs?5?$CFu?5?$CFs?5?$CFs?5?$CFu?5?$CC?$CFd?$CF02d?$CF02d?5?$CF0@ 00458ca4     libcurl:altsvc.obj
 0002:00001ce0       ??_C@_0HG@JDCLPEEL@?$CD?5Your?5alt?9svc?5cache?4?5https?3?1?1cu@ 00458ce0     libcurl:altsvc.obj
 0002:00001d58       ??_C@_0CH@GNONCAKC@Excessive?5alt?9svc?5header?0?5ignori@ 00458d58     libcurl:altsvc.obj
 0002:00001d80       ??_C@_05MEHLAELG@clear?$AA@ 00458d80     libcurl:altsvc.obj
 0002:00001d88       ??_C@_0CK@IFODLHOH@Excessive?5alt?9svc?5host?5name?0?5ign@ 00458d88     libcurl:altsvc.obj
 0002:00001db4       ??_C@_0CK@IIDJBGKI@Unknown?5alt?9svc?5port?5number?0?5ign@ 00458db4     libcurl:altsvc.obj
 0002:00001de0       ??_C@_02DMFHCEHI@ma?$AA@   00458de0     libcurl:altsvc.obj
 0002:00001de4       ??_C@_07EMFBDGOD@persist?$AA@ 00458de4     libcurl:altsvc.obj
 0002:00001dec       ??_C@_0BO@EALCHFOF@Added?5alt?9svc?3?5?$CFs?3?$CFd?5over?5?$CFs?6?$AA@ 00458dec     libcurl:altsvc.obj
 0002:00001e0c       ??_C@_0CM@MLGGHAPD@Unknown?5alt?9svc?5protocol?5?$CC?$CFs?$CC?0?5s@ 00458e0c     libcurl:altsvc.obj
 0002:00001e88       ??_C@_08LBJOIDDC@identity?$AA@ 00458e88     libcurl:content_encoding.obj
 0002:00001e98       ??_C@_0EO@CHCFCBOE@Unrecognized?5content?5encoding?5ty@ 00458e98     libcurl:content_encoding.obj
 0002:00001ee8       ??_C@_07KCKHAHHI@chunked?$AA@ 00458ee8     libcurl:content_encoding.obj
 0002:00001ef0       ??_C@_03CNODDBJO@?3?$CFu?$AA@ 00458ef0     libcurl:hostip.obj
 0002:00001ef4       ??_C@_0CJ@BHEFAGPN@Hostname?5in?5DNS?5cache?5was?5stale?0@ 00458ef4     libcurl:hostip.obj
 0002:00001f20       ??_C@_0BH@EAPFBJAK@Shuffling?5?$CFi?5addresses?$AA@ 00458f20     libcurl:hostip.obj
 0002:00001f38       ??_C@_0CE@NGLGBBNH@Hostname?5?$CFs?5was?5found?5in?5DNS?5cac@ 00458f38     libcurl:hostip.obj
 0002:00001f5c       ??_C@_0M@CAIHMLOC@?$CF255?$FL?$FO?3?$FN?3?$CFd?$AA@ 00458f5c     libcurl:hostip.obj
 0002:00001f68       ??_C@_0DE@ELJFMFMM@Couldn?8t?5parse?5CURLOPT_RESOLVE?5r@ 00458f68     libcurl:hostip.obj
 0002:00001f9c       ??_C@_0CF@FMMIAGMF@Resolve?5address?5?8?$CFs?8?5found?5illeg@ 00458f9c     libcurl:hostip.obj
 0002:00001fc4       ??_C@_0CM@LICJDDJG@Couldn?8t?5parse?5CURLOPT_RESOLVE?5e@ 00458fc4     libcurl:hostip.obj
 0002:00001ff0       ??_C@_0CN@JHBOBPLC@RESOLVE?5?$CFs?3?$CFd?5is?5?9?5old?5addresses@ 00458ff0     libcurl:hostip.obj
 0002:00002020       ??_C@_0BB@KFONHPNE@?5?$CInon?9permanent?$CJ?$AA@ 00459020     libcurl:hostip.obj
 0002:00002034       ??_C@_0BP@KGHHPNAO@Added?5?$CFs?3?$CFd?3?$CFs?5to?5DNS?5cache?$CFs?6?$AA@ 00459034     libcurl:hostip.obj
 0002:00002054       ??_C@_0DF@FGOBCBFC@RESOLVE?5?$CFs?3?$CFd?5is?5wildcard?0?5enabl@ 00459054     libcurl:hostip.obj
 0002:0000208c       ??_C@_0BJ@MIAHLHBF@Could?5not?5resolve?5?$CFs?3?5?$CFs?$AA@ 0045908c     libcurl:hostip.obj
 0002:000020b8       ??_C@_04MEDPFIKH@HTTP?$AA@ 004590b8     libcurl:http.obj
 0002:000020c0       ??_C@_0CD@KELEPDPB@HTTP?13?5requested?5for?5non?9HTTPS?5U@ 004590c0     libcurl:http.obj
 0002:000020e8       _Curl_handler_http         004590e8     libcurl:http.obj
 0002:00002134       ??_C@_05CCMOGDN@?$CFs?3?$CFs?$AA@ 00459134     libcurl:http.obj
 0002:0000213c       ??_C@_0BM@NMNAGCIL@?$CFsAuthorization?3?5Basic?5?$CFs?$AN?6?$AA@ 0045913c     libcurl:http.obj
 0002:00002158       ??_C@_0BL@JHLMAFGM@Authorization?3?5Bearer?5?$CFs?$AN?6?$AA@ 00459158     libcurl:http.obj
 0002:00002174       ??_C@_0BK@HOMHMGOD@Rewind?5stream?5after?5send?6?$AA@ 00459174     libcurl:http.obj
 0002:00002190       ??_C@_0DB@DNAPMGHO@NTLM?5send?0?5close?5instead?5of?5send@ 00459190     libcurl:http.obj
 0002:000021c4       ??_C@_0BK@CMMBNKGD@Forcing?5HTTP?11?41?5for?5NTLM?$AA@ 004591c4     libcurl:http.obj
 0002:000021e0       ??_C@_0CF@BBGENOPF@The?5requested?5URL?5returned?5error@ 004591e0     libcurl:http.obj
 0002:00002208       ??_C@_09HPCLDLMD@AWS_SIGV4?$AA@ 00459208     libcurl:http.obj
 0002:00002214       ??_C@_04KGCGDDND@NTLM?$AA@ 00459214     libcurl:http.obj
 0002:0000221c       ??_C@_0BE@PPNONACO@Proxy?9authorization?$AA@ 0045921c     libcurl:http.obj
 0002:00002230       ??_C@_0O@NAFGPKMI@Authorization?$AA@ 00459230     libcurl:http.obj
 0002:00002240       ??_C@_05NIKDGMHP@Basic?$AA@ 00459240     libcurl:http.obj
 0002:00002248       ??_C@_0P@LAMGMCAB@Authorization?3?$AA@ 00459248     libcurl:http.obj
 0002:00002258       ??_C@_06NPEPPOGN@Bearer?$AA@ 00459258     libcurl:http.obj
 0002:00002260       ??_C@_05GPLPJAG@Proxy?$AA@ 00459260     libcurl:http.obj
 0002:00002268       ??_C@_06LGMEBDBC@Server?$AA@ 00459268     libcurl:http.obj
 0002:00002270       ??_C@_0CB@BNDOODNM@?$CFs?5auth?5using?5?$CFs?5with?5user?5?8?$CFs?8?6@ 00459270     libcurl:http.obj
 0002:00002294       ??_C@_0CI@DKAENECE@Authentication?5problem?4?5Ignoring@ 00459294     libcurl:http.obj
 0002:000022bc       ??_C@_0CI@DIJIGOJK@Ignoring?5duplicate?5digest?5auth?5h@ 004592bc     libcurl:http.obj
 0002:000022e4       ??_C@_04JIEPCJPP@TCP6?$AA@ 004592e4     libcurl:http.obj
 0002:000022ec       ??_C@_04KKHJELHN@TCP4?$AA@ 004592ec     libcurl:http.obj
 0002:000022f4       ??_C@_0BH@GGJGKPOP@PROXY?5?$CFs?5?$CFs?5?$CFs?5?$CFi?5?$CFi?$AN?6?$AA@ 004592f4     libcurl:http.obj
 0002:0000230c       ??_C@_0BI@KEPAADBC@Empty?5reply?5from?5server?$AA@ 0045930c     libcurl:http.obj
 0002:00002324       ??_C@_03GCKCNDHP@1?41?$AA@ 00459324     libcurl:http.obj
 0002:00002328       ??_C@_03HLLJOCDO@1?40?$AA@ 00459328     libcurl:http.obj
 0002:0000232c       ??_C@_06GHDJNLIG@Expect?$AA@ 0045932c     libcurl:http.obj
 0002:00002334       ??_C@_0N@IOPAKPOD@100?9continue?$AA@ 00459334     libcurl:http.obj
 0002:00002344       ??_C@_07CBBFMBLH@Expect?3?$AA@ 00459344     libcurl:http.obj
 0002:0000234c       ??_C@_0BH@JCEGEJFB@Expect?3?5100?9continue?$AN?6?$AA@ 0045934c     libcurl:http.obj
 0002:00002364       ??_C@_0DB@KNJCCOIM@Malformatted?5trailing?5header?5?$CB?5S@ 00459364     libcurl:http.obj
 0002:00002398       ??_C@_05LJIPCHEG@Host?3?$AA@ 00459398     libcurl:http.obj
 0002:000023a0       ??_C@_0O@PDMPCIFL@Content?9Type?3?$AA@ 004593a0     libcurl:http.obj
 0002:000023b0       ??_C@_0BA@DIGAFIOK@Content?9Length?3?$AA@ 004593b0     libcurl:http.obj
 0002:000023c0       ??_C@_0M@HJBFCNNB@Connection?3?$AA@ 004593c0     libcurl:http.obj
 0002:000023cc       ??_C@_0BD@DNFFOCFM@Transfer?9Encoding?3?$AA@ 004593cc     libcurl:http.obj
 0002:000023e0       ??_C@_07HKOKENHM@Cookie?3?$AA@ 004593e0     libcurl:http.obj
 0002:000023e8       ??_C@_04LLEBNMDN@?$CFs?$AN?6?$AA@ 004593e8     libcurl:http.obj
 0002:000023f0       ??_C@_0BC@PCIFJBEC@Invalid?5TIMEVALUE?$AA@ 004593f0     libcurl:http.obj
 0002:00002404       ??_C@_0BC@GJLFBBBL@If?9Modified?9Since?$AA@ 00459404     libcurl:http.obj
 0002:00002418       ??_C@_0BE@DDBHAKNF@If?9Unmodified?9Since?$AA@ 00459418     libcurl:http.obj
 0002:0000242c       ??_C@_0O@FICEOEAF@Last?9Modified?$AA@ 0045942c     libcurl:http.obj
 0002:0000243c       ??_C@_0CJ@PBKGCGNN@?$CFs?3?5?$CFs?0?5?$CF02d?5?$CFs?5?$CF4d?5?$CF02d?3?$CF02d?3?$CF0@ 0045943c     libcurl:http.obj
 0002:00002468       ??_C@_0L@DMPACEMJ@User?9Agent?$AA@ 00459468     libcurl:http.obj
 0002:00002474       ??_C@_04CPPPJGME@Host?$AA@ 00459474     libcurl:http.obj
 0002:0000247c       ??_C@_09PEHAMPH@Host?3?$CFs?$AN?6?$AA@ 0045947c     libcurl:http.obj
 0002:00002488       ??_C@_0P@CKOLCGKA@Host?3?5?$CFs?$CFs?$CFs?$AN?6?$AA@ 00459488     libcurl:http.obj
 0002:00002498       ??_C@_0BC@DBODHBND@Host?3?5?$CFs?$CFs?$CFs?3?$CFd?$AN?6?$AA@ 00459498     libcurl:http.obj
 0002:000024ac       ??_C@_03LMDBDBEG@ftp?$AA@  004594ac     libcurl:http.obj
 0002:000024b0       ??_C@_06ODENPNKJ@?$DLtype?$DN?$AA@ 004594b0     libcurl:http.obj
 0002:000024b8       ??_C@_08MMJPNGCD@?$DLtype?$DN?$CFc?$AA@ 004594b8     libcurl:http.obj
 0002:000024c4       ??_C@_03EMGHGGCK@?$DP?$CFs?$AA@ 004594c4     libcurl:http.obj
 0002:000024c8       ??_C@_0BC@ELHLFCNH@Transfer?9Encoding?$AA@ 004594c8     libcurl:http.obj
 0002:000024dc       ??_C@_0CL@OGPNFEKJ@Chunky?5upload?5is?5not?5supported?5b@ 004594dc     libcurl:http.obj
 0002:00002508       ??_C@_0BN@HCMGFBOG@Transfer?9Encoding?3?5chunked?$AN?6?$AA@ 00459508     libcurl:http.obj
 0002:00002528       ??_C@_0P@HOJGPHBA@Content?9Length?$AA@ 00459528     libcurl:http.obj
 0002:00002538       ??_C@_0BI@LJIKFNCE@Content?9Length?3?5?$CFI64d?$AN?6?$AA@ 00459538     libcurl:http.obj
 0002:00002550       ??_C@_0BL@KJBPLOOA@Failed?5sending?5PUT?5request?$AA@ 00459550     libcurl:http.obj
 0002:0000256c       ??_C@_0BG@DPJOPI@Content?9Length?3?50?$AN?6?$AN?6?$AA@ 0045956c     libcurl:http.obj
 0002:00002584       ??_C@_0BM@OJEBFGIF@Failed?5sending?5POST?5request?$AA@ 00459584     libcurl:http.obj
 0002:000025a0       ??_C@_0DC@DMFLICKC@Content?9Type?3?5application?1x?9www?9@ 004595a0     libcurl:http.obj
 0002:000025d4       ??_C@_04GMEAFLDM@?$CFx?$AN?6?$AA@ 004595d4     libcurl:http.obj
 0002:000025dc       ??_C@_05CPFNAGPN@0?$AN?6?$AN?6?$AA@ 004595dc     libcurl:http.obj
 0002:000025e4       ??_C@_0CB@KDDFLMMJ@Failed?5sending?5HTTP?5POST?5request@ 004595e4     libcurl:http.obj
 0002:00002608       ??_C@_0BM@FKBPNPDJ@Failed?5sending?5HTTP?5request?$AA@ 00459608     libcurl:http.obj
 0002:00002624       ??_C@_06EGBLANDJ@Cookie?$AA@ 00459624     libcurl:http.obj
 0002:0000262c       ??_C@_08MMENPDPI@Cookie?3?5?$AA@ 0045962c     libcurl:http.obj
 0002:00002638       ??_C@_02LNAEAIDO@?$DL?5?$AA@ 00459638     libcurl:http.obj
 0002:0000263c       ??_C@_07CHANAGMK@?$CFs?$CFs?$DN?$CFs?$AA@ 0045963c     libcurl:http.obj
 0002:00002644       ??_C@_04HDOCAJNK@?$CFs?$CFs?$AA@ 00459644     libcurl:http.obj
 0002:0000264c       ??_C@_05CFMCGLCK@Range?$AA@ 0045964c     libcurl:http.obj
 0002:00002654       ??_C@_0BC@MAJANMND@Range?3?5bytes?$DN?$CFs?$AN?6?$AA@ 00459654     libcurl:http.obj
 0002:00002668       ??_C@_0O@PLGHKCFM@Content?9Range?$AA@ 00459668     libcurl:http.obj
 0002:00002678       ??_C@_0CF@GOIFFLMO@Content?9Range?3?5bytes?50?9?$CFI64d?1?$CFI6@ 00459678     libcurl:http.obj
 0002:000026a0       ??_C@_0CF@JBBBEEAB@Content?9Range?3?5bytes?5?$CFs?$CFI64d?1?$CFI6@ 004596a0     libcurl:http.obj
 0002:000026c8       ??_C@_0CA@KGFKCJEO@Content?9Range?3?5bytes?5?$CFs?1?$CFI64d?$AN?6?$AA@ 004596c8     libcurl:http.obj
 0002:000026e8       ??_C@_0BG@FAJPNPNB@Could?5not?5seek?5stream?$AA@ 004596e8     libcurl:http.obj
 0002:00002700       ??_C@_0CL@LFKAINMC@Could?5only?5read?5?$CFI64d?5bytes?5from@ 00459700     libcurl:http.obj
 0002:0000272c       ??_C@_0CB@BPNMMFKO@File?5already?5completely?5uploaded@ 0045972c     libcurl:http.obj
 0002:00002750       ??_C@_0BM@KNDLFPLE@Ignoring?5the?5response?9body?6?$AA@ 00459750     libcurl:http.obj
 0002:0000276c       ??_C@_0CK@ELFDNGAB@The?5entire?5document?5is?5already?5d@ 0045976c     libcurl:http.obj
 0002:00002798       ??_C@_0EA@PGICDNJG@HTTP?5server?5doesn?8t?5seem?5to?5supp@ 00459798     libcurl:http.obj
 0002:000027d8       ??_C@_0BP@BDCHAEKO@Simulate?5a?5HTTP?5304?5response?$CB?6?$AA@ 004597d8     libcurl:http.obj
 0002:000027f8       ??_C@_05DFPCBGAP@?$CFs?$DP?$CFs?$AA@ 004597f8     libcurl:http.obj
 0002:00002800       ??_C@_07EJAMNJLN@Referer?$AA@ 00459800     libcurl:http.obj
 0002:00002808       ??_C@_0O@JOAPDPIB@Referer?3?5?$CFs?$AN?6?$AA@ 00459808     libcurl:http.obj
 0002:00002818       ??_C@_0BA@KDJCHKHJ@Accept?9Encoding?$AA@ 00459818     libcurl:http.obj
 0002:00002828       ??_C@_0BG@NKBLEFIE@Accept?9Encoding?3?5?$CFs?$AN?6?$AA@ 00459828     libcurl:http.obj
 0002:00002840       ??_C@_06MDEHPNLG@Accept?$AA@ 00459840     libcurl:http.obj
 0002:00002848       ??_C@_0O@GHCMGJMD@Accept?3?5?$CK?1?$CK?$AN?6?$AA@ 00459848     libcurl:http.obj
 0002:00002858       ??_C@_03IKGEINEE@?$CFs?5?$AA@ 00459858     libcurl:http.obj
 0002:0000285c       ??_C@_08DCLKEDJA@Alt?9Used?$AA@ 0045985c     libcurl:http.obj
 0002:00002868       ??_C@_0BC@NLLFJIJM@Alt?9Used?3?5?$CFs?3?$CFd?$AN?6?$AA@ 00459868     libcurl:http.obj
 0002:0000287c       ??_C@_0BB@MLFPABGO@Proxy?9Connection?$AA@ 0045987c     libcurl:http.obj
 0002:00002890       ??_C@_0BP@HADNPFIL@Proxy?9Connection?3?5Keep?9Alive?$AN?6?$AA@ 00459890     libcurl:http.obj
 0002:000028b0       ??_C@_0CD@NHMGHKMA@?5HTTP?1?$CFs?$AN?6?$CFs?$CFs?$CFs?$CFs?$CFs?$CFs?$CFs?$CFs?$CFs?$CFs?$CFs@ 004598b0     libcurl:http.obj
 0002:000028d4       ??_C@_0DG@MEACOPGN@upload?5completely?5sent?5off?3?5?$CFI64@ 004598d4     libcurl:http.obj
 0002:0000290c       ??_C@_05FKGKDBHO@HTTP?1?$AA@ 0045990c     libcurl:http.obj
 0002:00002914       ??_C@_05GFPACIDK@RTSP?1?$AA@ 00459914     libcurl:http.obj
 0002:0000291c       ??_C@_0BL@GFBKPFMO@Maximum?5file?5size?5exceeded?$AA@ 0045991c     libcurl:http.obj
 0002:00002938       ??_C@_0CB@KGLAHIH@Overflow?5Content?9Length?3?5value?$CB?6@ 00459938     libcurl:http.obj
 0002:0000295c       ??_C@_0BO@DIBNEJMM@Invalid?5Content?9Length?3?5value?$AA@ 0045995c     libcurl:http.obj
 0002:0000297c       ??_C@_0L@FFDPOIEG@keep?9alive?$AA@ 0045997c     libcurl:http.obj
 0002:00002988       ??_C@_0BC@IPGIMNCH@Proxy?9Connection?3?$AA@ 00459988     libcurl:http.obj
 0002:0000299c       ??_C@_0CO@NNECKAAI@HTTP?11?40?5proxy?5connection?5set?5to@ 0045999c     libcurl:http.obj
 0002:000029cc       ??_C@_05LBOHBHFK@close?$AA@ 004599cc     libcurl:http.obj
 0002:000029d4       ??_C@_0CG@GBJOIAPM@HTTP?11?41?5proxy?5connection?5set?5cl@ 004599d4     libcurl:http.obj
 0002:000029fc       ??_C@_0CI@DLONMNKD@HTTP?11?40?5connection?5set?5to?5keep?5@ 004599fc     libcurl:http.obj
 0002:00002a24       ??_C@_0BC@FGDKEGD@Content?9Encoding?3?$AA@ 00459a24     libcurl:http.obj
 0002:00002a38       ??_C@_0N@OFDPOHHB@Retry?9After?3?$AA@ 00459a38     libcurl:http.obj
 0002:00002a48       ??_C@_0P@EHIPKEAE@Content?9Range?3?$AA@ 00459a48     libcurl:http.obj
 0002:00002a58       ??_C@_0P@FFJLAOBC@Last?9Modified?3?$AA@ 00459a58     libcurl:http.obj
 0002:00002a68       ??_C@_0BC@EALNDOCH@WWW?9Authenticate?3?$AA@ 00459a68     libcurl:http.obj
 0002:00002a7c       ??_C@_0BE@IHHLHIBG@Proxy?9authenticate?3?$AA@ 00459a7c     libcurl:http.obj
 0002:00002a90       ??_C@_09GILIFLDG@Location?3?$AA@ 00459a90     libcurl:http.obj
 0002:00002a9c       ??_C@_08KKJBEKGK@Alt?9Svc?3?$AA@ 00459a9c     libcurl:http.obj
 0002:00002aa8       ??_C@_0CD@KMCBNFEI@HTTP?51?40?0?5assume?5close?5after?5bod@ 00459aa8     libcurl:http.obj
 0002:00002acc       ??_C@_0CD@KCIPCEBM@Received?5HTTP?10?49?5when?5not?5allow@ 00459acc     libcurl:http.obj
 0002:00002af0       ??_C@_0O@HIILDMIH@Received?5101?6?$AA@ 00459af0     libcurl:http.obj
 0002:00002b00       ??_C@_0DJ@MIHKJEOL@no?5chunk?0?5no?5close?0?5no?5size?4?5Ass@ 00459b00     libcurl:http.obj
 0002:00002b3c       ??_C@_0DH@BADDOKJP@Connection?5closure?5while?5negotia@ 00459b3c     libcurl:http.obj
 0002:00002b74       ??_C@_0CB@CMHNBKGH@Got?5417?5while?5waiting?5for?5a?5100?6@ 00459b74     libcurl:http.obj
 0002:00002b98       ??_C@_0CN@PJJLOEM@HTTP?5error?5before?5end?5of?5send?0?5k@ 00459b98     libcurl:http.obj
 0002:00002bc8       ??_C@_0CN@NJNEALCI@HTTP?5error?5before?5end?5of?5send?0?5s@ 00459bc8     libcurl:http.obj
 0002:00002bf8       ??_C@_0CH@COOIMIHN@Keep?5sending?5data?5to?5get?5tossed?5@ 00459bf8     libcurl:http.obj
 0002:00002c20       ??_C@_0BD@MJKOHCIC@?5HTTP?1?$CF1d?4?$CF1d?$CFc?$CF3d?$AA@ 00459c20     libcurl:http.obj
 0002:00002c34       ??_C@_0BA@KFEEPMFA@?5HTTP?1?$CF1?$FL23?$FN?5?$CFd?$AA@ 00459c34     libcurl:http.obj
 0002:00002c44       ??_C@_0CN@OHBDOBD@Unsupported?5HTTP?5version?5?$CI?$CFu?4?$CFd?$CJ@ 00459c44     libcurl:http.obj
 0002:00002c74       ??_C@_0CC@JKBOGHFA@Lying?5server?0?5not?5serving?5HTTP?12@ 00459c74     libcurl:http.obj
 0002:00002c98       ??_C@_0CI@LFNOECD@Mark?5bundle?5as?5not?5supporting?5mu@ 00459c98     libcurl:http.obj
 0002:00002cc0       ??_C@_09ENILIIEL@?5HTTP?5?$CF3d?$AA@ 00459cc0     libcurl:http.obj
 0002:00002ccc       ??_C@_0CF@HNNLNLIA@Unsupported?5HTTP?5version?5in?5resp@ 00459ccc     libcurl:http.obj
 0002:00002cf4       ??_C@_0BD@IHBBDGA@?5RTSP?1?$CF1d?4?$CF1d?$CFc?$CF3d?$AA@ 00459cf4     libcurl:http.obj
 0002:00002d08       ??_C@_02BBAHNLBA@?$CFp?$AA@ 00459d08     libcurl:socketpair.obj
 0002:00002d0c       ??_C@_0DM@ENEANEJF@Moving?5trailers?5state?5machine?5fr@ 00459d0c     libcurl:transfer.obj
 0002:00002d48       ??_C@_0CP@HJNKABJC@operation?5aborted?5by?5trailing?5he@ 00459d48     libcurl:transfer.obj
 0002:00002d78       ??_C@_0CC@PPBDDFKE@Successfully?5compiled?5trailers?4?$AN@ 00459d78     libcurl:transfer.obj
 0002:00002d9c       ??_C@_0BO@MMBEFIGJ@operation?5aborted?5by?5callback?$AA@ 00459d9c     libcurl:transfer.obj
 0002:00002dbc       ??_C@_0DC@KLEIDKKI@Read?5callback?5asked?5for?5PAUSE?5wh@ 00459dbc     libcurl:transfer.obj
 0002:00002df0       ??_C@_0CD@HAMJCOCA@read?5function?5returned?5funny?5val@ 00459df0     libcurl:transfer.obj
 0002:00002e14       ??_C@_05DOCBBEPK@?$CFzx?$CFs?$AA@ 00459e14     libcurl:transfer.obj
 0002:00002e1c       ??_C@_0DB@OHDOBAMJ@Signaling?5end?5of?5chunked?5upload?5@ 00459e1c     libcurl:transfer.obj
 0002:00002e50       ??_C@_0DI@GAABNBIG@Signaling?5end?5of?5chunked?5upload?5@ 00459e50     libcurl:transfer.obj
 0002:00002e88       ??_C@_0BN@LINFGIKF@Cannot?5rewind?5mime?1post?5data?$AA@ 00459e88     libcurl:transfer.obj
 0002:00002ea8       ??_C@_0CA@DIJIHPOF@seek?5callback?5returned?5error?5?$CFd?$AA@ 00459ea8     libcurl:transfer.obj
 0002:00002ec8       ??_C@_0CA@FAMFIPII@the?5ioctl?5callback?5returned?5?$CFd?6?$AA@ 00459ec8     libcurl:transfer.obj
 0002:00002ee8       ??_C@_0CB@KPKNOGEG@ioctl?5callback?5returned?5error?5?$CFd@ 00459ee8     libcurl:transfer.obj
 0002:00002f0c       ??_C@_0CG@CHEKEDLE@necessary?5data?5rewind?5wasn?8t?5pos@ 00459f0c     libcurl:transfer.obj
 0002:00002f34       ??_C@_0CK@FAJPFEAA@The?5requested?5document?5is?5not?5ne@ 00459f34     libcurl:transfer.obj
 0002:00002f60       ??_C@_0CK@HMOOBMAB@The?5requested?5document?5is?5not?5ol@ 00459f60     libcurl:transfer.obj
 0002:00002f8c       ??_C@_0DI@LKBFDFDE@Excess?5found?3?5excess?5?$DN?5?$CFzd?5url?5?$DN@ 00459f8c     libcurl:transfer.obj
 0002:00002fc4       ??_C@_0CK@CJJBEGPJ@Failed?5reading?5the?5chunked?9encod@ 00459fc4     libcurl:transfer.obj
 0002:00002ff0       ??_C@_0BH@ONNJJKOC@?$CFs?5in?5chunked?9encoding?$AA@ 00459ff0     libcurl:transfer.obj
 0002:00003008       ??_C@_0CJ@LNLGBBHG@Leftovers?5after?5chunking?3?5?$CF?5I64d@ 0045a008     libcurl:transfer.obj
 0002:00003038       ??_C@_0FM@BBNOIMMG@Excess?5found?5in?5a?5read?3?5excess?5?$DN@ 0045a038     libcurl:transfer.obj
 0002:00003094       ??_C@_0DJ@GJLMKBJF@we?5are?5done?5reading?5and?5this?5is?5@ 0045a094     libcurl:transfer.obj
 0002:000030d0       ??_C@_0CA@FDBKFCML@Failed?5to?5alloc?5scratch?5buffer?$CB?$AA@ 0045a0d0     libcurl:transfer.obj
 0002:000030f0       ??_C@_0CF@KMDHNAMD@We?5are?5completely?5uploaded?5and?5f@ 0045a0f0     libcurl:transfer.obj
 0002:00003118       ??_C@_0BL@EMJDLKIE@select?1poll?5returned?5error?$AA@ 0045a118     libcurl:transfer.obj
 0002:00003134       ??_C@_0BP@GGMDICAN@Done?5waiting?5for?5100?9continue?6?$AA@ 0045a134     libcurl:transfer.obj
 0002:00003154       ??_C@_0DD@EDBBFLBK@transfer?5closed?5with?5?$CFI64d?5bytes@ 0045a154     libcurl:transfer.obj
 0002:00003188       ??_C@_0DF@NKPPDLKD@transfer?5closed?5with?5outstanding@ 0045a188     libcurl:transfer.obj
 0002:000031c0       ??_C@_0M@BHCFJOKI@No?5URL?5set?$CB?$AA@ 0045a1c0     libcurl:transfer.obj
 0002:000031cc       ??_C@_0BB@CAJCOHBO@User?9Agent?3?5?$CFs?$AN?6?$AA@ 0045a1cc     libcurl:transfer.obj
 0002:000031e0       ??_C@_0CB@MELNCDNE@Maximum?5?$CI?$CFld?$CJ?5redirects?5followed@ 0045a1e0     libcurl:transfer.obj
 0002:00003204       ??_C@_0CJ@KJEMPLIM@Issue?5another?5request?5to?5this?5UR@ 0045a204     libcurl:transfer.obj
 0002:00003230       ??_C@_0BJ@HBHELCBA@Switch?5from?5POST?5to?5GET?6?$AA@ 0045a230     libcurl:transfer.obj
 0002:0000324c       ??_C@_0O@HGEEJMOP@Switch?5to?5?$CFs?6?$AA@ 0045a24c     libcurl:transfer.obj
 0002:0000325c       ??_C@_0CK@CDCMFBLO@REFUSED_STREAM?0?5retrying?5a?5fresh@ 0045a25c     libcurl:transfer.obj
 0002:00003288       ??_C@_0DB@JBFLNIDB@Connection?5died?0?5tried?5?$CFd?5times?5@ 0045a288     libcurl:transfer.obj
 0002:000032bc       ??_C@_0DM@GDKKDADD@Connection?5died?0?5retrying?5a?5fres@ 0045a2bc     libcurl:transfer.obj
 0002:000032f8       ??_C@_08JGCGJPK@?9?9?3?9?9?3?9?9?$AA@ 0045a2f8     libcurl:progress.obj
 0002:00003304       ??_C@_0BH@DDKMEPEA@?$CF2I64d?3?$CF02I64d?3?$CF02I64d?$AA@ 0045a304     libcurl:progress.obj
 0002:0000331c       ??_C@_0BB@HBEGKPFM@?$CF3I64dd?5?$CF02I64dh?$AA@ 0045a31c     libcurl:progress.obj
 0002:00003330       ??_C@_07HBLPGDFD@?$CF7I64dd?$AA@ 0045a330     libcurl:progress.obj
 0002:00003338       ??_C@_06JPBNOAO@?$CF5I64d?$AA@ 0045a338     libcurl:progress.obj
 0002:00003340       ??_C@_07MHMPGFAB@?$CF4I64dk?$AA@ 0045a340     libcurl:progress.obj
 0002:00003348       ??_C@_0P@HINFNDLG@?$CF2I64d?4?$CF0I64dM?$AA@ 0045a348     libcurl:progress.obj
 0002:00003358       ??_C@_07EBBOGCF@?$CF4I64dM?$AA@ 0045a358     libcurl:progress.obj
 0002:00003360       ??_C@_0P@ICDKDLDM@?$CF2I64d?4?$CF0I64dG?$AA@ 0045a360     libcurl:progress.obj
 0002:00003370       ??_C@_07POPOAOKP@?$CF4I64dG?$AA@ 0045a370     libcurl:progress.obj
 0002:00003378       ??_C@_07JPBBEPDN@?$CF4I64dT?$AA@ 0045a378     libcurl:progress.obj
 0002:00003380       ??_C@_07PLHNIKDJ@?$CF4I64dP?$AA@ 0045a380     libcurl:progress.obj
 0002:00003388       ??_C@_0CP@JLABFKHL@?$CK?$CK?5Resuming?5transfer?5from?5byte?5p@ 0045a388     libcurl:progress.obj
 0002:000033b8       ??_C@_0KC@DNGKHLLM@?5?5?$CF?$CF?5Total?5?5?5?5?$CF?$CF?5Received?5?$CF?$CF?5Xfe@ 0045a3b8     libcurl:progress.obj
 0002:0000345c       ??_C@_0DF@JLDNJIPD@?$AN?$CF3I64d?5?$CFs?5?5?$CF3I64d?5?$CFs?5?5?$CF3I64d?5?$CFs@ 0045a45c     libcurl:progress.obj
 0002:00003494       ??_C@_0BB@GAJGHPCC@Callback?5aborted?$AA@ 0045a494     libcurl:progress.obj
 0002:000034a8       __real@408f400000000000    0045a4a8     libcurl:progress.obj
 0002:000034b0       ??_C@_0EN@COANIBDN@Operation?5too?5slow?4?5Less?5than?5?$CFl@ 0045a4b0     libcurl:speedcheck.obj
 0002:00003500       ??_C@_0BK@PNKMNPKO@allocate?5connect?5buffer?$CB?6?$AA@ 0045a500     libcurl:http_proxy.obj
 0002:0000351c       ??_C@_0BK@OHJCNBEA@CONNECT?5phase?5completed?$CB?6?$AA@ 0045a51c     libcurl:http_proxy.obj
 0002:00003538       ??_C@_09FJKLDKHO@?$CFs?$CFs?$CFs?3?$CFd?$AA@ 0045a538     libcurl:http_proxy.obj
 0002:00003544       ??_C@_0L@LAAIKCML@Host?3?5?$CFs?$AN?6?$AA@ 0045a544     libcurl:http_proxy.obj
 0002:00003550       ??_C@_0CG@JIEEDFAF@Establish?5HTTP?5proxy?5tunnel?5to?5?$CF@ 0045a550     libcurl:http_proxy.obj
 0002:00003578       ??_C@_07FNNMGOPK@CONNECT?$AA@ 0045a578     libcurl:http_proxy.obj
 0002:00003580       ??_C@_0BN@HGHMBOED@CONNECT?5?$CFs?5HTTP?1?$CFs?$AN?6?$CFs?$CFs?$CFs?$CFs?$AA@ 0045a580     libcurl:http_proxy.obj
 0002:000035a0       ??_C@_0CA@KCBNIFEI@Failed?5sending?5CONNECT?5to?5proxy?$AA@ 0045a5a0     libcurl:http_proxy.obj
 0002:000035c0       ??_C@_0CF@KOLJOBP@Proxy?5CONNECT?5aborted?5due?5to?5tim@ 0045a5c0     libcurl:http_proxy.obj
 0002:000035e8       ??_C@_0CB@DICNFOOE@Proxy?5CONNECT?5connection?5closed?6@ 0045a5e8     libcurl:http_proxy.obj
 0002:0000360c       ??_C@_0BG@JFLKGDIG@Proxy?5CONNECT?5aborted?$AA@ 0045a60c     libcurl:http_proxy.obj
 0002:00003624       ??_C@_0BE@LIFOKNAI@chunk?5reading?5DONE?6?$AA@ 0045a624     libcurl:http_proxy.obj
 0002:00003638       ??_C@_0BM@LDKBIKH@CONNECT?5response?5too?5large?$CB?$AA@ 0045a638     libcurl:http_proxy.obj
 0002:00003654       ??_C@_0CF@EGEEKEED@Ignore?5?$CFI64d?5bytes?5of?5response?9b@ 0045a654     libcurl:http_proxy.obj
 0002:0000367c       ??_C@_0BO@ECLLDHEE@Ignore?5chunked?5response?9body?6?$AA@ 0045a67c     libcurl:http_proxy.obj
 0002:0000369c       ??_C@_0DC@KNKBLKEG@Ignoring?5Content?9Length?5in?5CONNE@ 0045a69c     libcurl:http_proxy.obj
 0002:000036d0       ??_C@_0DF@HKNKCFIL@Ignoring?5Transfer?9Encoding?5in?5CO@ 0045a6d0     libcurl:http_proxy.obj
 0002:00003708       ??_C@_0BL@FDNFJOM@CONNECT?5responded?5chunked?6?$AA@ 0045a708     libcurl:http_proxy.obj
 0002:00003724       ??_C@_0N@HGFACOOI@HTTP?11?4?$CFd?5?$CFd?$AA@ 0045a724     libcurl:http_proxy.obj
 0002:00003734       ??_C@_0BJ@KOKGPDEF@Connect?5me?5again?5please?6?$AA@ 0045a734     libcurl:http_proxy.obj
 0002:00003750       ??_C@_0CP@GIFMMFLA@Received?5HTTP?5code?5?$CFd?5from?5proxy@ 0045a750     libcurl:http_proxy.obj
 0002:00003780       ??_C@_0CF@LHCLBLEC@Proxy?5replied?5?$CFd?5to?5CONNECT?5requ@ 0045a780     libcurl:http_proxy.obj
 0002:000037a8       ??_C@_01MCMALHOG@a?$AA@    0045a7a8     libcurl:socks.obj
 0002:000037ac       ??_C@_0CP@GODCGMBP@SOCKS4?$CFs?3?5connecting?5to?5HTTP?5pro@ 0045a7ac     libcurl:socks.obj
 0002:000037dc       ??_C@_0BP@BFLNLLPD@SOCKS4?5communication?5to?5?$CFs?3?$CFd?6?$AA@ 0045a7dc     libcurl:socks.obj
 0002:000037fc       ??_C@_0CD@BBPIICAB@SOCKS4?5non?9blocking?5resolve?5of?5?$CF@ 0045a7fc     libcurl:socks.obj
 0002:00003820       ??_C@_0BJ@HAGKBMCP@Hostname?5?8?$CFs?8?5was?5found?6?$AA@ 0045a820     libcurl:socks.obj
 0002:0000383c       ??_C@_0CO@JJCMGPBJ@SOCKS4?5connect?5to?5IPv4?5?$CFs?5?$CIlocal@ 0045a83c     libcurl:socks.obj
 0002:0000386c       ??_C@_0CG@NKAIHKN@SOCKS4?5connection?5to?5?$CFs?5not?5supp@ 0045a86c     libcurl:socks.obj
 0002:00003894       ??_C@_0CL@BDNFEDCD@Failed?5to?5resolve?5?$CC?$CFs?$CC?5for?5SOCKS@ 0045a894     libcurl:socks.obj
 0002:000038c0       ??_C@_0CL@MCOGLIGC@Too?5long?5SOCKS?5proxy?5user?5name?0?5@ 0045a8c0     libcurl:socks.obj
 0002:000038ec       ??_C@_0BL@JJKDFGHD@SOCKS4?3?5too?5long?5host?5name?$AA@ 0045a8ec     libcurl:socks.obj
 0002:00003908       ??_C@_0CH@MHLMDCGL@Failed?5to?5send?5SOCKS4?5connect?5re@ 0045a908     libcurl:socks.obj
 0002:00003930       ??_C@_0DB@OIJFDGGK@SOCKS4?3?5Failed?5receiving?5connect@ 0045a930     libcurl:socks.obj
 0002:00003964       ??_C@_0BL@EDONHKIC@connection?5to?5proxy?5closed?$AA@ 0045a964     libcurl:socks.obj
 0002:00003980       ??_C@_0DF@PDFOFKGI@SOCKS4?5reply?5has?5wrong?5version?0?5@ 0045a980     libcurl:socks.obj
 0002:000039b8       ??_C@_0BL@KEGECNIK@SOCKS4?$CFs?5request?5granted?4?6?$AA@ 0045a9b8     libcurl:socks.obj
 0002:000039d8       ??_C@_0FG@CLNHBPIC@Can?8t?5complete?5SOCKS4?5connection@ 0045a9d8     libcurl:socks.obj
 0002:00003a30       ??_C@_0II@IBODGEP@Can?8t?5complete?5SOCKS4?5connection@ 0045aa30     libcurl:socks.obj
 0002:00003ab8       ??_C@_0IM@JGJMKCMN@Can?8t?5complete?5SOCKS4?5connection@ 0045aab8     libcurl:socks.obj
 0002:00003b48       ??_C@_0ED@LEIEKNLE@Can?8t?5complete?5SOCKS4?5connection@ 0045ab48     libcurl:socks.obj
 0002:00003bb0       ??_C@_0CN@HPHFPLLC@SOCKS5?3?5connecting?5to?5HTTP?5proxy@ 0045abb0     libcurl:socks.obj
 0002:00003be0       ??_C@_0FC@NMNHLDOO@SOCKS5?3?5server?5resolving?5disable@ 0045abe0     libcurl:socks.obj
 0002:00003c34       ??_C@_0DP@BIGHPBCP@warning?3?5unsupported?5value?5passe@ 0045ac34     libcurl:socks.obj
 0002:00003c74       ??_C@_0CH@GMDFCCKK@Unable?5to?5send?5initial?5SOCKS5?5re@ 0045ac74     libcurl:socks.obj
 0002:00003c9c       ??_C@_0CL@JAKJLHBC@Unable?5to?5receive?5initial?5SOCKS5@ 0045ac9c     libcurl:socks.obj
 0002:00003cc8       ??_C@_0BL@PPAECMCI@Connection?5to?5proxy?5closed?$AA@ 0045acc8     libcurl:socks.obj
 0002:00003ce4       ??_C@_0DF@KPPCOMKD@Received?5invalid?5version?5in?5init@ 0045ace4     libcurl:socks.obj
 0002:00003d1c       ??_C@_0DL@FCEPENBN@SOCKS5?5GSSAPI?5per?9message?5authen@ 0045ad1c     libcurl:socks.obj
 0002:00003d58       ??_C@_0CJ@CHHGJDNO@No?5authentication?5method?5was?5acc@ 0045ad58     libcurl:socks.obj
 0002:00003d84       ??_C@_0DJ@GEDKBFPH@Undocumented?5SOCKS5?5mode?5attempt@ 0045ad84     libcurl:socks.obj
 0002:00003dc0       ??_C@_0CK@NCDGADEO@Excessive?5user?5name?5length?5for?5p@ 0045adc0     libcurl:socks.obj
 0002:00003dec       ??_C@_0CJ@LKBHCEIE@Excessive?5password?5length?5for?5pr@ 0045adec     libcurl:socks.obj
 0002:00003e18       ??_C@_0CP@CMDGNMCE@Failed?5to?5send?5SOCKS5?5sub?9negoti@ 0045ae18     libcurl:socks.obj
 0002:00003e48       ??_C@_0DD@BOLKPAMM@Unable?5to?5receive?5SOCKS5?5sub?9neg@ 0045ae48     libcurl:socks.obj
 0002:00003e7c       ??_C@_0DA@CLHHICIG@User?5was?5rejected?5by?5the?5SOCKS5?5@ 0045ae7c     libcurl:socks.obj
 0002:00003eac       ??_C@_0BN@BFPKMOIA@SOCKS5?3?5hostname?5?8?$CFs?8?5found?6?$AA@ 0045aeac     libcurl:socks.obj
 0002:00003ecc       ??_C@_0CL@NCFLJMOD@Failed?5to?5resolve?5?$CC?$CFs?$CC?5for?5SOCKS@ 0045aecc     libcurl:socks.obj
 0002:00003ef8       ??_C@_03HODKBCIO@?3?$CFd?$AA@ 0045aef8     libcurl:socks.obj
 0002:00003efc       ??_C@_0CO@HBDLPPLI@SOCKS5?5connect?5to?5IPv4?5?$CFs?5?$CIlocal@ 0045aefc     libcurl:socks.obj
 0002:00003f2c       ??_C@_0CO@OBFNNJOF@SOCKS5?5connect?5to?5IPv6?5?$CFs?5?$CIlocal@ 0045af2c     libcurl:socks.obj
 0002:00003f5c       ??_C@_0CG@DLFCBHFO@SOCKS5?5connection?5to?5?$CFs?5not?5supp@ 0045af5c     libcurl:socks.obj
 0002:00003f84       ??_C@_0CN@FPICFOPM@SOCKS5?5connect?5to?5?$CFs?3?$CFd?5?$CIremotel@ 0045af84     libcurl:socks.obj
 0002:00003fb4       ??_C@_0CH@BAFOLCDD@Failed?5to?5send?5SOCKS5?5connect?5re@ 0045afb4     libcurl:socks.obj
 0002:00003fdc       ??_C@_0CO@HHLOPEDO@Failed?5to?5receive?5SOCKS5?5connect@ 0045afdc     libcurl:socks.obj
 0002:0000400c       ??_C@_0DF@MICEHEFP@SOCKS5?5reply?5has?5wrong?5version?0?5@ 0045b00c     libcurl:socks.obj
 0002:00004044       ??_C@_0CN@LLAFNAAA@Can?8t?5complete?5SOCKS5?5connection@ 0045b044     libcurl:socks.obj
 0002:00004074       ??_C@_0CF@NJGGJEDC@SOCKS5?5reply?5has?5wrong?5address?5t@ 0045b074     libcurl:socks.obj
 0002:0000409c       ??_C@_0BJ@DJFGPDDE@SOCKS5?5request?5granted?4?6?$AA@ 0045b09c     libcurl:socks.obj
 0002:00004118       ??_C@_03PDPKDIOM@I32?$AA@  0045b118     libcurl:mprintf.obj
 0002:0000411c       ??_C@_03KDGLFNIB@I64?$AA@  0045b11c     libcurl:mprintf.obj
 0002:00004120       ??_C@_03JALODAI@?$CFld?$AA@ 0045b120     libcurl:mprintf.obj
 0002:00004124       ??_C@_04JAJMFKGM@?4?$CFld?$AA@ 0045b124     libcurl:mprintf.obj
 0002:00004130       __real@4024000000000000    0045b130     libcurl:mprintf.obj
 0002:00004170       _Curl_wkday                0045b170     libcurl:parsedate.obj
 0002:0000418c       _Curl_month                0045b18c     libcurl:parsedate.obj
 0002:00004544       ??_C@_03PDAGKDH@Mon?$AA@   0045b544     libcurl:parsedate.obj
 0002:00004548       ??_C@_03NAGEINEP@Tue?$AA@  0045b548     libcurl:parsedate.obj
 0002:0000454c       ??_C@_03MHOMLAJA@Wed?$AA@  0045b54c     libcurl:parsedate.obj
 0002:00004550       ??_C@_03IOFIKPDN@Thu?$AA@  0045b550     libcurl:parsedate.obj
 0002:00004554       ??_C@_03IDIOELNC@Fri?$AA@  0045b554     libcurl:parsedate.obj
 0002:00004558       ??_C@_03FEFJNEK@Sat?$AA@   0045b558     libcurl:parsedate.obj
 0002:0000455c       ??_C@_03KOEHGMDN@Sun?$AA@  0045b55c     libcurl:parsedate.obj
 0002:00004560       ??_C@_03JIHJHPIE@Jan?$AA@  0045b560     libcurl:parsedate.obj
 0002:00004564       ??_C@_03HJBDCHOM@Feb?$AA@  0045b564     libcurl:parsedate.obj
 0002:00004568       ??_C@_03ODNJBKGA@Mar?$AA@  0045b568     libcurl:parsedate.obj
 0002:0000456c       ??_C@_03LEOLGMJP@Apr?$AA@  0045b56c     libcurl:parsedate.obj
 0002:00004570       ??_C@_03CNMDKL@May?$AA@    0045b570     libcurl:parsedate.obj
 0002:00004574       ??_C@_03IDFGHECI@Jun?$AA@  0045b574     libcurl:parsedate.obj
 0002:00004578       ??_C@_03LBGABGKK@Jul?$AA@  0045b578     libcurl:parsedate.obj
 0002:0000457c       ??_C@_03IFJFEIGA@Aug?$AA@  0045b57c     libcurl:parsedate.obj
 0002:00004580       ??_C@_03GGCAPAJC@Sep?$AA@  0045b580     libcurl:parsedate.obj
 0002:00004584       ??_C@_03BMAOKBAD@Oct?$AA@  0045b584     libcurl:parsedate.obj
 0002:00004588       ??_C@_03JPJOFNIA@Nov?$AA@  0045b588     libcurl:parsedate.obj
 0002:0000458c       ??_C@_03MKABNOCG@Dec?$AA@  0045b58c     libcurl:parsedate.obj
 0002:00004590       ??_C@_06JLEDEDGH@Monday?$AA@ 0045b590     libcurl:parsedate.obj
 0002:00004598       ??_C@_07BAAGCFCM@Tuesday?$AA@ 0045b598     libcurl:parsedate.obj
 0002:000045a0       ??_C@_09DLIGFAKA@Wednesday?$AA@ 0045b5a0     libcurl:parsedate.obj
 0002:000045ac       ??_C@_08HACCIKIA@Thursday?$AA@ 0045b5ac     libcurl:parsedate.obj
 0002:000045b8       ??_C@_06JECMNKMI@Friday?$AA@ 0045b5b8     libcurl:parsedate.obj
 0002:000045c0       ??_C@_08INBOOONO@Saturday?$AA@ 0045b5c0     libcurl:parsedate.obj
 0002:000045cc       ??_C@_06OOPIFAJ@Sunday?$AA@ 0045b5cc     libcurl:parsedate.obj
 0002:000045d4       ??_C@_0DK@DJOHIPMC@?$CF31?$FLABCDEFGHIJKLMNOPQRSTUVWXYZab@ 0045b5d4     libcurl:parsedate.obj
 0002:00004610       ??_C@_0BB@DDKNHMEG@?$CF02d?3?$CF02d?3?$CF02d?$CFn?$AA@ 0045b610     libcurl:parsedate.obj
 0002:00004624       ??_C@_0M@GGPEELHK@?$CF02d?3?$CF02d?$CFn?$AA@ 0045b624     libcurl:parsedate.obj
 0002:00004630       ??_C@_0CB@GKOJBLCO@WARNING?3?5Using?5weak?5random?5seed?6@ 0045b630     libcurl:rand.obj
 0002:00004654       ??_C@_0BB@JCEFLFJE@0123456789abcdef?$AA@ 0045b654     libcurl:rand.obj
 0002:00004668       _Curl_handler_gopher       0045b668     libcurl:gopher.obj
 0002:000046b4       ??_C@_06IFFOBMCL@GOPHER?$AA@ 0045b6b4     libcurl:gopher.obj
 0002:000046bc       ??_C@_0BO@PBGBECFJ@Failed?5sending?5Gopher?5request?$AA@ 0045b6bc     libcurl:gopher.obj
 0002:000046dc       ??_C@_04MOKDAIJJ@IMAP?$AA@ 0045b6dc     libcurl:imap.obj
 0002:00004708       _Curl_handler_imap         0045b708     libcurl:imap.obj
 0002:00004754       ??_C@_04CJJOKOB@imap?$AA@  0045b754     libcurl:imap.obj
 0002:0000475c       ??_C@_02GIPFHKNO@OK?$AA@   0045b75c     libcurl:imap.obj
 0002:00004760       ??_C@_0L@LNNPCDBM@CAPABILITY?$AA@ 0045b760     libcurl:imap.obj
 0002:0000476c       ??_C@_04PCOPKCKE@LIST?$AA@ 0045b76c     libcurl:imap.obj
 0002:00004774       ??_C@_05CIPFEEPL@STORE?$AA@ 0045b774     libcurl:imap.obj
 0002:0000477c       ??_C@_05JDMAOHF@FETCH?$AA@ 0045b77c     libcurl:imap.obj
 0002:00004784       ??_C@_06LCPJPOPK@SELECT?$AA@ 0045b784     libcurl:imap.obj
 0002:0000478c       ??_C@_07JOOLACMD@EXAMINE?$AA@ 0045b78c     libcurl:imap.obj
 0002:00004794       ??_C@_06GBNAAIDA@SEARCH?$AA@ 0045b794     libcurl:imap.obj
 0002:0000479c       ??_C@_07JEPHAMII@EXPUNGE?$AA@ 0045b79c     libcurl:imap.obj
 0002:000047a4       ??_C@_04NFFONMDK@LSUB?$AA@ 0045b7a4     libcurl:imap.obj
 0002:000047ac       ??_C@_03MJDGODDN@UID?$AA@  0045b7ac     libcurl:imap.obj
 0002:000047b0       ??_C@_04NMBEDBAI@NOOP?$AA@ 0045b7b0     libcurl:imap.obj
 0002:000047b8       ??_C@_0CB@FHOJFP@Unexpected?5continuation?5response@ 0045b7b8     libcurl:imap.obj
 0002:000047dc       ??_C@_08EBJFDHCC@STARTTLS?$AA@ 0045b7dc     libcurl:imap.obj
 0002:000047e8       ??_C@_0M@HKLLGBJE@LOGIN?5?$CFs?5?$CFs?$AA@ 0045b7e8     libcurl:imap.obj
 0002:000047f4       ??_C@_0BD@HAAFOLAI@AUTHENTICATE?5?$CFs?5?$CFs?$AA@ 0045b7f4     libcurl:imap.obj
 0002:00004808       ??_C@_0BA@MBJBMJEE@AUTHENTICATE?5?$CFs?$AA@ 0045b808     libcurl:imap.obj
 0002:00004818       ??_C@_02DKCKIIND@?$CFs?$AA@ 0045b818     libcurl:imap.obj
 0002:0000481c       ??_C@_0CP@IMHCGJPM@No?5known?5authentication?5mechanis@ 0045b81c     libcurl:imap.obj
 0002:0000484c       ??_C@_0M@HEIBGALO@LIST?5?$CC?$CFs?$CC?5?$CK?$AA@ 0045b84c     libcurl:imap.obj
 0002:00004858       ??_C@_0CB@CNPLJHNG@Cannot?5SELECT?5without?5a?5mailbox?4@ 0045b858     libcurl:imap.obj
 0002:0000487c       ??_C@_09GMKLHBDP@SELECT?5?$CFs?$AA@ 0045b87c     libcurl:imap.obj
 0002:00004888       ??_C@_0BK@HINEGIBC@UID?5FETCH?5?$CFs?5BODY?$FL?$CFs?$FN?$DM?$CFs?$DO?$AA@ 0045b888     libcurl:imap.obj
 0002:000048a4       ??_C@_0BG@MFEJGEMK@UID?5FETCH?5?$CFs?5BODY?$FL?$CFs?$FN?$AA@ 0045b8a4     libcurl:imap.obj
 0002:000048bc       ??_C@_0BG@KDICJLOA@FETCH?5?$CFs?5BODY?$FL?$CFs?$FN?$DM?$CFs?$DO?$AA@ 0045b8bc     libcurl:imap.obj
 0002:000048d4       ??_C@_0BC@DBBDHOGD@FETCH?5?$CFs?5BODY?$FL?$CFs?$FN?$AA@ 0045b8d4     libcurl:imap.obj
 0002:000048e8       ??_C@_0BM@MDAKNOLA@Cannot?5FETCH?5without?5a?5UID?4?$AA@ 0045b8e8     libcurl:imap.obj
 0002:00004904       ??_C@_0CB@OJIMGEKK@Cannot?5APPEND?5without?5a?5mailbox?4@ 0045b904     libcurl:imap.obj
 0002:00004928       ??_C@_0N@CMGFLCKF@Mime?9Version?$AA@ 0045b928     libcurl:imap.obj
 0002:00004938       ??_C@_0BC@LJLDDNIA@Mime?9Version?3?51?40?$AA@ 0045b938     libcurl:imap.obj
 0002:0000494c       ??_C@_0CL@KHDECIDD@Cannot?5APPEND?5with?5unknown?5input@ 0045b94c     libcurl:imap.obj
 0002:00004978       ??_C@_0BK@BLHEIJNH@APPEND?5?$CFs?5?$CI?2Seen?$CJ?5?$HL?$CFI64d?$HN?$AA@ 0045b978     libcurl:imap.obj
 0002:00004994       ??_C@_0CG@GFOCBLJM@Cannot?5SEARCH?5without?5a?5query?5st@ 0045b994     libcurl:imap.obj
 0002:000049bc       ??_C@_09PAMHLMCN@SEARCH?5?$CFs?$AA@ 0045b9bc     libcurl:imap.obj
 0002:000049c8       ??_C@_06ICDCDPAM@LOGOUT?$AA@ 0045b9c8     libcurl:imap.obj
 0002:000049d0       ??_C@_0CM@LEKNMHGJ@PREAUTH?5connection?0?5already?5auth@ 0045b9d0     libcurl:imap.obj
 0002:000049fc       ??_C@_0CE@FKNEKFDD@Got?5unexpected?5imap?9server?5respo@ 0045b9fc     libcurl:imap.obj
 0002:00004a20       ??_C@_0O@MEFIGCNE@LOGINDISABLED?$AA@ 0045ba20     libcurl:imap.obj
 0002:00004a30       ??_C@_05CKMEMLBN@AUTH?$DN?$AA@ 0045ba30     libcurl:imap.obj
 0002:00004a38       ??_C@_0BI@BIKPOJKH@STARTTLS?5not?5supported?4?$AA@ 0045ba38     libcurl:imap.obj
 0002:00004a50       ??_C@_0BA@IKAEMKBM@STARTTLS?5denied?$AA@ 0045ba50     libcurl:imap.obj
 0002:00004a60       ??_C@_0BJ@KPCPDCOC@Authentication?5cancelled?$AA@ 0045ba60     libcurl:imap.obj
 0002:00004a7c       ??_C@_0BC@GNMNACJK@Access?5denied?4?5?$CFc?$AA@ 0045ba7c     libcurl:imap.obj
 0002:00004a90       ??_C@_0CB@HHPEICDC@OK?5?$FLUIDVALIDITY?5?$CF19?$FL0123456789?$FN?$FN@ 0045ba90     libcurl:imap.obj
 0002:00004ab4       ??_C@_0CA@GGNJMECP@Mailbox?5UIDVALIDITY?5has?5changed?$AA@ 0045bab4     libcurl:imap.obj
 0002:00004ad4       ??_C@_0O@IFFBAKPD@Select?5failed?$AA@ 0045bad4     libcurl:imap.obj
 0002:00004ae4       ??_C@_0BP@GLMKNCNJ@Found?5?$CFI64d?5bytes?5to?5download?6?$AA@ 0045bae4     libcurl:imap.obj
 0002:00004b04       ??_C@_0DG@HDINJNJA@Written?5?$CFzu?5bytes?0?5?$CFI64u?5bytes?5a@ 0045bb04     libcurl:imap.obj
 0002:00004b3c       ??_C@_0CA@GCPCMMJK@Failed?5to?5parse?5FETCH?5response?4?$AA@ 0045bb3c     libcurl:imap.obj
 0002:00004b5c       ??_C@_06KPMAOGPB@?$CFc?$CF03d?$AA@ 0045bb5c     libcurl:imap.obj
 0002:00004b64       ??_C@_05DNIIFBMG@?$CFs?5?$CFs?$AA@ 0045bb64     libcurl:imap.obj
 0002:00004b6c       ??_C@_07OHGMEIBP@?$CI?$CJ?$HL?5?$CF?$CK?$FN?$AA@ 0045bb6c     libcurl:imap.obj
 0002:00004b74       ??_C@_0M@BOIGKDFF@UIDVALIDITY?$AA@ 0045bb74     libcurl:imap.obj
 0002:00004b80       ??_C@_09NEHACAIH@MAILINDEX?$AA@ 0045bb80     libcurl:imap.obj
 0002:00004b8c       ??_C@_07OADICAGF@SECTION?$AA@ 0045bb8c     libcurl:imap.obj
 0002:00004b94       ??_C@_07GKNKJNCD@PARTIAL?$AA@ 0045bb94     libcurl:imap.obj
 0002:00004b9c       ??_C@_04FKGOMEMC@POP3?$AA@ 0045bb9c     libcurl:pop3.obj
 0002:00004bc8       _Curl_handler_pop3         0045bbc8     libcurl:pop3.obj
 0002:00004c14       ??_C@_03NJDAHFJE@pop?$AA@  0045bc14     libcurl:pop3.obj
 0002:00004c18       ??_C@_04IAPIEFNH@CAPA?$AA@ 0045bc18     libcurl:pop3.obj
 0002:00004c20       ??_C@_04OKBHFPDP@STLS?$AA@ 0045bc20     libcurl:pop3.obj
 0002:00004c28       ??_C@_07BCMGCIGK@USER?5?$CFs?$AA@ 0045bc28     libcurl:pop3.obj
 0002:00004c30       ??_C@_04NOJCDH@?$CF02x?$AA@ 0045bc30     libcurl:pop3.obj
 0002:00004c38       ??_C@_0L@NCKPAHGC@APOP?5?$CFs?5?$CFs?$AA@ 0045bc38     libcurl:pop3.obj
 0002:00004c44       ??_C@_0L@LFENDKBE@AUTH?5?$CFs?5?$CFs?$AA@ 0045bc44     libcurl:pop3.obj
 0002:00004c50       ??_C@_07GLDNHMJM@AUTH?5?$CFs?$AA@ 0045bc50     libcurl:pop3.obj
 0002:00004c58       ??_C@_04DEPMIFPM@RETR?$AA@ 0045bc58     libcurl:pop3.obj
 0002:00004c60       ??_C@_04GBOBDPBG@QUIT?$AA@ 0045bc60     libcurl:pop3.obj
 0002:00004c68       ??_C@_0CE@PFHNFNOL@Got?5unexpected?5pop3?9server?5respo@ 0045bc68     libcurl:pop3.obj
 0002:00004c8c       ??_C@_0BE@NGBFBFLB@STLS?5not?5supported?4?$AA@ 0045bc8c     libcurl:pop3.obj
 0002:00004ca0       ??_C@_0BK@FLOCGBM@Authentication?5failed?3?5?$CFd?$AA@ 0045bca0     libcurl:pop3.obj
 0002:00004cbc       ??_C@_07ECIIGDNP@PASS?5?$CFs?$AA@ 0045bcbc     libcurl:pop3.obj
 0002:00004cc4       ??_C@_05EMLFECFL@?$CLAPOP?$AA@ 0045bcc4     libcurl:pop3.obj
 0002:00004ccc       ??_C@_05KMJPGPH@?$AN?6?4?$AN?6?$AA@ 0045bccc     libcurl:pop3.obj
 0002:00004cd4       ??_C@_04POBOOGCB@SMTP?$AA@ 0045bcd4     libcurl:smtp.obj
 0002:00004d00       _Curl_handler_smtp         0045bd00     libcurl:smtp.obj
 0002:00004d4c       ??_C@_04DCCEAEFJ@smtp?$AA@ 0045bd4c     libcurl:smtp.obj
 0002:00004d54       ??_C@_07LENLNDIO@EHLO?5?$CFs?$AA@ 0045bd54     libcurl:smtp.obj
 0002:00004d5c       ??_C@_07EOAJKHJP@HELO?5?$CFs?$AA@ 0045bd5c     libcurl:smtp.obj
 0002:00004d64       ??_C@_09KGGPGOEC@?5SMTPUTF8?$AA@ 0045bd64     libcurl:smtp.obj
 0002:00004d70       ??_C@_01EOFPKCAF@?$EA?$AA@ 0045bd70     libcurl:smtp.obj
 0002:00004d74       ??_C@_0O@LLBOEPLL@VRFY?5?$CFs?$CFs?$CFs?$CFs?$AA@ 0045bd74     libcurl:smtp.obj
 0002:00004d84       ??_C@_04KFDBLEKN@EXPN?$AA@ 0045bd84     libcurl:smtp.obj
 0002:00004d8c       ??_C@_07LLFIICBM@?$CFs?5?$CFs?$CFs?$AA@ 0045bd8c     libcurl:smtp.obj
 0002:00004d94       ??_C@_04DOKPJKJF@HELP?$AA@ 0045bd94     libcurl:smtp.obj
 0002:00004d9c       ??_C@_07IAOBMFMB@?$DM?$CFs?$EA?$CFs?$DO?$AA@ 0045bd9c     libcurl:smtp.obj
 0002:00004da4       ??_C@_04NNJCMPBN@?$DM?$CFs?$DO?$AA@ 0045bda4     libcurl:smtp.obj
 0002:00004dac       ??_C@_02GMAKCBGE@?$DM?$DO?$AA@ 0045bdac     libcurl:smtp.obj
 0002:00004db0       ??_C@_05LLAMLEHD@?$CFI64d?$AA@ 0045bdb0     libcurl:smtp.obj
 0002:00004db8       ??_C@_06MKNOLBCP@?5SIZE?$DN?$AA@ 0045bdb8     libcurl:smtp.obj
 0002:00004dc0       ??_C@_06MJNHIMFM@?5AUTH?$DN?$AA@ 0045bdc0     libcurl:smtp.obj
 0002:00004dc8       ??_C@_0BH@CCDJIIDH@MAIL?5FROM?3?$CFs?$CFs?$CFs?$CFs?$CFs?$CFs?$AA@ 0045bdc8     libcurl:smtp.obj
 0002:00004de0       ??_C@_0BA@HHMHFILL@RCPT?5TO?3?$DM?$CFs?$EA?$CFs?$DO?$AA@ 0045bde0     libcurl:smtp.obj
 0002:00004df0       ??_C@_0N@LGJBDMGK@RCPT?5TO?3?$DM?$CFs?$DO?$AA@ 0045bdf0     libcurl:smtp.obj
 0002:00004e00       ??_C@_0CI@FJFEAKAL@Got?5unexpected?5smtp?9server?5respo@ 0045be00     libcurl:smtp.obj
 0002:00004e28       ??_C@_0BJ@EDGODDHJ@STARTTLS?5denied?0?5code?5?$CFd?$AA@ 0045be28     libcurl:smtp.obj
 0002:00004e44       ??_C@_0BJ@DNMHCFHF@Remote?5access?5denied?3?5?$CFd?$AA@ 0045be44     libcurl:smtp.obj
 0002:00004e60       ??_C@_0CB@HKFOBCB@Unexpectedly?5short?5EHLO?5response@ 0045be60     libcurl:smtp.obj
 0002:00004e84       ??_C@_0BD@COCKJOPI@Command?5failed?3?5?$CFd?$AA@ 0045be84     libcurl:smtp.obj
 0002:00004e98       ??_C@_0BA@FIAGOBAE@MAIL?5failed?3?5?$CFd?$AA@ 0045be98     libcurl:smtp.obj
 0002:00004ea8       ??_C@_0BA@LOKNLPKK@RCPT?5failed?3?5?$CFd?$AA@ 0045bea8     libcurl:smtp.obj
 0002:00004eb8       ??_C@_0BN@DILLHMBG@RCPT?5failed?3?5?$CFd?5?$CIlast?5error?$CJ?$AA@ 0045beb8     libcurl:smtp.obj
 0002:00004ed8       ??_C@_04DFNBDBBL@DATA?$AA@ 0045bed8     libcurl:smtp.obj
 0002:00004ee0       ??_C@_0BA@BDBJMDJD@DATA?5failed?3?5?$CFd?$AA@ 0045bee0     libcurl:smtp.obj
 0002:00004ef0       ??_C@_04JHCEEOPB@?$AN?6?4?4?$AA@ 0045bef0     libcurl:smtp.obj
 0002:00004ef8       ??_C@_0BJ@NPJPFJML@?$CF04d?$CF02d?$CF02d?$CF02d?$CF02d?$CF02d?$AA@ 0045bef8     libcurl:ftp.obj
 0002:00004f14       ??_C@_0CA@CJAAICLH@?$CF04d?$CF02d?$CF02d?5?$CF02d?3?$CF02d?3?$CF02d?5GMT?$AA@ 0045bf14     libcurl:ftp.obj
 0002:00004f34       ??_C@_0DE@GKBAFMFA@Last?9Modified?3?5?$CFs?0?5?$CF02d?5?$CFs?5?$CF4d?5?$CF@ 0045bf34     libcurl:ftp.obj
 0002:00004f68       ??_C@_0BP@EOJCADGH@unsupported?5MDTM?5reply?5format?6?$AA@ 0045bf68     libcurl:ftp.obj
 0002:00004f88       ??_C@_0BK@JLENJKNN@Given?5file?5does?5not?5exist?$AA@ 0045bf88     libcurl:ftp.obj
 0002:00004fa4       ??_C@_0BK@LIEJIOFD@Skipping?5time?5comparison?6?$AA@ 0045bfa4     libcurl:ftp.obj
 0002:00004fc0       ??_C@_0BK@DEMDJAEI@Couldn?8t?5set?5desired?5mode?$AA@ 0045bfc0     libcurl:ftp.obj
 0002:00004fdc       ??_C@_0DF@NIKHFCK@Got?5a?5?$CF03d?5response?5code?5instead@ 0045bfdc     libcurl:ftp.obj
 0002:00005014       ??_C@_0CB@IDOEMMGJ@ftp?5server?5doesn?8t?5support?5SIZE?6@ 0045c014     libcurl:ftp.obj
 0002:00005038       ??_C@_0CM@HFMKHHME@Offset?5?$CI?$CFI64d?$CJ?5was?5beyond?5file?5s@ 0045c038     libcurl:ftp.obj
 0002:00005064       ??_C@_0CE@DDNCLNDJ@File?5already?5completely?5download@ 0045c064     libcurl:ftp.obj
 0002:00005088       ??_C@_0CO@NFEHDDGP@Instructs?5server?5to?5resume?5from?5@ 0045c088     libcurl:ftp.obj
 0002:000050b8       ??_C@_0L@GMAGLFCO@REST?5?$CFI64d?$AA@ 0045c0b8     libcurl:ftp.obj
 0002:000050c4       ??_C@_0BI@DFLKJFAC@The?5file?5does?5not?5exist?$AA@ 0045c0c4     libcurl:ftp.obj
 0002:000050dc       ??_C@_0BH@OONDMNFK@Accept?9ranges?3?5bytes?$AN?6?$AA@ 0045c0dc     libcurl:ftp.obj
 0002:000050f4       ??_C@_0BC@MLOKPHOJ@Couldn?8t?5use?5REST?$AA@ 0045c0f4     libcurl:ftp.obj
 0002:00005108       ??_C@_0BH@NAGIDHLA@Failed?5FTP?5upload?3?5?$CF0d?$AA@ 0045c108     libcurl:ftp.obj
 0002:00005120       ??_C@_0CJ@KNNCCANJ@Data?5conn?5was?5not?5available?5imme@ 0045c120     libcurl:ftp.obj
 0002:0000514c       ??_C@_06LCIDCBMH@?5bytes?$AA@ 0045c14c     libcurl:ftp.obj
 0002:00005154       ??_C@_0BF@OJNOJFMB@Maxdownload?5?$DN?5?$CFI64d?6?$AA@ 0045c154     libcurl:ftp.obj
 0002:0000516c       ??_C@_0BP@JBOHHHEF@Getting?5file?5with?5size?3?5?$CFI64d?6?$AA@ 0045c16c     libcurl:ftp.obj
 0002:0000518c       ??_C@_0BE@IHDENKLC@RETR?5response?3?5?$CF03d?$AA@ 0045c18c     libcurl:ftp.obj
 0002:000051a0       ??_C@_07HLPDJPKF@PBSZ?5?$CFd?$AA@ 0045c1a0     libcurl:ftp.obj
 0002:000051a8       ??_C@_03LBMKPMDK@FTP?$AA@  0045c1a8     libcurl:ftp.obj
 0002:000051ac       ??_C@_07NEPAJNMI@ACCT?5?$CFs?$AA@ 0045c1ac     libcurl:ftp.obj
 0002:000051b4       ??_C@_0CC@FIJBPOPC@ACCT?5requested?5but?5none?5availabl@ 0045c1b4     libcurl:ftp.obj
 0002:000051d8       ??_C@_0BE@IDFIDIK@Access?5denied?3?5?$CF03d?$AA@ 0045c1d8     libcurl:ftp.obj
 0002:000051ec       ??_C@_0BO@KPCJJKDD@ACCT?5rejected?5by?5server?3?5?$CF03d?$AA@ 0045c1ec     libcurl:ftp.obj
 0002:00005218       _Curl_handler_ftp          0045c218     libcurl:ftp.obj
 0002:0000527c       ??_C@_0CB@MGPFOKOC@Error?5accept?$CI?$CJing?5server?5connect@ 0045c27c     libcurl:ftp.obj
 0002:000052a0       ??_C@_0CB@CHFILBBG@Connection?5accepted?5from?5server?6@ 0045c2a0     libcurl:ftp.obj
 0002:000052c4       ??_C@_0BN@OADDFOLF@Checking?5for?5server?5connect?6?$AA@ 0045c2c4     libcurl:ftp.obj
 0002:000052e4       ??_C@_0DF@ECKOGFBG@Accept?5timeout?5occurred?5while?5wa@ 0045c2e4     libcurl:ftp.obj
 0002:0000531c       ??_C@_0DI@EHJDBFKM@There?5is?5negative?5response?5in?5ca@ 0045c31c     libcurl:ftp.obj
 0002:00005354       ??_C@_0DF@BCDKPLJO@Got?5a?5?$CF03d?5ftp?9server?5response?5w@ 0045c354     libcurl:ftp.obj
 0002:0000538c       ??_C@_0CH@IPEAPKCM@Error?5while?5waiting?5for?5server?5c@ 0045c38c     libcurl:ftp.obj
 0002:000053b4       ??_C@_0CN@DICMJIKG@Ready?5to?5accept?5data?5connection?5@ 0045c3b4     libcurl:ftp.obj
 0002:000053e4       ??_C@_0DA@LIJFNFEC@unsupported?5parameter?5to?5CURLOPT@ 0045c3e4     libcurl:ftp.obj
 0002:00005414       ??_C@_0DA@FIFPKHDL@Ctrl?5conn?5has?5data?5while?5waiting@ 0045c414     libcurl:ftp.obj
 0002:00005444       ??_C@_0DA@NKJCHCEC@Doing?5the?5SSL?1TLS?5handshake?5on?5t@ 0045c444     libcurl:ftp.obj
 0002:00005474       ??_C@_07JIEIOJCN@PROT?5?$CFc?$AA@ 0045c474     libcurl:ftp.obj
 0002:0000547c       ??_C@_0CN@HIFIJJNN@Preparing?5for?5accepting?5server?5o@ 0045c47c     libcurl:ftp.obj
 0002:000054ac       ??_C@_03POJCPIGP@CCC?$AA@  0045c4ac     libcurl:ftp.obj
 0002:000054b0       ??_C@_0CK@DIEJGCGD@Failed?5to?5clear?5the?5command?5chan@ 0045c4b0     libcurl:ftp.obj
 0002:000054dc       ??_C@_04EAEGPFGI@SYST?$AA@ 0045c4dc     libcurl:ftp.obj
 0002:000054e4       ??_C@_0BE@OCHIMCLN@Entry?5path?5is?5?8?$CFs?8?6?$AA@ 0045c4e4     libcurl:ftp.obj
 0002:000054f8       ??_C@_0BL@LGIJMHED@Failed?5to?5figure?5out?5path?6?$AA@ 0045c4f8     libcurl:ftp.obj
 0002:00005514       ??_C@_06JNDPFLAI@OS?1400?$AA@ 0045c514     libcurl:ftp.obj
 0002:0000551c       ??_C@_0P@JBGEGJKJ@SITE?5NAMEFMT?51?$AA@ 0045c51c     libcurl:ftp.obj
 0002:0000552c       ??_C@_0BO@OHEGJEDF@QUOT?5command?5failed?5with?5?$CF03d?$AA@ 0045c52c     libcurl:ftp.obj
 0002:0000554c       ??_C@_06BFAFDBBO@MKD?5?$CFs?$AA@ 0045c54c     libcurl:ftp.obj
 0002:00005554       ??_C@_0DD@PPJPGINE@Server?5denied?5you?5to?5change?5to?5t@ 0045c554     libcurl:ftp.obj
 0002:00005588       ??_C@_0BI@BHKLDLGC@Failed?5to?5MKD?5dir?3?5?$CF03d?$AA@ 0045c588     libcurl:ftp.obj
 0002:000055a0       ??_C@_0CA@MIHDFENK@PRET?5command?5not?5accepted?3?5?$CF03d?$AA@ 0045c5a0     libcurl:ftp.obj
 0002:000055c0       ??_C@_03OIFAJNHF@PWD?$AA@  0045c5c0     libcurl:ftp.obj
 0002:000055c4       ??_C@_0CA@BPKLCDMI@Remembering?5we?5are?5in?5dir?5?$CC?$CFs?$CC?6?$AA@ 0045c5c4     libcurl:ftp.obj
 0002:000055e4       ??_C@_04JOBIBMIG@ABOR?$AA@ 0045c5e4     libcurl:ftp.obj
 0002:000055ec       ??_C@_0CB@ELHFDEFP@Failure?5sending?5ABOR?5command?3?5?$CFs@ 0045c5ec     libcurl:ftp.obj
 0002:00005610       ??_C@_0BO@IBJECBBL@control?5connection?5looks?5dead?$AA@ 0045c610     libcurl:ftp.obj
 0002:00005630       ??_C@_06DBCOIIKD@CWD?5?$CFs?$AA@ 0045c630     libcurl:ftp.obj
 0002:00005638       ??_C@_0DA@LKDFHHHG@partial?5download?5completed?0?5clos@ 0045c638     libcurl:ftp.obj
 0002:00005668       ??_C@_0BM@KBMOAOIH@Exceeded?5storage?5allocation?$AA@ 0045c668     libcurl:ftp.obj
 0002:00005684       ??_C@_0CB@MBIEKFAL@server?5did?5not?5report?5OK?0?5got?5?$CFd@ 0045c684     libcurl:ftp.obj
 0002:000056a8       ??_C@_0DI@GGNLIACP@Uploaded?5unaligned?5file?5size?5?$CI?$CFI@ 0045c6a8     libcurl:ftp.obj
 0002:000056e0       ??_C@_0CI@BFHFHKBK@Received?5only?5partial?5file?3?5?$CFI64@ 0045c6e0     libcurl:ftp.obj
 0002:00005708       ??_C@_0BG@JNDKCNAF@No?5data?5was?5received?$CB?$AA@ 0045c708     libcurl:ftp.obj
 0002:00005720       ??_C@_0BN@KKEKOBII@QUOT?5string?5not?5accepted?3?5?$CFs?$AA@ 0045c720     libcurl:ftp.obj
 0002:00005740       ??_C@_07LBAFLNFB@TYPE?5?$CFc?$AA@ 0045c740     libcurl:ftp.obj
 0002:00005748       ??_C@_0BP@PDGEBKHD@Connecting?5to?5?$CFs?5?$CI?$CFs?$CJ?5port?5?$CFd?6?$AA@ 0045c748     libcurl:ftp.obj
 0002:00005768       ??_C@_0BJ@KBDKIMG@getsockname?$CI?$CJ?5failed?3?5?$CFs?$AA@ 0045c768     libcurl:ftp.obj
 0002:00005784       ??_C@_0DD@DMEJNKPI@failed?5to?5resolve?5the?5address?5pr@ 0045c784     libcurl:ftp.obj
 0002:000057b8       ??_C@_0BD@OKODOHGG@socket?5failure?3?5?$CFs?$AA@ 0045c7b8     libcurl:ftp.obj
 0002:000057cc       ??_C@_0DA@CIIHINBN@bind?$CIport?$DN?$CFhu?$CJ?5on?5non?9local?5addr@ 0045c7cc     libcurl:ftp.obj
 0002:000057fc       ??_C@_0BK@PGDLCBEF@bind?$CIport?$DN?$CFhu?$CJ?5failed?3?5?$CFs?$AA@ 0045c7fc     libcurl:ftp.obj
 0002:00005818       ??_C@_0CE@CGKJCPDM@bind?$CI?$CJ?5failed?0?5we?5ran?5out?5of?5por@ 0045c818     libcurl:ftp.obj
 0002:0000583c       ??_C@_0CF@BIADGCCG@ftp_perform?5ends?5with?5SECONDARY?3@ 0045c83c     libcurl:ftp.obj
 0002:00005864       ??_C@_0P@JIPLFCKK@?$CFs?5?$HM?$CFd?$HM?$CFs?$HM?$CFhu?$HM?$AA@ 0045c864     libcurl:ftp.obj
 0002:00005874       ??_C@_0CB@BJFEKOJI@Failure?5sending?5EPRT?5command?3?5?$CFs@ 0045c874     libcurl:ftp.obj
 0002:00005898       ??_C@_06IEKOAMEP@?0?$CFd?0?$CFd?$AA@ 0045c898     libcurl:ftp.obj
 0002:000058a0       ??_C@_0CB@JCGGICMN@Failure?5sending?5PORT?5command?3?5?$CFs@ 0045c8a0     libcurl:ftp.obj
 0002:000058c4       ??_C@_0BP@PMBCHHFK@Connect?5data?5stream?5passively?6?$AA@ 0045c8c4     libcurl:ftp.obj
 0002:000058e4       ??_C@_0BM@CBMMJPAN@Wildcard?5?9?5Parsing?5started?6?$AA@ 0045c8e4     libcurl:ftp.obj
 0002:00005900       ??_C@_04LPPBABPG@NLST?$AA@ 0045c900     libcurl:ftp.obj
 0002:00005908       ??_C@_07HDBBNIBK@PRET?5?$CFs?$AA@ 0045c908     libcurl:ftp.obj
 0002:00005910       ??_C@_0N@JGBIEHDA@PRET?5STOR?5?$CFs?$AA@ 0045c910     libcurl:ftp.obj
 0002:00005920       ??_C@_0N@PCAKCCIM@PRET?5RETR?5?$CFs?$AA@ 0045c920     libcurl:ftp.obj
 0002:00005930       ??_C@_07EDEBBIDH@REST?5?$CFd?$AA@ 0045c930     libcurl:ftp.obj
 0002:00005938       ??_C@_0BK@EBFHJJOJ@Wildcard?5?9?5START?5of?5?$CC?$CFs?$CC?6?$AA@ 0045c938     libcurl:ftp.obj
 0002:00005954       ??_C@_0CB@HPHNJDIO@Wildcard?5?9?5?$CC?$CFs?$CC?5skipped?5by?5user?6@ 0045c954     libcurl:ftp.obj
 0002:00005978       ??_C@_07DHEHBJLB@SIZE?5?$CFs?$AA@ 0045c978     libcurl:ftp.obj
 0002:00005980       ??_C@_0CB@JNMCPEIN@Failure?5sending?5QUIT?5command?3?5?$CFs@ 0045c980     libcurl:ftp.obj
 0002:000059a4       ??_C@_07DFNLHBNJ@MDTM?5?$CFs?$AA@ 0045c9a4     libcurl:ftp.obj
 0002:000059ac       ??_C@_0BE@KEOJEJGI@Failed?5to?5read?5data?$AA@ 0045c9ac     libcurl:ftp.obj
 0002:000059c0       ??_C@_0CC@MLJOLKKA@File?5already?5completely?5uploaded@ 0045c9c0     libcurl:ftp.obj
 0002:000059e4       ??_C@_07FKAENFJM@APPE?5?$CFs?$AA@ 0045c9e4     libcurl:ftp.obj
 0002:000059ec       ??_C@_07LAJFDMAF@STOR?5?$CFs?$AA@ 0045c9ec     libcurl:ftp.obj
 0002:000059f4       ??_C@_0CI@FGKDODBE@Uploading?5to?5a?5URL?5without?5a?5fil@ 0045c9f4     libcurl:ftp.obj
 0002:00005a1c       ??_C@_0CM@BBAADEII@Request?5has?5same?5path?5as?5previou@ 0045ca1c     libcurl:ftp.obj
 0002:00005a48       ??_C@_07NEIHFJLJ@RETR?5?$CFs?$AA@ 0045ca48     libcurl:ftp.obj
 0002:00005a50       ??_C@_0BN@DGOLGMBJ@Failed?5EPSV?5attempt?0?5exiting?$AA@ 0045ca50     libcurl:ftp.obj
 0002:00005a70       ??_C@_0CF@LLFCDFKE@Failed?5EPSV?5attempt?4?5Disabling?5E@ 0045ca70     libcurl:ftp.obj
 0002:00005a98       ??_C@_04KAHNJCEK@PASV?$AA@ 0045ca98     libcurl:ftp.obj
 0002:00005aa0       ??_C@_0L@PJBCJFDL@?$CFc?$CFc?$CFc?$CFu?$CFc?$AA@ 0045caa0     libcurl:ftp.obj
 0002:00005aac       ??_C@_0CC@DPAPDPDE@Illegal?5port?5number?5in?5EPSV?5repl@ 0045caac     libcurl:ftp.obj
 0002:00005ad0       ??_C@_0BN@NDEBJJDH@Weirdly?5formatted?5EPSV?5reply?$AA@ 0045cad0     libcurl:ftp.obj
 0002:00005af0       ??_C@_0BC@GDCBJEOP@?$CFu?0?$CFu?0?$CFu?0?$CFu?0?$CFu?0?$CFu?$AA@ 0045caf0     libcurl:ftp.obj
 0002:00005b04       ??_C@_0CE@JAKPPKFJ@Couldn?8t?5interpret?5the?5227?9respo@ 0045cb04     libcurl:ftp.obj
 0002:00005b28       ??_C@_0DJ@BDPONOCF@Skip?5?$CFu?4?$CFu?4?$CFu?4?$CFu?5for?5data?5connec@ 0045cb28     libcurl:ftp.obj
 0002:00005b64       ??_C@_0M@CDHNGIPM@?$CFu?4?$CFu?4?$CFu?4?$CFu?$AA@ 0045cb64     libcurl:ftp.obj
 0002:00005b70       ??_C@_0BN@NLMHLNCJ@Bad?5PASV?1EPSV?5response?3?5?$CF03d?$AA@ 0045cb70     libcurl:ftp.obj
 0002:00005b90       ??_C@_0CA@JCGDHCDD@Can?8t?5resolve?5proxy?5host?5?$CFs?3?$CFhu?$AA@ 0045cb90     libcurl:ftp.obj
 0002:00005bb0       ??_C@_0BO@IFBOOOND@Can?8t?5resolve?5new?5host?5?$CFs?3?$CFhu?$AA@ 0045cbb0     libcurl:ftp.obj
 0002:00005bd0       ??_C@_0BG@GHLIGHGL@disabling?5EPRT?5usage?6?$AA@ 0045cbd0     libcurl:ftp.obj
 0002:00005be8       ??_C@_0BC@GNDMALEK@Failed?5to?5do?5PORT?$AA@ 0045cbe8     libcurl:ftp.obj
 0002:00005bfc       ??_C@_0BO@NCOMJOLE@Connect?5data?5stream?5actively?6?$AA@ 0045cbfc     libcurl:ftp.obj
 0002:00005c1c       ??_C@_0BJ@DGDBOHFM@We?5got?5a?5421?5?9?5timeout?$CB?6?$AA@ 0045cc1c     libcurl:ftp.obj
 0002:00005c38       ??_C@_0BF@LJJJLKGP@FTP?5response?5timeout?$AA@ 0045cc38     libcurl:ftp.obj
 0002:00005c50       ??_C@_0DC@FEDHDEPK@FTP?5response?5aborted?5due?5to?5sele@ 0045cc50     libcurl:ftp.obj
 0002:00005c84       ??_C@_04PMPMHNFI@FILE?$AA@ 0045cc84     libcurl:file.obj
 0002:00005c90       _Curl_handler_file         0045cc90     libcurl:file.obj
 0002:00005cdc       ??_C@_0BG@EMIMEGKB@Couldn?8t?5open?5file?5?$CFs?$AA@ 0045ccdc     libcurl:file.obj
 0002:00005cf4       ??_C@_0BK@BBIJKCFE@Can?8t?5open?5?$CFs?5for?5writing?$AA@ 0045ccf4     libcurl:file.obj
 0002:00005d10       ??_C@_0BJ@PBDLFGHG@Can?8t?5get?5the?5size?5of?5?$CFs?$AA@ 0045cd10     libcurl:file.obj
 0002:00005d2c       ??_C@_0DG@OCPCIEKF@Last?9Modified?3?5?$CFs?0?5?$CF02d?5?$CFs?5?$CF4d?5?$CF@ 0045cd2c     libcurl:file.obj
 0002:00005d64       ??_C@_0BM@JKOBLIFI@Can?8t?5get?5the?5size?5of?5file?4?$AA@ 0045cd64     libcurl:file.obj
 0002:00005d80       ??_C@_0CC@BFDLBKLP@failed?5to?5resume?5file?3?1?1?5transfe@ 0045cd80     libcurl:file.obj
 0002:00005da8       _Curl_handler_dict         0045cda8     libcurl:dict.obj
 0002:00005df4       ??_C@_04NOLJEKBF@DICT?$AA@ 0045cdf4     libcurl:dict.obj
 0002:00005dfc       ??_C@_07EEEBABMF@?1MATCH?3?$AA@ 0045cdfc     libcurl:dict.obj
 0002:00005e04       ??_C@_03HLABFPGB@?1M?3?$AA@ 0045ce04     libcurl:dict.obj
 0002:00005e08       ??_C@_06POHFGONG@?1FIND?3?$AA@ 0045ce08     libcurl:dict.obj
 0002:00005e10       ??_C@_0BI@HCFEFF@lookup?5word?5is?5missing?6?$AA@ 0045ce10     libcurl:dict.obj
 0002:00005e28       ??_C@_07DLHCIBDH@default?$AA@ 0045ce28     libcurl:dict.obj
 0002:00005e30       ??_C@_01DCLJPIOD@?$CB?$AA@ 0045ce30     libcurl:dict.obj
 0002:00005e34       ??_C@_0CO@LOIPPG@CLIENT?5libcurl?57?476?41?$AN?6MATCH?5?$CFs?5@ 0045ce34     libcurl:dict.obj
 0002:00005e64       ??_C@_0BM@NMDEPLOC@Failed?5sending?5DICT?5request?$AA@ 0045ce64     libcurl:dict.obj
 0002:00005e80       ??_C@_08FLILFNPP@?1DEFINE?3?$AA@ 0045ce80     libcurl:dict.obj
 0002:00005e8c       ??_C@_03HENAGEOO@?1D?3?$AA@ 0045ce8c     libcurl:dict.obj
 0002:00005e90       ??_C@_08OMCEKKKJ@?1LOOKUP?3?$AA@ 0045ce90     libcurl:dict.obj
 0002:00005e9c       ??_C@_0CM@LFFEFHLL@CLIENT?5libcurl?57?476?41?$AN?6DEFINE?5?$CFs@ 0045ce9c     libcurl:dict.obj
 0002:00005ec8       ??_C@_0CC@MBNAKKIG@CLIENT?5libcurl?57?476?41?$AN?6?$CFs?$AN?6QUIT?$AN@ 0045cec8     libcurl:dict.obj
 0002:00005eec       ??_C@_0BH@HDMBNBNK@Width?3?5?$CFd?5?$DL?5Height?3?5?$CFd?$AA@ 0045ceec     libcurl:telnet.obj
 0002:00005f04       ??_C@_03JAFEDHAF@?5IS?$AA@ 0045cf04     libcurl:telnet.obj
 0002:00005f08       ??_C@_05HEPJGMLF@?5SEND?$AA@ 0045cf08     libcurl:telnet.obj
 0002:00005f10       ??_C@_0M@NNAMPCHG@?5INFO?1REPLY?$AA@ 0045cf10     libcurl:telnet.obj
 0002:00005f1c       ??_C@_05HILGCHMJ@?5NAME?$AA@ 0045cf1c     libcurl:telnet.obj
 0002:00005f24       ??_C@_05JEHJOICL@?5?$CC?$CFs?$CC?$AA@ 0045cf24     libcurl:telnet.obj
 0002:00005f2c       ??_C@_03MHLONNLM@?5?$DN?5?$AA@ 0045cf2c     libcurl:telnet.obj
 0002:00005f30       ??_C@_02HAOIJKIC@?$CFc?$AA@ 0045cf30     libcurl:telnet.obj
 0002:00005f34       ??_C@_05MAFEOBBD@?5?$CF?42x?$AA@ 0045cf34     libcurl:telnet.obj
 0002:00005f3c       ??_C@_07FIBAJHNC@USER?0?$CFs?$AA@ 0045cf3c     libcurl:telnet.obj
 0002:00005f44       ??_C@_0BF@FKHAOHNG@?$CF127?$FL?$FO?$DN?5?$FN?$CF?$CK?$FL?5?$DN?$FN?$CF255s?$AA@ 0045cf44     libcurl:telnet.obj
 0002:00005f5c       ??_C@_05EDAGKIGO@TTYPE?$AA@ 0045cf5c     libcurl:telnet.obj
 0002:00005f64       ??_C@_07CBBODINF@NEW_ENV?$AA@ 0045cf64     libcurl:telnet.obj
 0002:00005f6c       ??_C@_02PINLBAEP@WS?$AA@   0045cf6c     libcurl:telnet.obj
 0002:00005f70       ??_C@_0N@DFKPNNGO@?$CFhu?$CF?$CK?$FLxX?$FN?$CFhu?$AA@ 0045cf70     libcurl:telnet.obj
 0002:00005f80       ??_C@_0CC@NJCHGDLJ@Syntax?5error?5in?5telnet?5option?3?5?$CF@ 0045cf80     libcurl:telnet.obj
 0002:00005fa4       ??_C@_0BJ@EPEDNNHH@Unknown?5telnet?5option?5?$CFs?$AA@ 0045cfa4     libcurl:telnet.obj
 0002:00005fc0       ??_C@_0P@IJIBEBBB@?$CFc?$CFc?$CFc?$CFc?$CFs?$CFc?$CFc?$AA@ 0045cfc0     libcurl:telnet.obj
 0002:00005fd0       ??_C@_08MMPFKENM@?$CFc?$CFc?$CFc?$CFc?$AA@ 0045cfd0     libcurl:telnet.obj
 0002:00005fdc       ??_C@_0P@EIKOJKEK@?$CF127?$FL?$FO?0?$FN?0?$CF127s?$AA@ 0045cfdc     libcurl:telnet.obj
 0002:00005fec       ??_C@_08IFOBLEBG@?$CFc?$CFs?$CFc?$CFs?$AA@ 0045cfec     libcurl:telnet.obj
 0002:00005ff8       ??_C@_04GJDJEMBE@?$CFc?$CFc?$AA@ 0045cff8     libcurl:telnet.obj
 0002:00006000       _Curl_handler_telnet       0045d000     libcurl:telnet.obj
 0002:00006140       ??_C@_0BO@FGKIEAKL@In?5SUBOPTION?5processing?0?5RCVD?$AA@ 0045d140     libcurl:telnet.obj
 0002:00006160       ??_C@_06FJHKNKMG@BINARY?$AA@ 0045d160     libcurl:telnet.obj
 0002:00006168       ??_C@_04CJAHKHLK@ECHO?$AA@ 0045d168     libcurl:telnet.obj
 0002:00006170       ??_C@_03HHNIIJAH@RCP?$AA@  0045d170     libcurl:telnet.obj
 0002:00006174       ??_C@_0BC@PNOFGINB@SUPPRESS?5GO?5AHEAD?$AA@ 0045d174     libcurl:telnet.obj
 0002:00006188       ??_C@_04IPKHEEB@NAME?$AA@  0045d188     libcurl:telnet.obj
 0002:00006190       ??_C@_06DNKMJCIK@STATUS?$AA@ 0045d190     libcurl:telnet.obj
 0002:00006198       ??_C@_0M@EKEOBHGL@TIMING?5MARK?$AA@ 0045d198     libcurl:telnet.obj
 0002:000061a4       ??_C@_04BEBEFOLG@RCTE?$AA@ 0045d1a4     libcurl:telnet.obj
 0002:000061ac       ??_C@_04NKLMBLGG@NAOL?$AA@ 0045d1ac     libcurl:telnet.obj
 0002:000061b4       ??_C@_04DMMLEGDL@NAOP?$AA@ 0045d1b4     libcurl:telnet.obj
 0002:000061bc       ??_C@_06BKIMLPPI@NAOCRD?$AA@ 0045d1bc     libcurl:telnet.obj
 0002:000061c4       ??_C@_06MMIDMANN@NAOHTS?$AA@ 0045d1c4     libcurl:telnet.obj
 0002:000061cc       ??_C@_06MJAAEEEL@NAOHTD?$AA@ 0045d1cc     libcurl:telnet.obj
 0002:000061d4       ??_C@_06DGHNEEGG@NAOFFD?$AA@ 0045d1d4     libcurl:telnet.obj
 0002:000061dc       ??_C@_06HMEFOAHB@NAOVTS?$AA@ 0045d1dc     libcurl:telnet.obj
 0002:000061e4       ??_C@_06HJMGGEOH@NAOVTD?$AA@ 0045d1e4     libcurl:telnet.obj
 0002:000061ec       ??_C@_06FJMAKEAC@NAOLFD?$AA@ 0045d1ec     libcurl:telnet.obj
 0002:000061f4       ??_C@_0BL@IAGBODFB@WSACreateEvent?5failed?5?$CI?$CFd?$CJ?$AA@ 0045d1f4     libcurl:telnet.obj
 0002:00006210       ??_C@_0N@MCHGCBGJ@EXTEND?5ASCII?$AA@ 0045d210     libcurl:telnet.obj
 0002:00006220       ??_C@_0L@JJAOJAFM@BYTE?5MACRO?$AA@ 0045d220     libcurl:telnet.obj
 0002:0000622c       ??_C@_0M@BFPOMMHF@DE?5TERMINAL?$AA@ 0045d22c     libcurl:telnet.obj
 0002:00006238       ??_C@_06NAEEPLEB@SUPDUP?$AA@ 0045d238     libcurl:telnet.obj
 0002:00006240       ??_C@_0O@LDEGDMCH@SUPDUP?5OUTPUT?$AA@ 0045d240     libcurl:telnet.obj
 0002:00006250       ??_C@_0O@GCFNAHCA@SEND?5LOCATION?$AA@ 0045d250     libcurl:telnet.obj
 0002:00006260       ??_C@_09JHNIKOBE@TERM?5TYPE?$AA@ 0045d260     libcurl:telnet.obj
 0002:0000626c       ??_C@_0O@OOFFLMHN@END?5OF?5RECORD?$AA@ 0045d26c     libcurl:telnet.obj
 0002:0000627c       ??_C@_0L@GPKIIPN@TACACS?5UID?$AA@ 0045d27c     libcurl:telnet.obj
 0002:00006288       ??_C@_0P@MGPJDEPO@OUTPUT?5MARKING?$AA@ 0045d288     libcurl:telnet.obj
 0002:00006298       ??_C@_06GGEFDLMA@TTYLOC?$AA@ 0045d298     libcurl:telnet.obj
 0002:000062a0       ??_C@_0M@NIKPEBAA@3270?5REGIME?$AA@ 0045d2a0     libcurl:telnet.obj
 0002:000062ac       ??_C@_06BPMGLPAC@X3?5PAD?$AA@ 0045d2ac     libcurl:telnet.obj
 0002:000062b4       ??_C@_04FNDOHDA@NAWS?$AA@  0045d2b4     libcurl:telnet.obj
 0002:000062bc       ??_C@_0L@PJIKHDLG@TERM?5SPEED?$AA@ 0045d2bc     libcurl:telnet.obj
 0002:000062c8       ??_C@_05LOOKNPEJ@LFLOW?$AA@ 0045d2c8     libcurl:telnet.obj
 0002:000062d0       ??_C@_08MFKKBNLA@LINEMODE?$AA@ 0045d2d0     libcurl:telnet.obj
 0002:000062dc       ??_C@_08GPGBHAKO@XDISPLOC?$AA@ 0045d2dc     libcurl:telnet.obj
 0002:000062e8       ??_C@_0M@HACFCEDH@OLD?9ENVIRON?$AA@ 0045d2e8     libcurl:telnet.obj
 0002:000062f4       ??_C@_0P@LGIMEOHB@AUTHENTICATION?$AA@ 0045d2f4     libcurl:telnet.obj
 0002:00006304       ??_C@_0CB@LGFLAPBC@WSAEnumNetworkEvents?5failed?5?$CI?$CFd?$CJ@ 0045d304     libcurl:telnet.obj
 0002:00006328       ??_C@_07CAOFPAJK@ENCRYPT?$AA@ 0045d328     libcurl:telnet.obj
 0002:00006330       ??_C@_0M@FMFEGMDG@NEW?9ENVIRON?$AA@ 0045d330     libcurl:telnet.obj
 0002:0000633c       ??_C@_03KPJEKKJC@EOF?$AA@  0045d33c     libcurl:telnet.obj
 0002:00006340       ??_C@_04GOPMIPNE@SUSP?$AA@ 0045d340     libcurl:telnet.obj
 0002:00006348       ??_C@_05NKJCKGFJ@ABORT?$AA@ 0045d348     libcurl:telnet.obj
 0002:00006350       ??_C@_03IBDKHNMH@EOR?$AA@  0045d350     libcurl:telnet.obj
 0002:00006354       ??_C@_02ODEKANEE@SE?$AA@   0045d354     libcurl:telnet.obj
 0002:00006358       ??_C@_03GEANJIEE@NOP?$AA@  0045d358     libcurl:telnet.obj
 0002:0000635c       ??_C@_05CFIKNJJG@DMARK?$AA@ 0045d35c     libcurl:telnet.obj
 0002:00006364       ??_C@_03JDBDNMEF@BRK?$AA@  0045d364     libcurl:telnet.obj
 0002:00006368       ??_C@_02MFEOMNPG@IP?$AA@   0045d368     libcurl:telnet.obj
 0002:0000636c       ??_C@_08IMJOJNO@Time?9out?$AA@ 0045d36c     libcurl:telnet.obj
 0002:00006378       ??_C@_02GAHJCNA@AO?$AA@    0045d378     libcurl:telnet.obj
 0002:0000637c       ??_C@_03EAKJJCNE@AYT?$AA@  0045d37c     libcurl:telnet.obj
 0002:00006380       ??_C@_0BK@CECPJKBH@WSACloseEvent?5failed?5?$CI?$CFd?$CJ?$AA@ 0045d380     libcurl:telnet.obj
 0002:0000639c       ??_C@_02KNLLHFAA@EC?$AA@   0045d39c     libcurl:telnet.obj
 0002:000063a0       ??_C@_02CKCDGJMP@EL?$AA@   0045d3a0     libcurl:telnet.obj
 0002:000063a4       ??_C@_02JMAJMDOM@GA?$AA@   0045d3a4     libcurl:telnet.obj
 0002:000063a8       ??_C@_02KMALJLID@SB?$AA@   0045d3a8     libcurl:telnet.obj
 0002:000063ac       ??_C@_04HALOHICD@WILL?$AA@ 0045d3ac     libcurl:telnet.obj
 0002:000063b4       ??_C@_04NEEKGLMI@WONT?$AA@ 0045d3b4     libcurl:telnet.obj
 0002:000063bc       ??_C@_02MMFADL@DO?$AA@     0045d3bc     libcurl:telnet.obj
 0002:000063c0       ??_C@_04PDAKIGJK@DONT?$AA@ 0045d3c0     libcurl:telnet.obj
 0002:000063c8       ??_C@_03JCKLMMGF@IAC?$AA@  0045d3c8     libcurl:telnet.obj
 0002:000063cc       ??_C@_06KENCDLMH@TELNET?$AA@ 0045d3cc     libcurl:telnet.obj
 0002:000063d4       ??_C@_0L@FLCLEAPM@?$CFs?5IAC?5?$CFs?6?$AA@ 0045d3d4     libcurl:telnet.obj
 0002:000063e0       ??_C@_0L@ECECPFAJ@?$CFs?5IAC?5?$CFd?6?$AA@ 0045d3e0     libcurl:telnet.obj
 0002:000063ec       ??_C@_05OKMMCHFL@EXOPL?$AA@ 0045d3ec     libcurl:telnet.obj
 0002:000063f4       ??_C@_09GPBPOFIE@?$CFs?5?$CFs?5?$CFs?6?$AA@ 0045d3f4     libcurl:telnet.obj
 0002:00006400       ??_C@_09HGHGFAHB@?$CFs?5?$CFs?5?$CFd?6?$AA@ 0045d400     libcurl:telnet.obj
 0002:0000640c       ??_C@_09GIKFGCFC@?$CFs?5?$CFd?5?$CFd?6?$AA@ 0045d40c     libcurl:telnet.obj
 0002:00006418       ??_C@_0BJ@GCKINNGG@Sending?5data?5failed?5?$CI?$CFd?$CJ?$AA@ 0045d418     libcurl:telnet.obj
 0002:00006434       ??_C@_04EOHHCNGM@SENT?$AA@ 0045d434     libcurl:telnet.obj
 0002:0000643c       ??_C@_04OILLLJJ@RCVD?$AA@  0045d43c     libcurl:telnet.obj
 0002:00006444       ??_C@_0L@FPLNPMDD@?$CFs?5IAC?5SB?5?$AA@ 0045d444     libcurl:telnet.obj
 0002:00006450       ??_C@_0BA@MMHHHFDG@?$CIterminated?5by?5?$AA@ 0045d450     libcurl:telnet.obj
 0002:00006460       ??_C@_03IOOJPBPG@?$CFu?5?$AA@ 0045d460     libcurl:telnet.obj
 0002:00006464       ??_C@_0BA@IHPPDJFF@?0?5not?5IAC?5SE?$CB?$CJ?5?$AA@ 0045d464     libcurl:telnet.obj
 0002:00006474       ??_C@_0BD@CLPAOCOB@?$CIEmpty?5suboption?$DP?$CJ?$AA@ 0045d474     libcurl:telnet.obj
 0002:00006488       ??_C@_0BB@BBIGPKKK@?$CFs?5?$CIunsupported?$CJ?$AA@ 0045d488     libcurl:telnet.obj
 0002:0000649c       ??_C@_0N@IAAHJJEB@?$CFd?5?$CIunknown?$CJ?$AA@ 0045d49c     libcurl:telnet.obj
 0002:000064ac       ??_C@_0CL@NOIDGMJA@Received?5last?5DATA?5packet?5block?5@ 0045d4ac     libcurl:tftp.obj
 0002:000064d8       ??_C@_0DO@LHJHEMEL@Received?5unexpected?5DATA?5packet?5@ 0045d4d8     libcurl:tftp.obj
 0002:00006518       ??_C@_0DB@CJGPFEOC@Timeout?5waiting?5for?5block?5?$CFd?5ACK@ 0045d518     libcurl:tftp.obj
 0002:0000654c       ??_C@_0BI@BHFNNNHL@tftp_rx?3?5internal?5error?$AA@ 0045d54c     libcurl:tftp.obj
 0002:00006564       ??_C@_0CJ@LBPPEMJL@Received?5ACK?5for?5block?5?$CFd?0?5expec@ 0045d564     libcurl:tftp.obj
 0002:00006590       ??_C@_0CM@BNMFOENM@tftp_tx?3?5giving?5up?5waiting?5for?5b@ 0045d590     libcurl:tftp.obj
 0002:000065bc       ??_C@_0CD@DGDGOEOE@tftp_tx?3?5internal?5error?0?5event?3?5@ 0045d5bc     libcurl:tftp.obj
 0002:000065e0       ??_C@_0O@BONHPLEA@TFTP?5finished?$AA@ 0045d5e0     libcurl:tftp.obj
 0002:000065f0       ??_C@_0BN@LMNCOGNC@Internal?5state?5machine?5error?$AA@ 0045d5f0     libcurl:tftp.obj
 0002:00006610       _Curl_handler_tftp         0045d610     libcurl:tftp.obj
 0002:0000665c       ??_C@_0BC@JMLCPALC@bind?$CI?$CJ?5failed?$DL?5?$CFs?$AA@ 0045d65c     libcurl:tftp.obj
 0002:00006670       ??_C@_0BK@KEKALNLH@Received?5too?5short?5packet?$AA@ 0045d670     libcurl:tftp.obj
 0002:0000668c       ??_C@_0BA@OIPDKKBA@TFTP?5error?3?5?$CFs?6?$AA@ 0045d68c     libcurl:tftp.obj
 0002:0000669c       ??_C@_0CC@GGFBEDBJ@Internal?5error?3?5Unexpected?5packe@ 0045d69c     libcurl:tftp.obj
 0002:000066c0       ??_C@_0BG@GPKMDEIC@TFTP?5response?5timeout?$AA@ 0045d6c0     libcurl:tftp.obj
 0002:000066d8       ??_C@_06PHEPAMBA@?$DLmode?$DN?$AA@ 0045d6d8     libcurl:tftp.obj
 0002:000066e0       ??_C@_04JLDPLNDA@TFTP?$AA@ 0045d6e0     libcurl:tftp.obj
 0002:000066e8       ??_C@_0DN@DDJEILNF@set?5timeouts?5for?5state?5?$CFd?$DL?5Total@ 0045d6e8     libcurl:tftp.obj
 0002:00006728       ??_C@_0CA@PGCHPLAI@Malformed?5ACK?5packet?0?5rejecting?$AA@ 0045d728     libcurl:tftp.obj
 0002:00006748       ??_C@_0BM@GELOOIAH@got?5option?$DN?$CI?$CFs?$CJ?5value?$DN?$CI?$CFs?$CJ?6?$AA@ 0045d748     libcurl:tftp.obj
 0002:00006764       ??_C@_07JPIGAOKK@blksize?$AA@ 0045d764     libcurl:tftp.obj
 0002:0000676c       ??_C@_0CH@GOMNMHP@invalid?5blocksize?5value?5in?5OACK?5@ 0045d76c     libcurl:tftp.obj
 0002:00006794       ??_C@_0CF@EKACJECO@blksize?5is?5larger?5than?5max?5suppo@ 0045d794     libcurl:tftp.obj
 0002:000067bc       ??_C@_07JMKCEEPK@?$CFs?5?$CI?$CFd?$CJ?$AA@ 0045d7bc     libcurl:tftp.obj
 0002:000067c4       ??_C@_0CG@BNJFBJFK@blksize?5is?5smaller?5than?5min?5supp@ 0045d7c4     libcurl:tftp.obj
 0002:000067ec       ??_C@_0CP@HBGJMNNA@server?5requested?5blksize?5larger?5@ 0045d7ec     libcurl:tftp.obj
 0002:0000681c       ??_C@_08KEEEBANB@?$CFs?5?$CI?$CFld?$CJ?$AA@ 0045d81c     libcurl:tftp.obj
 0002:00006828       ??_C@_09GLAMPMBA@requested?$AA@ 0045d828     libcurl:tftp.obj
 0002:00006834       ??_C@_0BJ@PECOFDN@blksize?5parsed?5from?5OACK?$AA@ 0045d834     libcurl:tftp.obj
 0002:00006850       ??_C@_0BB@OFCPCICB@?$CFs?5?$CI?$CFd?$CJ?5?$CFs?5?$CI?$CFd?$CJ?6?$AA@ 0045d850     libcurl:tftp.obj
 0002:00006864       ??_C@_05GHDOEBHJ@tsize?$AA@ 0045d864     libcurl:tftp.obj
 0002:0000686c       ??_C@_0BH@BLDLMHGE@tsize?5parsed?5from?5OACK?$AA@ 0045d86c     libcurl:tftp.obj
 0002:00006884       ??_C@_09LJPEONI@?$CFs?5?$CI?$CFld?$CJ?6?$AA@ 0045d884     libcurl:tftp.obj
 0002:00006890       ??_C@_0CK@LPILMKIM@invalid?5tsize?5?9?3?$CFs?3?9?5value?5in?5OA@ 0045d890     libcurl:tftp.obj
 0002:000068bc       ??_C@_0BH@NFEFKEBL@Connected?5for?5transmit?$AA@ 0045d8bc     libcurl:tftp.obj
 0002:000068d4       ??_C@_0BG@KPOBMFLM@Connected?5for?5receive?$AA@ 0045d8d4     libcurl:tftp.obj
 0002:000068ec       ??_C@_05IIBPGMLM@octet?$AA@ 0045d8ec     libcurl:tftp.obj
 0002:000068f4       ??_C@_08KKALNFMM@netascii?$AA@ 0045d8f4     libcurl:tftp.obj
 0002:00006900       ??_C@_0BI@BPHCFCIJ@TFTP?5file?5name?5too?5long?$AA@ 0045d900     libcurl:tftp.obj
 0002:00006918       ??_C@_08OAFHMCGI@?$CFs?$CFc?$CFs?$CFc?$AA@ 0045d918     libcurl:tftp.obj
 0002:00006924       ??_C@_07DDHNKDGP@timeout?$AA@ 0045d924     libcurl:tftp.obj
 0002:0000692c       ??_C@_0CC@KFGMHGKB@TFTP?5buffer?5too?5small?5for?5option@ 0045d92c     libcurl:tftp.obj
 0002:00006950       ??_C@_0CA@EOCLEEDH@tftp_send_first?3?5internal?5error?$AA@ 0045d950     libcurl:tftp.obj
 0002:00006970       _Curl_handler_ldap         0045d970     libcurl:ldap.obj
 0002:000069c0       _Curl_handler_ldaps        0045d9c0     libcurl:ldap.obj
 0002:00006a0c       ??_C@_04HLELMIGD@LDAP?$AA@ 0045da0c     libcurl:ldap.obj
 0002:00006a14       ??_C@_05EFFGHFLN@LDAPS?$AA@ 0045da14     libcurl:ldap.obj
 0002:00006a1c       ??_C@_0BH@BDPOFBOA@Microsoft?5Corporation?4?$AA@ 0045da1c     libcurl:ldap.obj
 0002:00006a34       ??_C@_0DC@DDHGKLDE@LDAP?5local?3?5LDAP?5Vendor?5?$DN?5?$CFs?5?$DL?5L@ 0045da34     libcurl:ldap.obj
 0002:00006a68       ??_C@_0BA@HJNHPBP@LDAP?5local?3?5?$CFs?6?$AA@ 0045da68     libcurl:ldap.obj
 0002:00006a78       ??_C@_0P@BAGOOPBK@LDAP?5local?3?5?$CFs?$AA@ 0045da78     libcurl:ldap.obj
 0002:00006a88       ??_C@_09OEKGEILE@encrypted?$AA@ 0045da88     libcurl:ldap.obj
 0002:00006a94       ??_C@_09HOMJNLCK@cleartext?$AA@ 0045da94     libcurl:ldap.obj
 0002:00006aa0       ??_C@_0CP@FAIPPKFC@LDAP?5local?3?5trying?5to?5establish?5@ 0045daa0     libcurl:ldap.obj
 0002:00006ad0       ??_C@_0CF@JGNKKLCE@LDAP?5local?3?5Cannot?5connect?5to?5?$CFs@ 0045dad0     libcurl:ldap.obj
 0002:00006af8       ??_C@_0CG@CNFHGIPC@LDAP?5local?3?5bind?5via?5ldap_win_bi@ 0045daf8     libcurl:ldap.obj
 0002:00006b20       ??_C@_0BA@BDNMEOJM@LDAP?5remote?3?5?$CFs?$AA@ 0045db20     libcurl:ldap.obj
 0002:00006b30       ??_C@_04FDBNJNIB@DN?3?5?$AA@ 0045db30     libcurl:ldap.obj
 0002:00006b38       ??_C@_02LMMGGCAJ@?3?5?$AA@ 0045db38     libcurl:ldap.obj
 0002:00006b3c       ??_C@_07HNLIELCI@?$DLbinary?$AA@ 0045db3c     libcurl:ldap.obj
 0002:00006b44       ??_C@_0CA@LPADKPML@There?5are?5more?5than?5?$CFd?5entries?6?$AA@ 0045db44     libcurl:ldap.obj
 0002:00006b64       ??_C@_03OHDNLOHO@one?$AA@  0045db64     libcurl:ldap.obj
 0002:00006b68       ??_C@_07ILFEIDOB@onetree?$AA@ 0045db68     libcurl:ldap.obj
 0002:00006b70       ??_C@_04BHIIPFEC@base?$AA@ 0045db70     libcurl:ldap.obj
 0002:00006b78       ??_C@_03KCMAIMAP@sub?$AA@  0045db78     libcurl:ldap.obj
 0002:00006b7c       ??_C@_07NIJMFPAJ@subtree?$AA@ 0045db7c     libcurl:ldap.obj
 0002:00006b84       ??_C@_01IHBHIGKO@?0?$AA@   0045db84     libcurl:ldap.obj
 0002:00006b88       ??_C@_0BI@PJGIPNBN@Failed?5writing?5RTP?5data?$AA@ 0045db88     libcurl:rtsp.obj
 0002:00006ba0       ??_C@_04OLCAMBAB@RTSP?$AA@ 0045dba0     libcurl:rtsp.obj
 0002:00006ba8       ??_C@_0DM@GEFBOCAL@The?5CSeq?5of?5this?5request?5?$CFld?5did@ 0045dba8     libcurl:rtsp.obj
 0002:00006be4       ??_C@_0CH@PLNGLCEI@Got?5an?5RTP?5Receive?5with?5a?5CSeq?5o@ 0045dbe4     libcurl:rtsp.obj
 0002:00006c10       _Curl_handler_rtsp         0045dc10     libcurl:rtsp.obj
 0002:00006c5c       ??_C@_0BJ@IIOCCFNL@Got?5invalid?5RTSP?5request?$AA@ 0045dc5c     libcurl:rtsp.obj
 0002:00006c78       ??_C@_07KDKMIPIP@OPTIONS?$AA@ 0045dc78     libcurl:rtsp.obj
 0002:00006c80       ??_C@_08DKNLJHMJ@DESCRIBE?$AA@ 0045dc80     libcurl:rtsp.obj
 0002:00006c8c       ??_C@_08HCNIHNDL@ANNOUNCE?$AA@ 0045dc8c     libcurl:rtsp.obj
 0002:00006c98       ??_C@_05MAJHNKMG@SETUP?$AA@ 0045dc98     libcurl:rtsp.obj
 0002:00006ca0       ??_C@_04MKCNCBEG@PLAY?$AA@ 0045dca0     libcurl:rtsp.obj
 0002:00006ca8       ??_C@_05DIAHPDGL@PAUSE?$AA@ 0045dca8     libcurl:rtsp.obj
 0002:00006cb0       ??_C@_08JNACAMMP@TEARDOWN?$AA@ 0045dcb0     libcurl:rtsp.obj
 0002:00006cbc       ??_C@_0O@GCENIMNJ@GET_PARAMETER?$AA@ 0045dcbc     libcurl:rtsp.obj
 0002:00006ccc       ??_C@_0O@BNFDDPKO@SET_PARAMETER?$AA@ 0045dccc     libcurl:rtsp.obj
 0002:00006cdc       ??_C@_06KOEFFJON@RECORD?$AA@ 0045dcdc     libcurl:rtsp.obj
 0002:00006ce4       ??_C@_0CH@PJHKLBD@Got?5invalid?5RTSP?5request?3?5RTSPRE@ 0045dce4     libcurl:rtsp.obj
 0002:00006d0c       ??_C@_0DN@HHEKACHB@Refusing?5to?5issue?5an?5RTSP?5reques@ 0045dd0c     libcurl:rtsp.obj
 0002:00006d4c       ??_C@_09LOBALFEM@Transport?$AA@ 0045dd4c     libcurl:rtsp.obj
 0002:00006d58       ??_C@_0BA@LGEHOCAD@Transport?3?5?$CFs?$AN?6?$AA@ 0045dd58     libcurl:rtsp.obj
 0002:00006d68       ??_C@_0DN@KLGPNCLM@Refusing?5to?5issue?5an?5RTSP?5SETUP?5@ 0045dd68     libcurl:rtsp.obj
 0002:00006da8       ??_C@_0BK@PJBJHPJP@Accept?3?5application?1sdp?$AN?6?$AA@ 0045dda8     libcurl:rtsp.obj
 0002:00006dc4       ??_C@_0M@CDDEOJHP@Range?3?5?$CFs?$AN?6?$AA@ 0045ddc4     libcurl:rtsp.obj
 0002:00006dd0       ??_C@_04IHAOMLEL@CSeq?$AA@ 0045ddd0     libcurl:rtsp.obj
 0002:00006dd8       ??_C@_0CH@ONHNBNNP@CSeq?5cannot?5be?5set?5as?5a?5custom?5h@ 0045ddd8     libcurl:rtsp.obj
 0002:00006e00       ??_C@_07FFOFCADM@Session?$AA@ 0045de00     libcurl:rtsp.obj
 0002:00006e08       ??_C@_0CN@HJLGEJGN@Session?5ID?5cannot?5be?5set?5as?5a?5cu@ 0045de08     libcurl:rtsp.obj
 0002:00006e38       ??_C@_0BM@GGGCCKFL@?$CFs?5?$CFs?5RTSP?11?40?$AN?6CSeq?3?5?$CFld?$AN?6?$AA@ 0045de38     libcurl:rtsp.obj
 0002:00006e54       ??_C@_0O@LAIMJOHG@Session?3?5?$CFs?$AN?6?$AA@ 0045de54     libcurl:rtsp.obj
 0002:00006e64       ??_C@_0BB@JAHKEOEL@?$CFs?$CFs?$CFs?$CFs?$CFs?$CFs?$CFs?$CFs?$AA@ 0045de64     libcurl:rtsp.obj
 0002:00006e78       ??_C@_0CA@DANBHCCB@Content?9Type?3?5text?1parameters?$AN?6?$AA@ 0045de78     libcurl:rtsp.obj
 0002:00006e98       ??_C@_0CA@NAIPKPJL@Content?9Type?3?5application?1sdp?$AN?6?$AA@ 0045de98     libcurl:rtsp.obj
 0002:00006eb8       ??_C@_0BM@PNHMAKEG@Failed?5sending?5RTSP?5request?$AA@ 0045deb8     libcurl:rtsp.obj
 0002:00006ed4       ??_C@_0CD@OOIHJNBP@Got?5an?5error?5writing?5an?5RTP?5pack@ 0045ded4     libcurl:rtsp.obj
 0002:00006ef8       ??_C@_0CC@GKOAKHDG@Cannot?5write?5a?50?5size?5RTP?5packet@ 0045def8     libcurl:rtsp.obj
 0002:00006f1c       ??_C@_0BB@GCCOHJON@Cannot?5pause?5RTP?$AA@ 0045df1c     libcurl:rtsp.obj
 0002:00006f30       ??_C@_05MECAEIKK@CSeq?3?$AA@ 0045df30     libcurl:rtsp.obj
 0002:00006f38       ??_C@_05PNKNJGHI@?3?5?$CFld?$AA@ 0045df38     libcurl:rtsp.obj
 0002:00006f40       ??_C@_0CF@LBAGGOHD@Unable?5to?5read?5the?5CSeq?5header?3?5@ 0045df40     libcurl:rtsp.obj
 0002:00006f68       ??_C@_08KJDEHNO@Session?3?$AA@ 0045df68     libcurl:rtsp.obj
 0002:00006f74       ??_C@_0BH@GCDEOPPG@Got?5a?5blank?5Session?5ID?$AA@ 0045df74     libcurl:rtsp.obj
 0002:00006f8c       ??_C@_0DC@HDNNNEDB@Got?5RTSP?5Session?5ID?5Line?5?$FL?$CFs?$FN?0?5b@ 0045df8c     libcurl:rtsp.obj
 0002:00006fc0       ??_C@_03LNAOLDLL@SMB?$AA@  0045dfc0     libcurl:smb.obj
 0002:00006fc4       ??_C@_0P@CNIFBIKC@?$AA?$AM?$AA?$ACNT?5LM?50?412?$AA@ 0045dfc4     libcurl:smb.obj
 0002:00006fd4       ??_C@_0O@EMCJKFGJ@i386?9pc?9win32?$AA@ 0045dfd4     libcurl:smb.obj
 0002:00006fe4       ??_C@_04CFJDMNEE@curl?$AA@ 0045dfe4     libcurl:smb.obj
 0002:00006fec       ??_C@_02HDBGODGB@?2?2?$AA@ 0045dfec     libcurl:smb.obj
 0002:00006ff0       ??_C@_01KICIPPFI@?2?$AA@   0045dff0     libcurl:smb.obj
 0002:00006ff4       ??_C@_05EHMBKEBF@?$DP?$DP?$DP?$DP?$DP?$AA@ 0045dff4     libcurl:smb.obj
 0002:00006ffc       ??_C@_0BF@MGOADBKP@Invalid?5input?5packet?$AA@ 0045dffc     libcurl:smb.obj
 0002:00007018       _Curl_handler_smb          0045e018     libcurl:smb.obj
 0002:00007064       ??_C@_04FPGNOCOB@MQTT?$AA@ 0045e064     libcurl:mqtt.obj
 0002:0000706c       ??_C@_0BG@MNJJKFG@Using?5client?5id?5?8?$CFs?8?6?$AA@ 0045e06c     libcurl:mqtt.obj
 0002:00007084       ??_C@_02KJFMPGEN@?$OA?$AA?$AA@ 0045e084     libcurl:mqtt.obj
 0002:00007088       ??_C@_0CD@NLBEEENO@Expected?5?$CF02x?$CF02x?5but?5got?5?$CF02x?$CF0@ 0045e088     libcurl:mqtt.obj
 0002:000070ac       ??_C@_0BL@DNONOMHF@Error?3?5No?5topic?5specified?4?$AA@ 0045e0ac     libcurl:mqtt.obj
 0002:000070c8       ??_C@_0BA@OEKHBJOJ@Got?5DISCONNECT?6?$AA@ 0045e0c8     libcurl:mqtt.obj
 0002:000070d8       ??_C@_0BN@MGHEPCAC@Remaining?5length?3?5?$CFzd?5bytes?6?$AA@ 0045e0d8     libcurl:mqtt.obj
 0002:000070f8       ??_C@_0P@DEFHBOED@EEEE?5AAAAGAIN?6?$AA@ 0045e0f8     libcurl:mqtt.obj
 0002:00007108       ??_C@_0BF@GACMGODJ@server?5disconnected?6?$AA@ 0045e108     libcurl:mqtt.obj
 0002:00007120       ??_C@_0CD@OJHBBMOE@Error?5?$CFd?5sending?5MQTT?5CONN?5reque@ 0045e120     libcurl:mqtt.obj
 0002:00007148       _Curl_handler_mqtt         0045e148     libcurl:mqtt.obj
 0002:00007194       ??_C@_0BI@BABCFLCJ@mqtt_doing?3?5state?5?$FL?$CFd?$FN?6?$AA@ 0045e194     libcurl:mqtt.obj
 0002:000071ac       ??_C@_0BG@OAAPNLCI@State?5not?5handled?5yet?$AA@ 0045e1ac     libcurl:mqtt.obj
 0002:000071e8       ??_C@_02CBLDBPFN@?1?1?$AA@ 0045e1e8     libcurl:urlapi.obj
 0002:000071ec       ??_C@_06JBHEDIOK@?$CF?$CF?$CF02x?$AA@ 0045e1ec     libcurl:urlapi.obj
 0002:000071f4       ??_C@_0CE@LAJONJKD@?$FL?$CF?$CK45?$FL0123456789abcdefABCDEF?3?4?$FN?$CF@ 0045e1f4     libcurl:urlapi.obj
 0002:00007218       ??_C@_0L@JMDPGJCF@?$CF?$CK?$FL?$FO?$FN?$FN?$CFc?$CFn?$AA@ 0045e218     libcurl:urlapi.obj
 0002:00007224       ??_C@_0BJ@GCDIHJFL@0123456789abcdefABCDEF?3?4?$AA@ 0045e224     libcurl:urlapi.obj
 0002:00007240       ??_C@_02IFGANFKF@25?$AA@   0045e240     libcurl:urlapi.obj
 0002:00007244       ??_C@_0L@BMEILEPM@localhost?1?$AA@ 0045e244     libcurl:urlapi.obj
 0002:00007250       ??_C@_0L@PEIKEDOA@127?40?40?41?1?$AA@ 0045e250     libcurl:urlapi.obj
 0002:0000725c       ??_C@_04JEAENMLI@ftp?4?$AA@ 0045e25c     libcurl:urlapi.obj
 0002:00007264       ??_C@_05DIBGJHGB@dict?4?$AA@ 0045e264     libcurl:urlapi.obj
 0002:0000726c       ??_C@_04BCIDKIGN@dict?$AA@ 0045e26c     libcurl:urlapi.obj
 0002:00007274       ??_C@_05IBNFLBOK@ldap?4?$AA@ 0045e274     libcurl:urlapi.obj
 0002:0000727c       ??_C@_04LHHBCKBL@ldap?$AA@ 0045e27c     libcurl:urlapi.obj
 0002:00007284       ??_C@_05NMAIECCI@imap?4?$AA@ 0045e284     libcurl:urlapi.obj
 0002:0000728c       ??_C@_05BJICMEHI@smtp?4?$AA@ 0045e28c     libcurl:urlapi.obj
 0002:00007294       ??_C@_05BIGIEBHI@pop3?4?$AA@ 0045e294     libcurl:urlapi.obj
 0002:0000729c       ??_C@_04DNAACBI@pop3?$AA@  0045e29c     libcurl:urlapi.obj
 0002:000072a4       ??_C@_01IPJKGB@?$CD?$AA@   0045e2a4     libcurl:urlapi.obj
 0002:000072a8       ??_C@_0O@IHCFMOPH@file?3?1?1?$CFs?$CFs?$CFs?$AA@ 0045e2a8     libcurl:urlapi.obj
 0002:000072b8       ??_C@_07FIPDGBND@?$CF?$CF25?$CFs?$FN?$AA@ 0045e2b8     libcurl:urlapi.obj
 0002:000072c0       ??_C@_01OGPIMHDM@?$DP?$AA@ 0045e2c0     libcurl:urlapi.obj
 0002:000072c4       ??_C@_01ICJEACDI@?$DL?$AA@ 0045e2c4     libcurl:urlapi.obj
 0002:000072c8       ??_C@_0CE@OBDBGLCL@?$CFs?3?1?1?$CFs?$CFs?$CFs?$CFs?$CFs?$CFs?$CFs?$CFs?$CFs?$CFs?$CFs?$CFs?$CFs?$CF@ 0045e2c8     libcurl:urlapi.obj
 0002:00007370       ??_C@_03ILLHFMNI@?5?7?6?$AA@ 0045e370     libcurl:netrc.obj
 0002:00007374       ??_C@_07MHDNFCJE@machine?$AA@ 0045e374     libcurl:netrc.obj
 0002:0000737c       ??_C@_05DAOAAINN@login?$AA@ 0045e37c     libcurl:netrc.obj
 0002:00007384       ??_C@_08NLHBPEGP@password?$AA@ 0045e384     libcurl:netrc.obj
 0002:00007390       ??_C@_04GHGFPGNC@HOME?$AA@ 0045e390     libcurl:netrc.obj
 0002:00007398       ??_C@_0L@JFCCGFMF@?$CFs?$CFs?4netrc?$AA@ 0045e398     libcurl:netrc.obj
 0002:000073a4       ??_C@_0L@NPDNLOFK@?$CFs?$CFs_netrc?$AA@ 0045e3a4     libcurl:netrc.obj
 0002:000073b0       ??_C@_0BF@HLLGBJGK@NTLM?5auth?5restarted?6?$AA@ 0045e3b0     libcurl:http_ntlm.obj
 0002:000073c8       ??_C@_0BJ@HCCPNMOH@NTLM?5handshake?5rejected?6?$AA@ 0045e3c8     libcurl:http_ntlm.obj
 0002:000073e4       ??_C@_0CJ@MLNEPBAC@NTLM?5handshake?5failure?5?$CIinternal@ 0045e3e4     libcurl:http_ntlm.obj
 0002:00007410       ??_C@_0BL@EBFLOACM@?$CFsAuthorization?3?5NTLM?5?$CFs?$AN?6?$AA@ 0045e410     libcurl:http_ntlm.obj
 0002:0000742c       ??_C@_08INEPGKHH@No?5error?$AA@ 0045e42c     libcurl:strerror.obj
 0002:00007438       ??_C@_0BF@MEALNKLO@Unsupported?5protocol?$AA@ 0045e438     libcurl:strerror.obj
 0002:00007450       ??_C@_0BG@JPNCGCLF@Failed?5initialization?$AA@ 0045e450     libcurl:strerror.obj
 0002:00007468       ??_C@_0CM@JDMFNFNN@URL?5using?5bad?1illegal?5format?5or?5@ 0045e468     libcurl:strerror.obj
 0002:00007498       ??_C@_0GN@KLBPDHPC@A?5requested?5feature?0?5protocol?5or@ 0045e498     libcurl:strerror.obj
 0002:00007508       ??_C@_0BM@JKHJDDPC@Couldn?8t?5resolve?5proxy?5name?$AA@ 0045e508     libcurl:strerror.obj
 0002:00007524       ??_C@_0BL@CLPICHFB@Couldn?8t?5resolve?5host?5name?$AA@ 0045e524     libcurl:strerror.obj
 0002:00007540       ??_C@_0BL@BDHAOFN@Couldn?8t?5connect?5to?5server?$AA@ 0045e540     libcurl:strerror.obj
 0002:0000755c       ??_C@_0BD@GDNMKEAK@Weird?5server?5reply?$AA@ 0045e55c     libcurl:strerror.obj
 0002:00007570       ??_C@_0CB@NKJGLEPP@Access?5denied?5to?5remote?5resource@ 0045e570     libcurl:strerror.obj
 0002:00007594       ??_C@_0CP@GDKINGFF@FTP?3?5The?5server?5failed?5to?5connec@ 0045e594     libcurl:strerror.obj
 0002:000075c4       ??_C@_0CM@JHMKLKFK@FTP?3?5Accepting?5server?5connect?5ha@ 0045e5c4     libcurl:strerror.obj
 0002:000075f0       ??_C@_0DB@DKHIAOH@FTP?3?5The?5server?5did?5not?5accept?5t@ 0045e5f0     libcurl:strerror.obj
 0002:00007624       ??_C@_0BI@CNGAPMMH@FTP?3?5unknown?5PASS?5reply?$AA@ 0045e624     libcurl:strerror.obj
 0002:0000763c       ??_C@_0BI@GFIAPCKD@FTP?3?5unknown?5PASV?5reply?$AA@ 0045e63c     libcurl:strerror.obj
 0002:00007654       ??_C@_0CB@PEGAMKPE@FTP?3?5unknown?5227?5response?5format@ 0045e654     libcurl:strerror.obj
 0002:00007678       ??_C@_0DE@KGBALKDA@FTP?3?5can?8t?5figure?5out?5the?5host?5i@ 0045e678     libcurl:strerror.obj
 0002:000076ac       ??_C@_0CB@HOOHONND@Error?5in?5the?5HTTP2?5framing?5layer@ 0045e6ac     libcurl:strerror.obj
 0002:000076d0       ??_C@_0BM@OGPMHHJ@FTP?3?5couldn?8t?5set?5file?5type?$AA@ 0045e6d0     libcurl:strerror.obj
 0002:000076ec       ??_C@_0BL@ODNPPPLA@Transferred?5a?5partial?5file?$AA@ 0045e6ec     libcurl:strerror.obj
 0002:00007708       ??_C@_0DI@LLJCFNFF@FTP?3?5couldn?8t?5retrieve?5?$CIRETR?5fai@ 0045e708     libcurl:strerror.obj
 0002:00007740       ??_C@_0BN@GGHOIADB@Quote?5command?5returned?5error?$AA@ 0045e740     libcurl:strerror.obj
 0002:00007760       ??_C@_0BO@BCKEJEKM@HTTP?5response?5code?5said?5error?$AA@ 0045e760     libcurl:strerror.obj
 0002:00007780       ??_C@_0DB@IMNDCIAA@Failed?5writing?5received?5data?5to?5@ 0045e780     libcurl:strerror.obj
 0002:000077b4       ??_C@_0CM@GACCEIFL@Upload?5failed?5?$CIat?5start?1before?5i@ 0045e7b4     libcurl:strerror.obj
 0002:000077e0       ??_C@_0DF@NBDLHGLH@Failed?5to?5open?1read?5local?5data?5f@ 0045e7e0     libcurl:strerror.obj
 0002:00007818       ??_C@_0O@NALGGDJF@Out?5of?5memory?$AA@ 0045e818     libcurl:strerror.obj
 0002:00007828       ??_C@_0BE@EKAJAHAD@Timeout?5was?5reached?$AA@ 0045e828     libcurl:strerror.obj
 0002:0000783c       ??_C@_0BJ@IDOBBECI@FTP?3?5command?5PORT?5failed?$AA@ 0045e83c     libcurl:strerror.obj
 0002:00007858       ??_C@_0BJ@GCLHLJAN@FTP?3?5command?5REST?5failed?$AA@ 0045e858     libcurl:strerror.obj
 0002:00007874       ??_C@_0DA@JICMAFCG@Requested?5range?5was?5not?5delivere@ 0045e874     libcurl:strerror.obj
 0002:000078a4       ??_C@_0CF@HBEMJAO@Internal?5problem?5setting?5up?5the?5@ 0045e8a4     libcurl:strerror.obj
 0002:000078cc       ??_C@_0BC@BFLONMCD@SSL?5connect?5error?$AA@ 0045e8cc     libcurl:strerror.obj
 0002:000078e0       ??_C@_0BJ@PKKEKELC@Couldn?8t?5resume?5download?$AA@ 0045e8e0     libcurl:strerror.obj
 0002:000078fc       ??_C@_0BN@LDKECGHJ@Couldn?8t?5read?5a?5file?3?1?1?5file?$AA@ 0045e8fc     libcurl:strerror.obj
 0002:0000791c       ??_C@_0BC@LBJDCDKB@LDAP?3?5cannot?5bind?$AA@ 0045e91c     libcurl:strerror.obj
 0002:00007930       ??_C@_0BE@BFMFHGMM@LDAP?3?5search?5failed?$AA@ 0045e930     libcurl:strerror.obj
 0002:00007944       ??_C@_0DB@KKNDLNIK@A?5required?5function?5in?5the?5libra@ 0045e944     libcurl:strerror.obj
 0002:00007978       ??_C@_0DB@KJJLMJOB@Operation?5was?5aborted?5by?5an?5appl@ 0045e978     libcurl:strerror.obj
 0002:000079ac       ??_C@_0CM@GEPFAHDP@A?5libcurl?5function?5was?5given?5a?5b@ 0045e9ac     libcurl:strerror.obj
 0002:000079d8       ??_C@_0CE@NLIKOML@Failed?5binding?5local?5connection?5@ 0045e9d8     libcurl:strerror.obj
 0002:000079fc       ??_C@_0CH@DFMKCAJO@Number?5of?5redirects?5hit?5maximum?5@ 0045e9fc     libcurl:strerror.obj
 0002:00007a24       ??_C@_0CL@GBAGOIGJ@An?5unknown?5option?5was?5passed?5in?5@ 0045ea24     libcurl:strerror.obj
 0002:00007a50       ??_C@_0BI@GPIPAJAH@Malformed?5telnet?5option?$AA@ 0045ea50     libcurl:strerror.obj
 0002:00007a68       ??_C@_0CO@JJKEOCN@Server?5returned?5nothing?5?$CIno?5head@ 0045ea68     libcurl:strerror.obj
 0002:00007a98       ??_C@_0BM@GLLPPMBF@SSL?5crypto?5engine?5not?5found?$AA@ 0045ea98     libcurl:strerror.obj
 0002:00007ab4       ??_C@_0CJ@HENCHBOB@Can?5not?5set?5SSL?5crypto?5engine?5as@ 0045eab4     libcurl:strerror.obj
 0002:00007ae0       ??_C@_0CH@DINFHAAN@Failed?5to?5initialise?5SSL?5crypto?5@ 0045eae0     libcurl:strerror.obj
 0002:00007b08       ??_C@_0CA@CBOACNIE@Failed?5sending?5data?5to?5the?5peer?$AA@ 0045eb08     libcurl:strerror.obj
 0002:00007b28       ??_C@_0CK@JABNOBEN@Failure?5when?5receiving?5data?5from@ 0045eb28     libcurl:strerror.obj
 0002:00007b54       ??_C@_0CH@IGBGAMEJ@Problem?5with?5the?5local?5SSL?5certi@ 0045eb54     libcurl:strerror.obj
 0002:00007b7c       ??_C@_0CC@IOEMABMM@Couldn?8t?5use?5specified?5SSL?5ciphe@ 0045eb7c     libcurl:strerror.obj
 0002:00007ba0       ??_C@_0DC@MAPCLGNF@SSL?5peer?5certificate?5or?5SSH?5remo@ 0045eba0     libcurl:strerror.obj
 0002:00007bd4       ??_C@_0DE@DEFDNJHO@Problem?5with?5the?5SSL?5CA?5cert?5?$CIpa@ 0045ebd4     libcurl:strerror.obj
 0002:00007c08       ??_C@_0DG@BCBHMDOA@Unrecognized?5or?5bad?5HTTP?5Content@ 0045ec08     libcurl:strerror.obj
 0002:00007c40       ??_C@_0BB@NNNAEHGN@Invalid?5LDAP?5URL?$AA@ 0045ec40     libcurl:strerror.obj
 0002:00007c54       ??_C@_0BL@CJHAPGCI@Requested?5SSL?5level?5failed?$AA@ 0045ec54     libcurl:strerror.obj
 0002:00007c70       ??_C@_0CH@HOHNDJFI@Failed?5to?5shut?5down?5the?5SSL?5conn@ 0045ec70     libcurl:strerror.obj
 0002:00007c98       ??_C@_0DI@OEDDMGMA@Failed?5to?5load?5CRL?5file?5?$CIpath?$DP?5a@ 0045ec98     libcurl:strerror.obj
 0002:00007cd0       ??_C@_0CN@PNDCIOI@Issuer?5check?5against?5peer?5certif@ 0045ecd0     libcurl:strerror.obj
 0002:00007d00       ??_C@_0DG@HNNLFELE@Send?5failed?5since?5rewinding?5of?5t@ 0045ed00     libcurl:strerror.obj
 0002:00007d38       ??_C@_0N@LMNBNGOH@Login?5denied?$AA@ 0045ed38     libcurl:strerror.obj
 0002:00007d48       ??_C@_0BF@MMMLEDNM@TFTP?3?5File?5Not?5Found?$AA@ 0045ed48     libcurl:strerror.obj
 0002:00007d60       ??_C@_0BH@CPEHAKGC@TFTP?3?5Access?5Violation?$AA@ 0045ed60     libcurl:strerror.obj
 0002:00007d78       ??_C@_0CB@HICDEKOD@Disk?5full?5or?5allocation?5exceeded@ 0045ed78     libcurl:strerror.obj
 0002:00007d9c       ??_C@_0BI@FHLDKMPM@TFTP?3?5Illegal?5operation?$AA@ 0045ed9c     libcurl:strerror.obj
 0002:00007db4       ??_C@_0BK@FHGNFCEK@TFTP?3?5Unknown?5transfer?5ID?$AA@ 0045edb4     libcurl:strerror.obj
 0002:00007dd0       ??_C@_0BL@LCPLBBDI@Remote?5file?5already?5exists?$AA@ 0045edd0     libcurl:strerror.obj
 0002:00007dec       ??_C@_0BD@HHOJBMKC@TFTP?3?5No?5such?5user?$AA@ 0045edec     libcurl:strerror.obj
 0002:00007e00       ??_C@_0BC@CGNMGHHJ@Conversion?5failed?$AA@ 0045ee00     libcurl:strerror.obj
 0002:00007e14       ??_C@_0DE@HIBGAHH@Caller?5must?5register?5CURLOPT_CON@ 0045ee14     libcurl:strerror.obj
 0002:00007e48       ??_C@_0BG@IGAJKGEI@Remote?5file?5not?5found?$AA@ 0045ee48     libcurl:strerror.obj
 0002:00007e60       ??_C@_0BH@LIBGKEPA@Error?5in?5the?5SSH?5layer?$AA@ 0045ee60     libcurl:strerror.obj
 0002:00007e78       ??_C@_0BP@PKAGPAKC@Socket?5not?5ready?5for?5send?1recv?$AA@ 0045ee78     libcurl:strerror.obj
 0002:00007e98       ??_C@_0CD@KOGOJFPD@RTSP?5CSeq?5mismatch?5or?5invalid?5CS@ 0045ee98     libcurl:strerror.obj
 0002:00007ebc       ??_C@_0BD@JIDDONAN@RTSP?5session?5error?$AA@ 0045eebc     libcurl:strerror.obj
 0002:00007ed0       ??_C@_0BO@DHDGALJN@Unable?5to?5parse?5FTP?5file?5list?$AA@ 0045eed0     libcurl:strerror.obj
 0002:00007ef0       ??_C@_0BG@NNCCNDKN@Chunk?5callback?5failed?$AA@ 0045eef0     libcurl:strerror.obj
 0002:00007f08       ??_C@_0CE@LHGEKMEA@The?5max?5connection?5limit?5is?5reac@ 0045ef08     libcurl:strerror.obj
 0002:00007f2c       ??_C@_0DA@PMPKPBFL@SSL?5public?5key?5does?5not?5match?5pi@ 0045ef2c     libcurl:strerror.obj
 0002:00007f5c       ??_C@_0DC@PMBIKFPE@SSL?5server?5certificate?5status?5ve@ 0045ef5c     libcurl:strerror.obj
 0002:00007f90       ??_C@_0CJ@PHNFPMLB@Stream?5error?5in?5the?5HTTP?12?5frami@ 0045ef90     libcurl:strerror.obj
 0002:00007fbc       ??_C@_0CJ@IFPPFNBC@API?5function?5called?5from?5within?5@ 0045efbc     libcurl:strerror.obj
 0002:00007fe8       ??_C@_0CN@PKGNGNMF@An?5authentication?5function?5retur@ 0045efe8     libcurl:strerror.obj
 0002:00008018       ??_C@_0N@IECDEAGO@HTTP?13?5error?$AA@ 0045f018     libcurl:strerror.obj
 0002:00008028       ??_C@_0BG@PCGCKLBM@QUIC?5connection?5error?$AA@ 0045f028     libcurl:strerror.obj
 0002:00008040       ??_C@_0BG@DPKHLLKF@proxy?5handshake?5error?$AA@ 0045f040     libcurl:strerror.obj
 0002:00008058       ??_C@_0O@NIPGCINC@Unknown?5error?$AA@ 0045f058     libcurl:strerror.obj
 0002:00008068       ??_C@_0BB@HPBICEIN@Call?5interrupted?$AA@ 0045f068     libcurl:strerror.obj
 0002:0000807c       ??_C@_08IEJNJKPH@Bad?5file?$AA@ 0045f07c     libcurl:strerror.obj
 0002:00008088       ??_C@_0L@PPOOPPLI@Bad?5access?$AA@ 0045f088     libcurl:strerror.obj
 0002:00008094       ??_C@_0N@OFCOFIJG@Bad?5argument?$AA@ 0045f094     libcurl:strerror.obj
 0002:000080a4       ??_C@_0BC@PALKPJEA@Invalid?5arguments?$AA@ 0045f0a4     libcurl:strerror.obj
 0002:000080b8       ??_C@_0BI@OFCJJGOL@Out?5of?5file?5descriptors?$AA@ 0045f0b8     libcurl:strerror.obj
 0002:000080d0       ??_C@_0BB@KJIOCALL@Call?5would?5block?$AA@ 0045f0d0     libcurl:strerror.obj
 0002:000080e4       ??_C@_0BK@LAFJNHKK@Blocking?5call?5in?5progress?$AA@ 0045f0e4     libcurl:strerror.obj
 0002:00008100       ??_C@_0BL@BCCPNPNK@Descriptor?5is?5not?5a?5socket?$AA@ 0045f100     libcurl:strerror.obj
 0002:0000811c       ??_C@_0BJ@PJJDHGPA@Need?5destination?5address?$AA@ 0045f11c     libcurl:strerror.obj
 0002:00008138       ??_C@_0BB@FIFBBOKN@Bad?5message?5size?$AA@ 0045f138     libcurl:strerror.obj
 0002:0000814c       ??_C@_0N@HKFEGNLE@Bad?5protocol?$AA@ 0045f14c     libcurl:strerror.obj
 0002:0000815c       ??_C@_0BP@CMLHIFII@Protocol?5option?5is?5unsupported?$AA@ 0045f15c     libcurl:strerror.obj
 0002:0000817c       ??_C@_0BI@KIGPDANH@Protocol?5is?5unsupported?$AA@ 0045f17c     libcurl:strerror.obj
 0002:00008194       ??_C@_0BG@PJCKEJGL@Socket?5is?5unsupported?$AA@ 0045f194     libcurl:strerror.obj
 0002:000081ac       ??_C@_0BI@EDJAHLMH@Operation?5not?5supported?$AA@ 0045f1ac     libcurl:strerror.obj
 0002:000081c4       ??_C@_0BN@GMEBDOHK@Address?5family?5not?5supported?$AA@ 0045f1c4     libcurl:strerror.obj
 0002:000081e4       ??_C@_0BO@EBCCBLCJ@Protocol?5family?5not?5supported?$AA@ 0045f1e4     libcurl:strerror.obj
 0002:00008204       ??_C@_0BH@LOKACPE@Address?5already?5in?5use?$AA@ 0045f204     libcurl:strerror.obj
 0002:0000821c       ??_C@_0BG@LPGNEDFC@Address?5not?5available?$AA@ 0045f21c     libcurl:strerror.obj
 0002:00008234       ??_C@_0N@BLPKELHL@Network?5down?$AA@ 0045f234     libcurl:strerror.obj
 0002:00008244       ??_C@_0BE@BCKBHKGP@Network?5unreachable?$AA@ 0045f244     libcurl:strerror.obj
 0002:00008258       ??_C@_0BH@IGDKJAJA@Network?5has?5been?5reset?$AA@ 0045f258     libcurl:strerror.obj
 0002:00008270       ??_C@_0BH@CAGNAMLD@Connection?5was?5aborted?$AA@ 0045f270     libcurl:strerror.obj
 0002:00008288       ??_C@_0BF@ONIPBLIH@Connection?5was?5reset?$AA@ 0045f288     libcurl:strerror.obj
 0002:000082a0       ??_C@_0BA@OCGNHFCH@No?5buffer?5space?$AA@ 0045f2a0     libcurl:strerror.obj
 0002:000082b0       ??_C@_0BM@CCONNCKE@Socket?5is?5already?5connected?$AA@ 0045f2b0     libcurl:strerror.obj
 0002:000082cc       ??_C@_0BI@ILAOGBJJ@Socket?5is?5not?5connected?$AA@ 0045f2cc     libcurl:strerror.obj
 0002:000082e4       ??_C@_0BK@KFOKKGHA@Socket?5has?5been?5shut?5down?$AA@ 0045f2e4     libcurl:strerror.obj
 0002:00008300       ??_C@_0BE@JFIGGPOD@Too?5many?5references?$AA@ 0045f300     libcurl:strerror.obj
 0002:00008314       ??_C@_09OGKCMDDI@Timed?5out?$AA@ 0045f314     libcurl:strerror.obj
 0002:00008320       ??_C@_0BD@NPDMPPFP@Connection?5refused?$AA@ 0045f320     libcurl:strerror.obj
 0002:00008334       ??_C@_06BPCOEKJC@Loop?$DP?$DP?$AA@ 0045f334     libcurl:strerror.obj
 0002:0000833c       ??_C@_0O@CGIEAMHJ@Name?5too?5long?$AA@ 0045f33c     libcurl:strerror.obj
 0002:0000834c       ??_C@_09IKKBPHPB@Host?5down?$AA@ 0045f34c     libcurl:strerror.obj
 0002:00008358       ??_C@_0BB@BJPAGEMG@Host?5unreachable?$AA@ 0045f358     libcurl:strerror.obj
 0002:0000836c       ??_C@_09HNKMHKD@Not?5empty?$AA@ 0045f36c     libcurl:strerror.obj
 0002:00008378       ??_C@_0BG@HNPEDFFM@Process?5limit?5reached?$AA@ 0045f378     libcurl:strerror.obj
 0002:00008390       ??_C@_0P@DAFGFIDC@Too?5many?5users?$AA@ 0045f390     libcurl:strerror.obj
 0002:000083a0       ??_C@_09OLCJIOMK@Bad?5quota?$AA@ 0045f3a0     libcurl:strerror.obj
 0002:000083ac       ??_C@_0BD@OAJEPCAF@Something?5is?5stale?$AA@ 0045f3ac     libcurl:strerror.obj
 0002:000083c0       ??_C@_0N@CMGGHDDP@Remote?5error?$AA@ 0045f3c0     libcurl:strerror.obj
 0002:000083d0       ??_C@_0N@NFBNFHML@Disconnected?$AA@ 0045f3d0     libcurl:strerror.obj
 0002:000083e0       ??_C@_0BN@NBHIJNDO@Winsock?5library?5is?5not?5ready?$AA@ 0045f3e0     libcurl:strerror.obj
 0002:00008400       ??_C@_0CA@GOKMBGKE@Winsock?5library?5not?5initialised?$AA@ 0045f400     libcurl:strerror.obj
 0002:00008420       ??_C@_0BO@CMBHKIGC@Winsock?5version?5not?5supported?$AA@ 0045f420     libcurl:strerror.obj
 0002:00008440       ??_C@_0P@CAFMJNJH@Host?5not?5found?$AA@ 0045f440     libcurl:strerror.obj
 0002:00008450       ??_C@_0BK@LIMDACMA@Host?5not?5found?0?5try?5again?$AA@ 0045f450     libcurl:strerror.obj
 0002:0000846c       ??_C@_0CK@PHGIEDKM@Unrecoverable?5error?5in?5call?5to?5n@ 0045f46c     libcurl:strerror.obj
 0002:00008498       ??_C@_0CB@PAPDILAI@No?5data?5record?5of?5requested?5type@ 0045f498     libcurl:strerror.obj
 0002:000084bc       ??_C@_0BH@LLHLFDOA@Unknown?5error?5?$CFd?5?$CI?$CF?$CDx?$CJ?$AA@ 0045f4bc     libcurl:strerror.obj
 0002:000084d4       ??_C@_0M@PCENNPGA@?$CFd?4?$CFd?4?$CFd?4?$CFd?$AA@ 0045f4d4     libcurl:inet_ntop.obj
 0002:000084e0       ??_C@_03OPHMLOFF@?$CFlx?$AA@ 0045f4e0     libcurl:inet_ntop.obj
 0002:000084e4       ??_C@_04DPLCCHJC@auth?$AA@ 0045f4e4     libcurl:digest.obj
 0002:000084ec       ??_C@_08DMLLJBKJ@auth?9int?$AA@ 0045f4ec     libcurl:digest.obj
 0002:000084f8       ??_C@_09HPCMDFJO@auth?9conf?$AA@ 0045f4f8     libcurl:digest.obj
 0002:00008504       ??_C@_07EJNHPKHG@nonce?$DN?$CC?$AA@ 0045f504     libcurl:digest.obj
 0002:0000850c       ??_C@_07HAABIMLH@realm?$DN?$CC?$AA@ 0045f50c     libcurl:digest.obj
 0002:00008514       ??_C@_0L@HDBLKLNB@algorithm?$DN?$AA@ 0045f514     libcurl:digest.obj
 0002:00008520       ??_C@_05HFBPPANL@qop?$DN?$CC?$AA@ 0045f520     libcurl:digest.obj
 0002:00008528       ??_C@_08KNCPHIAE@00000001?$AA@ 0045f528     libcurl:digest.obj
 0002:00008534       ??_C@_0N@PMNNBFMH@AUTHENTICATE?$AA@ 0045f534     libcurl:digest.obj
 0002:00008544       ??_C@_08EBDNNOOM@md5?9sess?$AA@ 0045f544     libcurl:digest.obj
 0002:00008550       ??_C@_0FL@LNDBMOBB@username?$DN?$CC?$CFs?$CC?0realm?$DN?$CC?$CFs?$CC?0nonce?$DN?$CC@ 0045f550     libcurl:digest.obj
 0002:000085ac       ??_C@_05OOEDLKEB@nonce?$AA@ 0045f5ac     libcurl:digest.obj
 0002:000085b4       ??_C@_05BFAEFKPM@stale?$AA@ 0045f5b4     libcurl:digest.obj
 0002:000085bc       ??_C@_04LOAJBDKD@true?$AA@ 0045f5bc     libcurl:digest.obj
 0002:000085c4       ??_C@_05ELABLNGD@realm?$AA@ 0045f5c4     libcurl:digest.obj
 0002:000085cc       ??_C@_06CJCOLNBB@opaque?$AA@ 0045f5cc     libcurl:digest.obj
 0002:000085d4       ??_C@_03GBIMBCPB@qop?$AA@  0045f5d4     libcurl:digest.obj
 0002:000085d8       ??_C@_09JPNFBOJG@algorithm?$AA@ 0045f5d8     libcurl:digest.obj
 0002:000085e4       ??_C@_08DKLKDOBJ@MD5?9sess?$AA@ 0045f5e4     libcurl:digest.obj
 0002:000085f0       ??_C@_03GCGHEHKJ@MD5?$AA@  0045f5f0     libcurl:digest.obj
 0002:000085f4       ??_C@_07DKFLFLPF@SHA?9256?$AA@ 0045f5f4     libcurl:digest.obj
 0002:000085fc       ??_C@_0N@EOLPNNCE@SHA?9256?9SESS?$AA@ 0045f5fc     libcurl:digest.obj
 0002:0000860c       ??_C@_0M@ODMGHIGE@SHA?9512?9256?$AA@ 0045f60c     libcurl:digest.obj
 0002:00008618       ??_C@_0BB@LFGPIGKB@SHA?9512?9256?9SESS?$AA@ 0045f618     libcurl:digest.obj
 0002:0000862c       ??_C@_08MPDCKPHM@userhash?$AA@ 0045f62c     libcurl:digest.obj
 0002:00008638       ??_C@_08LDENPILD@?$CFs?3?$CFs?3?$CFs?$AA@ 0045f638     libcurl:digest.obj
 0002:00008644       ??_C@_0BE@DBLPOOMB@?$CFs?3?$CFs?3?$CF08x?3?$CFs?3?$CFs?3?$CFs?$AA@ 0045f644     libcurl:digest.obj
 0002:00008658       ??_C@_0FN@LPOMOJKE@username?$DN?$CC?$CFs?$CC?0?5realm?$DN?$CC?$CFs?$CC?0?5nonce@ 0045f658     libcurl:digest.obj
 0002:000086b8       ??_C@_0DP@IEBMKLAD@username?$DN?$CC?$CFs?$CC?0?5realm?$DN?$CC?$CFs?$CC?0?5nonce@ 0045f6b8     libcurl:digest.obj
 0002:000086f8       ??_C@_0BA@BIMHECMC@?$CFs?0?5opaque?$DN?$CC?$CFs?$CC?$AA@ 0045f6f8     libcurl:digest.obj
 0002:00008708       ??_C@_0BB@JNPNCBL@?$CFs?0?5algorithm?$DN?$CFs?$AA@ 0045f708     libcurl:digest.obj
 0002:0000871c       ??_C@_0BC@HNHNJNFB@?$CFs?0?5userhash?$DNtrue?$AA@ 0045f71c     libcurl:digest.obj
 0002:00008730       ??_C@_0BM@ILAEFAML@Too?5long?5hexadecimal?5number?$AA@ 0045f730     libcurl:http_chunks.obj
 0002:0000874c       ??_C@_0CI@EPIPCBEA@Illegal?5or?5missing?5hexadecimal?5s@ 0045f74c     libcurl:http_chunks.obj
 0002:00008774       ??_C@_0BJ@JKKKEMNN@Malformed?5encoding?5found?$AA@ 0045f774     libcurl:http_chunks.obj
 0002:00008790       ??_C@_0BL@NBOBMEI@Bad?5content?9encoding?5found?$AA@ 0045f790     libcurl:http_chunks.obj
 0002:000087e4       ??_C@_09JLCBMBBK@Bad?5label?$AA@ 0045f7e4     libcurl:doh.obj
 0002:000087f0       ??_C@_0N@OBIJMHDD@Out?5of?5range?$AA@ 0045f7f0     libcurl:doh.obj
 0002:00008800       ??_C@_0L@IEBIAGNN@Label?5loop?$AA@ 0045f800     libcurl:doh.obj
 0002:0000880c       ??_C@_09OCNDOFP@Too?5small?$AA@ 0045f80c     libcurl:doh.obj
 0002:00008818       ??_C@_0N@FHJOLNAK@RDATA?5length?$AA@ 0045f818     libcurl:doh.obj
 0002:00008828       ??_C@_09OCLBHOEO@Malformat?$AA@ 0045f828     libcurl:doh.obj
 0002:00008834       ??_C@_09DBMBBPHM@Bad?5RCODE?$AA@ 0045f834     libcurl:doh.obj
 0002:00008840       ??_C@_0BA@OKMFLAL@Unexpected?5TYPE?$AA@ 0045f840     libcurl:doh.obj
 0002:00008850       ??_C@_0BB@EAJHLOKN@Unexpected?5CLASS?$AA@ 0045f850     libcurl:doh.obj
 0002:00008864       ??_C@_0L@KKIPEPDM@No?5content?$AA@ 0045f864     libcurl:doh.obj
 0002:00008870       ??_C@_06FFHBNKND@Bad?5ID?$AA@ 0045f870     libcurl:doh.obj
 0002:00008878       ??_C@_0P@JHEEOJHM@bad?5error?5code?$AA@ 0045f878     libcurl:doh.obj
 0002:00008888       ??_C@_0CG@CKDPOMBN@a?5DOH?5request?5is?5completed?0?5?$CFu?5t@ 0045f888     libcurl:doh.obj
 0002:000088b0       ??_C@_0BA@NDOGDMBN@DOH?5request?5?$CFs?6?$AA@ 0045f8b0     libcurl:doh.obj
 0002:000088c0       ??_C@_0CB@KOMHFCDO@Failed?5to?5encode?5DOH?5packet?5?$FL?$CFd?$FN@ 0045f8c0     libcurl:doh.obj
 0002:000088e4       ??_C@_09OLGCPDFN@?$CFs?$DPdns?$DN?$CFs?$AA@ 0045f8e4     libcurl:doh.obj
 0002:000088f0       ??_C@_0CG@KIGAOFHM@Content?9Type?3?5application?1dns?9me@ 0045f8f0     libcurl:doh.obj
 0002:00008918       ??_C@_0BB@DKILCKOO@TTL?3?5?$CFu?5seconds?6?$AA@ 0045f918     libcurl:doh.obj
 0002:0000892c       ??_C@_0BE@FOEBOIJB@DOH?5A?3?5?$CFu?4?$CFu?4?$CFu?4?$CFu?6?$AA@ 0045f92c     libcurl:doh.obj
 0002:00008940       ??_C@_0L@NNFPBGFL@DOH?5AAAA?3?5?$AA@ 0045f940     libcurl:doh.obj
 0002:0000894c       ??_C@_0L@NCOIGGIO@?$CFs?$CF02x?$CF02x?$AA@ 0045f94c     libcurl:doh.obj
 0002:00008958       ??_C@_0L@GJHHPGAI@CNAME?3?5?$CFs?6?$AA@ 0045f958     libcurl:doh.obj
 0002:00008964       ??_C@_01FHEEJDEE@A?$AA@    0045f964     libcurl:doh.obj
 0002:00008968       ??_C@_04OHNMNPPA@AAAA?$AA@ 0045f968     libcurl:doh.obj
 0002:00008970       ??_C@_0BK@IFADNFO@Could?5not?5DOH?9resolve?3?5?$CFs?$AA@ 0045f970     libcurl:doh.obj
 0002:0000898c       ??_C@_0BI@CENMKCHB@DOH?3?5?$CFs?5type?5?$CFs?5for?5?$CFs?6?$AA@ 0045f98c     libcurl:doh.obj
 0002:000089a4       ??_C@_0BD@FBBLOGDK@DOH?5Host?5name?3?5?$CFs?6?$AA@ 0045f9a4     libcurl:doh.obj
 0002:00008a44       ??_C@_06BHJPINKK@?$CFc?$CFc?$DN?$DN?$AA@ 0045fa44     libcurl:base64.obj
 0002:00008a4c       ??_C@_07KPHDOBAP@?$CFc?$CFc?$CFc?$DN?$AA@ 0045fa4c     libcurl:base64.obj
 0002:00008a58       ??_C@_0GC@KMDLLNFG@NTLM?5handshake?5failure?5?$CIbad?5type@ 0045fa58     libcurl:ntlm.obj
 0002:00008abc       ??_C@_0CP@KIFOOILK@NTLM?5handshake?5failure?5?$CIempty?5ty@ 0045fabc     libcurl:ntlm.obj
 0002:00008aec       ??_C@_0CN@NILNEGOG@NTLM?5handshake?5failure?5?$CIbad?5type@ 0045faec     libcurl:ntlm.obj
 0002:00008b1c       ??_C@_0DN@EOPIHEDC@NTLMSSP?$CFc?$AB?$CFc?$CFc?$CFc?$CFc?$CFc?$CFc?$CFc?$CFc?$CFc?$CFc?$CFc@ 0045fb1c     libcurl:ntlm.obj
 0002:00008b5c       ??_C@_0CL@BCOKKCBO@gethostname?$CI?$CJ?5failed?0?5continuing@ 0045fb5c     libcurl:ntlm.obj
 0002:00008b88       ??_C@_0HJ@CLKEMMBI@NTLMSSP?$CFc?$AD?$CFc?$CFc?$CFc?$CFc?$CFc?$CFc?$CFc?$CFc?$CFc?$CFc?$CFc@ 0045fb88     libcurl:ntlm.obj
 0002:00008c04       ??_C@_0BO@JAAKONFE@incoming?5NTLM?5message?5too?5big?$AA@ 0045fc04     libcurl:ntlm.obj
 0002:00008c24       ??_C@_0CC@OKCALBLA@user?5?$CL?5domain?5?$CL?5host?5name?5too?5bi@ 0045fc24     libcurl:ntlm.obj
 0002:00008c48       ??_C@_07NPDBOIDH@aws?3amz?$AA@ 0045fc48     libcurl:http_aws_sigv4.obj
 0002:00008c50       ??_C@_0BP@KLOELJLG@first?5provider?5can?8t?5be?5empty?6?$AA@ 0045fc50     libcurl:http_aws_sigv4.obj
 0002:00008c70       ??_C@_0CA@EAHCMJLP@second?5provider?5can?8t?5be?5empty?6?$AA@ 0045fc70     libcurl:http_aws_sigv4.obj
 0002:00008c90       ??_C@_0BH@GCAPKOHK@region?5can?8t?5be?5empty?6?$AA@ 0045fc90     libcurl:http_aws_sigv4.obj
 0002:00008ca8       ??_C@_0BI@DONEAKFM@service?5can?8t?5be?5empty?6?$AA@ 0045fca8     libcurl:http_aws_sigv4.obj
 0002:00008cc0       ??_C@_0CL@KGLCCDEP@service?5missing?5in?5parameters?5or@ 0045fcc0     libcurl:http_aws_sigv4.obj
 0002:00008cec       ??_C@_0CK@MPAFOPCI@region?5missing?5in?5parameters?5or?5@ 0045fcec     libcurl:http_aws_sigv4.obj
 0002:00008d18       ??_C@_0P@IKNEGPFP@?$CFY?$CFm?$CFdT?$CFH?$CFM?$CFSZ?$AA@ 0045fd18     libcurl:http_aws_sigv4.obj
 0002:00008d28       ??_C@_0CG@LGOKAMLB@content?9type?3?$CFs?6host?3?$CFs?6x?9?$CFs?9dat@ 0045fd28     libcurl:http_aws_sigv4.obj
 0002:00008d50       ??_C@_0BM@KIONJGIN@content?9type?$DLhost?$DLx?9?$CFs?9date?$AA@ 0045fd50     libcurl:http_aws_sigv4.obj
 0002:00008d6c       ??_C@_0BG@KFBJEMGA@host?3?$CFs?6x?9?$CFs?9date?3?$CFs?6?$AA@ 0045fd6c     libcurl:http_aws_sigv4.obj
 0002:00008d84       ??_C@_0P@LBLFCGEL@host?$DLx?9?$CFs?9date?$AA@ 0045fd84     libcurl:http_aws_sigv4.obj
 0002:00008d94       ??_C@_0BC@PHFFPANB@?$CFs?6?$CFs?6?$CFs?6?$CFs?6?$CFs?6?$CFs?$AA@ 0045fd94     libcurl:http_aws_sigv4.obj
 0002:00008da8       ??_C@_0M@HICACENB@?$CFs4_request?$AA@ 0045fda8     libcurl:http_aws_sigv4.obj
 0002:00008db4       ??_C@_0M@CFLEPOPB@?$CFs?1?$CFs?1?$CFs?1?$CFs?$AA@ 0045fdb4     libcurl:http_aws_sigv4.obj
 0002:00008dc0       ??_C@_0BJ@CMHLPGHN@?$CFs4?9HMAC?9SHA256?6?$CFs?6?$CFs?6?$CFs?$AA@ 0045fdc0     libcurl:http_aws_sigv4.obj
 0002:00008ddc       ??_C@_05OCPDJBAO@?$CFs4?$CFs?$AA@ 0045fddc     libcurl:http_aws_sigv4.obj
 0002:00008de8       ??_C@_0GB@FIOPLDOD@Authorization?3?5?$CFs4?9HMAC?9SHA256?5C@ 0045fde8     libcurl:http_aws_sigv4.obj
 0002:00008e4c       ??_C@_0BI@OMBEIMIN@server?5response?5timeout?$AA@ 0045fe4c     libcurl:pingpong.obj
 0002:00008e64       ??_C@_0BC@FLDALOLK@select?1poll?5error?$AA@ 0045fe64     libcurl:pingpong.obj
 0002:00008e78       ??_C@_0CH@HOGDLIGJ@cached?5response?5data?5too?5big?5to?5@ 0045fe78     libcurl:pingpong.obj
 0002:00008ea0       ??_C@_0BI@KBMAOGBB@response?5reading?5failed?$AA@ 0045fea0     libcurl:pingpong.obj
 0002:00008eb8       ??_C@_0EG@IFEGJIDG@Excessive?5server?5response?5line?5l@ 0045feb8     libcurl:pingpong.obj
 0002:00008f90       ??_C@_05PLHGOPJD@LOGIN?$AA@ 0045ff90     libcurl:curl_sasl.obj
 0002:00008f98       ??_C@_05ONKJAIHP@PLAIN?$AA@ 0045ff98     libcurl:curl_sasl.obj
 0002:00008fa0       ??_C@_08DNNNMLKI@CRAM?9MD5?$AA@ 0045ffa0     libcurl:curl_sasl.obj
 0002:00008fac       ??_C@_0L@ELGHJPGH@DIGEST?9MD5?$AA@ 0045ffac     libcurl:curl_sasl.obj
 0002:00008fb8       ??_C@_06HIDJEBJA@GSSAPI?$AA@ 0045ffb8     libcurl:curl_sasl.obj
 0002:00008fc0       ??_C@_08JHLDEHEK@EXTERNAL?$AA@ 0045ffc0     libcurl:curl_sasl.obj
 0002:00008fcc       ??_C@_07ENDMEEPL@XOAUTH2?$AA@ 0045ffcc     libcurl:curl_sasl.obj
 0002:00008fd4       ??_C@_0M@CNKKGKLC@OAUTHBEARER?$AA@ 0045ffd4     libcurl:curl_sasl.obj
 0002:00008fe0       ??_C@_0M@NPGGIEFL@SCRAM?9SHA?91?$AA@ 0045ffe0     libcurl:curl_sasl.obj
 0002:00008fec       ??_C@_0O@KJDAFCA@SCRAM?9SHA?9256?$AA@ 0045ffec     libcurl:curl_sasl.obj
 0002:00008ffc       ??_C@_04GJKECPKB@AQ?$DN?$DN?$AA@ 0045fffc     libcurl:curl_sasl.obj
 0002:00009004       ??_C@_0CK@LABGPHKL@Unsupported?5SASL?5authentication?5@ 00460004     libcurl:curl_sasl.obj
 0002:00009030       _Curl_DIGEST_MD5           00460030     libcurl:md5.obj
 0002:00009044       _Curl_HMAC_MD5             00460044     libcurl:md5.obj
 0002:0000905c       ??_C@_04BBDFLMDN@?5?9?$DO?5?$AA@ 0046005c     libcurl:ftplistparser.obj
 0002:00009064       ??_C@_06NIJHKJLJ@total?5?$AA@ 00460064     libcurl:ftplistparser.obj
 0002:0000906c       ??_C@_08IKJPBGEL@rwx?9tTsS?$AA@ 0046006c     libcurl:ftplistparser.obj
 0002:00009078       ??_C@_0M@GKMDGLA@0123456789?9?$AA@ 00460078     libcurl:ftplistparser.obj
 0002:00009084       ??_C@_0P@BIDONHD@APM0123456789?3?$AA@ 00460084     libcurl:ftplistparser.obj
 0002:00009094       ??_C@_05FIBHJBBH@?$DMDIR?$DO?$AA@ 00460094     libcurl:ftplistparser.obj
 0002:000090a4       ??_C@_0CB@NDKGBGMP@?$CFc?$CFc?$CFc?$CFc?$CFc?$CFc?$CFc?$CFc?$CFc?$CFc?$CFc?$CFc?$CFc?$CFc?$CFc?$CFc@ 004600a4     libcurl:curl_ntlm_core.obj
 0002:000090c8       ??_C@_02CAHBHFGK@?4?1?$AA@ 004600c8     libcurl:dotdot.obj
 0002:000090cc       ??_C@_03LOJJKLGJ@?4?4?1?$AA@ 004600cc     libcurl:dotdot.obj
 0002:000090d0       ??_C@_03GCFMMAM@?1?4?1?$AA@ 004600d0     libcurl:dotdot.obj
 0002:000090d4       ??_C@_02DIKICOBM@?1?4?$AA@ 004600d4     libcurl:dotdot.obj
 0002:000090d8       ??_C@_04BKGODLLN@?1?4?4?1?$AA@ 004600d8     libcurl:dotdot.obj
 0002:000090e0       ??_C@_03BPDOPNEN@?1?4?4?$AA@ 004600e0     libcurl:dotdot.obj
 0002:000090e4       ??_C@_02DJGKEECL@?4?4?$AA@ 004600e4     libcurl:dotdot.obj
 0002:000090e8       ??_C@_08ICCJALCC@?$CFs?1?$CFs?$EA?$CFs?$AA@ 004600e8     libcurl:vauth.obj
 0002:000090f4       ??_C@_05GFOLEBJA@?$CFs?1?$CFs?$AA@ 004600f4     libcurl:vauth.obj
 0002:000090fc       ??_C@_05GKOKGMF@?$CFs?$EA?$CFs?$AA@ 004600fc     libcurl:vauth.obj
 0002:00009104       _Curl_HMAC_SHA256          00460104     libcurl:sha256.obj
 0002:00009120       ??_C@_01NEMOKFLO@?$DN?$AA@ 00460120     libcurl:cleartext.obj
 0002:00009128       ??_C@_0EE@GBENNIBO@?$CFs?5?$CF02x?$CF02x?$CF02x?$CF02x?$CF02x?$CF02x?$CF02x?$CF@ 00460128     libcurl:cram.obj
 0002:0000916c       ??_C@_0CB@GNAMIMBB@n?0a?$DN?$CFs?0?$ABhost?$DN?$CFs?$ABauth?$DNBearer?5?$CFs?$AB?$AB@ 0046016c     libcurl:oauth2.obj
 0002:00009190       ??_C@_0CK@MLPCPAOG@n?0a?$DN?$CFs?0?$ABhost?$DN?$CFs?$ABport?$DN?$CFld?$ABauth?$DNBe@ 00460190     libcurl:oauth2.obj
 0002:000091bc       ??_C@_0BJ@HPFOJHGD@user?$DN?$CFs?$ABauth?$DNBearer?5?$CFs?$AB?$AB?$AA@ 004601bc     libcurl:oauth2.obj
 0002:000091d8       ??_C@_05ODNOIFML@digit?$AA@ 004601d8     libcurl:curl_fnmatch.obj
 0002:000091e0       ??_C@_05IIMHCHIO@alnum?$AA@ 004601e0     libcurl:curl_fnmatch.obj
 0002:000091e8       ??_C@_05IAEKHIAN@alpha?$AA@ 004601e8     libcurl:curl_fnmatch.obj
 0002:000091f0       ??_C@_06BAPHGFFK@xdigit?$AA@ 004601f0     libcurl:curl_fnmatch.obj
 0002:000091f8       ??_C@_05IJDJACGD@print?$AA@ 004601f8     libcurl:curl_fnmatch.obj
 0002:00009200       ??_C@_05KCJBMLII@graph?$AA@ 00460200     libcurl:curl_fnmatch.obj
 0002:00009208       ??_C@_05OLNILLAB@space?$AA@ 00460208     libcurl:curl_fnmatch.obj
 0002:00009210       ??_C@_05BABJKOGB@blank?$AA@ 00460210     libcurl:curl_fnmatch.obj
 0002:00009218       ??_C@_05NECKJAMC@upper?$AA@ 00460218     libcurl:curl_fnmatch.obj
 0002:00009220       ??_C@_05IPJEPLHL@lower?$AA@ 00460220     libcurl:curl_fnmatch.obj
 0002:000092b4       ??_C@_0N@GIPHPLLM@Warcraft?5III?$AA@ 004602b4     Main.obj
 0002:000092c8       ??_C@_0EK@MNEKPPON@11070123112E8880181D0381091D0381@ 004602c8     Main.obj
 0002:00009314       ??_C@_01NOFIACDB@w?$AA@    00460314     Main.obj
 0002:00009318       ??_C@_07GPDNMNG@CONOUT$?$AA@ 00460318     Main.obj
 0002:00009320       ??_C@_05JLNEMJLN@dummy?$AA@ 00460320     Main.obj
 0002:00009328       ??_C@_0BB@ICFLKOPM@SeDebugPrivilege?$AA@ 00460328     Main.obj
 0002:0000933c       ??_C@_08EPCMHBKI@Game?4dll?$AA@ 0046033c     Main.obj
 0002:00009348       ?key@@3PBDB                00460348     Main.obj
 0002:0000934c       ??_C@_00CNPNBAHC@?$AA@     0046034c     protect.obj
 0002:00009350       ??_C@_0BG@HGEDEDEC@invalid?5stoi?5argument?$AA@ 00460350     protect.obj
 0002:00009368       ??_C@_0BL@MFFNMGGC@stoi?5argument?5out?5of?5range?$AA@ 00460368     protect.obj
 0002:00009384       ??_C@_04JHBMAIMM@?$CF01X?$AA@ 00460384     protect.obj
 0002:0000938c       ??_C@_05NADPPHDM@Key?3?5?$AA@ 0046038c     protect.obj
 0002:00009394       ??_C@_0DP@JMIKLEIH@http?3?1?1showcase?4api?4linx?4twenty5@ 00460394     protect.obj
 0002:000093d4       ??_C@_01JLIPDDHJ@?3?$AA@   004603d4     protect.obj
 0002:000093d8       ??_C@_01CLKCMJKC@?5?$AA@   004603d8     protect.obj
 0002:000093dc       ??_C@_01LFCBOECM@?4?$AA@   004603dc     protect.obj
 0002:000093e0       ??_C@_0BA@JFNIOLAK@string?5too?5long?$AA@ 004603e0     protect.obj
 0002:000093f0       ??_C@_0BI@CFPLBAOH@invalid?5string?5position?$AA@ 004603f0     protect.obj
 0002:00009408       ??_C@_0BC@EOODALEL@Unknown?5exception?$AA@ 00460408     systeminfo.obj
 0002:0000941c       ??_C@_08EPJLHIJG@bad?5cast?$AA@ 0046041c     systeminfo.obj
 0002:00009428       ??_C@_0BH@KOGMOJCH@invalid?5stoll?5argument?$AA@ 00460428     systeminfo.obj
 0002:00009440       ??_C@_0BM@BPCBEBLO@stoll?5argument?5out?5of?5range?$AA@ 00460440     systeminfo.obj
 0002:00009460       ??_C@_0FF@ODEOEJDF@wmic?5?1namespace?3?2?2root?2wmi?5PATH?5@ 00460460     systeminfo.obj
 0002:000094b8       ??_C@_06PONDCDME@ERROR?3?$AA@ 004604b8     systeminfo.obj
 0002:000094c0       ??_C@_0DN@ILJDKAAO@wmic?5cpu?5get?5?1format?3list?5?$HM?5find@ 004604c0     systeminfo.obj
 0002:00009500       ??_C@_0BD@PGHEEDII@CurrentClockSpeed?$DN?$AA@ 00460500     systeminfo.obj
 0002:00009514       ??_C@_05DCIFAFBG@Name?$DN?$AA@ 00460514     systeminfo.obj
 0002:0000951c       ??_C@_0P@BHLKPIPI@NumberOfCores?$DN?$AA@ 0046051c     systeminfo.obj
 0002:0000952c       ??_C@_0O@HNEOCNDC@Manufacturer?$DN?$AA@ 0046052c     systeminfo.obj
 0002:0000953c       ??_C@_0L@BAIIMEAH@DataWidth?$DN?$AA@ 0046053c     systeminfo.obj
 0002:00009548       ??_C@_0N@NPABCCND@L2CacheSize?$DN?$AA@ 00460548     systeminfo.obj
 0002:00009558       ??_C@_0N@EEKEGOLM@L3CacheSize?$DN?$AA@ 00460558     systeminfo.obj
 0002:00009568       ??_C@_02LODOGJEL@KB?$AA@   00460568     systeminfo.obj
 0002:0000956c       ??_C@_07NBCGADJA@Unknown?$AA@ 0046056c     systeminfo.obj
 0002:00009574       ??_C@_03BMJMONAH@MHz?$AA@  00460574     systeminfo.obj
 0002:00009578       ??_C@_03NDFEINMN@x86?$AA@  00460578     systeminfo.obj
 0002:0000957c       ??_C@_06HDPOADAK@x86_64?$AA@ 0046057c     systeminfo.obj
 0002:00009584       ??_C@_0BL@LFOFMABP@wmic?5cpu?5get?5?1format?3?5list?$AA@ 00460584     systeminfo.obj
 0002:000095a0       ??_C@_09KGLINCJH@AssetTag?$DN?$AA@ 004605a0     systeminfo.obj
 0002:000095ac       ??_C@_0N@JEAIMEKG@VoltageCaps?$DN?$AA@ 004605ac     systeminfo.obj
 0002:000095bc       ??_C@_01LIIJDEN@?$AN?$AA@  004605bc     systeminfo.obj
 0002:000095c0       ??_C@_06HLMMPIBG@NVIDIA?$AA@ 004605c0     systeminfo.obj
 0002:000095c8       ??_C@_05OPFLDEAH@INTEL?$AA@ 004605c8     systeminfo.obj
 0002:000095d0       ??_C@_03BBEEILCJ@AMD?$AA@  004605d0     systeminfo.obj
 0002:000095d4       ??_C@_0BG@JEIDHDPM@AdapterCompatibility?$DN?$AA@ 004605d4     systeminfo.obj
 0002:000095ec       ??_C@_0M@MFMICOBC@AdapterRAM?$DN?$AA@ 004605ec     systeminfo.obj
 0002:000095f8       ??_C@_0BE@HFKIHEFN@CurrentRefreshRate?$DN?$AA@ 004605f8     systeminfo.obj
 0002:0000960c       ??_C@_0P@ECEAHKCA@DriverVersion?$DN?$AA@ 0046060c     systeminfo.obj
 0002:0000961c       ??_C@_0BD@PJIEMGDB@VideoArchitecture?$DN?$AA@ 0046061c     systeminfo.obj
 0002:00009630       ??_C@_0BA@COFLHODM@VideoMemoryType?$AA@ 00460630     systeminfo.obj
 0002:00009640       ??_C@_0BG@KAJCOKNL@VideoModeDescription?$DN?$AA@ 00460640     systeminfo.obj
 0002:00009658       ??_C@_0BA@IDIFCJOL@VideoProcessor?$DN?$AA@ 00460658     systeminfo.obj
 0002:00009668       ??_C@_08EBLFLHLH@Caption?$DN?$AA@ 00460668     systeminfo.obj
 0002:00009674       ??_C@_07IOEJHCEF@?5Bytes?$CJ?$AA@ 00460674     systeminfo.obj
 0002:0000967c       ??_C@_04MNLDOMOG@MB?5?$CI?$AA@ 0046067c     systeminfo.obj
 0002:00009684       ??_C@_06LFCPCEPB@?5Bytes?$AA@ 00460684     systeminfo.obj
 0002:0000968c       ??_C@_05BBOGGNLJ@Other?$AA@ 0046068c     systeminfo.obj
 0002:00009694       ??_C@_03MLKNDCDB@CGA?$AA@  00460694     systeminfo.obj
 0002:00009698       ??_C@_03OOMGGNON@EGA?$AA@  00460698     systeminfo.obj
 0002:0000969c       ??_C@_03KMGKJFJM@VGA?$AA@  0046069c     systeminfo.obj
 0002:000096a0       ??_C@_04DELPAIIG@SVGA?$AA@ 004606a0     systeminfo.obj
 0002:000096a8       ??_C@_03CJDEPLFL@MDA?$AA@  004606a8     systeminfo.obj
 0002:000096ac       ??_C@_03COJKNHLC@HGC?$AA@  004606ac     systeminfo.obj
 0002:000096b0       ??_C@_04IMKIIGMI@MCGA?$AA@ 004606b0     systeminfo.obj
 0002:000096b8       ??_C@_05ENECEAKG@8514A?$AA@ 004606b8     systeminfo.obj
 0002:000096c0       ??_C@_03EMLFOCKP@XGA?$AA@  004606c0     systeminfo.obj
 0002:000096c4       ??_C@_0BE@HCJIGBPB@Linear?5Frame?5Buffer?$AA@ 004606c4     systeminfo.obj
 0002:000096d8       ??_C@_07BIPCJPON@PC?5?9?598?$AA@ 004606d8     systeminfo.obj
 0002:000096e0       ??_C@_04NLAFCDBP@VRAM?$AA@ 004606e0     systeminfo.obj
 0002:000096e8       ??_C@_04MBCFOHPN@DRAM?$AA@ 004606e8     systeminfo.obj
 0002:000096f0       ??_C@_04BDOFKMGP@SRAM?$AA@ 004606f0     systeminfo.obj
 0002:000096f8       ??_C@_04OGGFAKKP@WRAM?$AA@ 004606f8     systeminfo.obj
 0002:00009700       ??_C@_07FKCCEMEA@EDO_RAM?$AA@ 00460700     systeminfo.obj
 0002:00009708       ??_C@_0BH@DEHCDIJM@Burst?5Synchronous?5DRAM?$AA@ 00460708     systeminfo.obj
 0002:00009720       ??_C@_0BF@IJELNNLE@Pipelined?5Burst?5SRAM?$AA@ 00460720     systeminfo.obj
 0002:00009738       ??_C@_05DPAJMJIB@CDRAM?$AA@ 00460738     systeminfo.obj
 0002:00009740       ??_C@_05DECLMEEA@3DRAM?$AA@ 00460740     systeminfo.obj
 0002:00009748       ??_C@_05DMNPMLBK@SDRAM?$AA@ 00460748     systeminfo.obj
 0002:00009750       ??_C@_05HLHPLBMK@SGRAM?$AA@ 00460750     systeminfo.obj
 0002:00009758       ??_C@_0DC@PMLGMCKE@wmic?5path?5Win32_VideoController?5@ 00460758     systeminfo.obj
 0002:0000978c       ??_C@_0BF@MNNLIBBB@CurrentBitsPerPixel?$DN?$AA@ 0046078c     systeminfo.obj
 0002:000097a8       ??_C@_0EF@JNOHMMK@wmic?5path?5Win32_PnPEntity?5get?5?1f@ 004607a8     systeminfo.obj
 0002:000097f0       ??_C@_08EKPLPCOK@Product?$DN?$AA@ 004607f0     systeminfo.obj
 0002:000097fc       ??_C@_0N@NCLCEBBL@Description?$DN?$AA@ 004607fc     systeminfo.obj
 0002:0000980c       ??_C@_07CPHKODAM@Chipset?$AA@ 0046080c     systeminfo.obj
 0002:00009814       ??_C@_0O@OFNCEPFA@SerialNumber?$DN?$AA@ 00460814     systeminfo.obj
 0002:00009824       ??_C@_08KJDCJPOC@Version?$DN?$AA@ 00460824     systeminfo.obj
 0002:00009830       ??_C@_0CB@BDBEEPBD@wmic?5baseboard?5get?5?1format?3?5list@ 00460830     systeminfo.obj
 0002:00009854       ??_C@_0BH@BLPEBJGK@RequiresDaughterBoard?$DN?$AA@ 00460854     systeminfo.obj
 0002:0000986c       ??_C@_06PNJJNEK@Width?$DN?$AA@ 0046086c     systeminfo.obj
 0002:00009874       ??_C@_0BA@HJFKPBCC@OSArchitecture?$DN?$AA@ 00460874     systeminfo.obj
 0002:00009884       ??_C@_0BA@INGADHEL@RegisteredUser?$DN?$AA@ 00460884     systeminfo.obj
 0002:00009894       ??_C@_0N@ODOKOKID@InstallDate?$DN?$AA@ 00460894     systeminfo.obj
 0002:000098a4       ??_C@_0N@JEMEBDNJ@BuildNumber?$DN?$AA@ 004608a4     systeminfo.obj
 0002:000098b4       ??_C@_0BA@GCBFFF@LastBootUpTime?$DN?$AA@ 004608b4     systeminfo.obj
 0002:000098c4       ??_C@_0M@CGJKPCAI@BootDevice?$DN?$AA@ 004608c4     systeminfo.obj
 0002:000098d0       ??_C@_0BI@PMGAEKHL@TotalVirtualMemorySize?$DN?$AA@ 004608d0     systeminfo.obj
 0002:000098e8       ??_C@_0BI@HLKHBHBJ@TotalVisibleMemorySize?$DN?$AA@ 004608e8     systeminfo.obj
 0002:00009900       ??_C@_0P@GNHCPJKN@TotalSwapSize?$DN?$AA@ 00460900     systeminfo.obj
 0002:00009910       ??_C@_0BE@DEHHBEC@FreePhysicalMemory?$DN?$AA@ 00460910     systeminfo.obj
 0002:00009924       ??_C@_0DN@FMHPDIHB@wmic?5os?5get?5?1format?3list?5?$HM?5finds@ 00460924     systeminfo.obj
 0002:00009964       ??_C@_0BD@LBCHCOMB@FreeVirtualMemory?$DN?$AA@ 00460964     systeminfo.obj
 0002:00009978       ??_C@_0DM@IMOGBFPI@wmic?5os?5get?5?1format?3list?5?$HM?5finds@ 00460978     systeminfo.obj
 0002:000099b4       ??_C@_0BI@JAIEFCLJ@FreeSpaceInPagingFiles?$DN?$AA@ 004609b4     systeminfo.obj
 0002:000099d0       ??_C@_0EB@OBBKEDCH@wmic?5os?5get?5?1format?3list?5?$HM?5finds@ 004609d0     systeminfo.obj
 0002:00009a14       ??_C@_0BJ@FNCKOEAK@SizeStoredInPagingFiles?$DN?$AA@ 00460a14     systeminfo.obj
 0002:00009a30       ??_C@_0EC@EKOMMEFI@wmic?5os?5get?5?1format?3list?5?$HM?5finds@ 00460a30     systeminfo.obj
 0002:00009a74       ??_C@_0P@OEDDHIDF@LocalDateTime?$DN?$AA@ 00460a74     systeminfo.obj
 0002:00009a84       ??_C@_0DI@PPLPAHM@wmic?5os?5get?5?1format?3list?5?$HM?5finds@ 00460a84     systeminfo.obj
 0002:00009abc       ??_C@_04IDFBDOJP@?5KB?$CJ?$AA@ 00460abc     systeminfo.obj
 0002:00009ac4       ??_C@_03MAAJMAHL@?5KB?$AA@ 00460ac4     systeminfo.obj
 0002:00009ac8       ??_C@_0BJ@PEOICEGE@wmic?5os?5get?5?1format?3list?$AA@ 00460ac8     systeminfo.obj
 0002:00009ae4       ??_C@_0BJ@BADAMLNJ@PortableOperatingSystem?$DN?$AA@ 00460ae4     systeminfo.obj
 0002:00009b00       ??_C@_0BC@KMGAAGMI@WindowsDirectory?$DN?$AA@ 00460b00     systeminfo.obj
 0002:00009b14       ??_C@_0P@CLNGFENG@DeviceLocator?$DN?$AA@ 00460b14     systeminfo.obj
 0002:00009b24       ??_C@_09GMKGCMGO@Capacity?$DN?$AA@ 00460b24     systeminfo.obj
 0002:00009b30       ??_C@_0M@NJBBNODN@FormFactor?$DN?$AA@ 00460b30     systeminfo.obj
 0002:00009b3c       ??_C@_0M@JCECAJFD@PartNumber?$DN?$AA@ 00460b3c     systeminfo.obj
 0002:00009b48       ??_C@_0M@BHDFFOOC@MemoryType?$DN?$AA@ 00460b48     systeminfo.obj
 0002:00009b54       ??_C@_0BG@HOKNLHKH@ConfiguredClockSpeed?$DN?$AA@ 00460b54     systeminfo.obj
 0002:00009b6c       ??_C@_06DJAAKCE@Speed?$DN?$AA@ 00460b6c     systeminfo.obj
 0002:00009b74       ??_C@_0BA@PHEJNBIO@Syncronous?5DRAM?$AA@ 00460b74     systeminfo.obj
 0002:00009b84       ??_C@_0L@KFMNNBLH@Cache?5DRAM?$AA@ 00460b84     systeminfo.obj
 0002:00009b90       ??_C@_03HCADPODK@EDO?$AA@  00460b90     systeminfo.obj
 0002:00009b94       ??_C@_05OJFACKJM@EDRAM?$AA@ 00460b94     systeminfo.obj
 0002:00009b9c       ??_C@_03ILDADBHF@RAM?$AA@  00460b9c     systeminfo.obj
 0002:00009ba0       ??_C@_03IBKOBMHP@ROM?$AA@  00460ba0     systeminfo.obj
 0002:00009ba4       ??_C@_05LDPHIKKB@Flash?$AA@ 00460ba4     systeminfo.obj
 0002:00009bac       ??_C@_06EMDDBCNH@EEPROM?$AA@ 00460bac     systeminfo.obj
 0002:00009bb4       ??_C@_06HNNLAIEK@FEPROM?$AA@ 00460bb4     systeminfo.obj
 0002:00009bbc       ??_C@_05HGKODGNE@EPROM?$AA@ 00460bbc     systeminfo.obj
 0002:00009bc4       ??_C@_05PHIDBILP@RDRAM?$AA@ 00460bc4     systeminfo.obj
 0002:00009bcc       ??_C@_04CJLNMEGN@DDR1?$AA@ 00460bcc     systeminfo.obj
 0002:00009bd4       ??_C@_04CJAJHKO@DDR2?$AA@  00460bd4     systeminfo.obj
 0002:00009bdc       ??_C@_0O@HNAHBKBC@DDR2?5?9?5FBDIMM?$AA@ 00460bdc     systeminfo.obj
 0002:00009bec       ??_C@_04BLILKGOP@DDR3?$AA@ 00460bec     systeminfo.obj
 0002:00009bf4       ??_C@_04EFJAEENA@FBD2?$AA@ 00460bf4     systeminfo.obj
 0002:00009bfc       ??_C@_03MCPDGLLE@SIP?$AA@  00460bfc     systeminfo.obj
 0002:00009c00       ??_C@_03PDNAEJC@DIP?$AA@   00460c00     systeminfo.obj
 0002:00009c04       ??_C@_03LPPLCEDO@ZIP?$AA@  00460c04     systeminfo.obj
 0002:00009c08       ??_C@_03HGFDONNN@SOJ?$AA@  00460c08     systeminfo.obj
 0002:00009c0c       ??_C@_0M@EAHCLNFM@Proprietary?$AA@ 00460c0c     systeminfo.obj
 0002:00009c18       ??_C@_04JNOHIFJF@SIMM?$AA@ 00460c18     systeminfo.obj
 0002:00009c20       ??_C@_04EPCHMOAH@DIMM?$AA@ 00460c20     systeminfo.obj
 0002:00009c28       ??_C@_04OMILFGAM@TSOP?$AA@ 00460c28     systeminfo.obj
 0002:00009c30       ??_C@_03IJABMKEA@PGA?$AA@  00460c30     systeminfo.obj
 0002:00009c34       ??_C@_04KAIHKMCF@RIMM?$AA@ 00460c34     systeminfo.obj
 0002:00009c3c       ??_C@_06PIFKKNPH@SODIMM?$AA@ 00460c3c     systeminfo.obj
 0002:00009c44       ??_C@_05FNHNIAMC@SRIMM?$AA@ 00460c44     systeminfo.obj
 0002:00009c4c       ??_C@_03OLFEBEDN@SMD?$AA@  00460c4c     systeminfo.obj
 0002:00009c50       ??_C@_04FNCPFOHC@SSMP?$AA@ 00460c50     systeminfo.obj
 0002:00009c58       ??_C@_03ENAIDDFH@QFD?$AA@  00460c58     systeminfo.obj
 0002:00009c5c       ??_C@_04EJFDKFAI@TQFP?$AA@ 00460c5c     systeminfo.obj
 0002:00009c64       ??_C@_04CBAGFPBL@SOIC?$AA@ 00460c64     systeminfo.obj
 0002:00009c6c       ??_C@_03KGPBOIDJ@LCC?$AA@  00460c6c     systeminfo.obj
 0002:00009c70       ??_C@_04HJIEAPPD@PLCC?$AA@ 00460c70     systeminfo.obj
 0002:00009c78       ??_C@_03HDBBFFFE@BGA?$AA@  00460c78     systeminfo.obj
 0002:00009c7c       ??_C@_05CIFANFB@FPBGA?$AA@ 00460c7c     systeminfo.obj
 0002:00009c84       ??_C@_03JDMOCCGH@LGA?$AA@  00460c84     systeminfo.obj
 0002:00009c88       ??_C@_0CC@FIPGLJJI@wmic?5memorychip?5get?5?1format?3?5lis@ 00460c88     systeminfo.obj
 0002:00009cac       ??_C@_04IFFFBHG@2?$DO?$CG1?$AA@ 00460cac     systeminfo.obj
 0002:00009cb4       ??_C@_01PPODPGHN@?$DO?$AA@ 00460cb4     systeminfo.obj
 0002:00009cb8       ??_C@_02PCIJFNDE@?$AN?6?$AA@ 00460cb8     systeminfo.obj
 0002:00009cbc       ??_C@_02LIIHNNHG@?6?$AN?$AA@ 00460cbc     systeminfo.obj
 0002:00009cc0       ??_C@_01EEMJAFIK@?6?$AA@   00460cc0     systeminfo.obj
 0002:00009cc4       ??_C@_05HIBJACPO@?52?$DO?$CG1?$AA@ 00460cc4     systeminfo.obj
 0002:00009ccc       ??_C@_01KDCPPGHE@r?$AA@    00460ccc     systeminfo.obj
 0002:00009cd0       ??_C@_01BJJEKLCA@?$CC?$AA@ 00460cd0     systeminfo.obj
 0002:00009cd4       ??_C@_0CD@LHOMMFEI@ERROR?3?5Failed?5to?5execute?5command@ 00460cd4     systeminfo.obj
 0002:00009cf8       ??_C@_0BD@OLBABOEK@vector?$DMT?$DO?5too?5long?$AA@ 00460cf8     systeminfo.obj
 0002:00009d10       ??_7?$_Func_impl@V<lambda_787d45c283701cc870e4fc26d5464600>@@V?$allocator@H@std@@V?$basic_string@DU?$char_traits@D@std@@V?$allocator@D@2@@3@ABV43@@std@@6B@ 00460d10     systeminfo.obj
 0002:00009d2c       ??_7?$basic_filebuf@DU?$char_traits@D@std@@@std@@6B@ 00460d2c     systeminfo.obj
 0002:00009d68       ??_8?$basic_stringstream@DU?$char_traits@D@std@@V?$allocator@D@2@@std@@7B?$basic_ostream@DU?$char_traits@D@std@@@1@@ 00460d68     systeminfo.obj
 0002:00009d74       ??_7bad_cast@std@@6B@      00460d74     systeminfo.obj
 0002:00009d80       ??_7?$basic_stringbuf@DU?$char_traits@D@std@@V?$allocator@D@2@@std@@6B@ 00460d80     systeminfo.obj
 0002:00009dc0       ??_7?$_Func_base@V?$basic_string@DU?$char_traits@D@std@@V?$allocator@D@2@@std@@ABV12@@std@@6B@ 00460dc0     systeminfo.obj
 0002:00009ddc       ??_7?$basic_stringstream@DU?$char_traits@D@std@@V?$allocator@D@2@@std@@6B@ 00460ddc     systeminfo.obj
 0002:00009de0       ??_8?$basic_ifstream@DU?$char_traits@D@std@@@std@@7B@ 00460de0     systeminfo.obj
 0002:00009de8       ??_8?$basic_stringstream@DU?$char_traits@D@std@@V?$allocator@D@2@@std@@7B?$basic_istream@DU?$char_traits@D@std@@@1@@ 00460de8     systeminfo.obj
 0002:00009df4       ??_7?$basic_ifstream@DU?$char_traits@D@std@@@std@@6B@ 00460df4     systeminfo.obj
 0002:00009df8       __real@3c23d70a            00460df8     Main.obj
 0002:00009dfc       __real@3f000000            00460dfc     Main.obj
 0002:00009e00       __real@3faccccd            00460e00     Main.obj
 0002:00009e04       __real@40a00000            00460e04     Main.obj
 0002:00009e08       __real@41a00000            00460e08     Main.obj
 0002:00009e0c       __real@420a0000            00460e0c     Main.obj
 0002:00009e10       __real@42480000            00460e10     Main.obj
 0002:00009e14       __real@42a00000            00460e14     Main.obj
 0002:00009e58       __load_config_used         00460e58     MSVCRT:loadcfg.obj
 0002:00009eb4       ??_R4type_info@@6B@        00460eb4     MSVCRT:std_type_info_static.obj
 0002:00009ec8       ??_R3type_info@@8          00460ec8     MSVCRT:std_type_info_static.obj
 0002:00009ed8       ??_R2type_info@@8          00460ed8     MSVCRT:std_type_info_static.obj
 0002:00009ee0       ??_R1A@?0A@EA@type_info@@8 00460ee0     MSVCRT:std_type_info_static.obj
 0002:00009efc       ??_R4bad_alloc@std@@6B@    00460efc     MSVCRT:throw_bad_alloc.obj
 0002:00009f10       ??_R3bad_alloc@std@@8      00460f10     MSVCRT:throw_bad_alloc.obj
 0002:00009f20       ??_R2bad_alloc@std@@8      00460f20     MSVCRT:throw_bad_alloc.obj
 0002:00009f2c       ??_R1A@?0A@EA@bad_alloc@std@@8 00460f2c     MSVCRT:throw_bad_alloc.obj
 0002:00009f48       ??_R4bad_array_new_length@std@@6B@ 00460f48     MSVCRT:throw_bad_alloc.obj
 0002:00009f5c       ??_R3bad_array_new_length@std@@8 00460f5c     MSVCRT:throw_bad_alloc.obj
 0002:00009f6c       ??_R2bad_array_new_length@std@@8 00460f6c     MSVCRT:throw_bad_alloc.obj
 0002:00009f7c       ??_R1A@?0A@EA@bad_array_new_length@std@@8 00460f7c     MSVCRT:throw_bad_alloc.obj
 0002:00009f98       ??_R3?$_Func_base@V?$basic_string@DU?$char_traits@D@std@@V?$allocator@D@2@@std@@ABV12@@std@@8 00460f98     systeminfo.obj
 0002:00009fa8       ??_R3?$basic_istream@DU?$char_traits@D@std@@@std@@8 00460fa8     systeminfo.obj
 0002:00009fb8       ??_R3?$basic_iostream@DU?$char_traits@D@std@@@std@@8 00460fb8     systeminfo.obj
 0002:00009fc8       ??_R4exception@std@@6B@    00460fc8     systeminfo.obj
 0002:00009fdc       ??_R1A@?0A@EA@?$basic_istream@DU?$char_traits@D@std@@@std@@8 00460fdc     systeminfo.obj
 0002:00009ff8       ??_R1A@?0A@EA@?$_Func_base@V?$basic_string@DU?$char_traits@D@std@@V?$allocator@D@2@@std@@ABV12@@std@@8 00460ff8     systeminfo.obj
 0002:0000a014       ??_R1A@?0A@EA@bad_cast@std@@8 00461014     systeminfo.obj
 0002:0000a030       ??_R3?$basic_ifstream@DU?$char_traits@D@std@@@std@@8 00461030     systeminfo.obj
 0002:0000a040       ??_R4?$_Func_impl@V<lambda_787d45c283701cc870e4fc26d5464600>@@V?$allocator@H@std@@V?$basic_string@DU?$char_traits@D@std@@V?$allocator@D@2@@3@ABV43@@std@@6B@ 00461040     systeminfo.obj
 0002:0000a054       ??_R2?$basic_stringbuf@DU?$char_traits@D@std@@V?$allocator@D@2@@std@@8 00461054     systeminfo.obj
 0002:0000a060       ??_R3?$_Func_impl@V<lambda_787d45c283701cc870e4fc26d5464600>@@V?$allocator@H@std@@V?$basic_string@DU?$char_traits@D@std@@V?$allocator@D@2@@3@ABV43@@std@@8 00461060     systeminfo.obj
 0002:0000a070       ??_R1A@?0A@EA@?$basic_ifstream@DU?$char_traits@D@std@@@std@@8 00461070     systeminfo.obj
 0002:0000a08c       ??_R17A@3EA@?$_Iosb@H@std@@8 0046108c     systeminfo.obj
 0002:0000a0a8       ??_R1A@?0A@EA@?$basic_stringstream@DU?$char_traits@D@std@@V?$allocator@D@2@@std@@8 004610a8     systeminfo.obj
 0002:0000a0c4       ??_R1A@?0A@EA@exception@std@@8 004610c4     systeminfo.obj
 0002:0000a0e0       ??_R1A@?0A@EA@?$basic_streambuf@DU?$char_traits@D@std@@@std@@8 004610e0     systeminfo.obj
 0002:0000a0fc       ??_R2?$basic_istream@DU?$char_traits@D@std@@@std@@8 004610fc     systeminfo.obj
 0002:0000a110       ??_R3?$basic_stringbuf@DU?$char_traits@D@std@@V?$allocator@D@2@@std@@8 00461110     systeminfo.obj
 0002:0000a120       ??_R2bad_cast@std@@8       00461120     systeminfo.obj
 0002:0000a12c       ??_R2exception@std@@8      0046112c     systeminfo.obj
 0002:0000a134       ??_R2?$basic_ostream@DU?$char_traits@D@std@@@std@@8 00461134     systeminfo.obj
 0002:0000a148       ??_R3?$basic_ios@DU?$char_traits@D@std@@@std@@8 00461148     systeminfo.obj
 0002:0000a158       ??_R2?$_Func_impl@V<lambda_787d45c283701cc870e4fc26d5464600>@@V?$allocator@H@std@@V?$basic_string@DU?$char_traits@D@std@@V?$allocator@D@2@@3@ABV43@@std@@8 00461158     systeminfo.obj
 0002:0000a164       ??_R1BA@?0A@EA@?$basic_ostream@DU?$char_traits@D@std@@@std@@8 00461164     systeminfo.obj
 0002:0000a180       ??_R4?$basic_ifstream@DU?$char_traits@D@std@@@std@@6B@ 00461180     systeminfo.obj
 0002:0000a194       ??_R1A@?0A@EA@ios_base@std@@8 00461194     systeminfo.obj
 0002:0000a1b0       ??_R3exception@std@@8      004611b0     systeminfo.obj
 0002:0000a1c0       ??_R1A@?0A@EA@?$basic_ostream@DU?$char_traits@D@std@@@std@@8 004611c0     systeminfo.obj
 0002:0000a1dc       ??_R4?$basic_filebuf@DU?$char_traits@D@std@@@std@@6B@ 004611dc     systeminfo.obj
 0002:0000a1f0       ??_R2?$basic_streambuf@DU?$char_traits@D@std@@@std@@8 004611f0     systeminfo.obj
 0002:0000a1f8       ??_R1A@?0A@EA@?$_Iosb@H@std@@8 004611f8     systeminfo.obj
 0002:0000a214       ??_R1A@?0A@EA@?$basic_stringbuf@DU?$char_traits@D@std@@V?$allocator@D@2@@std@@8 00461214     systeminfo.obj
 0002:0000a230       ??_R1A@?0A@EA@?$_Func_impl@V<lambda_787d45c283701cc870e4fc26d5464600>@@V?$allocator@H@std@@V?$basic_string@DU?$char_traits@D@std@@V?$allocator@D@2@@3@ABV43@@std@@8 00461230     systeminfo.obj
 0002:0000a24c       ??_R4?$_Func_base@V?$basic_string@DU?$char_traits@D@std@@V?$allocator@D@2@@std@@ABV12@@std@@6B@ 0046124c     systeminfo.obj
 0002:0000a260       ??_R2?$basic_iostream@DU?$char_traits@D@std@@@std@@8 00461260     systeminfo.obj
 0002:0000a288       ??_R3bad_cast@std@@8       00461288     systeminfo.obj
 0002:0000a298       ??_R2?$basic_stringstream@DU?$char_traits@D@std@@V?$allocator@D@2@@std@@8 00461298     systeminfo.obj
 0002:0000a2c4       ??_R4bad_cast@std@@6B@     004612c4     systeminfo.obj
 0002:0000a2d8       ??_R4?$basic_stringbuf@DU?$char_traits@D@std@@V?$allocator@D@2@@std@@6B@ 004612d8     systeminfo.obj
 0002:0000a2ec       ??_R4?$basic_stringstream@DU?$char_traits@D@std@@V?$allocator@D@2@@std@@6B@ 004612ec     systeminfo.obj
 0002:0000a300       ??_R1A@?0A@EA@?$basic_filebuf@DU?$char_traits@D@std@@@std@@8 00461300     systeminfo.obj
 0002:0000a31c       ??_R1A@A@3FA@?$basic_ios@DU?$char_traits@D@std@@@std@@8 0046131c     systeminfo.obj
 0002:0000a338       ??_R3?$basic_filebuf@DU?$char_traits@D@std@@@std@@8 00461338     systeminfo.obj
 0002:0000a348       ??_R2ios_base@std@@8       00461348     systeminfo.obj
 0002:0000a354       ??_R3?$basic_ostream@DU?$char_traits@D@std@@@std@@8 00461354     systeminfo.obj
 0002:0000a364       ??_R1A@?0A@EA@?$basic_iostream@DU?$char_traits@D@std@@@std@@8 00461364     systeminfo.obj
 0002:0000a380       ??_R3ios_base@std@@8       00461380     systeminfo.obj
 0002:0000a390       ??_R2?$basic_filebuf@DU?$char_traits@D@std@@@std@@8 00461390     systeminfo.obj
 0002:0000a39c       ??_R3?$basic_streambuf@DU?$char_traits@D@std@@@std@@8 0046139c     systeminfo.obj
 0002:0000a3ac       ??_R3?$basic_stringstream@DU?$char_traits@D@std@@V?$allocator@D@2@@std@@8 004613ac     systeminfo.obj
 0002:0000a3bc       ??_R2?$_Iosb@H@std@@8      004613bc     systeminfo.obj
 0002:0000a3c4       ??_R1A@A@3EA@ios_base@std@@8 004613c4     systeminfo.obj
 0002:0000a3e0       ??_R1A@?0A@EA@?$basic_ios@DU?$char_traits@D@std@@@std@@8 004613e0     systeminfo.obj
 0002:0000a3fc       ??_R2?$basic_ifstream@DU?$char_traits@D@std@@@std@@8 004613fc     systeminfo.obj
 0002:0000a414       ??_R3?$_Iosb@H@std@@8      00461414     systeminfo.obj
 0002:0000a424       ??_R17?0A@EA@?$_Iosb@H@std@@8 00461424     systeminfo.obj
 0002:0000a440       ??_R2?$_Func_base@V?$basic_string@DU?$char_traits@D@std@@V?$allocator@D@2@@std@@ABV12@@std@@8 00461440     systeminfo.obj
 0002:0000a448       ??_R2?$basic_ios@DU?$char_traits@D@std@@@std@@8 00461448     systeminfo.obj
 0002:0000a460       ___safe_se_handler_table   00461460     <linker-defined>
 0002:0000a844       ___rtc_iaa                 00461844     MSVCRT:_initsect_.obj
 0002:0000a848       ___rtc_izz                 00461848     MSVCRT:_initsect_.obj
 0002:0000a84c       ___rtc_taa                 0046184c     MSVCRT:_initsect_.obj
 0002:0000a850       ___rtc_tzz                 00461850     MSVCRT:_initsect_.obj
 0002:0000bfac       __TI2?AVbad_alloc@std@@    00462fac     MSVCRT:throw_bad_alloc.obj
 0002:0000bfbc       __CTA2?AVbad_alloc@std@@   00462fbc     MSVCRT:throw_bad_alloc.obj
 0002:0000bfc8       __CT??_R0?AVbad_alloc@std@@@8??0bad_alloc@std@@QAE@ABV01@@Z12 00462fc8     MSVCRT:throw_bad_alloc.obj
 0002:0000bfe4       __TI3?AVbad_array_new_length@std@@ 00462fe4     MSVCRT:throw_bad_alloc.obj
 0002:0000bff4       __CTA3?AVbad_array_new_length@std@@ 00462ff4     MSVCRT:throw_bad_alloc.obj
 0002:0000c004       __CT??_R0?AVbad_array_new_length@std@@@8??0bad_array_new_length@std@@QAE@ABV01@@Z12 00463004     MSVCRT:throw_bad_alloc.obj
 0002:0000c020       __CT??_R0?AVbad_cast@std@@@8??0bad_cast@std@@QAE@ABV01@@Z12 00463020     systeminfo.obj
 0002:0000c03c       __CTA2?AVbad_cast@std@@    0046303c     systeminfo.obj
 0002:0000c048       __TI2?AVbad_cast@std@@     00463048     systeminfo.obj
 0002:0000c058       __CT??_R0?AVexception@std@@@8??0exception@std@@QAE@ABV01@@Z12 00463058     systeminfo.obj
 0002:0000c074       __IMPORT_DESCRIPTOR_KERNEL32 00463074     kernel32:KERNEL32.dll
 0002:0000c088       __IMPORT_DESCRIPTOR_USER32 00463088     user32:USER32.dll
 0002:0000c09c       __IMPORT_DESCRIPTOR_GDI32  0046309c     gdi32:GDI32.dll
 0002:0000c0b0       __IMPORT_DESCRIPTOR_ADVAPI32 004630b0     advapi32:ADVAPI32.dll
 0002:0000c0c4       __IMPORT_DESCRIPTOR_MSVCP140 004630c4     msvcprt:MSVCP140.dll
 0002:0000c0d8       __IMPORT_DESCRIPTOR_d3d9   004630d8     d3d9:d3d9.dll
 0002:0000c0ec       __IMPORT_DESCRIPTOR_d3dx9_43 004630ec     d3dx9:d3dx9_43.dll
 0002:0000c100       __IMPORT_DESCRIPTOR_WS2_32 00463100     ws2_32:WS2_32.dll
 0002:0000c114       __IMPORT_DESCRIPTOR_WLDAP32 00463114     wldap32:WLDAP32.dll
 0002:0000c128       __IMPORT_DESCRIPTOR_VCRUNTIME140 00463128     vcruntime:VCRUNTIME140.dll
 0002:0000c13c       __IMPORT_DESCRIPTOR_api-ms-win-crt-stdio-l1-1-0 0046313c     ucrt:api-ms-win-crt-stdio-l1-1-0.dll
 0002:0000c150       __IMPORT_DESCRIPTOR_api-ms-win-crt-runtime-l1-1-0 00463150     ucrt:api-ms-win-crt-runtime-l1-1-0.dll
 0002:0000c164       __IMPORT_DESCRIPTOR_api-ms-win-crt-convert-l1-1-0 00463164     ucrt:api-ms-win-crt-convert-l1-1-0.dll
 0002:0000c178       __IMPORT_DESCRIPTOR_api-ms-win-crt-time-l1-1-0 00463178     ucrt:api-ms-win-crt-time-l1-1-0.dll
 0002:0000c18c       __IMPORT_DESCRIPTOR_api-ms-win-crt-filesystem-l1-1-0 0046318c     ucrt:api-ms-win-crt-filesystem-l1-1-0.dll
 0002:0000c1a0       __IMPORT_DESCRIPTOR_api-ms-win-crt-heap-l1-1-0 004631a0     ucrt:api-ms-win-crt-heap-l1-1-0.dll
 0002:0000c1b4       __IMPORT_DESCRIPTOR_api-ms-win-crt-math-l1-1-0 004631b4     ucrt:api-ms-win-crt-math-l1-1-0.dll
 0002:0000c1c8       __IMPORT_DESCRIPTOR_api-ms-win-crt-locale-l1-1-0 004631c8     ucrt:api-ms-win-crt-locale-l1-1-0.dll
 0002:0000c1dc       __IMPORT_DESCRIPTOR_api-ms-win-crt-string-l1-1-0 004631dc     ucrt:api-ms-win-crt-string-l1-1-0.dll
 0002:0000c1f0       __IMPORT_DESCRIPTOR_api-ms-win-crt-utility-l1-1-0 004631f0     ucrt:api-ms-win-crt-utility-l1-1-0.dll
 0002:0000c204       __IMPORT_DESCRIPTOR_api-ms-win-crt-multibyte-l1-1-0 00463204     ucrt:api-ms-win-crt-multibyte-l1-1-0.dll
 0002:0000c218       __NULL_IMPORT_DESCRIPTOR   00463218     kernel32:KERNEL32.dll
 0003:00000000       ___scrt_native_dllmain_reason 00466000     MSVCRT:utility.obj
 0003:00000004       ___security_cookie_complement 00466004     MSVCRT:gs_cookie.obj
 0003:00000008       ___security_cookie         00466008     MSVCRT:gs_cookie.obj
 0003:00000010       ___isa_enabled             00466010     MSVCRT:_cpu_disp_.obj
 0003:00000014       ___scrt_default_matherr    00466014     MSVCRT:matherr.obj
 0003:00000018       _Curl_cmalloc              00466018     libcurl:easy.obj
 0003:0000001c       _Curl_cfree                0046601c     libcurl:easy.obj
 0003:00000020       _Curl_crealloc             00466020     libcurl:easy.obj
 0003:00000024       _Curl_cstrdup              00466024     libcurl:easy.obj
 0003:00000028       _Curl_ccalloc              00466028     libcurl:easy.obj
 0003:00000040       __fltused                  00466040     MSVCRT:fltused.obj
 0003:00000050       ___scrt_ucrt_dll_is_in_use 00466050     MSVCRT:ucrt_stubs.obj
 0003:00000058       ??_R0?AVtype_info@@@8      00466058     MSVCRT:std_type_info_static.obj
 0003:00000070       ??_R0?AVbad_alloc@std@@@8  00466070     MSVCRT:throw_bad_alloc.obj
 0003:0000008c       ??_R0?AVbad_array_new_length@std@@@8 0046608c     MSVCRT:throw_bad_alloc.obj
 0003:000000b8       ??_R0?AV?$basic_stringstream@DU?$char_traits@D@std@@V?$allocator@D@2@@std@@@8 004660b8     systeminfo.obj
 0003:00000108       ??_R0?AV?$basic_filebuf@DU?$char_traits@D@std@@@std@@@8 00466108     systeminfo.obj
 0003:00000144       ??_R0?AV?$basic_ifstream@DU?$char_traits@D@std@@@std@@@8 00466144     systeminfo.obj
 0003:00000180       ??_R0?AV?$_Func_impl@V<lambda_787d45c283701cc870e4fc26d5464600>@@V?$allocator@H@std@@V?$basic_string@DU?$char_traits@D@std@@V?$allocator@D@2@@3@ABV43@@std@@@8 00466180     systeminfo.obj
 0003:00000228       ??_R0?AV?$basic_stringbuf@DU?$char_traits@D@std@@V?$allocator@D@2@@std@@@8 00466228     systeminfo.obj
 0003:00000278       ??_R0?AVios_base@std@@@8   00466278     systeminfo.obj
 0003:00000294       ??_R0?AV?$basic_iostream@DU?$char_traits@D@std@@@std@@@8 00466294     systeminfo.obj
 0003:000002d0       ??_R0?AV?$_Func_base@V?$basic_string@DU?$char_traits@D@std@@V?$allocator@D@2@@std@@ABV12@@std@@@8 004662d0     systeminfo.obj
 0003:00000334       ??_R0?AV?$_Iosb@H@std@@@8  00466334     systeminfo.obj
 0003:00000350       ??_R0?AV?$basic_streambuf@DU?$char_traits@D@std@@@std@@@8 00466350     systeminfo.obj
 0003:0000038c       ??_R0?AVbad_cast@std@@@8   0046638c     systeminfo.obj
 0003:000003a8       ??_R0?AV?$basic_istream@DU?$char_traits@D@std@@@std@@@8 004663a8     systeminfo.obj
 0003:000003e4       ??_R0?AV?$basic_ios@DU?$char_traits@D@std@@@std@@@8 004663e4     systeminfo.obj
 0003:0000041c       ??_R0?AV?$basic_ostream@DU?$char_traits@D@std@@@std@@@8 0046641c     systeminfo.obj
 0003:00000458       ??_R0?AV<lambda_787d45c283701cc870e4fc26d5464600>@@@8 00466458     systeminfo.obj
 0003:00000490       ??_R0?AVexception@std@@@8  00466490     systeminfo.obj
 0003:000004b8       ___scrt_current_native_startup_state 004664b8     MSVCRT:utility.obj
 0003:000004bc       ___scrt_native_startup_lock 004664bc     MSVCRT:utility.obj
 0003:000007fc       ___isa_available           004667fc     MSVCRT:_cpu_disp_.obj
 0003:00000800       ___favor                   00466800     MSVCRT:_cpu_disp_.obj
 0003:00000804       ___scrt_debugger_hook_flag 00466804     MSVCRT:utility_desktop.obj
 0003:00000808       ?__type_info_root_node@@3U__type_info_node@@A 00466808     MSVCRT:tncleanup.obj
 0003:00000810       ?_OptionsStorage@?1??__local_stdio_scanf_options@@9@4_KA 00466810     MSVCRT:default_local_stdio_options.obj
 0003:00000834       _Curl_if_nametoindex       00466834     libcurl:system_win32.obj
 0003:00000860       ?Form@@3UtagRECT@@A        00466860     Main.obj
 0003:00000870       ?g_hWnd@@3PAUHWND__@@A     00466870     Main.obj
 0003:00000874       ?g_d3dpp@@3U_D3DPRESENT_PARAMETERS_@@A 00466874     Main.obj
 0003:000008ac       ?g_pd3dDevice@@3PAUIDirect3DDevice9@@A 004668ac     Main.obj
 0003:000008b0       ?g_line@@3PAUID3DXLine@@A  004668b0     Main.obj
 0003:000008b4       ?g_pd3d@@3PAUIDirect3D9@@A 004668b4     Main.obj
 0003:000008b8       ?g_hProcess@@3PAXA         004668b8     Main.obj
 0003:000008bc       ?screen_height@@3MA        004668bc     Main.obj
 0003:000008c0       ?screen_width@@3MA         004668c0     Main.obj
 0003:000008c4       ?g_game_dll_base@@3KA      004668c4     Main.obj
 0003:000008c8       ?g_hWarcraftWnd@@3PAUHWND__@@A 004668c8     Main.obj
 0003:000008d0       ?view_matrix@@3U_D3DXMATRIXA16@@A 004668d0     Main.obj
 0003:00000910       ?view_matrix_temp@@3U_D3DXMATRIXA16@@A 00466910     Main.obj
 0003:00000950       ?CLOCK_SPEED_IDENTIFIER_STRING@RAMInfo@@0V?$basic_string@DU?$char_traits@D@std@@V?$allocator@D@2@@std@@B 00466950     systeminfo.obj
 0003:00000968       ?NUMBER_OF_CORES_IDENTIFIER_STRING@CPUInfo@@0V?$basic_string@DU?$char_traits@D@std@@V?$allocator@D@2@@std@@B 00466968     systeminfo.obj
 0003:00000980       ?VERSION_IDENTIFIER_STRING@OSInfo@@0V?$basic_string@DU?$char_traits@D@std@@V?$allocator@D@2@@std@@B 00466980     systeminfo.obj
 0003:00000998       ?TOTAL_VISIBLE_MEMORY_SIZE_IDENTIFIER_STRING@OSInfo@@0V?$basic_string@DU?$char_traits@D@std@@V?$allocator@D@2@@std@@B 00466998     systeminfo.obj
 0003:000009b0       ?MOTHERBOARD_INFO_END_IDENTIFIER_STRING@MotherboardInfoDelegate@@0V?$basic_string@DU?$char_traits@D@std@@V?$allocator@D@2@@std@@B 004669b0     systeminfo.obj
 0003:000009c8       ?ADAPTER_RAM_IDENTIFIER_STRING@GPUInfo@@0V?$basic_string@DU?$char_traits@D@std@@V?$allocator@D@2@@std@@B 004669c8     systeminfo.obj
 0003:000009e0       ?CURRENT_DATE_TIME_QUERY_STRING@OSInfo@@0V?$basic_string@DU?$char_traits@D@std@@V?$allocator@D@2@@std@@B 004669e0     systeminfo.obj
 0003:000009f8       ?FORM_FACTOR_IDENTIFIER_STRING@RAMInfo@@0V?$basic_string@DU?$char_traits@D@std@@V?$allocator@D@2@@std@@B 004669f8     systeminfo.obj
 0003:00000a10       ?RAM_INFO_END_IDENTIFIER_STRING@RAMInfoDelegate@@0V?$basic_string@DU?$char_traits@D@std@@V?$allocator@D@2@@std@@B 00466a10     systeminfo.obj
 0003:00000a28       ?RAM_INSTANCE_QUERY_STRING@RAMInfoDelegate@@0V?$basic_string@DU?$char_traits@D@std@@V?$allocator@D@2@@std@@B 00466a28     systeminfo.obj
 0003:00000a40       ?VIDEO_MODE_DESCRIPTION_IDENTIFIER_STRING@GPUInfo@@0V?$basic_string@DU?$char_traits@D@std@@V?$allocator@D@2@@std@@B 00466a40     systeminfo.obj
 0003:00000a58       ?SERIAL_NUMBER_IDENTIFIER_STRING@RAMInfo@@0V?$basic_string@DU?$char_traits@D@std@@V?$allocator@D@2@@std@@B 00466a58     systeminfo.obj
 0003:00000a70       ?USED_SPACE_IN_PAGING_FILE_QUERY_STRING@OSInfo@@0V?$basic_string@DU?$char_traits@D@std@@V?$allocator@D@2@@std@@B 00466a70     systeminfo.obj
 0003:00000a88       ?FREE_PHYSICAL_MEMORY_QUERY_STRING@OSInfo@@0V?$basic_string@DU?$char_traits@D@std@@V?$allocator@D@2@@std@@B 00466a88     systeminfo.obj
 0003:00000aa0       ?CAPTION_INDENTIFIER_STRING@OSInfo@@0V?$basic_string@DU?$char_traits@D@std@@V?$allocator@D@2@@std@@B 00466aa0     systeminfo.obj
 0003:00000ab8       ?CPU_INSTANCE_QUERY_STRING@CPUInfoDelegate@@0V?$basic_string@DU?$char_traits@D@std@@V?$allocator@D@2@@std@@B 00466ab8     systeminfo.obj
 0003:00000ad0       ?LAST_BOOT_UP_TIME_IDENTIFIER_STRING@OSInfo@@0V?$basic_string@DU?$char_traits@D@std@@V?$allocator@D@2@@std@@B 00466ad0     systeminfo.obj
 0003:00000ae8       ?L2_CACHE_SIZE_IDENTIFIER_STRING@CPUInfo@@0V?$basic_string@DU?$char_traits@D@std@@V?$allocator@D@2@@std@@B 00466ae8     systeminfo.obj
 0003:00000b00       ?CPU_INFO_QUERY_STRING@CPUInfoDelegate@@0V?$basic_string@DU?$char_traits@D@std@@V?$allocator@D@2@@std@@B 00466b00     systeminfo.obj
 0003:00000b18       ?FREE_SPACE_IN_PAGING_FILES_IDENTIFIER_STRING@OSInfo@@0V?$basic_string@DU?$char_traits@D@std@@V?$allocator@D@2@@std@@B 00466b18     systeminfo.obj
 0003:00000b30       ?MANUFACTURER_IDENTIFIER_STRING@MotherboardInfo@@0V?$basic_string@DU?$char_traits@D@std@@V?$allocator@D@2@@std@@B 00466b30     systeminfo.obj
 0003:00000b48       ?MANUFACTURER_IDENTIFIER_STRING@RAMInfo@@0V?$basic_string@DU?$char_traits@D@std@@V?$allocator@D@2@@std@@B 00466b48     systeminfo.obj
 0003:00000b60       ?CHIPSET_QUERY_STRING@MotherboardInfo@@0V?$basic_string@DU?$char_traits@D@std@@V?$allocator@D@2@@std@@B 00466b60     systeminfo.obj
 0003:00000b78       ?FREE_VIRTUAL_MEMORY_IDENTIFIER_STRING@OSInfo@@0V?$basic_string@DU?$char_traits@D@std@@V?$allocator@D@2@@std@@B 00466b78     systeminfo.obj
 0003:00000b90       ?FREE_SPACE_IN_PAGING_FILES_QUERY_STRING@OSInfo@@0V?$basic_string@DU?$char_traits@D@std@@V?$allocator@D@2@@std@@B 00466b90     systeminfo.obj
 0003:00000ba8       ?TEMPERATURE_QUERY_STRING@CPUInfo@@0V?$basic_string@DU?$char_traits@D@std@@V?$allocator@D@2@@std@@B 00466ba8     systeminfo.obj
 0003:00000bc0       ?VIDEO_MEMORY_TYPE_IDENTIFIER_STRING@GPUInfo@@0V?$basic_string@DU?$char_traits@D@std@@V?$allocator@D@2@@std@@B 00466bc0     systeminfo.obj
 0003:00000bd8       ?CHIPSET_END_IDENTIFIER_STRING@MotherboardInfo@@0V?$basic_string@DU?$char_traits@D@std@@V?$allocator@D@2@@std@@B 00466bd8     systeminfo.obj
 0003:00000bf0       ?BACKUP_CLOCK_SPEED_IDENTIFIER_STRING@RAMInfo@@0V?$basic_string@DU?$char_traits@D@std@@V?$allocator@D@2@@std@@B 00466bf0     systeminfo.obj
 0003:00000c08       ?ARCHITECTURE_IDENTIFIER_STRING@CPUInfo@@0V?$basic_string@DU?$char_traits@D@std@@V?$allocator@D@2@@std@@B 00466c08     systeminfo.obj
 0003:00000c20       ?USED_SPACE_IN_PAGING_FILE_IDENTIFIER_STRING@OSInfo@@0V?$basic_string@DU?$char_traits@D@std@@V?$allocator@D@2@@std@@B 00466c20     systeminfo.obj
 0003:00000c38       ?SERIAL_NUMBER_IDENTIFIER_STRING@OSInfo@@0V?$basic_string@DU?$char_traits@D@std@@V?$allocator@D@2@@std@@B 00466c38     systeminfo.obj
 0003:00000c50       ?MOTHERBOARD_INSTANCE_QUERY_STRING@MotherboardInfoDelegate@@0V?$basic_string@DU?$char_traits@D@std@@V?$allocator@D@2@@std@@B 00466c50     systeminfo.obj
 0003:00000c68       ?NAME_IDENTIFIER_STRING@GPUInfo@@0V?$basic_string@DU?$char_traits@D@std@@V?$allocator@D@2@@std@@B 00466c68     systeminfo.obj
 0003:00000c80       ?MANUFACTURER_IDENTIFIER_STRING@GPUInfo@@0V?$basic_string@DU?$char_traits@D@std@@V?$allocator@D@2@@std@@B 00466c80     systeminfo.obj
 0003:00000c98       ?MEMORY_TYPE_IDENTIFIER_STRING@RAMInfo@@0V?$basic_string@DU?$char_traits@D@std@@V?$allocator@D@2@@std@@B 00466c98     systeminfo.obj
 0003:00000cb0       ?CAPACITY_IDENTIFIER_STRING@RAMInfo@@0V?$basic_string@DU?$char_traits@D@std@@V?$allocator@D@2@@std@@B 00466cb0     systeminfo.obj
 0003:00000cc8       ?BOOT_DEVICE_IDENTIFIER_STRING@OSInfo@@0V?$basic_string@DU?$char_traits@D@std@@V?$allocator@D@2@@std@@B 00466cc8     systeminfo.obj
 0003:00000ce0       ?ARCHITECTURE_IDENTIFIER_STRING@OSInfo@@0V?$basic_string@DU?$char_traits@D@std@@V?$allocator@D@2@@std@@B 00466ce0     systeminfo.obj
 0003:00000cf8       ?INSTALL_DATE_IDENTIFIER_STRING@OSInfo@@0V?$basic_string@DU?$char_traits@D@std@@V?$allocator@D@2@@std@@B 00466cf8     systeminfo.obj
 0003:00000d10       ?AMD_IDENTIFIER_STRING@GPUInfo@@0V?$basic_string@DU?$char_traits@D@std@@V?$allocator@D@2@@std@@B 00466d10     systeminfo.obj
 0003:00000d28       ?NVIDIA_IDENTIFIER_STRING@GPUInfo@@0V?$basic_string@DU?$char_traits@D@std@@V?$allocator@D@2@@std@@B 00466d28     systeminfo.obj
 0003:00000d40       ?VIDEO_PROCESSOR_IDENTIFIER_STRING@GPUInfo@@0V?$basic_string@DU?$char_traits@D@std@@V?$allocator@D@2@@std@@B 00466d40     systeminfo.obj
 0003:00000d58       ?NAME_IDENTIFIER_STRING@MotherboardInfo@@0V?$basic_string@DU?$char_traits@D@std@@V?$allocator@D@2@@std@@B 00466d58     systeminfo.obj
 0003:00000d70       ?RAM_INFO_QUERY_STRING@RAMInfoDelegate@@0V?$basic_string@DU?$char_traits@D@std@@V?$allocator@D@2@@std@@B 00466d70     systeminfo.obj
 0003:00000d88       ?MANUFACTURER_IDENTIFIER_STRING@OSInfo@@0V?$basic_string@DU?$char_traits@D@std@@V?$allocator@D@2@@std@@B 00466d88     systeminfo.obj
 0003:00000da0       ?PART_NUMBER_IDENTIFIER_STRING@RAMInfo@@0V?$basic_string@DU?$char_traits@D@std@@V?$allocator@D@2@@std@@B 00466da0     systeminfo.obj
 0003:00000db8       ?GPU_INFO_END_IDENTIFIER_STRING@GPUInfoDelegate@@0V?$basic_string@DU?$char_traits@D@std@@V?$allocator@D@2@@std@@B 00466db8     systeminfo.obj
 0003:00000dd0       ?VERSION_IDENTIFIER_STRING@MotherboardInfo@@0V?$basic_string@DU?$char_traits@D@std@@V?$allocator@D@2@@std@@B 00466dd0     systeminfo.obj
 0003:00000de8       ?NAME_IDENTIFIER_STRING@CPUInfo@@0V?$basic_string@DU?$char_traits@D@std@@V?$allocator@D@2@@std@@B 00466de8     systeminfo.obj
 0003:00000e00       ?CURRENT_USER_IDENTIFIER_STRING@OSInfo@@0V?$basic_string@DU?$char_traits@D@std@@V?$allocator@D@2@@std@@B 00466e00     systeminfo.obj
 0003:00000e18       ?OS_INSTANCE_QUERY_STRING@OSInfoDelegate@@0V?$basic_string@DU?$char_traits@D@std@@V?$allocator@D@2@@std@@B 00466e18     systeminfo.obj
 0003:00000e30       ?MANUFACTURER_IDENTIFIER_STRING@CPUInfo@@0V?$basic_string@DU?$char_traits@D@std@@V?$allocator@D@2@@std@@B 00466e30     systeminfo.obj
 0003:00000e48       ?FREE_PHYSICAL_MEMORY_IDENTIFIER_STRING@OSInfo@@0V?$basic_string@DU?$char_traits@D@std@@V?$allocator@D@2@@std@@B 00466e48     systeminfo.obj
 0003:00000e60       ?CLOCK_SPEED_QUERY_STRING@CPUInfo@@0V?$basic_string@DU?$char_traits@D@std@@V?$allocator@D@2@@std@@B 00466e60     systeminfo.obj
 0003:00000e78       ?TEMPERATURE_ERROR_IDENTIFIER_STRING@CPUInfo@@0V?$basic_string@DU?$char_traits@D@std@@V?$allocator@D@2@@std@@B 00466e78     systeminfo.obj
 0003:00000e90       ?REFRESH_RATE_IDENTIFIER_STRING@GPUInfo@@0V?$basic_string@DU?$char_traits@D@std@@V?$allocator@D@2@@std@@B 00466e90     systeminfo.obj
 0003:00000ea8       ?TOTAL_SWAP_SIZE_IDENTIFIER_STRING@OSInfo@@0V?$basic_string@DU?$char_traits@D@std@@V?$allocator@D@2@@std@@B 00466ea8     systeminfo.obj
 0003:00000ec0       ?CHIPSET_IDENTIFIER_STRING@MotherboardInfo@@0V?$basic_string@DU?$char_traits@D@std@@V?$allocator@D@2@@std@@B 00466ec0     systeminfo.obj
 0003:00000ed8       ?CAPTION_IDENTIFIER_STRING@GPUInfo@@0V?$basic_string@DU?$char_traits@D@std@@V?$allocator@D@2@@std@@B 00466ed8     systeminfo.obj
 0003:00000ef0       ?BUILD_NUMBER_IDENTIFIER_STRING@OSInfo@@0V?$basic_string@DU?$char_traits@D@std@@V?$allocator@D@2@@std@@B 00466ef0     systeminfo.obj
 0003:00000f08       ?VIDEO_ARCHITECTURE_IDENTIFIER_STRING@GPUInfo@@0V?$basic_string@DU?$char_traits@D@std@@V?$allocator@D@2@@std@@B 00466f08     systeminfo.obj
 0003:00000f20       ?CPU_INFO_END_IDENTIFIER_STRING@CPUInfoDelegate@@0V?$basic_string@DU?$char_traits@D@std@@V?$allocator@D@2@@std@@B 00466f20     systeminfo.obj
 0003:00000f38       ?GPU_INFO_QUERY_STRING@GPUInfoDelegate@@0V?$basic_string@DU?$char_traits@D@std@@V?$allocator@D@2@@std@@B 00466f38     systeminfo.obj
 0003:00000f50       ?TOTAL_VIRTUAL_MEMORY_SIZE_IDENTIFIER_STRING@OSInfo@@0V?$basic_string@DU?$char_traits@D@std@@V?$allocator@D@2@@std@@B 00466f50     systeminfo.obj
 0003:00000f68       ?NAME_IDENTIFIER_STRING@OSInfo@@0V?$basic_string@DU?$char_traits@D@std@@V?$allocator@D@2@@std@@B 00466f68     systeminfo.obj
 0003:00000f80       ?OS_INFO_END_IDENTIFIER_STRING@OSInfoDelegate@@0V?$basic_string@DU?$char_traits@D@std@@V?$allocator@D@2@@std@@B 00466f80     systeminfo.obj
 0003:00000f98       ?FREE_VIRTUAL_MEMORY_QUERY_STRING@OSInfo@@0V?$basic_string@DU?$char_traits@D@std@@V?$allocator@D@2@@std@@B 00466f98     systeminfo.obj
 0003:00000fb0       ?INTEL_IDENTIFIER_STRING@GPUInfo@@0V?$basic_string@DU?$char_traits@D@std@@V?$allocator@D@2@@std@@B 00466fb0     systeminfo.obj
 0003:00000fc8       ?DRIVER_VERSION_IDENTIFIER_STRING@GPUInfo@@0V?$basic_string@DU?$char_traits@D@std@@V?$allocator@D@2@@std@@B 00466fc8     systeminfo.obj
 0003:00000fe0       ?CURRENT_CLOCK_SPEED_IDENTIFIER_STRING@CPUInfo@@0V?$basic_string@DU?$char_traits@D@std@@V?$allocator@D@2@@std@@B 00466fe0     systeminfo.obj
 0003:00000ff8       ?OS_INFO_QUERY_STRING@OSInfoDelegate@@0V?$basic_string@DU?$char_traits@D@std@@V?$allocator@D@2@@std@@B 00466ff8     systeminfo.obj
 0003:00001010       ?MOTHERBOARD_INFO_QUERY_STRING@MotherboardInfoDelegate@@0V?$basic_string@DU?$char_traits@D@std@@V?$allocator@D@2@@std@@B 00467010     systeminfo.obj
 0003:00001028       ?SERIAL_NUMBER_IDENTIFIER_STRING@MotherboardInfo@@0V?$basic_string@DU?$char_traits@D@std@@V?$allocator@D@2@@std@@B 00467028     systeminfo.obj
 0003:00001040       ?NAME_IDENTIFIER_STRING@RAMInfo@@0V?$basic_string@DU?$char_traits@D@std@@V?$allocator@D@2@@std@@B 00467040     systeminfo.obj
 0003:00001058       ?GPU_INSTANCE_QUERY_STRING@GPUInfoDelegate@@0V?$basic_string@DU?$char_traits@D@std@@V?$allocator@D@2@@std@@B 00467058     systeminfo.obj
 0003:00001070       ?CURRENT_DATE_TIME_IDENTIFIER_STRING@OSInfo@@0V?$basic_string@DU?$char_traits@D@std@@V?$allocator@D@2@@std@@B 00467070     systeminfo.obj
 0003:00001088       ?L3_CACHE_SIZE_IDENTIFIER_STRING@CPUInfo@@0V?$basic_string@DU?$char_traits@D@std@@V?$allocator@D@2@@std@@B 00467088     systeminfo.obj
 0003:000010a0       ?_OptionsStorage@?1??__local_stdio_printf_options@@9@4_KA 004670a0     protect.obj
 0003:000010a8       ?_Psave@?$_Facetptr@V?$ctype@D@std@@@std@@2PBVfacet@locale@2@B 004670a8     systeminfo.obj
 0003:000010ac       ?_Psave@?$_Facetptr@V?$codecvt@DDU_Mbstatet@@@std@@@std@@2PBVfacet@locale@2@B 004670ac     systeminfo.obj
 0003:000010b0       ?_Stinit@?1??_Init@?$basic_filebuf@DU?$char_traits@D@std@@@std@@IAEXPAU_iobuf@@W4_Initfl@23@@Z@4U_Mbstatet@@A 004670b0     systeminfo.obj
 0003:000010b8       ___dyn_tls_dtor_callback   004670b8     <common>
 0003:000010bc       ___dyn_tls_init_callback   004670bc     <common>
 0003:000010c0       _Curl_isVistaOrGreater     004670c0     <common>
 0003:000010c8       _Curl_freq                 004670c8     <common>

 entry point at        0001:00013881

 Static symbols

 0001:00000000       ??__Eg_hWarcraftWnd@@YAXXZ 00401000 f   Main.obj
 0001:00000020       ??__E?TEMPERATURE_QUERY_STRING@CPUInfo@@0V?$basic_string@DU?$char_traits@D@std@@V?$allocator@D@2@@std@@B@@YAXXZ 00401020 f   systeminfo.obj
 0001:00000060       ??__E?TEMPERATURE_ERROR_IDENTIFIER_STRING@CPUInfo@@0V?$basic_string@DU?$char_traits@D@std@@V?$allocator@D@2@@std@@B@@YAXXZ 00401060 f   systeminfo.obj
 0001:000000a0       ??__E?CLOCK_SPEED_QUERY_STRING@CPUInfo@@0V?$basic_string@DU?$char_traits@D@std@@V?$allocator@D@2@@std@@B@@YAXXZ 004010a0 f   systeminfo.obj
 0001:000000e0       ??__E?CURRENT_CLOCK_SPEED_IDENTIFIER_STRING@CPUInfo@@0V?$basic_string@DU?$char_traits@D@std@@V?$allocator@D@2@@std@@B@@YAXXZ 004010e0 f   systeminfo.obj
 0001:00000120       ??__E?NAME_IDENTIFIER_STRING@CPUInfo@@0V?$basic_string@DU?$char_traits@D@std@@V?$allocator@D@2@@std@@B@@YAXXZ 00401120 f   systeminfo.obj
 0001:00000160       ??__E?NUMBER_OF_CORES_IDENTIFIER_STRING@CPUInfo@@0V?$basic_string@DU?$char_traits@D@std@@V?$allocator@D@2@@std@@B@@YAXXZ 00401160 f   systeminfo.obj
 0001:000001a0       ??__E?MANUFACTURER_IDENTIFIER_STRING@CPUInfo@@0V?$basic_string@DU?$char_traits@D@std@@V?$allocator@D@2@@std@@B@@YAXXZ 004011a0 f   systeminfo.obj
 0001:000001e0       ??__E?ARCHITECTURE_IDENTIFIER_STRING@CPUInfo@@0V?$basic_string@DU?$char_traits@D@std@@V?$allocator@D@2@@std@@B@@YAXXZ 004011e0 f   systeminfo.obj
 0001:00000220       ??__E?L2_CACHE_SIZE_IDENTIFIER_STRING@CPUInfo@@0V?$basic_string@DU?$char_traits@D@std@@V?$allocator@D@2@@std@@B@@YAXXZ 00401220 f   systeminfo.obj
 0001:00000260       ??__E?L3_CACHE_SIZE_IDENTIFIER_STRING@CPUInfo@@0V?$basic_string@DU?$char_traits@D@std@@V?$allocator@D@2@@std@@B@@YAXXZ 00401260 f   systeminfo.obj
 0001:000002a0       ??__E?CPU_INFO_QUERY_STRING@CPUInfoDelegate@@0V?$basic_string@DU?$char_traits@D@std@@V?$allocator@D@2@@std@@B@@YAXXZ 004012a0 f   systeminfo.obj
 0001:000002e0       ??__E?CPU_INSTANCE_QUERY_STRING@CPUInfoDelegate@@0V?$basic_string@DU?$char_traits@D@std@@V?$allocator@D@2@@std@@B@@YAXXZ 004012e0 f   systeminfo.obj
 0001:00000320       ??__E?CPU_INFO_END_IDENTIFIER_STRING@CPUInfoDelegate@@0V?$basic_string@DU?$char_traits@D@std@@V?$allocator@D@2@@std@@B@@YAXXZ 00401320 f   systeminfo.obj
 0001:00000360       ??__E?NVIDIA_IDENTIFIER_STRING@GPUInfo@@0V?$basic_string@DU?$char_traits@D@std@@V?$allocator@D@2@@std@@B@@YAXXZ 00401360 f   systeminfo.obj
 0001:000003a0       ??__E?INTEL_IDENTIFIER_STRING@GPUInfo@@0V?$basic_string@DU?$char_traits@D@std@@V?$allocator@D@2@@std@@B@@YAXXZ 004013a0 f   systeminfo.obj
 0001:000003e0       ??__E?AMD_IDENTIFIER_STRING@GPUInfo@@0V?$basic_string@DU?$char_traits@D@std@@V?$allocator@D@2@@std@@B@@YAXXZ 004013e0 f   systeminfo.obj
 0001:00000420       ??__E?NAME_IDENTIFIER_STRING@GPUInfo@@0V?$basic_string@DU?$char_traits@D@std@@V?$allocator@D@2@@std@@B@@YAXXZ 00401420 f   systeminfo.obj
 0001:00000460       ??__E?MANUFACTURER_IDENTIFIER_STRING@GPUInfo@@0V?$basic_string@DU?$char_traits@D@std@@V?$allocator@D@2@@std@@B@@YAXXZ 00401460 f   systeminfo.obj
 0001:000004a0       ??__E?ADAPTER_RAM_IDENTIFIER_STRING@GPUInfo@@0V?$basic_string@DU?$char_traits@D@std@@V?$allocator@D@2@@std@@B@@YAXXZ 004014a0 f   systeminfo.obj
 0001:000004e0       ??__E?REFRESH_RATE_IDENTIFIER_STRING@GPUInfo@@0V?$basic_string@DU?$char_traits@D@std@@V?$allocator@D@2@@std@@B@@YAXXZ 004014e0 f   systeminfo.obj
 0001:00000520       ??__E?DRIVER_VERSION_IDENTIFIER_STRING@GPUInfo@@0V?$basic_string@DU?$char_traits@D@std@@V?$allocator@D@2@@std@@B@@YAXXZ 00401520 f   systeminfo.obj
 0001:00000560       ??__E?VIDEO_ARCHITECTURE_IDENTIFIER_STRING@GPUInfo@@0V?$basic_string@DU?$char_traits@D@std@@V?$allocator@D@2@@std@@B@@YAXXZ 00401560 f   systeminfo.obj
 0001:000005a0       ??__E?VIDEO_MEMORY_TYPE_IDENTIFIER_STRING@GPUInfo@@0V?$basic_string@DU?$char_traits@D@std@@V?$allocator@D@2@@std@@B@@YAXXZ 004015a0 f   systeminfo.obj
 0001:000005e0       ??__E?VIDEO_MODE_DESCRIPTION_IDENTIFIER_STRING@GPUInfo@@0V?$basic_string@DU?$char_traits@D@std@@V?$allocator@D@2@@std@@B@@YAXXZ 004015e0 f   systeminfo.obj
 0001:00000620       ??__E?VIDEO_PROCESSOR_IDENTIFIER_STRING@GPUInfo@@0V?$basic_string@DU?$char_traits@D@std@@V?$allocator@D@2@@std@@B@@YAXXZ 00401620 f   systeminfo.obj
 0001:00000660       ??__E?CAPTION_IDENTIFIER_STRING@GPUInfo@@0V?$basic_string@DU?$char_traits@D@std@@V?$allocator@D@2@@std@@B@@YAXXZ 00401660 f   systeminfo.obj
 0001:000006a0       ??__E?GPU_INFO_QUERY_STRING@GPUInfoDelegate@@0V?$basic_string@DU?$char_traits@D@std@@V?$allocator@D@2@@std@@B@@YAXXZ 004016a0 f   systeminfo.obj
 0001:000006e0       ??__E?GPU_INSTANCE_QUERY_STRING@GPUInfoDelegate@@0V?$basic_string@DU?$char_traits@D@std@@V?$allocator@D@2@@std@@B@@YAXXZ 004016e0 f   systeminfo.obj
 0001:00000720       ??__E?GPU_INFO_END_IDENTIFIER_STRING@GPUInfoDelegate@@0V?$basic_string@DU?$char_traits@D@std@@V?$allocator@D@2@@std@@B@@YAXXZ 00401720 f   systeminfo.obj
 0001:00000760       ??__E?CHIPSET_QUERY_STRING@MotherboardInfo@@0V?$basic_string@DU?$char_traits@D@std@@V?$allocator@D@2@@std@@B@@YAXXZ 00401760 f   systeminfo.obj
 0001:000007a0       ??__E?NAME_IDENTIFIER_STRING@MotherboardInfo@@0V?$basic_string@DU?$char_traits@D@std@@V?$allocator@D@2@@std@@B@@YAXXZ 004017a0 f   systeminfo.obj
 0001:000007e0       ??__E?MANUFACTURER_IDENTIFIER_STRING@MotherboardInfo@@0V?$basic_string@DU?$char_traits@D@std@@V?$allocator@D@2@@std@@B@@YAXXZ 004017e0 f   systeminfo.obj
 0001:00000820       ??__E?CHIPSET_IDENTIFIER_STRING@MotherboardInfo@@0V?$basic_string@DU?$char_traits@D@std@@V?$allocator@D@2@@std@@B@@YAXXZ 00401820 f   systeminfo.obj
 0001:00000860       ??__E?CHIPSET_END_IDENTIFIER_STRING@MotherboardInfo@@0V?$basic_string@DU?$char_traits@D@std@@V?$allocator@D@2@@std@@B@@YAXXZ 00401860 f   systeminfo.obj
 0001:000008a0       ??__E?SERIAL_NUMBER_IDENTIFIER_STRING@MotherboardInfo@@0V?$basic_string@DU?$char_traits@D@std@@V?$allocator@D@2@@std@@B@@YAXXZ 004018a0 f   systeminfo.obj
 0001:000008e0       ??__E?VERSION_IDENTIFIER_STRING@MotherboardInfo@@0V?$basic_string@DU?$char_traits@D@std@@V?$allocator@D@2@@std@@B@@YAXXZ 004018e0 f   systeminfo.obj
 0001:00000920       ??__E?MOTHERBOARD_INFO_QUERY_STRING@MotherboardInfoDelegate@@0V?$basic_string@DU?$char_traits@D@std@@V?$allocator@D@2@@std@@B@@YAXXZ 00401920 f   systeminfo.obj
 0001:00000960       ??__E?MOTHERBOARD_INSTANCE_QUERY_STRING@MotherboardInfoDelegate@@0V?$basic_string@DU?$char_traits@D@std@@V?$allocator@D@2@@std@@B@@YAXXZ 00401960 f   systeminfo.obj
 0001:000009a0       ??__E?MOTHERBOARD_INFO_END_IDENTIFIER_STRING@MotherboardInfoDelegate@@0V?$basic_string@DU?$char_traits@D@std@@V?$allocator@D@2@@std@@B@@YAXXZ 004019a0 f   systeminfo.obj
 0001:000009e0       ??__E?ARCHITECTURE_IDENTIFIER_STRING@OSInfo@@0V?$basic_string@DU?$char_traits@D@std@@V?$allocator@D@2@@std@@B@@YAXXZ 004019e0 f   systeminfo.obj
 0001:00000a20       ??__E?CAPTION_INDENTIFIER_STRING@OSInfo@@0V?$basic_string@DU?$char_traits@D@std@@V?$allocator@D@2@@std@@B@@YAXXZ 00401a20 f   systeminfo.obj
 0001:00000a60       ??__E?NAME_IDENTIFIER_STRING@OSInfo@@0V?$basic_string@DU?$char_traits@D@std@@V?$allocator@D@2@@std@@B@@YAXXZ 00401a60 f   systeminfo.obj
 0001:00000aa0       ??__E?MANUFACTURER_IDENTIFIER_STRING@OSInfo@@0V?$basic_string@DU?$char_traits@D@std@@V?$allocator@D@2@@std@@B@@YAXXZ 00401aa0 f   systeminfo.obj
 0001:00000ae0       ??__E?VERSION_IDENTIFIER_STRING@OSInfo@@0V?$basic_string@DU?$char_traits@D@std@@V?$allocator@D@2@@std@@B@@YAXXZ 00401ae0 f   systeminfo.obj
 0001:00000b20       ??__E?CURRENT_USER_IDENTIFIER_STRING@OSInfo@@0V?$basic_string@DU?$char_traits@D@std@@V?$allocator@D@2@@std@@B@@YAXXZ 00401b20 f   systeminfo.obj
 0001:00000b60       ??__E?INSTALL_DATE_IDENTIFIER_STRING@OSInfo@@0V?$basic_string@DU?$char_traits@D@std@@V?$allocator@D@2@@std@@B@@YAXXZ 00401b60 f   systeminfo.obj
 0001:00000ba0       ??__E?BUILD_NUMBER_IDENTIFIER_STRING@OSInfo@@0V?$basic_string@DU?$char_traits@D@std@@V?$allocator@D@2@@std@@B@@YAXXZ 00401ba0 f   systeminfo.obj
 0001:00000be0       ??__E?LAST_BOOT_UP_TIME_IDENTIFIER_STRING@OSInfo@@0V?$basic_string@DU?$char_traits@D@std@@V?$allocator@D@2@@std@@B@@YAXXZ 00401be0 f   systeminfo.obj
 0001:00000c20       ??__E?BOOT_DEVICE_IDENTIFIER_STRING@OSInfo@@0V?$basic_string@DU?$char_traits@D@std@@V?$allocator@D@2@@std@@B@@YAXXZ 00401c20 f   systeminfo.obj
 0001:00000c60       ??__E?SERIAL_NUMBER_IDENTIFIER_STRING@OSInfo@@0V?$basic_string@DU?$char_traits@D@std@@V?$allocator@D@2@@std@@B@@YAXXZ 00401c60 f   systeminfo.obj
 0001:00000ca0       ??__E?TOTAL_VIRTUAL_MEMORY_SIZE_IDENTIFIER_STRING@OSInfo@@0V?$basic_string@DU?$char_traits@D@std@@V?$allocator@D@2@@std@@B@@YAXXZ 00401ca0 f   systeminfo.obj
 0001:00000ce0       ??__E?TOTAL_VISIBLE_MEMORY_SIZE_IDENTIFIER_STRING@OSInfo@@0V?$basic_string@DU?$char_traits@D@std@@V?$allocator@D@2@@std@@B@@YAXXZ 00401ce0 f   systeminfo.obj
 0001:00000d20       ??__E?TOTAL_SWAP_SIZE_IDENTIFIER_STRING@OSInfo@@0V?$basic_string@DU?$char_traits@D@std@@V?$allocator@D@2@@std@@B@@YAXXZ 00401d20 f   systeminfo.obj
 0001:00000d60       ??__E?FREE_PHYSICAL_MEMORY_IDENTIFIER_STRING@OSInfo@@0V?$basic_string@DU?$char_traits@D@std@@V?$allocator@D@2@@std@@B@@YAXXZ 00401d60 f   systeminfo.obj
 0001:00000da0       ??__E?FREE_PHYSICAL_MEMORY_QUERY_STRING@OSInfo@@0V?$basic_string@DU?$char_traits@D@std@@V?$allocator@D@2@@std@@B@@YAXXZ 00401da0 f   systeminfo.obj
 0001:00000de0       ??__E?FREE_VIRTUAL_MEMORY_IDENTIFIER_STRING@OSInfo@@0V?$basic_string@DU?$char_traits@D@std@@V?$allocator@D@2@@std@@B@@YAXXZ 00401de0 f   systeminfo.obj
 0001:00000e20       ??__E?FREE_VIRTUAL_MEMORY_QUERY_STRING@OSInfo@@0V?$basic_string@DU?$char_traits@D@std@@V?$allocator@D@2@@std@@B@@YAXXZ 00401e20 f   systeminfo.obj
 0001:00000e60       ??__E?FREE_SPACE_IN_PAGING_FILES_IDENTIFIER_STRING@OSInfo@@0V?$basic_string@DU?$char_traits@D@std@@V?$allocator@D@2@@std@@B@@YAXXZ 00401e60 f   systeminfo.obj
 0001:00000ea0       ??__E?FREE_SPACE_IN_PAGING_FILES_QUERY_STRING@OSInfo@@0V?$basic_string@DU?$char_traits@D@std@@V?$allocator@D@2@@std@@B@@YAXXZ 00401ea0 f   systeminfo.obj
 0001:00000ee0       ??__E?USED_SPACE_IN_PAGING_FILE_IDENTIFIER_STRING@OSInfo@@0V?$basic_string@DU?$char_traits@D@std@@V?$allocator@D@2@@std@@B@@YAXXZ 00401ee0 f   systeminfo.obj
 0001:00000f20       ??__E?USED_SPACE_IN_PAGING_FILE_QUERY_STRING@OSInfo@@0V?$basic_string@DU?$char_traits@D@std@@V?$allocator@D@2@@std@@B@@YAXXZ 00401f20 f   systeminfo.obj
 0001:00000f60       ??__E?CURRENT_DATE_TIME_IDENTIFIER_STRING@OSInfo@@0V?$basic_string@DU?$char_traits@D@std@@V?$allocator@D@2@@std@@B@@YAXXZ 00401f60 f   systeminfo.obj
 0001:00000fa0       ??__E?CURRENT_DATE_TIME_QUERY_STRING@OSInfo@@0V?$basic_string@DU?$char_traits@D@std@@V?$allocator@D@2@@std@@B@@YAXXZ 00401fa0 f   systeminfo.obj
 0001:00001000       ??__E?OS_INFO_QUERY_STRING@OSInfoDelegate@@0V?$basic_string@DU?$char_traits@D@std@@V?$allocator@D@2@@std@@B@@YAXXZ 00402000 f   systeminfo.obj
 0001:00001040       ??__E?OS_INSTANCE_QUERY_STRING@OSInfoDelegate@@0V?$basic_string@DU?$char_traits@D@std@@V?$allocator@D@2@@std@@B@@YAXXZ 00402040 f   systeminfo.obj
 0001:00001080       ??__E?OS_INFO_END_IDENTIFIER_STRING@OSInfoDelegate@@0V?$basic_string@DU?$char_traits@D@std@@V?$allocator@D@2@@std@@B@@YAXXZ 00402080 f   systeminfo.obj
 0001:000010c0       ??__E?NAME_IDENTIFIER_STRING@RAMInfo@@0V?$basic_string@DU?$char_traits@D@std@@V?$allocator@D@2@@std@@B@@YAXXZ 004020c0 f   systeminfo.obj
 0001:00001100       ??__E?MANUFACTURER_IDENTIFIER_STRING@RAMInfo@@0V?$basic_string@DU?$char_traits@D@std@@V?$allocator@D@2@@std@@B@@YAXXZ 00402100 f   systeminfo.obj
 0001:00001140       ??__E?CAPACITY_IDENTIFIER_STRING@RAMInfo@@0V?$basic_string@DU?$char_traits@D@std@@V?$allocator@D@2@@std@@B@@YAXXZ 00402140 f   systeminfo.obj
 0001:00001180       ??__E?SERIAL_NUMBER_IDENTIFIER_STRING@RAMInfo@@0V?$basic_string@DU?$char_traits@D@std@@V?$allocator@D@2@@std@@B@@YAXXZ 00402180 f   systeminfo.obj
 0001:000011c0       ??__E?FORM_FACTOR_IDENTIFIER_STRING@RAMInfo@@0V?$basic_string@DU?$char_traits@D@std@@V?$allocator@D@2@@std@@B@@YAXXZ 004021c0 f   systeminfo.obj
 0001:00001200       ??__E?PART_NUMBER_IDENTIFIER_STRING@RAMInfo@@0V?$basic_string@DU?$char_traits@D@std@@V?$allocator@D@2@@std@@B@@YAXXZ 00402200 f   systeminfo.obj
 0001:00001240       ??__E?MEMORY_TYPE_IDENTIFIER_STRING@RAMInfo@@0V?$basic_string@DU?$char_traits@D@std@@V?$allocator@D@2@@std@@B@@YAXXZ 00402240 f   systeminfo.obj
 0001:00001280       ??__E?CLOCK_SPEED_IDENTIFIER_STRING@RAMInfo@@0V?$basic_string@DU?$char_traits@D@std@@V?$allocator@D@2@@std@@B@@YAXXZ 00402280 f   systeminfo.obj
 0001:000012c0       ??__E?BACKUP_CLOCK_SPEED_IDENTIFIER_STRING@RAMInfo@@0V?$basic_string@DU?$char_traits@D@std@@V?$allocator@D@2@@std@@B@@YAXXZ 004022c0 f   systeminfo.obj
 0001:00001300       ??__E?RAM_INFO_QUERY_STRING@RAMInfoDelegate@@0V?$basic_string@DU?$char_traits@D@std@@V?$allocator@D@2@@std@@B@@YAXXZ 00402300 f   systeminfo.obj
 0001:00001340       ??__E?RAM_INSTANCE_QUERY_STRING@RAMInfoDelegate@@0V?$basic_string@DU?$char_traits@D@std@@V?$allocator@D@2@@std@@B@@YAXXZ 00402340 f   systeminfo.obj
 0001:00001380       ??__E?RAM_INFO_END_IDENTIFIER_STRING@RAMInfoDelegate@@0V?$basic_string@DU?$char_traits@D@std@@V?$allocator@D@2@@std@@B@@YAXXZ 00402380 f   systeminfo.obj
 0001:000013bd       ??__E_Fac_tidy_reg@std@@YAXXZ 004023bd f   msvcprt:locale0_implib.obj
 0001:00004ce0       _error_close_writer        00405ce0 f i libcurl:content_encoding.obj
 0001:00004ce0       _client_close_writer       00405ce0 f i libcurl:content_encoding.obj
 0001:00004ce0       _identity_close_writer     00405ce0 f i libcurl:content_encoding.obj
 0001:00004ce0       _trhash_dtor               00405ce0 f i libcurl:multi.obj
 0001:0000586f       __catch$?_Copy@?$basic_string@DU?$char_traits@D@std@@V?$allocator@D@2@@std@@QAEXII@Z$0 0040686f f i protect.obj
 0001:00005910       __catch$?_Copy@?$basic_string@DU?$char_traits@D@std@@V?$allocator@D@2@@std@@QAEXII@Z$1 00406910 f i protect.obj
 0001:00005c15       __catch$??$?6U?$char_traits@D@std@@@std@@YAAAV?$basic_ostream@DU?$char_traits@D@std@@@0@AAV10@PBD@Z$0 00406c15 f i protect.obj
 0001:00007707       __catch$?getArchitecture@CPUInfo@@ABE?AV?$basic_string@DU?$char_traits@D@std@@V?$allocator@D@2@@std@@AAV23@@Z$0 00408707 f   systeminfo.obj
 0001:000082de       __catch$??0GPUInfo@@QAE@ABV?$vector@V?$basic_string@DU?$char_traits@D@std@@V?$allocator@D@2@@std@@V?$allocator@V?$basic_string@DU?$char_traits@D@std@@V?$allocator@D@2@@std@@@2@@std@@H@Z$0 004092de f   systeminfo.obj
 0001:00008c07       __catch$?getVideoArchitecture@GPUInfo@@ABE?AV?$basic_string@DU?$char_traits@D@std@@V?$allocator@D@2@@std@@ABV23@@Z$0 00409c07 f   systeminfo.obj
 0001:00008e44       $LN141                     00409e44     systeminfo.obj
 0001:00008e7c       $LN138                     00409e7c     systeminfo.obj
 0001:00008f77       __catch$?getVideoMemoryType@GPUInfo@@ABE?AV?$basic_string@DU?$char_traits@D@std@@V?$allocator@D@2@@std@@ABV23@@Z$0 00409f77 f   systeminfo.obj
 0001:000091ac       $LN140                     0040a1ac     systeminfo.obj
 0001:0000b1ac       __catch$??0OSInfo@@QAE@ABV?$vector@V?$basic_string@DU?$char_traits@D@std@@V?$allocator@D@2@@std@@V?$allocator@V?$basic_string@DU?$char_traits@D@std@@V?$allocator@D@2@@std@@@2@@std@@H@Z$0 0040c1ac f   systeminfo.obj
 0001:0000b363       __catch$??0OSInfo@@QAE@ABV?$vector@V?$basic_string@DU?$char_traits@D@std@@V?$allocator@D@2@@std@@V?$allocator@V?$basic_string@DU?$char_traits@D@std@@V?$allocator@D@2@@std@@@2@@std@@H@Z$2 0040c363 f   systeminfo.obj
 0001:0000b52c       __catch$??0OSInfo@@QAE@ABV?$vector@V?$basic_string@DU?$char_traits@D@std@@V?$allocator@D@2@@std@@V?$allocator@V?$basic_string@DU?$char_traits@D@std@@V?$allocator@D@2@@std@@@2@@std@@H@Z$4 0040c52c f   systeminfo.obj
 0001:0000c3bd       __catch$??0RAMInfo@@QAE@ABV?$vector@V?$basic_string@DU?$char_traits@D@std@@V?$allocator@D@2@@std@@V?$allocator@V?$basic_string@DU?$char_traits@D@std@@V?$allocator@D@2@@std@@@2@@std@@H@Z$0 0040d3bd f   systeminfo.obj
 0001:0000ccf7       __catch$?getMemoryType@RAMInfo@@ABE?AV?$basic_string@DU?$char_traits@D@std@@V?$allocator@D@2@@std@@ABV23@@Z$0 0040dcf7 f   systeminfo.obj
 0001:0000d0dc       $LN153                     0040e0dc     systeminfo.obj
 0001:0000d197       __catch$?getFormFactor@RAMInfo@@ABE?AV?$basic_string@DU?$char_traits@D@std@@V?$allocator@D@2@@std@@ABV23@@Z$0 0040e197 f   systeminfo.obj
 0001:0000d558       $LN151                     0040e558     systeminfo.obj
 0001:0000e3a0       ??R<lambda_787d45c283701cc870e4fc26d5464600>@@QBE?AV?$basic_string@DU?$char_traits@D@std@@V?$allocator@D@2@@std@@ABV12@@Z 0040f3a0 f   systeminfo.obj
 0001:0000e6e4       __catch$??0?$vector@VRAMInfo@@V?$allocator@VRAMInfo@@@std@@@std@@QAE@ABV01@@Z$0 0040f6e4 f i systeminfo.obj
 0001:0000e7d4       __catch$??0?$vector@VOSInfo@@V?$allocator@VOSInfo@@@std@@@std@@QAE@ABV01@@Z$0 0040f7d4 f i systeminfo.obj
 0001:0000e8c3       __catch$??0?$vector@VMotherboardInfo@@V?$allocator@VMotherboardInfo@@@std@@@std@@QAE@ABV01@@Z$0 0040f8c3 f i systeminfo.obj
 0001:0000e9b4       __catch$??0?$vector@VGPUInfo@@V?$allocator@VGPUInfo@@@std@@@std@@QAE@ABV01@@Z$0 0040f9b4 f i systeminfo.obj
 0001:0000eaa6       __catch$??0?$vector@VCPUInfo@@V?$allocator@VCPUInfo@@@std@@@std@@QAE@ABV01@@Z$0 0040faa6 f i systeminfo.obj
 0001:0000ed64       __catch$??0?$vector@V?$basic_string@DU?$char_traits@D@std@@V?$allocator@D@2@@std@@V?$allocator@V?$basic_string@DU?$char_traits@D@std@@V?$allocator@D@2@@std@@@2@@std@@QAE@ABV01@@Z$0 0040fd64 f i systeminfo.obj
 0001:000105ad       __catch$??$?6DU?$char_traits@D@std@@V?$allocator@D@1@@std@@YAAAV?$basic_ostream@DU?$char_traits@D@std@@@0@AAV10@ABV?$basic_string@DU?$char_traits@D@std@@V?$allocator@D@2@@0@@Z$0 004115ad f i systeminfo.obj
 0001:00011b73       __catch$??$_Construct@PBV?$basic_string@DU?$char_traits@D@std@@V?$allocator@D@2@@std@@@?$vector@V?$basic_string@DU?$char_traits@D@std@@V?$allocator@D@2@@std@@V?$allocator@V?$basic_string@DU?$char_traits@D@std@@V?$allocator@D@2@@std@@@2@@std@@QAEXPBV?$basic_string@DU?$char_traits@D@std@@V?$allocator@D@2@@1@0Uforward_iterator_tag@1@@Z$0 00412b73 f i systeminfo.obj
 0001:00011daf       __catch$??$?5DU?$char_traits@D@std@@V?$allocator@D@1@@std@@YAAAV?$basic_istream@DU?$char_traits@D@std@@@0@$$QAV10@AAV?$basic_string@DU?$char_traits@D@std@@V?$allocator@D@2@@0@@Z$0 00412daf f i systeminfo.obj
 0001:00011f89       __catch$??$_Uninitialized_copy_al_unchecked1@PBVRAMInfo@@PAV1@V?$allocator@VRAMInfo@@@std@@@std@@YAPAVRAMInfo@@PBV1@0PAV1@AAU?$_Wrap_alloc@V?$allocator@VRAMInfo@@@std@@@0@U_General_ptr_iterator_tag@0@U_Any_tag@0@@Z$0 00412f89 f i systeminfo.obj
 0001:00012029       __catch$??$_Uninitialized_copy_al_unchecked1@PBVOSInfo@@PAV1@V?$allocator@VOSInfo@@@std@@@std@@YAPAVOSInfo@@PBV1@0PAV1@AAU?$_Wrap_alloc@V?$allocator@VOSInfo@@@std@@@0@U_General_ptr_iterator_tag@0@U_Any_tag@0@@Z$0 00413029 f i systeminfo.obj
 0001:000120c3       __catch$??$_Uninitialized_copy_al_unchecked1@PBVMotherboardInfo@@PAV1@V?$allocator@VMotherboardInfo@@@std@@@std@@YAPAVMotherboardInfo@@PBV1@0PAV1@AAU?$_Wrap_alloc@V?$allocator@VMotherboardInfo@@@std@@@0@U_General_ptr_iterator_tag@0@U_Any_tag@0@@Z$0 004130c3 f i systeminfo.obj
 0001:00012159       __catch$??$_Uninitialized_copy_al_unchecked1@PBVGPUInfo@@PAV1@V?$allocator@VGPUInfo@@@std@@@std@@YAPAVGPUInfo@@PBV1@0PAV1@AAU?$_Wrap_alloc@V?$allocator@VGPUInfo@@@std@@@0@U_General_ptr_iterator_tag@0@U_Any_tag@0@@Z$0 00413159 f i systeminfo.obj
 0001:000121f9       __catch$??$_Uninitialized_copy_al_unchecked1@PBVCPUInfo@@PAV1@V?$allocator@VCPUInfo@@@std@@@std@@YAPAVCPUInfo@@PBV1@0PAV1@AAU?$_Wrap_alloc@V?$allocator@VCPUInfo@@@std@@@0@U_General_ptr_iterator_tag@0@U_Any_tag@0@@Z$0 004131f9 f i systeminfo.obj
 0001:000122b4       __catch$??$_Uninitialized_copy_al_unchecked1@PBV?$basic_string@DU?$char_traits@D@std@@V?$allocator@D@2@@std@@PAV12@V?$allocator@V?$basic_string@DU?$char_traits@D@std@@V?$allocator@D@2@@std@@@2@@std@@YAPAV?$basic_string@DU?$char_traits@D@std@@V?$allocator@D@2@@0@PBV10@0PAV10@AAU?$_Wrap_alloc@V?$allocator@V?$basic_string@DU?$char_traits@D@std@@V?$allocator@D@2@@std@@@std@@@0@U_General_ptr_iterator_tag@0@U_Any_tag@0@@Z$0 004132b4 f i systeminfo.obj
 0001:000133d0       ?find_pe_section@@YAPAU_IMAGE_SECTION_HEADER@@QAEI@Z 004143d0 f   MSVCRT:utility.obj
 0001:0001365b       ?pre_c_initialization@@YAHXZ 0041465b f   MSVCRT:exe_winmain.obj
 0001:000136ff       ?post_pgo_initialization@@YAHXZ 004146ff f   MSVCRT:exe_winmain.obj
 0001:00013707       ?pre_cpp_initialization@@YAXXZ 00414707 f   MSVCRT:exe_winmain.obj
 0001:00013719       ?__scrt_common_main_seh@@YAHXZ 00414719 f   MSVCRT:exe_winmain.obj
 0001:00013b70       $$000000                   00414b70     MSVCRT:_sehprolg4_.obj
 0001:00013ef0       _pop3_dophase_done         00414ef0 f   libcurl:pop3.obj
 0001:00014190       _easy_perform              00415190 f   libcurl:easy.obj
 0001:00014280       _easy_transfer             00415280 f   libcurl:easy.obj
 0001:00014300       _global_init               00415300 f   libcurl:easy.obj
 0001:000169bc       $LN516                     004179bc     libcurl:setopt.obj
 0001:00016b00       $LN483                     00417b00     libcurl:setopt.obj
 0001:00016bd0       $LN517                     00417bd0     libcurl:setopt.obj
 0001:00016bfc       $LN518                     00417bfc     libcurl:setopt.obj
 0001:00016c7c       $LN486                     00417c7c     libcurl:setopt.obj
 0001:00016ce0       $LN519                     00417ce0     libcurl:setopt.obj
 0001:00016e04       $LN487                     00417e04     libcurl:setopt.obj
 0001:00016ee4       $LN520                     00417ee4     libcurl:setopt.obj
 0001:00016f54       $LN492                     00417f54     libcurl:setopt.obj
 0001:00016fa0       $LN521                     00417fa0     libcurl:setopt.obj
 0001:00016fec       $LN493                     00417fec     libcurl:setopt.obj
 0001:000170bc       $LN522                     004180bc     libcurl:setopt.obj
 0001:000170d4       $LN495                     004180d4     libcurl:setopt.obj
 0001:000170f4       $LN523                     004180f4     libcurl:setopt.obj
 0001:00017140       _setstropt_userpwd         00418140 f   libcurl:setopt.obj
 0001:000172c0       _slist_get_last            004182c0 f   libcurl:slist.obj
 0001:000178c0       _add_next_timeout          004188c0 f   libcurl:multi.obj
 0001:00017990       _before_perform            00418990 f   libcurl:multi.obj
 0001:000179c0       _close_connect_only        004189c0 f   libcurl:multi.obj
 0001:000181b0       _doing_getsock             004191b0 f   libcurl:multi.obj
 0001:000181e0       _domore_getsock            004191e0 f   libcurl:multi.obj
 0001:00018210       _trhash_compare            00419210 f   libcurl:multi.obj
 0001:00018210       _fd_key_compare            00419210 f   libcurl:multi.obj
 0001:00018230       _trhash                    00419230 f   libcurl:multi.obj
 0001:00018230       _hash_fd                   00419230 f   libcurl:multi.obj
 0001:00018250       _init_completed            00419250 f   libcurl:multi.obj
 0001:00018270       _mstate                    00419270 f   libcurl:multi.obj
 0001:000182a0       _multi_addmsg              004192a0 f   libcurl:multi.obj
 0001:000182c0       _multi_addtimeout          004192c0 f   libcurl:multi.obj
 0001:00018350       _multi_deltimeout          00419350 f   libcurl:multi.obj
 0001:00018390       _multi_do                  00419390 f   libcurl:multi.obj
 0001:000183b0       _multi_do_more             004193b0 f   libcurl:multi.obj
 0001:000183e0       _multi_done                004193e0 f   libcurl:multi.obj
 0001:000186d0       _multi_getsock             004196d0 f   libcurl:multi.obj
 0001:0001874c       $LN17                      0041974c     libcurl:multi.obj
 0001:00018780       _multi_ischanged           00419780 f   libcurl:multi.obj
 0001:000187a0       _multi_runsingle           004197a0 f   libcurl:multi.obj
 0001:0001955c       $LN247                     0041a55c     libcurl:multi.obj
 0001:000195a0       _multi_timeout             0041a5a0 f   libcurl:multi.obj
 0001:000196a0       _multi_wait                0041a6a0 f   libcurl:multi.obj
 0001:00019b40       _process_pending_handles   0041ab40 f   libcurl:multi.obj
 0001:00019b80       _protocol_connect          0041ab80 f   libcurl:multi.obj
 0001:00019c40       _protocol_connecting       0041ac40 f   libcurl:multi.obj
 0001:00019c80       _protocol_doing            0041ac80 f   libcurl:multi.obj
 0001:00019cc0       _protocol_getsock          0041acc0 f   libcurl:multi.obj
 0001:00019cf0       _sh_addentry               0041acf0 f   libcurl:multi.obj
 0001:00019d80       _sh_delentry               0041ad80 f   libcurl:multi.obj
 0001:00019da0       _sh_freeentry              0041ada0 f   libcurl:multi.obj
 0001:00019db0       _sh_getentry               0041adb0 f   libcurl:multi.obj
 0001:00019dd0       _sh_init                   0041add0 f   libcurl:multi.obj
 0001:00019e00       _singlesocket              0041ae00 f   libcurl:multi.obj
 0001:0001a0e0       _waitconnect_getsock       0041b0e0 f   libcurl:multi.obj
 0001:0001a140       _waitproxyconnect_getsock  0041b140 f   libcurl:multi.obj
 0001:0001ae7c       $LN309                     0041be7c     libcurl:cookie.obj
 0001:0001b480       _bad_domain                0041c480 f   libcurl:cookie.obj
 0001:0001b4c0       _cookie_hash_domain        0041c4c0 f   libcurl:cookie.obj
 0001:0001b530       _cookie_output             0041c530 f   libcurl:cookie.obj
 0001:0001b790       _cookie_sort               0041c790 f   libcurl:cookie.obj
 0001:0001b870       _cookie_sort_ct            0041c870 f   libcurl:cookie.obj
 0001:0001b8a0       _cookiehash                0041c8a0 f   libcurl:cookie.obj
 0001:0001b8e0       _dup_cookie                0041c8e0 f   libcurl:cookie.obj
 0001:0001ba10       _freecookie                0041ca10 f   libcurl:cookie.obj
 0001:0001ba70       _get_netscape_format       0041ca70 f   libcurl:cookie.obj
 0001:0001bb20       _get_top_domain            0041cb20 f   libcurl:cookie.obj
 0001:0001bb80       _isip                      0041cb80 f   libcurl:cookie.obj
 0001:0001bbe0       _pathmatch                 0041cbe0 f   libcurl:cookie.obj
 0001:0001bce0       _remove_expired            0041cce0 f   libcurl:cookie.obj
 0001:0001bd70       _sanitize_cookie_path      0041cd70 f   libcurl:cookie.obj
 0001:0001be30       _strstore                  0041ce30 f   libcurl:cookie.obj
 0001:0001be50       _tailmatch                 0041ce50 f   libcurl:cookie.obj
 0001:0001c210       _conn_thread_sync_data     0041d210 f   libcurl:asyn-thread.obj
 0001:0001c230       _destroy_async_data        0041d230 f   libcurl:asyn-thread.obj
 0001:0001c2e0       _destroy_thread_sync_data  0041d2e0 f   libcurl:asyn-thread.obj
 0001:0001c340       _getaddrinfo_complete      0041d340 f   libcurl:asyn-thread.obj
 0001:0001c370       _getaddrinfo_thread@4      0041d370 f   libcurl:asyn-thread.obj
 0001:0001c450       _init_resolve_thread       0041d450 f   libcurl:asyn-thread.obj
 0001:0001c540       _init_thread_sync_data     0041d540 f   libcurl:asyn-thread.obj
 0001:0001c5f0       _thread_wait_resolv        0041d5f0 f   libcurl:asyn-thread.obj
 0001:0001c7a0       _dyn_nappend               0041d7a0 f   libcurl:dynbuf.obj
 0001:0001c870       _encoder_nop_read          0041d870 f   libcurl:mime.obj
 0001:0001c8c0       _encoder_nop_size          0041d8c0 f   libcurl:mime.obj
 0001:0001c8d0       _encoder_7bit_read         0041d8d0 f   libcurl:mime.obj
 0001:0001c930       _encoder_base64_read       0041d930 f   libcurl:mime.obj
 0001:0001cac0       _encoder_base64_size       0041dac0 f   libcurl:mime.obj
 0001:0001cb30       _encoder_qp_read           0041db30 f   libcurl:mime.obj
 0001:0001ccd0       _encoder_qp_size           0041dcd0 f   libcurl:mime.obj
 0001:0001cd00       _Curl_basename             0041dd00 f   libcurl:mime.obj
 0001:0001d3a0       _add_content_type          0041e3a0 f   libcurl:mime.obj
 0001:0001d3e0       _cleanup_encoder_state     0041e3e0 f   libcurl:mime.obj
 0001:0001d400       _cleanup_part_content      0041e400 f   libcurl:mime.obj
 0001:0001d480       _content_type_match        0041e480 f   libcurl:mime.obj
 0001:0001d4d4       $LN10                      0041e4d4     libcurl:mime.obj
 0001:0001d4dc       $LN8                       0041e4dc     libcurl:mime.obj
 0001:0001d9c0       _escape_string             0041e9c0 f   libcurl:mime.obj
 0001:0001da30       _match_header              0041ea30 f   libcurl:mime.obj
 0001:0001da70       _mime_file_free            0041ea70 f   libcurl:mime.obj
 0001:0001dab0       _mime_file_read            0041eab0 f   libcurl:mime.obj
 0001:0001daf0       _mime_file_seek            0041eaf0 f   libcurl:mime.obj
 0001:0001db40       _mime_mem_free             0041eb40 f   libcurl:mime.obj
 0001:0001db60       _mime_mem_read             0041eb60 f   libcurl:mime.obj
 0001:0001dbc0       _mime_mem_seek             0041ebc0 f   libcurl:mime.obj
 0001:0001dc20       _mime_open_file            0041ec20 f   libcurl:mime.obj
 0001:0001dc50       _mime_part_rewind          0041ec50 f   libcurl:mime.obj
 0001:0001dcf0       _mime_subparts_free        0041ecf0 f   libcurl:mime.obj
 0001:0001dd20       _mime_subparts_read        0041ed20 f   libcurl:mime.obj
 0001:0001de8c       $LN35                      0041ee8c     libcurl:mime.obj
 0001:0001deb0       _mime_subparts_seek        0041eeb0 f   libcurl:mime.obj
 0001:0001df20       _mime_subparts_unbind      0041ef20 f   libcurl:mime.obj
 0001:0001df50       _mimesetstate              0041ef50 f   libcurl:mime.obj
 0001:0001df80       _multipart_size            0041ef80 f   libcurl:mime.obj
 0001:0001e000       _qp_lookahead_eol          0041f000 f   libcurl:mime.obj
 0001:0001e060       _read_encoded_part_content 0041f060 f   libcurl:mime.obj
 0001:0001e160       _read_part_content         0041f160 f   libcurl:mime.obj
 0001:0001e270       _readback_bytes            0041f270 f   libcurl:mime.obj
 0001:0001e2f0       _readback_part             0041f2f0 f   libcurl:mime.obj
 0001:0001e4d4       $LN42                      0041f4d4     libcurl:mime.obj
 0001:0001e500       _search_header             0041f500 f   libcurl:mime.obj
 0001:0001e540       _slist_size                0041f540 f   libcurl:mime.obj
 0001:0001e5c0       _strippath                 0041f5c0 f   libcurl:mime.obj
 0001:0001ece0       _bundle_add_conn           0041fce0 f   libcurl:conncache.obj
 0001:0001ed10       _bundle_create             0041fd10 f   libcurl:conncache.obj
 0001:0001ed60       _bundle_destroy            0041fd60 f   libcurl:conncache.obj
 0001:0001ed90       _bundle_remove_conn        0041fd90 f   libcurl:conncache.obj
 0001:0001ede0       _conn_llist_dtor           0041fde0 f   libcurl:conncache.obj
 0001:0001ee00       _conncache_add_bundle      0041fe00 f   libcurl:conncache.obj
 0001:0001ee40       _conncache_find_first_connection 0041fe40 f   libcurl:conncache.obj
 0001:0001ee90       _conncache_remove_bundle   0041fe90 f   libcurl:conncache.obj
 0001:0001ef00       _free_bundle_hash_entry    0041ff00 f   libcurl:conncache.obj
 0001:0001ef10       _hashkey                   0041ff10 f   libcurl:conncache.obj
 0001:0001ef70       _ConnectionExists          0041ff70 f   libcurl:url.obj
 0001:000205e0       _IsMultiplexingPossible    004215e0 f   libcurl:url.obj
 0001:00020630       _SocketIsDead              00421630 f   libcurl:url.obj
 0001:00020660       _allocate_conn             00421660 f   libcurl:url.obj
 0001:000208f0       _call_extract_if_dead      004218f0 f   libcurl:url.obj
 0001:00020920       _check_noproxy             00421920 f   libcurl:url.obj
 0001:00020aa0       _conn_free                 00421aa0 f   libcurl:url.obj
 0001:00020c50       _conn_maxage               00421c50 f   libcurl:url.obj
 0001:00020cc0       _conn_reset_all_postponed_data 00421cc0 f   libcurl:url.obj
 0001:00020ce0       _conn_reset_postponed_data 00421ce0 f   libcurl:url.obj
 0001:00020d20       _conn_shutdown             00421d20 f   libcurl:url.obj
 0001:00020db0       _create_conn               00421db0 f   libcurl:url.obj
 0001:00021590       _create_conn_helper_init_proxy 00422590 f   libcurl:url.obj
 0001:00021890       _detect_proxy              00422890 f   libcurl:url.obj
 0001:000219b0       _extract_if_dead           004229b0 f   libcurl:url.obj
 0001:00021a60       _findprotocol              00422a60 f   libcurl:url.obj
 0001:00021ac0       _get_protocol_family       00422ac0 f   libcurl:url.obj
 0001:00021ad0       _override_login            00422ad0 f   libcurl:url.obj
 0001:00021cb0       _parse_connect_to_host_port 00422cb0 f   libcurl:url.obj
 0001:00021e60       _parse_connect_to_slist    00422e60 f   libcurl:url.obj
 0001:00022050       _parse_connect_to_string   00423050 f   libcurl:url.obj
 0001:00022160       _parse_proxy               00423160 f   libcurl:url.obj
 0001:00022500       _parse_proxy_auth          00423500 f   libcurl:url.obj
 0001:000225a0       _parse_remote_port         004235a0 f   libcurl:url.obj
 0001:00022630       _parseurlandfillconn       00423630 f   libcurl:url.obj
 0001:00022a70       _proxy_info_matches        00423a70 f   libcurl:url.obj
 0001:00022ab0       _prune_dead_connections    00423ab0 f   libcurl:url.obj
 0001:00022bd0       _resolve_server            00423bd0 f   libcurl:url.obj
 0001:00022e30       _reuse_conn                00423e30 f   libcurl:url.obj
 0001:00023150       _set_login                 00424150 f   libcurl:url.obj
 0001:000231d0       _setup_connection_internals 004241d0 f   libcurl:url.obj
 0001:00023210       _setup_range               00424210 f   libcurl:url.obj
 0001:000232d0       _socks_proxy_info_matches  004242d0 f   libcurl:url.obj
 0001:000233a0       _strip_trailing_dot        004243a0 f   libcurl:url.obj
 0001:000233d0       _up_free                   004243d0 f   libcurl:url.obj
 0001:000234b0       _zonefrom_url              004244b0 f   libcurl:url.obj
 0001:00023d40       _chop_write                00424d40 f   libcurl:sendf.obj
 0001:00023ef0       _get_pre_recved            00424ef0 f   libcurl:sendf.obj
 0001:00023f70       _pausewrite                00424f70 f   libcurl:sendf.obj
 0001:00024000       _pre_receive_plain         00425000 f   libcurl:sendf.obj
 0001:00024fe0       _ainext                    00425fe0 f   libcurl:connect.obj
 0001:00025020       _bindlocal                 00426020 f   libcurl:connect.obj
 0001:000255c0       _connect_SOCKS             004265c0 f   libcurl:connect.obj
 0001:000256c0       $LN27                      004266c0     libcurl:connect.obj
 0001:000256d0       _post_SOCKS                004266d0 f   libcurl:connect.obj
 0001:00025730       _singleipconnect           00426730 f   libcurl:connect.obj
 0001:00025ad0       _tcpkeepalive              00426ad0 f   libcurl:connect.obj
 0001:00025bb0       _tcpnodelay                00426bb0 f   libcurl:connect.obj
 0001:00025c30       _trynextip                 00426c30 f   libcurl:connect.obj
 0001:00025cb0       _verifyconnect             00426cb0 f   libcurl:connect.obj
 0001:00026990       _alpn2alpnid               00427990 f   libcurl:altsvc.obj
 0001:000269f0       _altsvc_add                004279f0 f   libcurl:altsvc.obj
 0001:00026af0       _altsvc_create             00427af0 f   libcurl:altsvc.obj
 0001:00026b30       _altsvc_createid           00427b30 f   libcurl:altsvc.obj
 0001:00026bb0       _altsvc_flush              00427bb0 f   libcurl:altsvc.obj
 0001:00026c10       _altsvc_free               00427c10 f   libcurl:altsvc.obj
 0001:00026c40       _altsvc_load               00427c40 f   libcurl:altsvc.obj
 0001:00026d30       _altsvc_out                00427d30 f   libcurl:altsvc.obj
 0001:00026dd0       _getalnum                  00427dd0 f   libcurl:altsvc.obj
 0001:00027040       _raw_tolower               00428040 f   libcurl:strcase.obj
 0001:00027060       _identity_unencode_write   00428060 f   libcurl:content_encoding.obj
 0001:00027080       _client_init_writer        00428080 f   libcurl:content_encoding.obj
 0001:000270a0       _client_unencode_write     004280a0 f   libcurl:content_encoding.obj
 0001:000270d0       _identity_init_writer      004280d0 f   libcurl:content_encoding.obj
 0001:000270d0       _error_init_writer         004280d0 f   libcurl:content_encoding.obj
 0001:000270f0       _error_unencode_write      004280f0 f   libcurl:content_encoding.obj
 0001:000273a0       _find_encoding             004283a0 f   libcurl:content_encoding.obj
 0001:00027410       _new_unencoding_writer     00428410 f   libcurl:content_encoding.obj
 0001:00027c40       _hash_element_dtor         00428c40 f   libcurl:hash.obj
 0001:00027c80       _mk_hash_element           00428c80 f   libcurl:hash.obj
 0001:00028850       _Curl_shuffle_addr         00429850 f   libcurl:hostip.obj
 0001:000289c0       _create_hostcache_id       004299c0 f   libcurl:hostip.obj
 0001:00028a20       _fetch_addr                00429a20 f   libcurl:hostip.obj
 0001:00028b60       _freednsentry              00429b60 f   libcurl:hostip.obj
 0001:00028b90       _hostcache_prune           00429b90 f   libcurl:hostip.obj
 0001:00028be0       _hostcache_timestamp_remove 00429be0 f   libcurl:hostip.obj
 0001:00029050       _http_getsock_do           0042a050 f   libcurl:http.obj
 0001:00029050       _rtsp_getsock_do           0042a050 f   libcurl:rtsp.obj
 0001:00029070       _http_setup_conn           0042a070 f   libcurl:http.obj
 0001:0002ac44       $LN106                     0042bc44     libcurl:http.obj
 0001:0002baf4       $LN18                      0042caf4     libcurl:http.obj
 0001:0002cb80       _add_haproxy_protocol_header 0042db80 f   libcurl:http.obj
 0001:0002cc50       _checkhttpprefix           0042dc50 f   libcurl:http.obj
 0001:0002ccc0       _checkprefixmax            0042dcc0 f   libcurl:http.obj
 0001:0002cd10       _checkprotoprefix          0042dd10 f   libcurl:http.obj
 0001:0002cd50       _checkrtspprefix           0042dd50 f   libcurl:http.obj
 0001:0002cd80       _expect100                 0042dd80 f   libcurl:http.obj
 0001:0002ce10       _get_http_string           0042de10 f   libcurl:http.obj
 0001:0002ce40       _http_output_basic         0042de40 f   libcurl:http.obj
 0001:0002cf50       _http_output_bearer        0042df50 f   libcurl:http.obj
 0001:0002cf90       _http_perhapsrewind        0042df90 f   libcurl:http.obj
 0001:0002d12c       $LN34                      0042e12c     libcurl:http.obj
 0001:0002d140       _http_should_fail          0042e140 f   libcurl:http.obj
 0001:0002d1c0       _output_auth_headers       0042e1c0 f   libcurl:http.obj
 0001:0002d350       _pickoneauth               0042e350 f   libcurl:http.obj
 0001:0002d420       _readmoredata              0042e420 f   libcurl:http.obj
 0001:0002d530       _use_http_1_1plus          0042e530 f   libcurl:http.obj
 0001:0002d620       _fileinfo_dtor             0042e620 f   libcurl:wildcard.obj
 0001:0002ebd0       _data_pending              0042fbd0 f   libcurl:transfer.obj
 0001:0002ebf0       _readwrite_data            0042fbf0 f   libcurl:transfer.obj
 0001:0002f240       _readwrite_upload          00430240 f   libcurl:transfer.obj
 0001:0002f600       _trailers_left             00430600 f   libcurl:transfer.obj
 0001:0002f620       _trailers_read             00430620 f   libcurl:transfer.obj
 0001:0002f680       _win_update_buffer_size    00430680 f   libcurl:transfer.obj
 0001:0002fb0c       $LN22                      00430b0c     libcurl:progress.obj
 0001:0002fda0       _max5data                  00430da0 f   libcurl:progress.obj
 0001:0002ff90       _progress_calc             00430f90 f   libcurl:progress.obj
 0001:000302b0       _progress_meter            004312b0 f   libcurl:progress.obj
 0001:00030760       _time2str                  00431760 f   libcurl:progress.obj
 0001:00030ce0       _our_select                00431ce0 f   libcurl:select.obj
 0001:00030f30       _CONNECT                   00431f30 f   libcurl:http_proxy.obj
 0001:000317f0       _CONNECT_host              004327f0 f   libcurl:http_proxy.obj
 0001:00031aa0       _connect_done              00432aa0 f   libcurl:http_proxy.obj
 0001:00031ad0       _connect_init              00432ad0 f   libcurl:http_proxy.obj
 0001:00031b60       _https_proxy_connect       00432b60 f   libcurl:http_proxy.obj
 0001:00031b60       _pop3_perform_upgrade_tls  00432b60 f   libcurl:pop3.obj
 0001:00031b60       _imap_perform_upgrade_tls  00432b60 f   libcurl:imap.obj
 0001:00031b60       _smtp_perform_upgrade_tls  00432b60 f   libcurl:smtp.obj
 0001:000321ac       $LN67                      004331ac     libcurl:socks.obj
 0001:000321c8       $LN58                      004331c8     libcurl:socks.obj
 0001:000321d8       $LN68                      004331d8     libcurl:socks.obj
 0001:00032d80       $LN152                     00433d80     libcurl:socks.obj
 0001:00032dfc       $LN9                       00433dfc     libcurl:socks.obj
 0001:00032e04       $LN7                       00433e04     libcurl:socks.obj
 0001:00032e20       _socksstate                00433e20 f   libcurl:socks.obj
 0001:00032e90       _addbyter                  00433e90 f   libcurl:mprintf.obj
 0001:00032ec0       _alloc_addbyter            00433ec0 f   libcurl:mprintf.obj
 0001:00033040       _dprintf_DollarString      00434040 f   libcurl:mprintf.obj
 0001:000330b0       _dprintf_IsQualifierNoDollar 004340b0 f   libcurl:mprintf.obj
 0001:00033104       $LN11                      00434104     libcurl:mprintf.obj
 0001:0003310c       $LN9                       0043410c     libcurl:mprintf.obj
 0001:00033170       _dprintf_Pass1             00434170 f   libcurl:mprintf.obj
 0001:000336dc       $LN115                     004346dc     libcurl:mprintf.obj
 0001:00033718       $LN109                     00434718     libcurl:mprintf.obj
 0001:00033794       $LN116                     00434794     libcurl:mprintf.obj
 0001:000337d4       $LN110                     004347d4     libcurl:mprintf.obj
 0001:00033808       $LN117                     00434808     libcurl:mprintf.obj
 0001:00033830       _dprintf_formatf           00434830 f   libcurl:mprintf.obj
 0001:000343a4       $LN368                     004353a4     libcurl:mprintf.obj
 0001:00034650       _inet_pton4                00435650 f   libcurl:inet_pton.obj
 0001:00034710       _inet_pton6                00435710 f   libcurl:inet_pton.obj
 0001:000349c0       _checkday                  004359c0 f   libcurl:parsedate.obj
 0001:00034a20       _checkmonth                00435a20 f   libcurl:parsedate.obj
 0001:00034a80       _checktz                   00435a80 f   libcurl:parsedate.obj
 0001:00034ac0       _parsedate                 00435ac0 f   libcurl:parsedate.obj
 0001:00034f40       _skip                      00435f40 f   libcurl:parsedate.obj
 0001:00034f70       _time2epoch                00435f70 f   libcurl:parsedate.obj
 0001:00035150       _randit                    00436150 f   libcurl:rand.obj
 0001:000358e0       _gopher_do                 004368e0 f   libcurl:gopher.obj
 0001:00035af0       _imap_perform_authenticate 00436af0 f   libcurl:imap.obj
 0001:00035b30       _imap_get_message          00436b30 f   libcurl:imap.obj
 0001:00035b30       _pop3_get_message          00436b30 f   libcurl:pop3.obj
 0001:00035bb0       _imap_do                   00436bb0 f   libcurl:imap.obj
 0001:00035bf0       _imap_done                 00436bf0 f   libcurl:imap.obj
 0001:00035d40       _imap_connect              00436d40 f   libcurl:imap.obj
 0001:00035de0       _imap_disconnect           00436de0 f   libcurl:imap.obj
 0001:00035e70       _smtp_multi_statemach      00436e70 f   libcurl:smtp.obj
 0001:00035e70       _pop3_multi_statemach      00436e70 f   libcurl:pop3.obj
 0001:00035e70       _imap_multi_statemach      00436e70 f   libcurl:imap.obj
 0001:00035ec0       _smtp_getsock              00436ec0 f   libcurl:smtp.obj
 0001:00035ec0       _pop3_getsock              00436ec0 f   libcurl:pop3.obj
 0001:00035ec0       _imap_getsock              00436ec0 f   libcurl:imap.obj
 0001:00035ec0       _ftp_getsock               00436ec0 f   libcurl:ftp.obj
 0001:00035ed0       _imap_setup_connection     00436ed0 f   libcurl:imap.obj
 0001:00035ef0       _imap_atom                 00436ef0 f   libcurl:imap.obj
 0001:00036050       _imap_dophase_done         00437050 f   libcurl:imap.obj
 0001:00036050       _smtp_dophase_done         00437050 f   libcurl:smtp.obj
 0001:00036080       _imap_endofresp            00437080 f   libcurl:imap.obj
 0001:000363c0       $LN41                      004373c0     libcurl:imap.obj
 0001:000363d8       $LN37                      004373d8     libcurl:imap.obj
 0001:000363f0       _imap_init                 004373f0 f   libcurl:imap.obj
 0001:00036420       _imap_is_bchar             00437420 f   libcurl:imap.obj
 0001:00036448       $LN9                       00437448     libcurl:imap.obj
 0001:00036450       $LN7                       00437450     libcurl:imap.obj
 0001:000364b0       _imap_matchresp            004374b0 f   libcurl:imap.obj
 0001:00036540       _imap_parse_custom_request 00437540 f   libcurl:imap.obj
 0001:000365c0       _imap_parse_url_options    004375c0 f   libcurl:imap.obj
 0001:00036690       _imap_parse_url_path       00437690 f   libcurl:imap.obj
 0001:00036960       _imap_perform              00437960 f   libcurl:imap.obj
 0001:00036a90       _imap_perform_append       00437a90 f   libcurl:imap.obj
 0001:00036bf0       _imap_perform_authentication 00437bf0 f   libcurl:imap.obj
 0001:00036cb0       _imap_perform_capability   00437cb0 f   libcurl:imap.obj
 0001:00036d00       _imap_perform_fetch        00437d00 f   libcurl:imap.obj
 0001:00036dd0       _imap_perform_list         00437dd0 f   libcurl:imap.obj
 0001:00036e70       _imap_perform_login        00437e70 f   libcurl:imap.obj
 0001:00036f10       _imap_perform_logout       00437f10 f   libcurl:imap.obj
 0001:00036f40       _imap_perform_search       00437f40 f   libcurl:imap.obj
 0001:00036fa0       _imap_perform_select       00437fa0 f   libcurl:imap.obj
 0001:00037050       _imap_perform_starttls     00438050 f   libcurl:imap.obj
 0001:00037080       _imap_regular_transfer     00438080 f   libcurl:imap.obj
 0001:00037100       _imap_sendf                00438100 f   libcurl:imap.obj
 0001:000371a0       _imap_state_append_final_resp 004381a0 f   libcurl:imap.obj
 0001:000371d0       _imap_state_append_resp    004381d0 f   libcurl:imap.obj
 0001:00037220       _imap_state_auth_resp      00438220 f   libcurl:imap.obj
 0001:000372a0       _imap_state_capability_resp 004382a0 f   libcurl:imap.obj
 0001:00037440       _imap_state_fetch_final_resp 00438440 f   libcurl:imap.obj
 0001:00037470       _imap_state_fetch_resp     00438470 f   libcurl:imap.obj
 0001:00037690       _imap_state_listsearch_resp 00438690 f   libcurl:imap.obj
 0001:000376f0       _imap_state_login_resp     004386f0 f   libcurl:imap.obj
 0001:00037730       _imap_state_select_resp    00438730 f   libcurl:imap.obj
 0001:00037890       _imap_state_servergreet_resp 00438890 f   libcurl:imap.obj
 0001:000378f0       _imap_state_starttls_resp  004388f0 f   libcurl:imap.obj
 0001:00037940       _imap_statemachine         00438940 f   libcurl:imap.obj
 0001:00037aa4       $LN44                      00438aa4     libcurl:imap.obj
 0001:00037ae0       _pop3_do                   00438ae0 f   libcurl:pop3.obj
 0001:00037b20       _pop3_done                 00438b20 f   libcurl:pop3.obj
 0001:00037b80       _pop3_connect              00438b80 f   libcurl:pop3.obj
 0001:00037c10       _pop3_disconnect           00438c10 f   libcurl:pop3.obj
 0001:00037c80       _pop3_doing                00438c80 f   libcurl:pop3.obj
 0001:00037cb0       _pop3_setup_connection     00438cb0 f   libcurl:pop3.obj
 0001:00037cd0       _smtp_perform_auth         00438cd0 f   libcurl:smtp.obj
 0001:00037cd0       _pop3_perform_auth         00438cd0 f   libcurl:pop3.obj
 0001:00037d10       _imap_continue_authenticate 00438d10 f   libcurl:imap.obj
 0001:00037d10       _smtp_continue_auth        00438d10 f   libcurl:smtp.obj
 0001:00037d10       _pop3_continue_auth        00438d10 f   libcurl:pop3.obj
 0001:00037ec0       _imap_block_statemach      00438ec0 f   libcurl:imap.obj
 0001:00037ec0       _smtp_block_statemach      00438ec0 f   libcurl:smtp.obj
 0001:00037ec0       _pop3_block_statemach      00438ec0 f   libcurl:pop3.obj
 0001:00037f10       _pop3_endofresp            00438f10 f   libcurl:pop3.obj
 0001:00037fa0       _pop3_init                 00438fa0 f   libcurl:pop3.obj
 0001:00037fd0       _pop3_parse_custom_request 00438fd0 f   libcurl:pop3.obj
 0001:00038000       _pop3_parse_url_options    00439000 f   libcurl:pop3.obj
 0001:00038120       _pop3_parse_url_path       00439120 f   libcurl:pop3.obj
 0001:00038150       _pop3_perform              00439150 f   libcurl:pop3.obj
 0001:000381a0       _pop3_perform_apop         004391a0 f   libcurl:pop3.obj
 0001:000382e0       _pop3_perform_authentication 004392e0 f   libcurl:pop3.obj
 0001:000383b0       _pop3_perform_capa         004393b0 f   libcurl:pop3.obj
 0001:00038400       _pop3_perform_command      00439400 f   libcurl:pop3.obj
 0001:000384a0       _pop3_perform_quit         004394a0 f   libcurl:pop3.obj
 0001:000384e0       _pop3_perform_starttls     004394e0 f   libcurl:pop3.obj
 0001:00038520       _pop3_perform_user         00439520 f   libcurl:pop3.obj
 0001:00038580       _pop3_regular_transfer     00439580 f   libcurl:pop3.obj
 0001:00038600       _pop3_state_apop_resp      00439600 f   libcurl:pop3.obj
 0001:00038640       _pop3_state_auth_resp      00439640 f   libcurl:pop3.obj
 0001:000386d0       _pop3_state_capa_resp      004396d0 f   libcurl:pop3.obj
 0001:00038840       _pop3_state_command_resp   00439840 f   libcurl:pop3.obj
 0001:000388f0       _pop3_state_pass_resp      004398f0 f   libcurl:pop3.obj
 0001:00038930       _pop3_state_servergreet_resp 00439930 f   libcurl:pop3.obj
 0001:00038a50       _pop3_state_starttls_resp  00439a50 f   libcurl:pop3.obj
 0001:00038aa0       _pop3_state_user_resp      00439aa0 f   libcurl:pop3.obj
 0001:00038b10       _pop3_statemachine         00439b10 f   libcurl:pop3.obj
 0001:00038c30       $LN39                      00439c30     libcurl:pop3.obj
 0001:00038c60       _state                     00439c60 f   libcurl:imap.obj
 0001:00038c60       _state                     00439c60 f   libcurl:smtp.obj
 0001:00038c60       _state                     00439c60 f   libcurl:pop3.obj
 0001:00038c80       _smtp_get_message          00439c80 f   libcurl:smtp.obj
 0001:00038d00       _smtp_do                   00439d00 f   libcurl:smtp.obj
 0001:00038d30       _smtp_done                 00439d30 f   libcurl:smtp.obj
 0001:00038eb0       _smtp_connect              00439eb0 f   libcurl:smtp.obj
 0001:00038f40       _smtp_disconnect           00439f40 f   libcurl:smtp.obj
 0001:00038fb0       _imap_doing                00439fb0 f   libcurl:imap.obj
 0001:00038fb0       _smtp_doing                00439fb0 f   libcurl:smtp.obj
 0001:00038fe0       _smtp_setup_connection     00439fe0 f   libcurl:smtp.obj
 0001:000391e0       _smtp_endofresp            0043a1e0 f   libcurl:smtp.obj
 0001:00039300       _smtp_init                 0043a300 f   libcurl:smtp.obj
 0001:00039330       _smtp_parse_address        0043a330 f   libcurl:smtp.obj
 0001:000393b0       _smtp_parse_custom_request 0043a3b0 f   libcurl:smtp.obj
 0001:000393e0       _smtp_parse_url_options    0043a3e0 f   libcurl:smtp.obj
 0001:00039480       _smtp_parse_url_path       0043a480 f   libcurl:smtp.obj
 0001:00039500       _smtp_perform              0043a500 f   libcurl:smtp.obj
 0001:00039590       _smtp_perform_authentication 0043a590 f   libcurl:smtp.obj
 0001:00039620       _smtp_perform_command      0043a620 f   libcurl:smtp.obj
 0001:000397b0       _smtp_perform_ehlo         0043a7b0 f   libcurl:smtp.obj
 0001:00039800       _smtp_perform_helo         0043a800 f   libcurl:smtp.obj
 0001:00039840       _smtp_perform_mail         0043a840 f   libcurl:smtp.obj
 0001:00039c60       _smtp_perform_quit         0043ac60 f   libcurl:smtp.obj
 0001:00039ca0       _smtp_perform_rcpt_to      0043aca0 f   libcurl:smtp.obj
 0001:00039d50       _smtp_perform_starttls     0043ad50 f   libcurl:smtp.obj
 0001:00039d90       _smtp_regular_transfer     0043ad90 f   libcurl:smtp.obj
 0001:00039e10       _smtp_state_auth_resp      0043ae10 f   libcurl:smtp.obj
 0001:00039e70       _smtp_state_command_resp   0043ae70 f   libcurl:smtp.obj
 0001:00039f60       _smtp_state_data_resp      0043af60 f   libcurl:smtp.obj
 0001:00039fc0       _smtp_state_ehlo_resp      0043afc0 f   libcurl:smtp.obj
 0001:0003a1d0       _smtp_state_helo_resp      0043b1d0 f   libcurl:smtp.obj
 0001:0003a210       _smtp_state_mail_resp      0043b210 f   libcurl:smtp.obj
 0001:0003a250       _smtp_state_postdata_resp  0043b250 f   libcurl:smtp.obj
 0001:0003a280       _smtp_state_rcpt_resp      0043b280 f   libcurl:smtp.obj
 0001:0003a350       _smtp_state_servergreet_resp 0043b350 f   libcurl:smtp.obj
 0001:0003a390       _smtp_state_starttls_resp  0043b390 f   libcurl:smtp.obj
 0001:0003a3e0       _smtp_statemachine         0043b3e0 f   libcurl:smtp.obj
 0001:0003a52c       $LN42                      0043b52c     libcurl:smtp.obj
 0001:0003a560       _ftp_do                    0043b560 f   libcurl:ftp.obj
 0001:0003a5d0       _ftp_done                  0043b5d0 f   libcurl:ftp.obj
 0001:0003aaa8       $LN94                      0043baa8     libcurl:ftp.obj
 0001:0003aab0       $LN60                      0043bab0     libcurl:ftp.obj
 0001:0003ab00       _ftp_connect               0043bb00 f   libcurl:ftp.obj
 0001:0003ab80       _ftp_disconnect            0043bb80 f   libcurl:ftp.obj
 0001:0003ac10       _ftp_do_more               0043bc10 f   libcurl:ftp.obj
 0001:0003ae70       _ftp_multi_statemach       0043be70 f   libcurl:ftp.obj
 0001:0003aea0       _ftp_domore_getsock        0043bea0 f   libcurl:ftp.obj
 0001:0003af50       _ftp_doing                 0043bf50 f   libcurl:ftp.obj
 0001:0003af80       _ftp_setup_connection      0043bf80 f   libcurl:ftp.obj
 0001:0003b040       _AcceptServerConnect       0043c040 f   libcurl:ftp.obj
 0001:0003b180       _AllowServerConnect        0043c180 f   libcurl:ftp.obj
 0001:0003b3a0       _InitiateTransfer          0043c3a0 f   libcurl:ftp.obj
 0001:0003b440       _ReceivedServerConnect     0043c440 f   libcurl:ftp.obj
 0001:0003b590       __state                    0043c590 f   libcurl:ftp.obj
 0001:0003b5b0       _close_secondarysocket     0043c5b0 f   libcurl:ftp.obj
 0001:0003b5f0       _control_address           0043c5f0 f   libcurl:ftp.obj
 0001:0003b620       _freedirs                  0043c620 f   libcurl:ftp.obj
 0001:0003b6a0       _ftp_block_statemach       0043c6a0 f   libcurl:ftp.obj
 0001:0003b6f0       _ftp_dophase_done          0043c6f0 f   libcurl:ftp.obj
 0001:0003b780       _ftp_endofresp             0043c780 f   libcurl:ftp.obj
 0001:0003b7f0       _ftp_epsv_disable          0043c7f0 f   libcurl:ftp.obj
 0001:0003b880       _ftp_nb_type               0043c880 f   libcurl:ftp.obj
 0001:0003b900       _ftp_need_type             0043c900 f   libcurl:ftp.obj
 0001:0003b930       _ftp_parse_url_path        0043c930 f   libcurl:ftp.obj
 0001:0003bc40       _ftp_pasv_verbose          0043cc40 f   libcurl:ftp.obj
 0001:0003bca0       _ftp_perform               0043cca0 f   libcurl:ftp.obj
 0001:0003bd10       _ftp_quit                  0043cd10 f   libcurl:ftp.obj
 0001:0003bd90       _ftp_readresp              0043cd90 f   libcurl:ftp.obj
 0001:0003bdf0       _ftp_regular_transfer      0043cdf0 f   libcurl:ftp.obj
 0001:0003bea0       _ftp_sendquote             0043cea0 f   libcurl:ftp.obj
 0001:0003bf60       _ftp_state_acct_resp       0043cf60 f   libcurl:ftp.obj
 0001:0003bfa0       _ftp_state_cwd             0043cfa0 f   libcurl:ftp.obj
 0001:0003c050       _ftp_state_get_resp        0043d050 f   libcurl:ftp.obj
 0001:0003c270       _ftp_state_list            0043d270 f   libcurl:ftp.obj
 0001:0003c380       _ftp_state_loggedin        0043d380 f   libcurl:ftp.obj
 0001:0003c3d0       _ftp_state_mdtm            0043d3d0 f   libcurl:ftp.obj
 0001:0003c430       _ftp_state_mdtm_resp       0043d430 f   libcurl:ftp.obj
 0001:0003c6e0       _ftp_state_pasv_resp       0043d6e0 f   libcurl:ftp.obj
 0001:0003cba0       _ftp_state_port_resp       0043dba0 f   libcurl:ftp.obj
 0001:0003cc30       _ftp_state_prepare_transfer 0043dc30 f   libcurl:ftp.obj
 0001:0003cd00       _ftp_state_pwd             0043dd00 f   libcurl:ftp.obj
 0001:0003cd40       _ftp_state_quote           0043dd40 f   libcurl:ftp.obj
 0001:0003cf00       _ftp_state_rest            0043df00 f   libcurl:ftp.obj
 0001:0003cf60       _ftp_state_rest_resp       0043df60 f   libcurl:ftp.obj
 0001:0003d050       _ftp_state_retr            0043e050 f   libcurl:ftp.obj
 0001:0003d220       _ftp_state_retr_prequote   0043e220 f   libcurl:ftp.obj
 0001:0003d240       _ftp_state_size            0043e240 f   libcurl:ftp.obj
 0001:0003d2a0       _ftp_state_size_resp       0043e2a0 f   libcurl:ftp.obj
 0001:0003d480       _ftp_state_stor_prequote   0043e480 f   libcurl:ftp.obj
 0001:0003d4a0       _ftp_state_stor_resp       0043e4a0 f   libcurl:ftp.obj
 0001:0003d530       _ftp_state_type            0043e530 f   libcurl:ftp.obj
 0001:0003d5a0       _ftp_state_type_resp       0043e5a0 f   libcurl:ftp.obj
 0001:0003d650       _ftp_state_ul_setup        0043e650 f   libcurl:ftp.obj
 0001:0003d8b0       _ftp_state_use_pasv        0043e8b0 f   libcurl:ftp.obj
 0001:0003d930       _ftp_state_use_port        0043e930 f   libcurl:ftp.obj
 0001:0003e270       _ftp_state_user            0043f270 f   libcurl:ftp.obj
 0001:0003e2c0       _ftp_state_user_resp       0043f2c0 f   libcurl:ftp.obj
 0001:0003e3e0       _ftp_statemachine          0043f3e0 f   libcurl:ftp.obj
 0001:0003ebec       $LN150                     0043fbec     libcurl:ftp.obj
 0001:0003ec70       _ftp_timeleft_accept       0043fc70 f   libcurl:ftp.obj
 0001:0003ed30       _init_wc_data              0043fd30 f   libcurl:ftp.obj
 0001:0003eeb0       _wc_data_dtor              0043feb0 f   libcurl:ftp.obj
 0001:0003eef0       _wc_statemach              0043fef0 f   libcurl:ftp.obj
 0001:0003f188       $LN38                      00440188     libcurl:ftp.obj
 0001:0003f1b0       _file_do                   004401b0 f   libcurl:file.obj
 0001:0003f670       _file_done                 00440670 f   libcurl:file.obj
 0001:0003f6c0       _file_connect              004406c0 f   libcurl:file.obj
 0001:0003f7c0       _file_disconnect           004407c0 f   libcurl:file.obj
 0001:0003f7e0       _file_setup_connection     004407e0 f   libcurl:file.obj
 0001:0003f810       _file_upload               00440810 f   libcurl:file.obj
 0001:0003fa80       _dict_do                   00440a80 f   libcurl:dict.obj
 0001:0003fd20       _sendf                     00440d20 f   libcurl:dict.obj
 0001:0003fdd0       _unescape_word             00440dd0 f   libcurl:dict.obj
 0001:0003fe70       _telnet_do                 00440e70 f   libcurl:telnet.obj
 0001:00040220       _telnet_done               00441220 f   libcurl:telnet.obj
 0001:00040270       _check_telnet_options      00441270 f   libcurl:telnet.obj
 0001:00040580       _init_telnet               00441580 f   libcurl:telnet.obj
 0001:00040600       _negotiate                 00441600 f   libcurl:telnet.obj
 0001:00040650       _printoption               00441650 f   libcurl:telnet.obj
 0001:00040750       _printsub                  00441750 f   libcurl:telnet.obj
 0001:00040a18       $LN73                      00441a18     libcurl:telnet.obj
 0001:00040a20       $LN60                      00441a20     libcurl:telnet.obj
 0001:00040a30       $LN74                      00441a30     libcurl:telnet.obj
 0001:00040a40       _rec_do                    00441a40 f   libcurl:telnet.obj
 0001:00040b40       _rec_dont                  00441b40 f   libcurl:telnet.obj
 0001:00040be0       _rec_will                  00441be0 f   libcurl:telnet.obj
 0001:00040cb0       _rec_wont                  00441cb0 f   libcurl:telnet.obj
 0001:00040d60       _send_negotiation          00441d60 f   libcurl:telnet.obj
 0001:00040dc0       _send_telnet_data          00441dc0 f   libcurl:telnet.obj
 0001:00040ee0       _sendsuboption             00441ee0 f   libcurl:telnet.obj
 0001:00041050       _set_local_option          00442050 f   libcurl:telnet.obj
 0001:000410f0       _set_remote_option         004420f0 f   libcurl:telnet.obj
 0001:000411a0       _suboption                 004421a0 f   libcurl:telnet.obj
 0001:00041430       _telrcv                    00442430 f   libcurl:telnet.obj
 0001:0004179c       $LN88                      0044279c     libcurl:telnet.obj
 0001:000417c0       $LN89                      004427c0     libcurl:telnet.obj
 0001:000417e0       _tftp_connect              004427e0 f   libcurl:tftp.obj
 0001:000419c0       _tftp_disconnect           004429c0 f   libcurl:tftp.obj
 0001:00041a10       _tftp_do                   00442a10 f   libcurl:tftp.obj
 0001:00041a70       _tftp_done                 00442a70 f   libcurl:tftp.obj
 0001:00041ab0       _tftp_setup_connection     00442ab0 f   libcurl:tftp.obj
 0001:00041b30       _tftp_multi_statemach      00442b30 f   libcurl:tftp.obj
 0001:00041c40       _tftp_doing                00442c40 f   libcurl:tftp.obj
 0001:00041ca0       _getrpacketblock           00442ca0 f   libcurl:tftp.obj
 0001:00041cc0       _getrpacketevent           00442cc0 f   libcurl:tftp.obj
 0001:00041ce0       _setpacketblock            00442ce0 f   libcurl:tftp.obj
 0001:00041d00       _setpacketevent            00442d00 f   libcurl:tftp.obj
 0001:00041d20       _tftp_connect_for_rx       00442d20 f   libcurl:tftp.obj
 0001:00041d60       _tftp_connect_for_tx       00442d60 f   libcurl:tftp.obj
 0001:00041da0       _tftp_option_add           00442da0 f   libcurl:tftp.obj
 0001:00041e10       _tftp_option_get           00442e10 f   libcurl:tftp.obj
 0001:00041e80       _tftp_parse_option_ack     00442e80 f   libcurl:tftp.obj
 0001:00042090       _tftp_perform              00443090 f   libcurl:tftp.obj
 0001:000420d0       _tftp_receive_packet       004430d0 f   libcurl:tftp.obj
 0001:000422ec       $LN20                      004432ec     libcurl:tftp.obj
 0001:00042300       _tftp_rx                   00443300 f   libcurl:tftp.obj
 0001:000425bc       $LN28                      004435bc     libcurl:tftp.obj
 0001:000425d0       _tftp_send_first           004435d0 f   libcurl:tftp.obj
 0001:000429ec       $LN40                      004439ec     libcurl:tftp.obj
 0001:00042a10       _tftp_set_timeouts         00443a10 f   libcurl:tftp.obj
 0001:00042b10       _tftp_state_machine        00443b10 f   libcurl:tftp.obj
 0001:00042b74       $LN25                      00443b74     libcurl:tftp.obj
 0001:00042b90       _tftp_state_timeout        00443b90 f   libcurl:tftp.obj
 0001:00042c40       _tftp_strnlen              00443c40 f   libcurl:tftp.obj
 0001:00042c70       _tftp_translate_code       00443c70 f   libcurl:tftp.obj
 0001:00042cdc       $LN19                      00443cdc     libcurl:tftp.obj
 0001:00042d04       $LN17                      00443d04     libcurl:tftp.obj
 0001:00042d70       _tftp_tx                   00443d70 f   libcurl:tftp.obj
 0001:000430e8       $LN37                      004440e8     libcurl:tftp.obj
 0001:00043100       _ldap_do                   00444100 f   libcurl:ldap.obj
 0001:000437a0       __ldap_free_urldesc        004447a0 f   libcurl:ldap.obj
 0001:00043800       __ldap_url_parse           00444800 f   libcurl:ldap.obj
 0001:00043860       __ldap_url_parse2          00444860 f   libcurl:ldap.obj
 0001:00043b10       _ldap_win_bind             00444b10 f   libcurl:ldap.obj
 0001:00043b90       _split_str                 00444b90 f   libcurl:ldap.obj
 0001:00043c30       _str2scope                 00444c30 f   libcurl:ldap.obj
 0001:00043cb0       _rtsp_do                   00444cb0 f   libcurl:rtsp.obj
 0001:00044414       $LN115                     00445414     libcurl:rtsp.obj
 0001:00044450       _rtsp_done                 00445450 f   libcurl:rtsp.obj
 0001:000444f0       _rtsp_connect              004454f0 f   libcurl:rtsp.obj
 0001:00044540       _rtsp_disconnect           00445540 f   libcurl:rtsp.obj
 0001:00044570       _rtsp_rtp_readwrite        00445570 f   libcurl:rtsp.obj
 0001:00044740       _rtsp_setup_connection     00445740 f   libcurl:rtsp.obj
 0001:00044770       _rtsp_conncheck            00445770 f   libcurl:rtsp.obj
 0001:00044940       _rtp_client_write          00445940 f   libcurl:rtsp.obj
 0001:000449f0       _rtsp_connisdead           004459f0 f   libcurl:rtsp.obj
 0001:00044a40       _smb_setup_connection      00445a40 f   libcurl:smb.obj
 0001:00044a70       _smb_connect               00445a70 f   libcurl:smb.obj
 0001:00044b50       _smb_connection_state      00445b50 f   libcurl:smb.obj
 0001:00044c90       _smb_do                    00445c90 f   libcurl:smb.obj
 0001:00044cc0       _smb_request_state         00445cc0 f   libcurl:smb.obj
 0001:000450dc       $LN55                      004460dc     libcurl:smb.obj
 0001:000450f4       $LN56                      004460f4     libcurl:smb.obj
 0001:00045110       _smb_done                  00446110 f   libcurl:smb.obj
 0001:00045140       _smb_disconnect            00446140 f   libcurl:smb.obj
 0001:000451a0       _smb_getsock               004461a0 f   libcurl:smb.obj
 0001:000451c0       _conn_state                004461c0 f   libcurl:smb.obj
 0001:000451e0       _get_posix_time            004461e0 f   libcurl:smb.obj
 0001:00045210       _request_state             00446210 f   libcurl:smb.obj
 0001:00045230       _smb_flush                 00446230 f   libcurl:smb.obj
 0001:00045290       _smb_format_message        00446290 f   libcurl:smb.obj
 0001:00045310       _smb_parse_url_path        00446310 f   libcurl:smb.obj
 0001:000453f0       _smb_pop_message           004463f0 f   libcurl:smb.obj
 0001:00045410       _smb_recv_message          00446410 f   libcurl:smb.obj
 0001:000454c0       _smb_send                  004464c0 f   libcurl:smb.obj
 0001:00045510       _smb_send_and_recv         00446510 f   libcurl:smb.obj
 0001:000455c0       _smb_send_close            004465c0 f   libcurl:smb.obj
 0001:00045600       _smb_send_message          00446600 f   libcurl:smb.obj
 0001:00045650       _smb_send_negotiate        00446650 f   libcurl:smb.obj
 0001:00045670       _smb_send_open             00446670 f   libcurl:smb.obj
 0001:00045780       _smb_send_read             00446780 f   libcurl:smb.obj
 0001:000457f0       _smb_send_setup            004467f0 f   libcurl:smb.obj
 0001:000459f0       _smb_send_tree_connect     004469f0 f   libcurl:smb.obj
 0001:00045b50       _smb_send_tree_disconnect  00446b50 f   libcurl:smb.obj
 0001:00045b80       _smb_send_write            00446b80 f   libcurl:smb.obj
 0001:00045c50       _mqtt_do                   00446c50 f   libcurl:mqtt.obj
 0001:00045ca0       _mqtt_doing                00446ca0 f   libcurl:mqtt.obj
 0001:00045ef0       $LN44                      00446ef0     libcurl:mqtt.obj
 0001:00045f10       _tftp_getsock              00446f10 f   libcurl:tftp.obj
 0001:00045f10       _mqtt_getsock              00446f10 f   libcurl:mqtt.obj
 0001:00045f30       _mqtt_setup_conn           00446f30 f   libcurl:mqtt.obj
 0001:00045f60       _mqstate                   00446f60 f   libcurl:mqtt.obj
 0001:00045fa0       _mqtt_connect              00446fa0 f   libcurl:mqtt.obj
 0001:00046060       _mqtt_decode_len           00447060 f   libcurl:mqtt.obj
 0001:000460b0       _mqtt_disconnect           004470b0 f   libcurl:mqtt.obj
 0001:000460d0       _mqtt_encode_len           004470d0 f   libcurl:mqtt.obj
 0001:00046100       _mqtt_get_topic            00447100 f   libcurl:mqtt.obj
 0001:00046160       _mqtt_publish              00447160 f   libcurl:mqtt.obj
 0001:00046270       _mqtt_read_publish         00447270 f   libcurl:mqtt.obj
 0001:00046438       $LN28                      00447438     libcurl:mqtt.obj
 0001:00046450       _mqtt_send                 00447450 f   libcurl:mqtt.obj
 0001:000464d0       _mqtt_subscribe            004474d0 f   libcurl:mqtt.obj
 0001:000465d0       _mqtt_verify_connack       004475d0 f   libcurl:mqtt.obj
 0001:00046650       _mqtt_verify_suback        00447650 f   libcurl:mqtt.obj
 0001:000466c0       _GetEnv                    004476c0 f   libcurl:getenv.obj
 0001:00046820       _Curl_parse_port           00447820 f   libcurl:urlapi.obj
 0001:000469a0       _concat_url                004479a0 f   libcurl:urlapi.obj
 0001:00047198       $LN87                      00448198     libcurl:urlapi.obj
 0001:000476f0       $LN123                     004486f0     libcurl:urlapi.obj
 0001:0004771c       $LN124                     0044871c     libcurl:urlapi.obj
 0001:00047750       _find_host_sep             00448750 f   libcurl:urlapi.obj
 0001:000477c0       _free_urlhandle            004487c0 f   libcurl:urlapi.obj
 0001:00047840       _hostname_check            00448840 f   libcurl:urlapi.obj
 0001:000479c0       _junkscan                  004489c0 f   libcurl:urlapi.obj
 0001:00047a00       _mv_urlhandle              00448a00 f   libcurl:urlapi.obj
 0001:00047a40       _parse_hostname_login      00448a40 f   libcurl:urlapi.obj
 0001:00047b20       _parseurl                  00448b20 f   libcurl:urlapi.obj
 0001:00047b60       _seturl                    00448b60 f   libcurl:urlapi.obj
 0001:00048170       _strcpy_url                00449170 f   libcurl:urlapi.obj
 0001:00048220       _strlen_url                00449220 f   libcurl:urlapi.obj
 0001:000482a0       _urlchar_needs_escaping    004492a0 f   libcurl:urlapi.obj
 0001:00048510       _parsenetrc                00449510 f   libcurl:netrc.obj
 0001:00048cf0       _blobcmp                   00449cf0 f   libcurl:vtls.obj
 0001:00048d90       _blobdup                   00449d90 f   libcurl:vtls.obj
 0001:00048e18       $LN9                       00449e18     libcurl:escape.obj
 0001:00048e20       $LN7                       00449e20     libcurl:escape.obj
 0001:00049678       $LN95                      0044a678     libcurl:strerror.obj
 0001:00049800       _get_winapi_error          0044a800 f   libcurl:strerror.obj
 0001:000498b0       _get_winsock_error         0044a8b0 f   libcurl:strerror.obj
 0001:00049ae8       $LN61                      0044aae8     libcurl:strerror.obj
 0001:00049ba4       $LN58                      0044aba4     libcurl:strerror.obj
 0001:00049d00       _inet_ntop4                0044ad00 f   libcurl:inet_ntop.obj
 0001:00049da0       _inet_ntop6                0044ada0 f   libcurl:inet_ntop.obj
 0001:0004a12c       $LN18                      0044b12c     libcurl:version_win32.obj
 0001:0004a194       $LN10                      0044b194     libcurl:digest.obj
 0001:0004ad04       $LN33                      0044bd04     libcurl:digest.obj
 0001:0004ad18       $LN28                      0044bd18     libcurl:digest.obj
 0001:0004ad70       _auth_create_digest_http_message 0044bd70 f   libcurl:digest.obj
 0001:0004b210       _auth_decode_digest_md5_message 0044c210 f   libcurl:digest.obj
 0001:0004b300       _auth_digest_get_key_value 0044c300 f   libcurl:digest.obj
 0001:0004b370       _auth_digest_get_qop_values 0044c370 f   libcurl:digest.obj
 0001:0004b430       _auth_digest_md5_to_ascii  0044c430 f   libcurl:digest.obj
 0001:0004b470       _auth_digest_sha256_to_ascii 0044c470 f   libcurl:digest.obj
 0001:0004b4b0       _auth_digest_string_quoted 0044c4b0 f   libcurl:digest.obj
 0001:0004b564       $LN16                      0044c564     libcurl:http_chunks.obj
 0001:0004b920       $LN74                      0044c920     libcurl:http_chunks.obj
 0001:0004bd40       _de_cleanup                0044cd40 f   libcurl:doh.obj
 0001:0004bd70       _de_init                   0044cd70 f   libcurl:doh.obj
 0001:0004bdc0       _doh2ai                    0044cdc0 f   libcurl:doh.obj
 0001:0004bf10       _doh_decode                0044cf10 f   libcurl:doh.obj
 0001:0004c210       _doh_done                  0044d210 f   libcurl:doh.obj
 0001:0004c290       _doh_encode                0044d290 f   libcurl:doh.obj
 0001:0004c390       _doh_strerror              0044d390 f   libcurl:doh.obj
 0001:0004c3b0       _doh_write_cb              0044d3b0 f   libcurl:doh.obj
 0001:0004c3e0       _dohprobe                  0044d3e0 f   libcurl:doh.obj
 0001:0004ca20       _get16bit                  0044da20 f   libcurl:doh.obj
 0001:0004ca40       _get32bit                  0044da40 f   libcurl:doh.obj
 0001:0004ca70       _rdata                     0044da70 f   libcurl:doh.obj
 0001:0004caf0       _showdoh                   0044daf0 f   libcurl:doh.obj
 0001:0004cc80       _skipqname                 0044dc80 f   libcurl:doh.obj
 0001:0004ccf0       _store_a                   0044dcf0 f   libcurl:doh.obj
 0001:0004cd30       _store_aaaa                0044dd30 f   libcurl:doh.obj
 0001:0004cd70       _store_cname               0044dd70 f   libcurl:doh.obj
 0001:0004ce90       _type2name                 0044de90 f   libcurl:doh.obj
 0001:0004d170       _setname                   0044e170 f   libcurl:formdata.obj
 0001:0004d340       _base64_encode             0044e340 f   libcurl:base64.obj
 0001:0004d500       _decodeQuantum             0044e500 f   libcurl:base64.obj
 0001:0004dd70       _ntlm_decode_type2_target  0044ed70 f   libcurl:ntlm.obj
 0001:0004e7f0       _sha256_to_hex             0044f7f0 f   libcurl:http_aws_sigv4.obj
 0001:0004f49c       $LN56                      0045049c     libcurl:curl_sasl.obj
 0001:0004fa60       _state                     00450a60 f   libcurl:curl_sasl.obj
 0001:0004fa70       _MD5_Init                  00450a70 f   libcurl:md5.obj
 0001:0004fab0       _MD4_Final                 00450ab0 f   libcurl:md4.obj
 0001:0004fab0       _MD5_Final                 00450ab0 f   libcurl:md5.obj
 0001:000506d0       $LN287                     004516d0     libcurl:ftplistparser.obj
 0001:000506e0       $LN288                     004516e0     libcurl:ftplistparser.obj
 0001:00050708       $LN289                     00451708     libcurl:ftplistparser.obj
 0001:0005072c       $LN266                     0045172c     libcurl:ftplistparser.obj
 0001:00050774       $LN290                     00451774     libcurl:ftplistparser.obj
 0001:0005078c       $LN291                     0045178c     libcurl:ftplistparser.obj
 0001:000507f0       _ftp_pl_get_permission     004517f0 f   libcurl:ftplistparser.obj
 0001:00050920       _ftp_pl_insert_finfo       00451920 f   libcurl:ftplistparser.obj
 0001:00050f90       _unicodecpy                00451f90 f   libcurl:ntlm.obj
 0001:00050f90       _ascii_to_unicode_le       00451f90 f   libcurl:curl_ntlm_core.obj
 0001:00050fc0       _ascii_uppercase_to_unicode_le 00451fc0 f   libcurl:curl_ntlm_core.obj
 0001:00051000       _encrypt_des               00452000 f   libcurl:curl_ntlm_core.obj
 0001:00051100       _extend_key_56_to_64       00452100 f   libcurl:curl_ntlm_core.obj
 0001:00051190       _time2filetime             00452190 f   libcurl:curl_ntlm_core.obj
 0001:00051510       _SHA256_Init               00452510 f   libcurl:sha256.obj
 0001:00051550       _SHA256_Final              00452550 f   libcurl:sha256.obj
 0001:00051c00       _charclass                 00452c00 f   libcurl:curl_fnmatch.obj
 0001:00051c50       _loop                      00452c50 f   libcurl:curl_fnmatch.obj
 0001:00051e64       $LN84                      00452e64     libcurl:curl_fnmatch.obj
 0001:00051e7c       $LN79                      00452e7c     libcurl:curl_fnmatch.obj
 0001:00051ee0       _parsekeyword              00452ee0 f   libcurl:curl_fnmatch.obj
 0001:000522c0       _setcharorrange            004532c0 f   libcurl:curl_fnmatch.obj
 0001:00052370       _setcharset                00453370 f   libcurl:curl_fnmatch.obj
 0001:00052580       _MD4_Init                  00453580 f   libcurl:md4.obj
 0001:000525d0       _SHA256_Update             004535d0 f   libcurl:sha256.obj
 0001:000525d0       _MD4_Update                004535d0 f   libcurl:md4.obj
 0001:000525d0       _MD5_Update                004535d0 f   libcurl:md5.obj
 0001:000526d0       $$000000                   004536d0     MSVCRT:lldiv.obj
 0001:00052780       $$000000                   00453780     MSVCRT:chkstk.obj
 0001:000527b0       $$000000                   004537b0     MSVCRT:_ftol3_.obj
 0001:00052b30       $$000000                   00453b30     MSVCRT:lldvrm.obj
 0001:00052c10       $$000000                   00453c10     MSVCRT:llmul.obj
 0001:00052c50       $$000000                   00453c50     MSVCRT:llrem.obj
 0001:00052d10       $$000000                   00453d10     MSVCRT:ulldvrm.obj
 0001:00052dd0       __unwindfunclet$?KEY@@YA?AV?$basic_string@DU?$char_traits@D@std@@V?$allocator@D@2@@std@@XZ$0 00453dd0 f   protect.obj
 0001:00052ddb       __unwindfunclet$?KEY@@YA?AV?$basic_string@DU?$char_traits@D@std@@V?$allocator@D@2@@std@@XZ$1 00453ddb f   protect.obj
 0001:00052de6       __unwindfunclet$?KEY@@YA?AV?$basic_string@DU?$char_traits@D@std@@V?$allocator@D@2@@std@@XZ$2 00453de6 f   protect.obj
 0001:00052e08       __unwindfunclet$?KEY@@YA?AV?$basic_string@DU?$char_traits@D@std@@V?$allocator@D@2@@std@@XZ$9 00453e08 f   protect.obj
 0001:00052e13       __unwindfunclet$?KEY@@YA?AV?$basic_string@DU?$char_traits@D@std@@V?$allocator@D@2@@std@@XZ$10 00453e13 f   protect.obj
 0001:00052e1e       __unwindfunclet$?KEY@@YA?AV?$basic_string@DU?$char_traits@D@std@@V?$allocator@D@2@@std@@XZ$16 00453e1e f   protect.obj
 0001:00052e29       __unwindfunclet$?KEY@@YA?AV?$basic_string@DU?$char_traits@D@std@@V?$allocator@D@2@@std@@XZ$17 00453e29 f   protect.obj
 0001:00052e34       __unwindfunclet$?KEY@@YA?AV?$basic_string@DU?$char_traits@D@std@@V?$allocator@D@2@@std@@XZ$25 00453e34 f   protect.obj
 0001:00052e3f       __unwindfunclet$?KEY@@YA?AV?$basic_string@DU?$char_traits@D@std@@V?$allocator@D@2@@std@@XZ$26 00453e3f f   protect.obj
 0001:00052e4a       __unwindfunclet$?KEY@@YA?AV?$basic_string@DU?$char_traits@D@std@@V?$allocator@D@2@@std@@XZ$35 00453e4a f   protect.obj
 0001:00052e55       __unwindfunclet$?KEY@@YA?AV?$basic_string@DU?$char_traits@D@std@@V?$allocator@D@2@@std@@XZ$36 00453e55 f   protect.obj
 0001:00052e60       __ehhandler$?KEY@@YA?AV?$basic_string@DU?$char_traits@D@std@@V?$allocator@D@2@@std@@XZ 00453e60 f   protect.obj
 0001:00052e90       __unwindfunclet$?write_to_string@@YAIPAXII0@Z$0 00453e90 f   protect.obj
 0001:00052e98       __ehhandler$?write_to_string@@YAIPAXII0@Z 00453e98 f   protect.obj
 0001:00052ec0       __unwindfunclet$?IsValidTime@@YA_NHHH@Z$0 00453ec0 f   protect.obj
 0001:00052ec8       __unwindfunclet$?IsValidTime@@YA_NHHH@Z$1 00453ec8 f   protect.obj
 0001:00052ed0       __ehhandler$?IsValidTime@@YA_NHHH@Z 00453ed0 f   protect.obj
 0001:00052f00       __unwindfunclet$??1?$function@$$A6A?AV?$basic_string@DU?$char_traits@D@std@@V?$allocator@D@2@@std@@ABV12@@Z@std@@QAE@XZ$1 00453f00 f   systeminfo.obj
 0001:00052f00       __unwindfunclet$??1sentry@?$basic_ostream@DU?$char_traits@D@std@@@std@@QAE@XZ$0 00453f00 f   protect.obj
 0001:00052f07       __ehhandler$??1sentry@?$basic_ostream@DU?$char_traits@D@std@@@std@@QAE@XZ 00453f07 f   protect.obj
 0001:00052f07       __ehhandler$??1?$function@$$A6A?AV?$basic_string@DU?$char_traits@D@std@@V?$allocator@D@2@@std@@ABV12@@Z@std@@QAE@XZ 00453f07 f   systeminfo.obj
 0001:00052f30       __ehhandler$??1_Sentry_base@?$basic_istream@DU?$char_traits@D@std@@@std@@QAE@XZ 00453f30 f   systeminfo.obj
 0001:00052f30       __ehhandler$??1_Sentry_base@?$basic_ostream@DU?$char_traits@D@std@@@std@@QAE@XZ 00453f30 f   protect.obj
 0001:00052f30       __ehhandler$??1locale@std@@QAE@XZ 00453f30 f   systeminfo.obj
 0001:00052f50       __ehhandler$?_Copy@?$basic_string@DU?$char_traits@D@std@@V?$allocator@D@2@@std@@QAEXII@Z 00453f50 f   protect.obj
 0001:00052f70       __unwindfunclet$??$?6U?$char_traits@D@std@@@std@@YAAAV?$basic_ostream@DU?$char_traits@D@std@@@0@AAV10@PBD@Z$3 00453f70 f   protect.obj
 0001:00052f78       __unwindfunclet$??$?6U?$char_traits@D@std@@@std@@YAAAV?$basic_ostream@DU?$char_traits@D@std@@@0@AAV10@PBD@Z$2 00453f78 f   protect.obj
 0001:00052f80       __unwindfunclet$??$?6U?$char_traits@D@std@@@std@@YAAAV?$basic_ostream@DU?$char_traits@D@std@@@0@AAV10@PBD@Z$8 00453f80 f   protect.obj
 0001:00052f87       __unwindfunclet$??$?6U?$char_traits@D@std@@@std@@YAAAV?$basic_ostream@DU?$char_traits@D@std@@@0@AAV10@PBD@Z$9 00453f87 f   protect.obj
 0001:00052f8e       __ehhandler$??$?6U?$char_traits@D@std@@@std@@YAAAV?$basic_ostream@DU?$char_traits@D@std@@@0@AAV10@PBD@Z 00453f8e f   protect.obj
 0001:00052fb0       __unwindfunclet$??$make_unique@VGPUInfoDelegate@@$$V@std@@YA?AV?$unique_ptr@VGPUInfoDelegate@@U?$default_delete@VGPUInfoDelegate@@@std@@@0@XZ$0 00453fb0 f   protect.obj
 0001:00052fb0       __unwindfunclet$??$make_unique@VOSInfoDelegate@@$$V@std@@YA?AV?$unique_ptr@VOSInfoDelegate@@U?$default_delete@VOSInfoDelegate@@@std@@@0@XZ$0 00453fb0 f   protect.obj
 0001:00052fb0       __unwindfunclet$??$make_unique@VRAMInfoDelegate@@$$V@std@@YA?AV?$unique_ptr@VRAMInfoDelegate@@U?$default_delete@VRAMInfoDelegate@@@std@@@0@XZ$0 00453fb0 f   protect.obj
 0001:00052fb0       __unwindfunclet$??$make_unique@VMotherboardInfoDelegate@@$$V@std@@YA?AV?$unique_ptr@VMotherboardInfoDelegate@@U?$default_delete@VMotherboardInfoDelegate@@@std@@@0@XZ$0 00453fb0 f   protect.obj
 0001:00052fb0       __unwindfunclet$??$make_unique@VCPUInfoDelegate@@$$V@std@@YA?AV?$unique_ptr@VCPUInfoDelegate@@U?$default_delete@VCPUInfoDelegate@@@std@@@0@XZ$0 00453fb0 f   protect.obj
 0001:00052fbf       __ehhandler$??$make_unique@VGPUInfoDelegate@@$$V@std@@YA?AV?$unique_ptr@VGPUInfoDelegate@@U?$default_delete@VGPUInfoDelegate@@@std@@@0@XZ 00453fbf f   protect.obj
 0001:00052fbf       __ehhandler$??$make_unique@VCPUInfoDelegate@@$$V@std@@YA?AV?$unique_ptr@VCPUInfoDelegate@@U?$default_delete@VCPUInfoDelegate@@@std@@@0@XZ 00453fbf f   protect.obj
 0001:00052fbf       __ehhandler$??$make_unique@VMotherboardInfoDelegate@@$$V@std@@YA?AV?$unique_ptr@VMotherboardInfoDelegate@@U?$default_delete@VMotherboardInfoDelegate@@@std@@@0@XZ 00453fbf f   protect.obj
 0001:00052fbf       __ehhandler$??$make_unique@VOSInfoDelegate@@$$V@std@@YA?AV?$unique_ptr@VOSInfoDelegate@@U?$default_delete@VOSInfoDelegate@@@std@@@0@XZ 00453fbf f   protect.obj
 0001:00052fbf       __ehhandler$??$make_unique@VRAMInfoDelegate@@$$V@std@@YA?AV?$unique_ptr@VRAMInfoDelegate@@U?$default_delete@VRAMInfoDelegate@@@std@@@0@XZ 00453fbf f   protect.obj
 0001:00052fe0       __unwindfunclet$??0CPUInfo@@QAE@ABV?$vector@V?$basic_string@DU?$char_traits@D@std@@V?$allocator@D@2@@std@@V?$allocator@V?$basic_string@DU?$char_traits@D@std@@V?$allocator@D@2@@std@@@2@@std@@H@Z$0 00453fe0 f   systeminfo.obj
 0001:00052fe8       __unwindfunclet$??0CPUInfo@@QAE@ABV?$vector@V?$basic_string@DU?$char_traits@D@std@@V?$allocator@D@2@@std@@V?$allocator@V?$basic_string@DU?$char_traits@D@std@@V?$allocator@D@2@@std@@@2@@std@@H@Z$1 00453fe8 f   systeminfo.obj
 0001:00052ff3       __unwindfunclet$??0CPUInfo@@QAE@ABV?$vector@V?$basic_string@DU?$char_traits@D@std@@V?$allocator@D@2@@std@@V?$allocator@V?$basic_string@DU?$char_traits@D@std@@V?$allocator@D@2@@std@@@2@@std@@H@Z$2 00453ff3 f   systeminfo.obj
 0001:00052ffe       __unwindfunclet$??0CPUInfo@@QAE@ABV?$vector@V?$basic_string@DU?$char_traits@D@std@@V?$allocator@D@2@@std@@V?$allocator@V?$basic_string@DU?$char_traits@D@std@@V?$allocator@D@2@@std@@@2@@std@@H@Z$3 00453ffe f   systeminfo.obj
 0001:00053009       __unwindfunclet$??0CPUInfo@@QAE@ABV?$vector@V?$basic_string@DU?$char_traits@D@std@@V?$allocator@D@2@@std@@V?$allocator@V?$basic_string@DU?$char_traits@D@std@@V?$allocator@D@2@@std@@@2@@std@@H@Z$4 00454009 f   systeminfo.obj
 0001:00053014       __unwindfunclet$??0CPUInfo@@QAE@ABV?$vector@V?$basic_string@DU?$char_traits@D@std@@V?$allocator@D@2@@std@@V?$allocator@V?$basic_string@DU?$char_traits@D@std@@V?$allocator@D@2@@std@@@2@@std@@H@Z$5 00454014 f   systeminfo.obj
 0001:0005301f       __unwindfunclet$??0CPUInfo@@QAE@ABV?$vector@V?$basic_string@DU?$char_traits@D@std@@V?$allocator@D@2@@std@@V?$allocator@V?$basic_string@DU?$char_traits@D@std@@V?$allocator@D@2@@std@@@2@@std@@H@Z$214 0045401f f   systeminfo.obj
 0001:00053026       __unwindfunclet$??0CPUInfo@@QAE@ABV?$vector@V?$basic_string@DU?$char_traits@D@std@@V?$allocator@D@2@@std@@V?$allocator@V?$basic_string@DU?$char_traits@D@std@@V?$allocator@D@2@@std@@@2@@std@@H@Z$326 00454026 f   systeminfo.obj
 0001:0005302d       __unwindfunclet$??0CPUInfo@@QAE@ABV?$vector@V?$basic_string@DU?$char_traits@D@std@@V?$allocator@D@2@@std@@V?$allocator@V?$basic_string@DU?$char_traits@D@std@@V?$allocator@D@2@@std@@@2@@std@@H@Z$438 0045402d f   systeminfo.obj
 0001:00053034       __unwindfunclet$??0CPUInfo@@QAE@ABV?$vector@V?$basic_string@DU?$char_traits@D@std@@V?$allocator@D@2@@std@@V?$allocator@V?$basic_string@DU?$char_traits@D@std@@V?$allocator@D@2@@std@@@2@@std@@H@Z$9 00454034 f   systeminfo.obj
 0001:0005303c       __unwindfunclet$??0CPUInfo@@QAE@ABV?$vector@V?$basic_string@DU?$char_traits@D@std@@V?$allocator@D@2@@std@@V?$allocator@V?$basic_string@DU?$char_traits@D@std@@V?$allocator@D@2@@std@@@2@@std@@H@Z$550 0045403c f   systeminfo.obj
 0001:00053043       __unwindfunclet$??0CPUInfo@@QAE@ABV?$vector@V?$basic_string@DU?$char_traits@D@std@@V?$allocator@D@2@@std@@V?$allocator@V?$basic_string@DU?$char_traits@D@std@@V?$allocator@D@2@@std@@@2@@std@@H@Z$11 00454043 f   systeminfo.obj
 0001:0005304b       __unwindfunclet$??0CPUInfo@@QAE@ABV?$vector@V?$basic_string@DU?$char_traits@D@std@@V?$allocator@D@2@@std@@V?$allocator@V?$basic_string@DU?$char_traits@D@std@@V?$allocator@D@2@@std@@@2@@std@@H@Z$689 0045404b f   systeminfo.obj
 0001:00053052       __unwindfunclet$??0CPUInfo@@QAE@ABV?$vector@V?$basic_string@DU?$char_traits@D@std@@V?$allocator@D@2@@std@@V?$allocator@V?$basic_string@DU?$char_traits@D@std@@V?$allocator@D@2@@std@@@2@@std@@H@Z$13 00454052 f   systeminfo.obj
 0001:0005305a       __unwindfunclet$??0CPUInfo@@QAE@ABV?$vector@V?$basic_string@DU?$char_traits@D@std@@V?$allocator@D@2@@std@@V?$allocator@V?$basic_string@DU?$char_traits@D@std@@V?$allocator@D@2@@std@@@2@@std@@H@Z$833 0045405a f   systeminfo.obj
 0001:00053061       __ehhandler$??0CPUInfo@@QAE@ABV?$vector@V?$basic_string@DU?$char_traits@D@std@@V?$allocator@D@2@@std@@V?$allocator@V?$basic_string@DU?$char_traits@D@std@@V?$allocator@D@2@@std@@@2@@std@@H@Z 00454061 f   systeminfo.obj
 0001:00053090       __ehhandler$?getArchitecture@CPUInfo@@ABE?AV?$basic_string@DU?$char_traits@D@std@@V?$allocator@D@2@@std@@AAV23@@Z 00454090 f   systeminfo.obj
 0001:000530b0       __unwindfunclet$??0CPUInfoDelegate@@QAE@XZ$0 004540b0 f   systeminfo.obj
 0001:000530bb       __unwindfunclet$??0CPUInfoDelegate@@QAE@XZ$2 004540bb f   systeminfo.obj
 0001:000530ce       __unwindfunclet$??0CPUInfoDelegate@@QAE@XZ$3 004540ce f   systeminfo.obj
 0001:000530d9       __unwindfunclet$??0CPUInfoDelegate@@QAE@XZ$4 004540d9 f   systeminfo.obj
 0001:000530e1       __unwindfunclet$??0CPUInfoDelegate@@QAE@XZ$5 004540e1 f   systeminfo.obj
 0001:000530e9       __unwindfunclet$??0CPUInfoDelegate@@QAE@XZ$6 004540e9 f   systeminfo.obj
 0001:000530f1       __unwindfunclet$??0CPUInfoDelegate@@QAE@XZ$94 004540f1 f   systeminfo.obj
 0001:000530f6       __ehhandler$??0CPUInfoDelegate@@QAE@XZ 004540f6 f   systeminfo.obj
 0001:00053120       __unwindfunclet$??0GPUInfo@@QAE@ABV?$vector@V?$basic_string@DU?$char_traits@D@std@@V?$allocator@D@2@@std@@V?$allocator@V?$basic_string@DU?$char_traits@D@std@@V?$allocator@D@2@@std@@@2@@std@@H@Z$2 00454120 f   systeminfo.obj
 0001:00053128       __unwindfunclet$??0GPUInfo@@QAE@ABV?$vector@V?$basic_string@DU?$char_traits@D@std@@V?$allocator@D@2@@std@@V?$allocator@V?$basic_string@DU?$char_traits@D@std@@V?$allocator@D@2@@std@@@2@@std@@H@Z$3 00454128 f   systeminfo.obj
 0001:00053133       __unwindfunclet$??0GPUInfo@@QAE@ABV?$vector@V?$basic_string@DU?$char_traits@D@std@@V?$allocator@D@2@@std@@V?$allocator@V?$basic_string@DU?$char_traits@D@std@@V?$allocator@D@2@@std@@@2@@std@@H@Z$4 00454133 f   systeminfo.obj
 0001:0005313e       __unwindfunclet$??0GPUInfo@@QAE@ABV?$vector@V?$basic_string@DU?$char_traits@D@std@@V?$allocator@D@2@@std@@V?$allocator@V?$basic_string@DU?$char_traits@D@std@@V?$allocator@D@2@@std@@@2@@std@@H@Z$5 0045413e f   systeminfo.obj
 0001:00053149       __unwindfunclet$??0GPUInfo@@QAE@ABV?$vector@V?$basic_string@DU?$char_traits@D@std@@V?$allocator@D@2@@std@@V?$allocator@V?$basic_string@DU?$char_traits@D@std@@V?$allocator@D@2@@std@@@2@@std@@H@Z$6 00454149 f   systeminfo.obj
 0001:00053154       __unwindfunclet$??0GPUInfo@@QAE@ABV?$vector@V?$basic_string@DU?$char_traits@D@std@@V?$allocator@D@2@@std@@V?$allocator@V?$basic_string@DU?$char_traits@D@std@@V?$allocator@D@2@@std@@@2@@std@@H@Z$7 00454154 f   systeminfo.obj
 0001:0005315f       __unwindfunclet$??0GPUInfo@@QAE@ABV?$vector@V?$basic_string@DU?$char_traits@D@std@@V?$allocator@D@2@@std@@V?$allocator@V?$basic_string@DU?$char_traits@D@std@@V?$allocator@D@2@@std@@@2@@std@@H@Z$8 0045415f f   systeminfo.obj
 0001:0005316d       __unwindfunclet$??0GPUInfo@@QAE@ABV?$vector@V?$basic_string@DU?$char_traits@D@std@@V?$allocator@D@2@@std@@V?$allocator@V?$basic_string@DU?$char_traits@D@std@@V?$allocator@D@2@@std@@@2@@std@@H@Z$9 0045416d f   systeminfo.obj
 0001:0005317b       __unwindfunclet$??0GPUInfo@@QAE@ABV?$vector@V?$basic_string@DU?$char_traits@D@std@@V?$allocator@D@2@@std@@V?$allocator@V?$basic_string@DU?$char_traits@D@std@@V?$allocator@D@2@@std@@@2@@std@@H@Z$10 0045417b f   systeminfo.obj
 0001:00053189       __unwindfunclet$??0GPUInfo@@QAE@ABV?$vector@V?$basic_string@DU?$char_traits@D@std@@V?$allocator@D@2@@std@@V?$allocator@V?$basic_string@DU?$char_traits@D@std@@V?$allocator@D@2@@std@@@2@@std@@H@Z$11 00454189 f   systeminfo.obj
 0001:00053197       __unwindfunclet$??0GPUInfo@@QAE@ABV?$vector@V?$basic_string@DU?$char_traits@D@std@@V?$allocator@D@2@@std@@V?$allocator@V?$basic_string@DU?$char_traits@D@std@@V?$allocator@D@2@@std@@@2@@std@@H@Z$334 00454197 f   systeminfo.obj
 0001:0005319e       __unwindfunclet$??0GPUInfo@@QAE@ABV?$vector@V?$basic_string@DU?$char_traits@D@std@@V?$allocator@D@2@@std@@V?$allocator@V?$basic_string@DU?$char_traits@D@std@@V?$allocator@D@2@@std@@@2@@std@@H@Z$446 0045419e f   systeminfo.obj
 0001:000531a5       __unwindfunclet$??0GPUInfo@@QAE@ABV?$vector@V?$basic_string@DU?$char_traits@D@std@@V?$allocator@D@2@@std@@V?$allocator@V?$basic_string@DU?$char_traits@D@std@@V?$allocator@D@2@@std@@@2@@std@@H@Z$558 004541a5 f   systeminfo.obj
 0001:000531ac       __unwindfunclet$??0GPUInfo@@QAE@ABV?$vector@V?$basic_string@DU?$char_traits@D@std@@V?$allocator@D@2@@std@@V?$allocator@V?$basic_string@DU?$char_traits@D@std@@V?$allocator@D@2@@std@@@2@@std@@H@Z$15 004541ac f   systeminfo.obj
 0001:000531b4       __unwindfunclet$??0GPUInfo@@QAE@ABV?$vector@V?$basic_string@DU?$char_traits@D@std@@V?$allocator@D@2@@std@@V?$allocator@V?$basic_string@DU?$char_traits@D@std@@V?$allocator@D@2@@std@@@2@@std@@H@Z$16 004541b4 f   systeminfo.obj
 0001:000531bc       __unwindfunclet$??0GPUInfo@@QAE@ABV?$vector@V?$basic_string@DU?$char_traits@D@std@@V?$allocator@D@2@@std@@V?$allocator@V?$basic_string@DU?$char_traits@D@std@@V?$allocator@D@2@@std@@@2@@std@@H@Z$17 004541bc f   systeminfo.obj
 0001:000531c4       __unwindfunclet$??0GPUInfo@@QAE@ABV?$vector@V?$basic_string@DU?$char_traits@D@std@@V?$allocator@D@2@@std@@V?$allocator@V?$basic_string@DU?$char_traits@D@std@@V?$allocator@D@2@@std@@@2@@std@@H@Z$18 004541c4 f   systeminfo.obj
 0001:000531cf       __unwindfunclet$??0GPUInfo@@QAE@ABV?$vector@V?$basic_string@DU?$char_traits@D@std@@V?$allocator@D@2@@std@@V?$allocator@V?$basic_string@DU?$char_traits@D@std@@V?$allocator@D@2@@std@@@2@@std@@H@Z$19 004541cf f   systeminfo.obj
 0001:000531da       __unwindfunclet$??0GPUInfo@@QAE@ABV?$vector@V?$basic_string@DU?$char_traits@D@std@@V?$allocator@D@2@@std@@V?$allocator@V?$basic_string@DU?$char_traits@D@std@@V?$allocator@D@2@@std@@@2@@std@@H@Z$673 004541da f   systeminfo.obj
 0001:000531e1       __unwindfunclet$??0GPUInfo@@QAE@ABV?$vector@V?$basic_string@DU?$char_traits@D@std@@V?$allocator@D@2@@std@@V?$allocator@V?$basic_string@DU?$char_traits@D@std@@V?$allocator@D@2@@std@@@2@@std@@H@Z$22 004541e1 f   systeminfo.obj
 0001:000531e9       __unwindfunclet$??0GPUInfo@@QAE@ABV?$vector@V?$basic_string@DU?$char_traits@D@std@@V?$allocator@D@2@@std@@V?$allocator@V?$basic_string@DU?$char_traits@D@std@@V?$allocator@D@2@@std@@@2@@std@@H@Z$920 004541e9 f   systeminfo.obj
 0001:000531f0       __unwindfunclet$??0GPUInfo@@QAE@ABV?$vector@V?$basic_string@DU?$char_traits@D@std@@V?$allocator@D@2@@std@@V?$allocator@V?$basic_string@DU?$char_traits@D@std@@V?$allocator@D@2@@std@@@2@@std@@H@Z$1064 004541f0 f   systeminfo.obj
 0001:000531f7       __unwindfunclet$??0GPUInfo@@QAE@ABV?$vector@V?$basic_string@DU?$char_traits@D@std@@V?$allocator@D@2@@std@@V?$allocator@V?$basic_string@DU?$char_traits@D@std@@V?$allocator@D@2@@std@@@2@@std@@H@Z$25 004541f7 f   systeminfo.obj
 0001:000531ff       __unwindfunclet$??0GPUInfo@@QAE@ABV?$vector@V?$basic_string@DU?$char_traits@D@std@@V?$allocator@D@2@@std@@V?$allocator@V?$basic_string@DU?$char_traits@D@std@@V?$allocator@D@2@@std@@@2@@std@@H@Z$1176 004541ff f   systeminfo.obj
 0001:00053206       __unwindfunclet$??0GPUInfo@@QAE@ABV?$vector@V?$basic_string@DU?$char_traits@D@std@@V?$allocator@D@2@@std@@V?$allocator@V?$basic_string@DU?$char_traits@D@std@@V?$allocator@D@2@@std@@@2@@std@@H@Z$27 00454206 f   systeminfo.obj
 0001:0005320e       __unwindfunclet$??0GPUInfo@@QAE@ABV?$vector@V?$basic_string@DU?$char_traits@D@std@@V?$allocator@D@2@@std@@V?$allocator@V?$basic_string@DU?$char_traits@D@std@@V?$allocator@D@2@@std@@@2@@std@@H@Z$1315 0045420e f   systeminfo.obj
 0001:00053215       __unwindfunclet$??0GPUInfo@@QAE@ABV?$vector@V?$basic_string@DU?$char_traits@D@std@@V?$allocator@D@2@@std@@V?$allocator@V?$basic_string@DU?$char_traits@D@std@@V?$allocator@D@2@@std@@@2@@std@@H@Z$1454 00454215 f   systeminfo.obj
 0001:0005321c       __unwindfunclet$??0GPUInfo@@QAE@ABV?$vector@V?$basic_string@DU?$char_traits@D@std@@V?$allocator@D@2@@std@@V?$allocator@V?$basic_string@DU?$char_traits@D@std@@V?$allocator@D@2@@std@@@2@@std@@H@Z$1566 0045421c f   systeminfo.obj
 0001:00053223       __ehhandler$??0GPUInfo@@QAE@ABV?$vector@V?$basic_string@DU?$char_traits@D@std@@V?$allocator@D@2@@std@@V?$allocator@V?$basic_string@DU?$char_traits@D@std@@V?$allocator@D@2@@std@@@2@@std@@H@Z 00454223 f   systeminfo.obj
 0001:00053250       __ehhandler$?getVideoArchitecture@GPUInfo@@ABE?AV?$basic_string@DU?$char_traits@D@std@@V?$allocator@D@2@@std@@ABV23@@Z 00454250 f   systeminfo.obj
 0001:00053270       __ehhandler$?getVideoMemoryType@GPUInfo@@ABE?AV?$basic_string@DU?$char_traits@D@std@@V?$allocator@D@2@@std@@ABV23@@Z 00454270 f   systeminfo.obj
 0001:00053290       __unwindfunclet$??0GPUInfoDelegate@@QAE@XZ$0 00454290 f   systeminfo.obj
 0001:0005329b       __unwindfunclet$??0GPUInfoDelegate@@QAE@XZ$2 0045429b f   systeminfo.obj
 0001:000532ae       __unwindfunclet$??0GPUInfoDelegate@@QAE@XZ$3 004542ae f   systeminfo.obj
 0001:000532b9       __unwindfunclet$??0GPUInfoDelegate@@QAE@XZ$4 004542b9 f   systeminfo.obj
 0001:000532c1       __unwindfunclet$??0GPUInfoDelegate@@QAE@XZ$5 004542c1 f   systeminfo.obj
 0001:000532c9       __unwindfunclet$??0GPUInfoDelegate@@QAE@XZ$6 004542c9 f   systeminfo.obj
 0001:000532d1       __unwindfunclet$??0GPUInfoDelegate@@QAE@XZ$94 004542d1 f   systeminfo.obj
 0001:000532d6       __ehhandler$??0GPUInfoDelegate@@QAE@XZ 004542d6 f   systeminfo.obj
 0001:00053300       __unwindfunclet$??0MotherboardInfo@@QAE@ABV?$vector@V?$basic_string@DU?$char_traits@D@std@@V?$allocator@D@2@@std@@V?$allocator@V?$basic_string@DU?$char_traits@D@std@@V?$allocator@D@2@@std@@@2@@std@@H@Z$0 00454300 f   systeminfo.obj
 0001:00053308       __unwindfunclet$??0MotherboardInfo@@QAE@ABV?$vector@V?$basic_string@DU?$char_traits@D@std@@V?$allocator@D@2@@std@@V?$allocator@V?$basic_string@DU?$char_traits@D@std@@V?$allocator@D@2@@std@@@2@@std@@H@Z$1 00454308 f   systeminfo.obj
 0001:00053313       __unwindfunclet$??0MotherboardInfo@@QAE@ABV?$vector@V?$basic_string@DU?$char_traits@D@std@@V?$allocator@D@2@@std@@V?$allocator@V?$basic_string@DU?$char_traits@D@std@@V?$allocator@D@2@@std@@@2@@std@@H@Z$2 00454313 f   systeminfo.obj
 0001:0005331e       __unwindfunclet$??0MotherboardInfo@@QAE@ABV?$vector@V?$basic_string@DU?$char_traits@D@std@@V?$allocator@D@2@@std@@V?$allocator@V?$basic_string@DU?$char_traits@D@std@@V?$allocator@D@2@@std@@@2@@std@@H@Z$3 0045431e f   systeminfo.obj
 0001:00053329       __unwindfunclet$??0MotherboardInfo@@QAE@ABV?$vector@V?$basic_string@DU?$char_traits@D@std@@V?$allocator@D@2@@std@@V?$allocator@V?$basic_string@DU?$char_traits@D@std@@V?$allocator@D@2@@std@@@2@@std@@H@Z$4 00454329 f   systeminfo.obj
 0001:00053334       __unwindfunclet$??0MotherboardInfo@@QAE@ABV?$vector@V?$basic_string@DU?$char_traits@D@std@@V?$allocator@D@2@@std@@V?$allocator@V?$basic_string@DU?$char_traits@D@std@@V?$allocator@D@2@@std@@@2@@std@@H@Z$174 00454334 f   systeminfo.obj
 0001:0005333b       __unwindfunclet$??0MotherboardInfo@@QAE@ABV?$vector@V?$basic_string@DU?$char_traits@D@std@@V?$allocator@D@2@@std@@V?$allocator@V?$basic_string@DU?$char_traits@D@std@@V?$allocator@D@2@@std@@@2@@std@@H@Z$278 0045433b f   systeminfo.obj
 0001:00053342       __unwindfunclet$??0MotherboardInfo@@QAE@ABV?$vector@V?$basic_string@DU?$char_traits@D@std@@V?$allocator@D@2@@std@@V?$allocator@V?$basic_string@DU?$char_traits@D@std@@V?$allocator@D@2@@std@@@2@@std@@H@Z$382 00454342 f   systeminfo.obj
 0001:00053349       __unwindfunclet$??0MotherboardInfo@@QAE@ABV?$vector@V?$basic_string@DU?$char_traits@D@std@@V?$allocator@D@2@@std@@V?$allocator@V?$basic_string@DU?$char_traits@D@std@@V?$allocator@D@2@@std@@@2@@std@@H@Z$486 00454349 f   systeminfo.obj
 0001:00053350       __ehhandler$??0MotherboardInfo@@QAE@ABV?$vector@V?$basic_string@DU?$char_traits@D@std@@V?$allocator@D@2@@std@@V?$allocator@V?$basic_string@DU?$char_traits@D@std@@V?$allocator@D@2@@std@@@2@@std@@H@Z 00454350 f   systeminfo.obj
 0001:00053370       __unwindfunclet$?determineChipset@MotherboardInfo@@AAEXXZ$1 00454370 f   systeminfo.obj
 0001:00053386       __unwindfunclet$?determineChipset@MotherboardInfo@@AAEXXZ$2 00454386 f   systeminfo.obj
 0001:00053391       __unwindfunclet$?determineChipset@MotherboardInfo@@AAEXXZ$3 00454391 f   systeminfo.obj
 0001:00053399       __unwindfunclet$?determineChipset@MotherboardInfo@@AAEXXZ$86 00454399 f   systeminfo.obj
 0001:000533a0       __ehhandler$?determineChipset@MotherboardInfo@@AAEXXZ 004543a0 f   systeminfo.obj
 0001:000533d0       __unwindfunclet$??0MotherboardInfoDelegate@@QAE@XZ$0 004543d0 f   systeminfo.obj
 0001:000533db       __unwindfunclet$??0MotherboardInfoDelegate@@QAE@XZ$2 004543db f   systeminfo.obj
 0001:000533ee       __unwindfunclet$??0MotherboardInfoDelegate@@QAE@XZ$3 004543ee f   systeminfo.obj
 0001:000533f9       __unwindfunclet$??0MotherboardInfoDelegate@@QAE@XZ$4 004543f9 f   systeminfo.obj
 0001:00053401       __unwindfunclet$??0MotherboardInfoDelegate@@QAE@XZ$5 00454401 f   systeminfo.obj
 0001:00053409       __unwindfunclet$??0MotherboardInfoDelegate@@QAE@XZ$6 00454409 f   systeminfo.obj
 0001:00053411       __unwindfunclet$??0MotherboardInfoDelegate@@QAE@XZ$94 00454411 f   systeminfo.obj
 0001:00053416       __ehhandler$??0MotherboardInfoDelegate@@QAE@XZ 00454416 f   systeminfo.obj
 0001:00053440       __unwindfunclet$??0OSInfo@@QAE@ABV?$vector@V?$basic_string@DU?$char_traits@D@std@@V?$allocator@D@2@@std@@V?$allocator@V?$basic_string@DU?$char_traits@D@std@@V?$allocator@D@2@@std@@@2@@std@@H@Z$6 00454440 f   systeminfo.obj
 0001:00053448       __unwindfunclet$??0OSInfo@@QAE@ABV?$vector@V?$basic_string@DU?$char_traits@D@std@@V?$allocator@D@2@@std@@V?$allocator@V?$basic_string@DU?$char_traits@D@std@@V?$allocator@D@2@@std@@@2@@std@@H@Z$7 00454448 f   systeminfo.obj
 0001:00053453       __unwindfunclet$??0OSInfo@@QAE@ABV?$vector@V?$basic_string@DU?$char_traits@D@std@@V?$allocator@D@2@@std@@V?$allocator@V?$basic_string@DU?$char_traits@D@std@@V?$allocator@D@2@@std@@@2@@std@@H@Z$8 00454453 f   systeminfo.obj
 0001:0005345e       __unwindfunclet$??0OSInfo@@QAE@ABV?$vector@V?$basic_string@DU?$char_traits@D@std@@V?$allocator@D@2@@std@@V?$allocator@V?$basic_string@DU?$char_traits@D@std@@V?$allocator@D@2@@std@@@2@@std@@H@Z$9 0045445e f   systeminfo.obj
 0001:00053469       __unwindfunclet$??0OSInfo@@QAE@ABV?$vector@V?$basic_string@DU?$char_traits@D@std@@V?$allocator@D@2@@std@@V?$allocator@V?$basic_string@DU?$char_traits@D@std@@V?$allocator@D@2@@std@@@2@@std@@H@Z$10 00454469 f   systeminfo.obj
 0001:00053474       __unwindfunclet$??0OSInfo@@QAE@ABV?$vector@V?$basic_string@DU?$char_traits@D@std@@V?$allocator@D@2@@std@@V?$allocator@V?$basic_string@DU?$char_traits@D@std@@V?$allocator@D@2@@std@@@2@@std@@H@Z$11 00454474 f   systeminfo.obj
 0001:0005347f       __unwindfunclet$??0OSInfo@@QAE@ABV?$vector@V?$basic_string@DU?$char_traits@D@std@@V?$allocator@D@2@@std@@V?$allocator@V?$basic_string@DU?$char_traits@D@std@@V?$allocator@D@2@@std@@@2@@std@@H@Z$12 0045447f f   systeminfo.obj
 0001:0005348d       __unwindfunclet$??0OSInfo@@QAE@ABV?$vector@V?$basic_string@DU?$char_traits@D@std@@V?$allocator@D@2@@std@@V?$allocator@V?$basic_string@DU?$char_traits@D@std@@V?$allocator@D@2@@std@@@2@@std@@H@Z$13 0045448d f   systeminfo.obj
 0001:0005349b       __unwindfunclet$??0OSInfo@@QAE@ABV?$vector@V?$basic_string@DU?$char_traits@D@std@@V?$allocator@D@2@@std@@V?$allocator@V?$basic_string@DU?$char_traits@D@std@@V?$allocator@D@2@@std@@@2@@std@@H@Z$14 0045449b f   systeminfo.obj
 0001:000534a9       __unwindfunclet$??0OSInfo@@QAE@ABV?$vector@V?$basic_string@DU?$char_traits@D@std@@V?$allocator@D@2@@std@@V?$allocator@V?$basic_string@DU?$char_traits@D@std@@V?$allocator@D@2@@std@@@2@@std@@H@Z$15 004544a9 f   systeminfo.obj
 0001:000534b7       __unwindfunclet$??0OSInfo@@QAE@ABV?$vector@V?$basic_string@DU?$char_traits@D@std@@V?$allocator@D@2@@std@@V?$allocator@V?$basic_string@DU?$char_traits@D@std@@V?$allocator@D@2@@std@@@2@@std@@H@Z$16 004544b7 f   systeminfo.obj
 0001:000534c5       __unwindfunclet$??0OSInfo@@QAE@ABV?$vector@V?$basic_string@DU?$char_traits@D@std@@V?$allocator@D@2@@std@@V?$allocator@V?$basic_string@DU?$char_traits@D@std@@V?$allocator@D@2@@std@@@2@@std@@H@Z$17 004544c5 f   systeminfo.obj
 0001:000534d3       __unwindfunclet$??0OSInfo@@QAE@ABV?$vector@V?$basic_string@DU?$char_traits@D@std@@V?$allocator@D@2@@std@@V?$allocator@V?$basic_string@DU?$char_traits@D@std@@V?$allocator@D@2@@std@@@2@@std@@H@Z$18 004544d3 f   systeminfo.obj
 0001:000534e1       __unwindfunclet$??0OSInfo@@QAE@ABV?$vector@V?$basic_string@DU?$char_traits@D@std@@V?$allocator@D@2@@std@@V?$allocator@V?$basic_string@DU?$char_traits@D@std@@V?$allocator@D@2@@std@@@2@@std@@H@Z$19 004544e1 f   systeminfo.obj
 0001:000534ef       __unwindfunclet$??0OSInfo@@QAE@ABV?$vector@V?$basic_string@DU?$char_traits@D@std@@V?$allocator@D@2@@std@@V?$allocator@V?$basic_string@DU?$char_traits@D@std@@V?$allocator@D@2@@std@@@2@@std@@H@Z$459 004544ef f   systeminfo.obj
 0001:000534f6       __unwindfunclet$??0OSInfo@@QAE@ABV?$vector@V?$basic_string@DU?$char_traits@D@std@@V?$allocator@D@2@@std@@V?$allocator@V?$basic_string@DU?$char_traits@D@std@@V?$allocator@D@2@@std@@@2@@std@@H@Z$571 004544f6 f   systeminfo.obj
 0001:000534fd       __unwindfunclet$??0OSInfo@@QAE@ABV?$vector@V?$basic_string@DU?$char_traits@D@std@@V?$allocator@D@2@@std@@V?$allocator@V?$basic_string@DU?$char_traits@D@std@@V?$allocator@D@2@@std@@@2@@std@@H@Z$683 004544fd f   systeminfo.obj
 0001:00053504       __unwindfunclet$??0OSInfo@@QAE@ABV?$vector@V?$basic_string@DU?$char_traits@D@std@@V?$allocator@D@2@@std@@V?$allocator@V?$basic_string@DU?$char_traits@D@std@@V?$allocator@D@2@@std@@@2@@std@@H@Z$795 00454504 f   systeminfo.obj
 0001:0005350b       __unwindfunclet$??0OSInfo@@QAE@ABV?$vector@V?$basic_string@DU?$char_traits@D@std@@V?$allocator@D@2@@std@@V?$allocator@V?$basic_string@DU?$char_traits@D@std@@V?$allocator@D@2@@std@@@2@@std@@H@Z$907 0045450b f   systeminfo.obj
 0001:00053512       __unwindfunclet$??0OSInfo@@QAE@ABV?$vector@V?$basic_string@DU?$char_traits@D@std@@V?$allocator@D@2@@std@@V?$allocator@V?$basic_string@DU?$char_traits@D@std@@V?$allocator@D@2@@std@@@2@@std@@H@Z$1019 00454512 f   systeminfo.obj
 0001:00053519       __unwindfunclet$??0OSInfo@@QAE@ABV?$vector@V?$basic_string@DU?$char_traits@D@std@@V?$allocator@D@2@@std@@V?$allocator@V?$basic_string@DU?$char_traits@D@std@@V?$allocator@D@2@@std@@@2@@std@@H@Z$1131 00454519 f   systeminfo.obj
 0001:00053520       __unwindfunclet$??0OSInfo@@QAE@ABV?$vector@V?$basic_string@DU?$char_traits@D@std@@V?$allocator@D@2@@std@@V?$allocator@V?$basic_string@DU?$char_traits@D@std@@V?$allocator@D@2@@std@@@2@@std@@H@Z$1243 00454520 f   systeminfo.obj
 0001:00053527       __unwindfunclet$??0OSInfo@@QAE@ABV?$vector@V?$basic_string@DU?$char_traits@D@std@@V?$allocator@D@2@@std@@V?$allocator@V?$basic_string@DU?$char_traits@D@std@@V?$allocator@D@2@@std@@@2@@std@@H@Z$1355 00454527 f   systeminfo.obj
 0001:0005352e       __unwindfunclet$??0OSInfo@@QAE@ABV?$vector@V?$basic_string@DU?$char_traits@D@std@@V?$allocator@D@2@@std@@V?$allocator@V?$basic_string@DU?$char_traits@D@std@@V?$allocator@D@2@@std@@@2@@std@@H@Z$1467 0045452e f   systeminfo.obj
 0001:00053535       __unwindfunclet$??0OSInfo@@QAE@ABV?$vector@V?$basic_string@DU?$char_traits@D@std@@V?$allocator@D@2@@std@@V?$allocator@V?$basic_string@DU?$char_traits@D@std@@V?$allocator@D@2@@std@@@2@@std@@H@Z$1579 00454535 f   systeminfo.obj
 0001:0005353c       __unwindfunclet$??0OSInfo@@QAE@ABV?$vector@V?$basic_string@DU?$char_traits@D@std@@V?$allocator@D@2@@std@@V?$allocator@V?$basic_string@DU?$char_traits@D@std@@V?$allocator@D@2@@std@@@2@@std@@H@Z$31 0045453c f   systeminfo.obj
 0001:00053544       __unwindfunclet$??0OSInfo@@QAE@ABV?$vector@V?$basic_string@DU?$char_traits@D@std@@V?$allocator@D@2@@std@@V?$allocator@V?$basic_string@DU?$char_traits@D@std@@V?$allocator@D@2@@std@@@2@@std@@H@Z$32 00454544 f   systeminfo.obj
 0001:0005354c       __unwindfunclet$??0OSInfo@@QAE@ABV?$vector@V?$basic_string@DU?$char_traits@D@std@@V?$allocator@D@2@@std@@V?$allocator@V?$basic_string@DU?$char_traits@D@std@@V?$allocator@D@2@@std@@@2@@std@@H@Z$33 0045454c f   systeminfo.obj
 0001:00053557       __unwindfunclet$??0OSInfo@@QAE@ABV?$vector@V?$basic_string@DU?$char_traits@D@std@@V?$allocator@D@2@@std@@V?$allocator@V?$basic_string@DU?$char_traits@D@std@@V?$allocator@D@2@@std@@@2@@std@@H@Z$34 00454557 f   systeminfo.obj
 0001:00053562       __unwindfunclet$??0OSInfo@@QAE@ABV?$vector@V?$basic_string@DU?$char_traits@D@std@@V?$allocator@D@2@@std@@V?$allocator@V?$basic_string@DU?$char_traits@D@std@@V?$allocator@D@2@@std@@@2@@std@@H@Z$35 00454562 f   systeminfo.obj
 0001:0005356d       __unwindfunclet$??0OSInfo@@QAE@ABV?$vector@V?$basic_string@DU?$char_traits@D@std@@V?$allocator@D@2@@std@@V?$allocator@V?$basic_string@DU?$char_traits@D@std@@V?$allocator@D@2@@std@@@2@@std@@H@Z$1726 0045456d f   systeminfo.obj
 0001:00053574       __unwindfunclet$??0OSInfo@@QAE@ABV?$vector@V?$basic_string@DU?$char_traits@D@std@@V?$allocator@D@2@@std@@V?$allocator@V?$basic_string@DU?$char_traits@D@std@@V?$allocator@D@2@@std@@@2@@std@@H@Z$38 00454574 f   systeminfo.obj
 0001:0005357c       __unwindfunclet$??0OSInfo@@QAE@ABV?$vector@V?$basic_string@DU?$char_traits@D@std@@V?$allocator@D@2@@std@@V?$allocator@V?$basic_string@DU?$char_traits@D@std@@V?$allocator@D@2@@std@@@2@@std@@H@Z$39 0045457c f   systeminfo.obj
 0001:00053584       __unwindfunclet$??0OSInfo@@QAE@ABV?$vector@V?$basic_string@DU?$char_traits@D@std@@V?$allocator@D@2@@std@@V?$allocator@V?$basic_string@DU?$char_traits@D@std@@V?$allocator@D@2@@std@@@2@@std@@H@Z$40 00454584 f   systeminfo.obj
 0001:0005358f       __unwindfunclet$??0OSInfo@@QAE@ABV?$vector@V?$basic_string@DU?$char_traits@D@std@@V?$allocator@D@2@@std@@V?$allocator@V?$basic_string@DU?$char_traits@D@std@@V?$allocator@D@2@@std@@@2@@std@@H@Z$41 0045458f f   systeminfo.obj
 0001:0005359a       __unwindfunclet$??0OSInfo@@QAE@ABV?$vector@V?$basic_string@DU?$char_traits@D@std@@V?$allocator@D@2@@std@@V?$allocator@V?$basic_string@DU?$char_traits@D@std@@V?$allocator@D@2@@std@@@2@@std@@H@Z$42 0045459a f   systeminfo.obj
 0001:000535a5       __unwindfunclet$??0OSInfo@@QAE@ABV?$vector@V?$basic_string@DU?$char_traits@D@std@@V?$allocator@D@2@@std@@V?$allocator@V?$basic_string@DU?$char_traits@D@std@@V?$allocator@D@2@@std@@@2@@std@@H@Z$45 004545a5 f   systeminfo.obj
 0001:000535ad       __unwindfunclet$??0OSInfo@@QAE@ABV?$vector@V?$basic_string@DU?$char_traits@D@std@@V?$allocator@D@2@@std@@V?$allocator@V?$basic_string@DU?$char_traits@D@std@@V?$allocator@D@2@@std@@@2@@std@@H@Z$46 004545ad f   systeminfo.obj
 0001:000535b5       __unwindfunclet$??0OSInfo@@QAE@ABV?$vector@V?$basic_string@DU?$char_traits@D@std@@V?$allocator@D@2@@std@@V?$allocator@V?$basic_string@DU?$char_traits@D@std@@V?$allocator@D@2@@std@@@2@@std@@H@Z$47 004545b5 f   systeminfo.obj
 0001:000535c0       __unwindfunclet$??0OSInfo@@QAE@ABV?$vector@V?$basic_string@DU?$char_traits@D@std@@V?$allocator@D@2@@std@@V?$allocator@V?$basic_string@DU?$char_traits@D@std@@V?$allocator@D@2@@std@@@2@@std@@H@Z$48 004545c0 f   systeminfo.obj
 0001:000535cb       __unwindfunclet$??0OSInfo@@QAE@ABV?$vector@V?$basic_string@DU?$char_traits@D@std@@V?$allocator@D@2@@std@@V?$allocator@V?$basic_string@DU?$char_traits@D@std@@V?$allocator@D@2@@std@@@2@@std@@H@Z$49 004545cb f   systeminfo.obj
 0001:000535d6       __ehhandler$??0OSInfo@@QAE@ABV?$vector@V?$basic_string@DU?$char_traits@D@std@@V?$allocator@D@2@@std@@V?$allocator@V?$basic_string@DU?$char_traits@D@std@@V?$allocator@D@2@@std@@@2@@std@@H@Z 004545d6 f   systeminfo.obj
 0001:00053600       __unwindfunclet$??0OSInfoDelegate@@QAE@XZ$0 00454600 f   systeminfo.obj
 0001:0005360b       __unwindfunclet$??0OSInfoDelegate@@QAE@XZ$2 0045460b f   systeminfo.obj
 0001:0005361e       __unwindfunclet$??0OSInfoDelegate@@QAE@XZ$3 0045461e f   systeminfo.obj
 0001:00053629       __unwindfunclet$??0OSInfoDelegate@@QAE@XZ$4 00454629 f   systeminfo.obj
 0001:00053631       __unwindfunclet$??0OSInfoDelegate@@QAE@XZ$5 00454631 f   systeminfo.obj
 0001:00053639       __unwindfunclet$??0OSInfoDelegate@@QAE@XZ$6 00454639 f   systeminfo.obj
 0001:00053641       __unwindfunclet$??0OSInfoDelegate@@QAE@XZ$94 00454641 f   systeminfo.obj
 0001:00053646       __ehhandler$??0OSInfoDelegate@@QAE@XZ 00454646 f   systeminfo.obj
 0001:00053670       __unwindfunclet$??0RAMInfo@@QAE@ABV?$vector@V?$basic_string@DU?$char_traits@D@std@@V?$allocator@D@2@@std@@V?$allocator@V?$basic_string@DU?$char_traits@D@std@@V?$allocator@D@2@@std@@@2@@std@@H@Z$2 00454670 f   systeminfo.obj
 0001:0005367b       __unwindfunclet$??0RAMInfo@@QAE@ABV?$vector@V?$basic_string@DU?$char_traits@D@std@@V?$allocator@D@2@@std@@V?$allocator@V?$basic_string@DU?$char_traits@D@std@@V?$allocator@D@2@@std@@@2@@std@@H@Z$3 0045467b f   systeminfo.obj
 0001:00053689       __unwindfunclet$??0RAMInfo@@QAE@ABV?$vector@V?$basic_string@DU?$char_traits@D@std@@V?$allocator@D@2@@std@@V?$allocator@V?$basic_string@DU?$char_traits@D@std@@V?$allocator@D@2@@std@@@2@@std@@H@Z$4 00454689 f   systeminfo.obj
 0001:00053697       __unwindfunclet$??0RAMInfo@@QAE@ABV?$vector@V?$basic_string@DU?$char_traits@D@std@@V?$allocator@D@2@@std@@V?$allocator@V?$basic_string@DU?$char_traits@D@std@@V?$allocator@D@2@@std@@@2@@std@@H@Z$5 00454697 f   systeminfo.obj
 0001:000536a5       __unwindfunclet$??0RAMInfo@@QAE@ABV?$vector@V?$basic_string@DU?$char_traits@D@std@@V?$allocator@D@2@@std@@V?$allocator@V?$basic_string@DU?$char_traits@D@std@@V?$allocator@D@2@@std@@@2@@std@@H@Z$6 004546a5 f   systeminfo.obj
 0001:000536b3       __unwindfunclet$??0RAMInfo@@QAE@ABV?$vector@V?$basic_string@DU?$char_traits@D@std@@V?$allocator@D@2@@std@@V?$allocator@V?$basic_string@DU?$char_traits@D@std@@V?$allocator@D@2@@std@@@2@@std@@H@Z$7 004546b3 f   systeminfo.obj
 0001:000536c1       __unwindfunclet$??0RAMInfo@@QAE@ABV?$vector@V?$basic_string@DU?$char_traits@D@std@@V?$allocator@D@2@@std@@V?$allocator@V?$basic_string@DU?$char_traits@D@std@@V?$allocator@D@2@@std@@@2@@std@@H@Z$8 004546c1 f   systeminfo.obj
 0001:000536d2       __unwindfunclet$??0RAMInfo@@QAE@ABV?$vector@V?$basic_string@DU?$char_traits@D@std@@V?$allocator@D@2@@std@@V?$allocator@V?$basic_string@DU?$char_traits@D@std@@V?$allocator@D@2@@std@@@2@@std@@H@Z$9 004546d2 f   systeminfo.obj
 0001:000536e3       __unwindfunclet$??0RAMInfo@@QAE@ABV?$vector@V?$basic_string@DU?$char_traits@D@std@@V?$allocator@D@2@@std@@V?$allocator@V?$basic_string@DU?$char_traits@D@std@@V?$allocator@D@2@@std@@@2@@std@@H@Z$10 004546e3 f   systeminfo.obj
 0001:000536eb       __unwindfunclet$??0RAMInfo@@QAE@ABV?$vector@V?$basic_string@DU?$char_traits@D@std@@V?$allocator@D@2@@std@@V?$allocator@V?$basic_string@DU?$char_traits@D@std@@V?$allocator@D@2@@std@@@2@@std@@H@Z$307 004546eb f   systeminfo.obj
 0001:000536f2       __unwindfunclet$??0RAMInfo@@QAE@ABV?$vector@V?$basic_string@DU?$char_traits@D@std@@V?$allocator@D@2@@std@@V?$allocator@V?$basic_string@DU?$char_traits@D@std@@V?$allocator@D@2@@std@@@2@@std@@H@Z$419 004546f2 f   systeminfo.obj
 0001:000536f9       __unwindfunclet$??0RAMInfo@@QAE@ABV?$vector@V?$basic_string@DU?$char_traits@D@std@@V?$allocator@D@2@@std@@V?$allocator@V?$basic_string@DU?$char_traits@D@std@@V?$allocator@D@2@@std@@@2@@std@@H@Z$13 004546f9 f   systeminfo.obj
 0001:00053701       __unwindfunclet$??0RAMInfo@@QAE@ABV?$vector@V?$basic_string@DU?$char_traits@D@std@@V?$allocator@D@2@@std@@V?$allocator@V?$basic_string@DU?$char_traits@D@std@@V?$allocator@D@2@@std@@@2@@std@@H@Z$14 00454701 f   systeminfo.obj
 0001:0005370c       __unwindfunclet$??0RAMInfo@@QAE@ABV?$vector@V?$basic_string@DU?$char_traits@D@std@@V?$allocator@D@2@@std@@V?$allocator@V?$basic_string@DU?$char_traits@D@std@@V?$allocator@D@2@@std@@@2@@std@@H@Z$15 0045470c f   systeminfo.obj
 0001:00053714       __unwindfunclet$??0RAMInfo@@QAE@ABV?$vector@V?$basic_string@DU?$char_traits@D@std@@V?$allocator@D@2@@std@@V?$allocator@V?$basic_string@DU?$char_traits@D@std@@V?$allocator@D@2@@std@@@2@@std@@H@Z$16 00454714 f   systeminfo.obj
 0001:0005371f       __unwindfunclet$??0RAMInfo@@QAE@ABV?$vector@V?$basic_string@DU?$char_traits@D@std@@V?$allocator@D@2@@std@@V?$allocator@V?$basic_string@DU?$char_traits@D@std@@V?$allocator@D@2@@std@@@2@@std@@H@Z$17 0045471f f   systeminfo.obj
 0001:0005372a       __unwindfunclet$??0RAMInfo@@QAE@ABV?$vector@V?$basic_string@DU?$char_traits@D@std@@V?$allocator@D@2@@std@@V?$allocator@V?$basic_string@DU?$char_traits@D@std@@V?$allocator@D@2@@std@@@2@@std@@H@Z$566 0045472a f   systeminfo.obj
 0001:00053731       __unwindfunclet$??0RAMInfo@@QAE@ABV?$vector@V?$basic_string@DU?$char_traits@D@std@@V?$allocator@D@2@@std@@V?$allocator@V?$basic_string@DU?$char_traits@D@std@@V?$allocator@D@2@@std@@@2@@std@@H@Z$813 00454731 f   systeminfo.obj
 0001:00053738       __unwindfunclet$??0RAMInfo@@QAE@ABV?$vector@V?$basic_string@DU?$char_traits@D@std@@V?$allocator@D@2@@std@@V?$allocator@V?$basic_string@DU?$char_traits@D@std@@V?$allocator@D@2@@std@@@2@@std@@H@Z$21 00454738 f   systeminfo.obj
 0001:00053740       __unwindfunclet$??0RAMInfo@@QAE@ABV?$vector@V?$basic_string@DU?$char_traits@D@std@@V?$allocator@D@2@@std@@V?$allocator@V?$basic_string@DU?$char_traits@D@std@@V?$allocator@D@2@@std@@@2@@std@@H@Z$925 00454740 f   systeminfo.obj
 0001:00053747       __unwindfunclet$??0RAMInfo@@QAE@ABV?$vector@V?$basic_string@DU?$char_traits@D@std@@V?$allocator@D@2@@std@@V?$allocator@V?$basic_string@DU?$char_traits@D@std@@V?$allocator@D@2@@std@@@2@@std@@H@Z$1064 00454747 f   systeminfo.obj
 0001:0005374e       __unwindfunclet$??0RAMInfo@@QAE@ABV?$vector@V?$basic_string@DU?$char_traits@D@std@@V?$allocator@D@2@@std@@V?$allocator@V?$basic_string@DU?$char_traits@D@std@@V?$allocator@D@2@@std@@@2@@std@@H@Z$24 0045474e f   systeminfo.obj
 0001:00053756       __unwindfunclet$??0RAMInfo@@QAE@ABV?$vector@V?$basic_string@DU?$char_traits@D@std@@V?$allocator@D@2@@std@@V?$allocator@V?$basic_string@DU?$char_traits@D@std@@V?$allocator@D@2@@std@@@2@@std@@H@Z$1176 00454756 f   systeminfo.obj
 0001:0005375d       __unwindfunclet$??0RAMInfo@@QAE@ABV?$vector@V?$basic_string@DU?$char_traits@D@std@@V?$allocator@D@2@@std@@V?$allocator@V?$basic_string@DU?$char_traits@D@std@@V?$allocator@D@2@@std@@@2@@std@@H@Z$26 0045475d f   systeminfo.obj
 0001:00053768       __unwindfunclet$??0RAMInfo@@QAE@ABV?$vector@V?$basic_string@DU?$char_traits@D@std@@V?$allocator@D@2@@std@@V?$allocator@V?$basic_string@DU?$char_traits@D@std@@V?$allocator@D@2@@std@@@2@@std@@H@Z$1315 00454768 f   systeminfo.obj
 0001:0005376f       __unwindfunclet$??0RAMInfo@@QAE@ABV?$vector@V?$basic_string@DU?$char_traits@D@std@@V?$allocator@D@2@@std@@V?$allocator@V?$basic_string@DU?$char_traits@D@std@@V?$allocator@D@2@@std@@@2@@std@@H@Z$28 0045476f f   systeminfo.obj
 0001:0005377a       __unwindfunclet$??0RAMInfo@@QAE@ABV?$vector@V?$basic_string@DU?$char_traits@D@std@@V?$allocator@D@2@@std@@V?$allocator@V?$basic_string@DU?$char_traits@D@std@@V?$allocator@D@2@@std@@@2@@std@@H@Z$1459 0045477a f   systeminfo.obj
 0001:00053781       __ehhandler$??0RAMInfo@@QAE@ABV?$vector@V?$basic_string@DU?$char_traits@D@std@@V?$allocator@D@2@@std@@V?$allocator@V?$basic_string@DU?$char_traits@D@std@@V?$allocator@D@2@@std@@@2@@std@@H@Z 00454781 f   systeminfo.obj
 0001:000537b0       __ehhandler$?getMemoryType@RAMInfo@@ABE?AV?$basic_string@DU?$char_traits@D@std@@V?$allocator@D@2@@std@@ABV23@@Z 004547b0 f   systeminfo.obj
 0001:000537d0       __ehhandler$?getFormFactor@RAMInfo@@ABE?AV?$basic_string@DU?$char_traits@D@std@@V?$allocator@D@2@@std@@ABV23@@Z 004547d0 f   systeminfo.obj
 0001:000537f0       __unwindfunclet$??0RAMInfoDelegate@@QAE@XZ$0 004547f0 f   systeminfo.obj
 0001:000537fb       __unwindfunclet$??0RAMInfoDelegate@@QAE@XZ$2 004547fb f   systeminfo.obj
 0001:0005380e       __unwindfunclet$??0RAMInfoDelegate@@QAE@XZ$3 0045480e f   systeminfo.obj
 0001:00053819       __unwindfunclet$??0RAMInfoDelegate@@QAE@XZ$4 00454819 f   systeminfo.obj
 0001:00053821       __unwindfunclet$??0RAMInfoDelegate@@QAE@XZ$5 00454821 f   systeminfo.obj
 0001:00053829       __unwindfunclet$??0RAMInfoDelegate@@QAE@XZ$6 00454829 f   systeminfo.obj
 0001:00053831       __unwindfunclet$??0RAMInfoDelegate@@QAE@XZ$94 00454831 f   systeminfo.obj
 0001:00053836       __ehhandler$??0RAMInfoDelegate@@QAE@XZ 00454836 f   systeminfo.obj
 0001:00053860       __unwindfunclet$??0SystemCommand@@QAE@V?$initializer_list@V?$basic_string@DU?$char_traits@D@std@@V?$allocator@D@2@@std@@@std@@@Z$0 00454860 f   systeminfo.obj
 0001:0005386b       __ehhandler$??0SystemCommand@@QAE@V?$initializer_list@V?$basic_string@DU?$char_traits@D@std@@V?$allocator@D@2@@std@@@std@@@Z 0045486b f   systeminfo.obj
 0001:00053890       __unwindfunclet$?stripAllFromString@SystemCommand@@AAE?AV?$basic_string@DU?$char_traits@D@std@@V?$allocator@D@2@@std@@ABV23@0@Z$0 00454890 f   systeminfo.obj
 0001:00053898       __unwindfunclet$?stripAllFromString@SystemCommand@@AAE?AV?$basic_string@DU?$char_traits@D@std@@V?$allocator@D@2@@std@@ABV23@0@Z$75 00454898 f   systeminfo.obj
 0001:0005389f       __ehhandler$?stripAllFromString@SystemCommand@@AAE?AV?$basic_string@DU?$char_traits@D@std@@V?$allocator@D@2@@std@@ABV23@0@Z 0045489f f   systeminfo.obj
 0001:000538d0       __unwindfunclet$?stripFromString@SystemCommand@@AAE?AV?$basic_string@DU?$char_traits@D@std@@V?$allocator@D@2@@std@@ABV23@0@Z$0 004548d0 f   systeminfo.obj
 0001:000538d8       __unwindfunclet$?stripFromString@SystemCommand@@AAE?AV?$basic_string@DU?$char_traits@D@std@@V?$allocator@D@2@@std@@ABV23@0@Z$83 004548d8 f   systeminfo.obj
 0001:000538df       __unwindfunclet$?stripFromString@SystemCommand@@AAE?AV?$basic_string@DU?$char_traits@D@std@@V?$allocator@D@2@@std@@ABV23@0@Z$4 004548df f   systeminfo.obj
 0001:000538e7       __unwindfunclet$?stripFromString@SystemCommand@@AAE?AV?$basic_string@DU?$char_traits@D@std@@V?$allocator@D@2@@std@@ABV23@0@Z$5 004548e7 f   systeminfo.obj
 0001:000538ef       __ehhandler$?stripFromString@SystemCommand@@AAE?AV?$basic_string@DU?$char_traits@D@std@@V?$allocator@D@2@@std@@ABV23@0@Z 004548ef f   systeminfo.obj
 0001:00053920       __unwindfunclet$?stripPipeFromCommand@SystemCommand@@AAEXXZ$0 00454920 f   systeminfo.obj
 0001:00053928       __unwindfunclet$?stripPipeFromCommand@SystemCommand@@AAEXXZ$30 00454928 f   systeminfo.obj
 0001:0005392f       __unwindfunclet$?stripPipeFromCommand@SystemCommand@@AAEXXZ$2 0045492f f   systeminfo.obj
 0001:00053937       __unwindfunclet$?stripPipeFromCommand@SystemCommand@@AAEXXZ$166 00454937 f   systeminfo.obj
 0001:0005393e       __ehhandler$?stripPipeFromCommand@SystemCommand@@AAEXXZ 0045493e f   systeminfo.obj
 0001:00053960       __unwindfunclet$?systemCommandLaunch@SystemCommand@@AAEX_N@Z$0 00454960 f   systeminfo.obj
 0001:0005396b       __unwindfunclet$?systemCommandLaunch@SystemCommand@@AAEX_N@Z$2 0045496b f   systeminfo.obj
 0001:00053976       __unwindfunclet$?systemCommandLaunch@SystemCommand@@AAEX_N@Z$3 00454976 f   systeminfo.obj
 0001:00053981       __unwindfunclet$?systemCommandLaunch@SystemCommand@@AAEX_N@Z$181 00454981 f   systeminfo.obj
 0001:0005398c       __unwindfunclet$?systemCommandLaunch@SystemCommand@@AAEX_N@Z$273 0045498c f   systeminfo.obj
 0001:00053993       __ehhandler$?systemCommandLaunch@SystemCommand@@AAEX_N@Z 00454993 f   systeminfo.obj
 0001:000539c0       __unwindfunclet$??R<lambda_787d45c283701cc870e4fc26d5464600>@@QBE?AV?$basic_string@DU?$char_traits@D@std@@V?$allocator@D@2@@std@@ABV12@@Z$0 004549c0 f   systeminfo.obj
 0001:000539d9       __unwindfunclet$??R<lambda_787d45c283701cc870e4fc26d5464600>@@QBE?AV?$basic_string@DU?$char_traits@D@std@@V?$allocator@D@2@@std@@ABV12@@Z$1 004549d9 f   systeminfo.obj
 0001:000539e1       __unwindfunclet$??R<lambda_787d45c283701cc870e4fc26d5464600>@@QBE?AV?$basic_string@DU?$char_traits@D@std@@V?$allocator@D@2@@std@@ABV12@@Z$2 004549e1 f   systeminfo.obj
 0001:000539e9       __unwindfunclet$??R<lambda_787d45c283701cc870e4fc26d5464600>@@QBE?AV?$basic_string@DU?$char_traits@D@std@@V?$allocator@D@2@@std@@ABV12@@Z$4 004549e9 f   systeminfo.obj
 0001:000539fc       __unwindfunclet$??R<lambda_787d45c283701cc870e4fc26d5464600>@@QBE?AV?$basic_string@DU?$char_traits@D@std@@V?$allocator@D@2@@std@@ABV12@@Z$5 004549fc f   systeminfo.obj
 0001:00053a04       __unwindfunclet$??R<lambda_787d45c283701cc870e4fc26d5464600>@@QBE?AV?$basic_string@DU?$char_traits@D@std@@V?$allocator@D@2@@std@@ABV12@@Z$151 00454a04 f   systeminfo.obj
 0001:00053a0b       __ehhandler$??R<lambda_787d45c283701cc870e4fc26d5464600>@@QBE?AV?$basic_string@DU?$char_traits@D@std@@V?$allocator@D@2@@std@@ABV12@@Z 00454a0b f   systeminfo.obj
 0001:00053a40       __ehhandler$??0?$vector@VRAMInfo@@V?$allocator@VRAMInfo@@@std@@@std@@QAE@ABV01@@Z 00454a40 f   systeminfo.obj
 0001:00053a60       __ehhandler$??0?$vector@VOSInfo@@V?$allocator@VOSInfo@@@std@@@std@@QAE@ABV01@@Z 00454a60 f   systeminfo.obj
 0001:00053a80       __ehhandler$??0?$vector@VMotherboardInfo@@V?$allocator@VMotherboardInfo@@@std@@@std@@QAE@ABV01@@Z 00454a80 f   systeminfo.obj
 0001:00053aa0       __ehhandler$??0?$vector@VGPUInfo@@V?$allocator@VGPUInfo@@@std@@@std@@QAE@ABV01@@Z 00454aa0 f   systeminfo.obj
 0001:00053ac0       __ehhandler$??0?$vector@VCPUInfo@@V?$allocator@VCPUInfo@@@std@@@std@@QAE@ABV01@@Z 00454ac0 f   systeminfo.obj
 0001:00053ae0       __unwindfunclet$?push_back@?$vector@V?$basic_string@DU?$char_traits@D@std@@V?$allocator@D@2@@std@@V?$allocator@V?$basic_string@DU?$char_traits@D@std@@V?$allocator@D@2@@std@@@2@@std@@QAEXABV?$basic_string@DU?$char_traits@D@std@@V?$allocator@D@2@@2@@Z$33 00454ae0 f   systeminfo.obj
 0001:00053ae5       __unwindfunclet$?push_back@?$vector@V?$basic_string@DU?$char_traits@D@std@@V?$allocator@D@2@@std@@V?$allocator@V?$basic_string@DU?$char_traits@D@std@@V?$allocator@D@2@@std@@@2@@std@@QAEXABV?$basic_string@DU?$char_traits@D@std@@V?$allocator@D@2@@2@@Z$88 00454ae5 f   systeminfo.obj
 0001:00053aea       __ehhandler$?push_back@?$vector@V?$basic_string@DU?$char_traits@D@std@@V?$allocator@D@2@@std@@V?$allocator@V?$basic_string@DU?$char_traits@D@std@@V?$allocator@D@2@@std@@@2@@std@@QAEXABV?$basic_string@DU?$char_traits@D@std@@V?$allocator@D@2@@2@@Z 00454aea f   systeminfo.obj
 0001:00053b10       __ehhandler$??0?$vector@V?$basic_string@DU?$char_traits@D@std@@V?$allocator@D@2@@std@@V?$allocator@V?$basic_string@DU?$char_traits@D@std@@V?$allocator@D@2@@std@@@2@@std@@QAE@ABV01@@Z 00454b10 f   systeminfo.obj
 0001:00053b30       __ehhandler$??4?$basic_string@DU?$char_traits@D@std@@V?$allocator@D@2@@std@@QAEAAV01@$$QAV01@@Z 00454b30 f   systeminfo.obj
 0001:00053b50       __unwindfunclet$??0?$basic_ifstream@DU?$char_traits@D@std@@@std@@QAE@XZ$0 00454b50 f   systeminfo.obj
 0001:00053b6d       __unwindfunclet$??0?$basic_ifstream@DU?$char_traits@D@std@@@std@@QAE@XZ$1 00454b6d f   systeminfo.obj
 0001:00053b79       __unwindfunclet$??0?$basic_ifstream@DU?$char_traits@D@std@@@std@@QAE@XZ$3 00454b79 f   systeminfo.obj
 0001:00053b82       __ehhandler$??0?$basic_ifstream@DU?$char_traits@D@std@@@std@@QAE@XZ 00454b82 f   systeminfo.obj
 0001:00053ba0       __unwindfunclet$?uflow@?$basic_filebuf@DU?$char_traits@D@std@@@std@@MAEHXZ$0 00454ba0 f   systeminfo.obj
 0001:00053ba8       __ehhandler$?uflow@?$basic_filebuf@DU?$char_traits@D@std@@@std@@MAEHXZ 00454ba8 f   systeminfo.obj
 0001:00053bd0       __unwindfunclet$?overflow@?$basic_filebuf@DU?$char_traits@D@std@@@std@@MAEHH@Z$0 00454bd0 f   systeminfo.obj
 0001:00053bd8       __ehhandler$?overflow@?$basic_filebuf@DU?$char_traits@D@std@@@std@@MAEHH@Z 00454bd8 f   systeminfo.obj
 0001:00053c00       __ehhandler$??1?$basic_filebuf@DU?$char_traits@D@std@@@std@@UAE@XZ 00454c00 f   systeminfo.obj
 0001:00053c00       __ehhandler$??1_Fac_node@std@@QAE@XZ 00454c00 f   msvcprt:locale0_implib.obj
 0001:00053c20       __unwindfunclet$?_Endwrite@?$basic_filebuf@DU?$char_traits@D@std@@@std@@IAE_NXZ$0 00454c20 f   systeminfo.obj
 0001:00053c28       __ehhandler$?_Endwrite@?$basic_filebuf@DU?$char_traits@D@std@@@std@@IAE_NXZ 00454c28 f   systeminfo.obj
 0001:00053c50       __unwindfunclet$??$use_facet@V?$ctype@D@std@@@std@@YAABV?$ctype@D@0@ABVlocale@0@@Z$0 00454c50 f   systeminfo.obj
 0001:00053c50       __unwindfunclet$??$use_facet@V?$codecvt@DDU_Mbstatet@@@std@@@std@@YAABV?$codecvt@DDU_Mbstatet@@@0@ABVlocale@0@@Z$0 00454c50 f   systeminfo.obj
 0001:00053c59       __ehhandler$??$use_facet@V?$ctype@D@std@@@std@@YAABV?$ctype@D@0@ABVlocale@0@@Z 00454c59 f   systeminfo.obj
 0001:00053c59       __ehhandler$??$use_facet@V?$codecvt@DDU_Mbstatet@@@std@@@std@@YAABV?$codecvt@DDU_Mbstatet@@@0@ABVlocale@0@@Z 00454c59 f   systeminfo.obj
 0001:00053c80       __unwindfunclet$??$?6DU?$char_traits@D@std@@V?$allocator@D@1@@std@@YAAAV?$basic_ostream@DU?$char_traits@D@std@@@0@AAV10@ABV?$basic_string@DU?$char_traits@D@std@@V?$allocator@D@2@@0@@Z$7 00454c80 f   systeminfo.obj
 0001:00053c88       __unwindfunclet$??$?6DU?$char_traits@D@std@@V?$allocator@D@1@@std@@YAAAV?$basic_ostream@DU?$char_traits@D@std@@@0@AAV10@ABV?$basic_string@DU?$char_traits@D@std@@V?$allocator@D@2@@0@@Z$2 00454c88 f   systeminfo.obj
 0001:00053c90       __unwindfunclet$??$?6DU?$char_traits@D@std@@V?$allocator@D@1@@std@@YAAAV?$basic_ostream@DU?$char_traits@D@std@@@0@AAV10@ABV?$basic_string@DU?$char_traits@D@std@@V?$allocator@D@2@@0@@Z$15 00454c90 f   systeminfo.obj
 0001:00053c97       __unwindfunclet$??$?6DU?$char_traits@D@std@@V?$allocator@D@1@@std@@YAAAV?$basic_ostream@DU?$char_traits@D@std@@@0@AAV10@ABV?$basic_string@DU?$char_traits@D@std@@V?$allocator@D@2@@0@@Z$16 00454c97 f   systeminfo.obj
 0001:00053c9e       __ehhandler$??$?6DU?$char_traits@D@std@@V?$allocator@D@1@@std@@YAAAV?$basic_ostream@DU?$char_traits@D@std@@@0@AAV10@ABV?$basic_string@DU?$char_traits@D@std@@V?$allocator@D@2@@0@@Z 00454c9e f   systeminfo.obj
 0001:00053cc0       __unwindfunclet$??$?HDU?$char_traits@D@std@@V?$allocator@D@1@@std@@YA?AV?$basic_string@DU?$char_traits@D@std@@V?$allocator@D@2@@0@ABV10@PBD@Z$0 00454cc0 f   systeminfo.obj
 0001:00053cd9       __ehhandler$??$?HDU?$char_traits@D@std@@V?$allocator@D@1@@std@@YA?AV?$basic_string@DU?$char_traits@D@std@@V?$allocator@D@2@@0@ABV10@PBD@Z 00454cd9 f   systeminfo.obj
 0001:00053d00       __unwindfunclet$??$toString@_J@GPUInfo@@ABE?AV?$basic_string@DU?$char_traits@D@std@@V?$allocator@D@2@@std@@AB_J@Z$3 00454d00 f   systeminfo.obj
 0001:00053d00       __unwindfunclet$??$toString@_J@OSInfo@@ABE?AV?$basic_string@DU?$char_traits@D@std@@V?$allocator@D@2@@std@@AB_J@Z$3 00454d00 f   systeminfo.obj
 0001:00053d00       __unwindfunclet$??$toString@_J@RAMInfo@@ABE?AV?$basic_string@DU?$char_traits@D@std@@V?$allocator@D@2@@std@@AB_J@Z$3 00454d00 f   systeminfo.obj
 0001:00053d20       __unwindfunclet$??$toString@_J@RAMInfo@@ABE?AV?$basic_string@DU?$char_traits@D@std@@V?$allocator@D@2@@std@@AB_J@Z$4 00454d20 f   systeminfo.obj
 0001:00053d20       __unwindfunclet$??$toString@_J@OSInfo@@ABE?AV?$basic_string@DU?$char_traits@D@std@@V?$allocator@D@2@@std@@AB_J@Z$4 00454d20 f   systeminfo.obj
 0001:00053d20       __unwindfunclet$??$toString@_J@GPUInfo@@ABE?AV?$basic_string@DU?$char_traits@D@std@@V?$allocator@D@2@@std@@AB_J@Z$4 00454d20 f   systeminfo.obj
 0001:00053d2c       __unwindfunclet$??$toString@_J@RAMInfo@@ABE?AV?$basic_string@DU?$char_traits@D@std@@V?$allocator@D@2@@std@@AB_J@Z$6 00454d2c f   systeminfo.obj
 0001:00053d2c       __unwindfunclet$??$toString@_J@GPUInfo@@ABE?AV?$basic_string@DU?$char_traits@D@std@@V?$allocator@D@2@@std@@AB_J@Z$6 00454d2c f   systeminfo.obj
 0001:00053d2c       __unwindfunclet$??$toString@_J@OSInfo@@ABE?AV?$basic_string@DU?$char_traits@D@std@@V?$allocator@D@2@@std@@AB_J@Z$6 00454d2c f   systeminfo.obj
 0001:00053d38       __unwindfunclet$??$toString@_J@GPUInfo@@ABE?AV?$basic_string@DU?$char_traits@D@std@@V?$allocator@D@2@@std@@AB_J@Z$0 00454d38 f   systeminfo.obj
 0001:00053d38       __unwindfunclet$??$toString@_J@OSInfo@@ABE?AV?$basic_string@DU?$char_traits@D@std@@V?$allocator@D@2@@std@@AB_J@Z$0 00454d38 f   systeminfo.obj
 0001:00053d38       __unwindfunclet$??$toString@_J@RAMInfo@@ABE?AV?$basic_string@DU?$char_traits@D@std@@V?$allocator@D@2@@std@@AB_J@Z$0 00454d38 f   systeminfo.obj
 0001:00053d43       __unwindfunclet$??$toString@_J@RAMInfo@@ABE?AV?$basic_string@DU?$char_traits@D@std@@V?$allocator@D@2@@std@@AB_J@Z$1 00454d43 f   systeminfo.obj
 0001:00053d43       __unwindfunclet$??$toString@_J@GPUInfo@@ABE?AV?$basic_string@DU?$char_traits@D@std@@V?$allocator@D@2@@std@@AB_J@Z$1 00454d43 f   systeminfo.obj
 0001:00053d43       __unwindfunclet$??$toString@_J@OSInfo@@ABE?AV?$basic_string@DU?$char_traits@D@std@@V?$allocator@D@2@@std@@AB_J@Z$1 00454d43 f   systeminfo.obj
 0001:00053d65       __ehhandler$??$toString@_J@GPUInfo@@ABE?AV?$basic_string@DU?$char_traits@D@std@@V?$allocator@D@2@@std@@AB_J@Z 00454d65 f   systeminfo.obj
 0001:00053d65       __ehhandler$??$toString@_J@OSInfo@@ABE?AV?$basic_string@DU?$char_traits@D@std@@V?$allocator@D@2@@std@@AB_J@Z 00454d65 f   systeminfo.obj
 0001:00053d65       __ehhandler$??$toString@_J@RAMInfo@@ABE?AV?$basic_string@DU?$char_traits@D@std@@V?$allocator@D@2@@std@@AB_J@Z 00454d65 f   systeminfo.obj
 0001:00053d90       __ehhandler$??$_Construct@PBV?$basic_string@DU?$char_traits@D@std@@V?$allocator@D@2@@std@@@?$vector@V?$basic_string@DU?$char_traits@D@std@@V?$allocator@D@2@@std@@V?$allocator@V?$basic_string@DU?$char_traits@D@std@@V?$allocator@D@2@@std@@@2@@std@@QAEXPBV?$basic_string@DU?$char_traits@D@std@@V?$allocator@D@2@@1@0Uforward_iterator_tag@1@@Z 00454d90 f   systeminfo.obj
 0001:00053db0       __unwindfunclet$??$?5DU?$char_traits@D@std@@V?$allocator@D@1@@std@@YAAAV?$basic_istream@DU?$char_traits@D@std@@@0@$$QAV10@AAV?$basic_string@DU?$char_traits@D@std@@V?$allocator@D@2@@0@@Z$4 00454db0 f   systeminfo.obj
 0001:00053db8       __unwindfunclet$??$?5DU?$char_traits@D@std@@V?$allocator@D@1@@std@@YAAAV?$basic_istream@DU?$char_traits@D@std@@@0@$$QAV10@AAV?$basic_string@DU?$char_traits@D@std@@V?$allocator@D@2@@0@@Z$2 00454db8 f   systeminfo.obj
 0001:00053dc0       __unwindfunclet$??$?5DU?$char_traits@D@std@@V?$allocator@D@1@@std@@YAAAV?$basic_istream@DU?$char_traits@D@std@@@0@$$QAV10@AAV?$basic_string@DU?$char_traits@D@std@@V?$allocator@D@2@@0@@Z$3 00454dc0 f   systeminfo.obj
 0001:00053dc8       __unwindfunclet$??$?5DU?$char_traits@D@std@@V?$allocator@D@1@@std@@YAAAV?$basic_istream@DU?$char_traits@D@std@@@0@$$QAV10@AAV?$basic_string@DU?$char_traits@D@std@@V?$allocator@D@2@@0@@Z$5 00454dc8 f   systeminfo.obj
 0001:00053dcf       __unwindfunclet$??$?5DU?$char_traits@D@std@@V?$allocator@D@1@@std@@YAAAV?$basic_istream@DU?$char_traits@D@std@@@0@$$QAV10@AAV?$basic_string@DU?$char_traits@D@std@@V?$allocator@D@2@@0@@Z$88 00454dcf f   systeminfo.obj
 0001:00053dd6       __ehhandler$??$?5DU?$char_traits@D@std@@V?$allocator@D@1@@std@@YAAAV?$basic_istream@DU?$char_traits@D@std@@@0@$$QAV10@AAV?$basic_string@DU?$char_traits@D@std@@V?$allocator@D@2@@0@@Z 00454dd6 f   systeminfo.obj
 0001:00053e00       __unwindfunclet$??1sentry@?$basic_istream@DU?$char_traits@D@std@@@std@@QAE@XZ$0 00454e00 f   systeminfo.obj
 0001:00053e07       __ehhandler$??1sentry@?$basic_istream@DU?$char_traits@D@std@@@std@@QAE@XZ 00454e07 f   systeminfo.obj
 0001:00053e30       __unwindfunclet$??$_Uninitialized_copy_al_unchecked1@PBVRAMInfo@@PAV1@V?$allocator@VRAMInfo@@@std@@@std@@YAPAVRAMInfo@@PBV1@0PAV1@AAU?$_Wrap_alloc@V?$allocator@VRAMInfo@@@std@@@0@U_General_ptr_iterator_tag@0@U_Any_tag@0@@Z$4 00454e30 f   systeminfo.obj
 0001:00053e35       __ehhandler$??$_Uninitialized_copy_al_unchecked1@PBVRAMInfo@@PAV1@V?$allocator@VRAMInfo@@@std@@@std@@YAPAVRAMInfo@@PBV1@0PAV1@AAU?$_Wrap_alloc@V?$allocator@VRAMInfo@@@std@@@0@U_General_ptr_iterator_tag@0@U_Any_tag@0@@Z 00454e35 f   systeminfo.obj
 0001:00053e50       __unwindfunclet$??$_Uninitialized_copy_al_unchecked1@PBVOSInfo@@PAV1@V?$allocator@VOSInfo@@@std@@@std@@YAPAVOSInfo@@PBV1@0PAV1@AAU?$_Wrap_alloc@V?$allocator@VOSInfo@@@std@@@0@U_General_ptr_iterator_tag@0@U_Any_tag@0@@Z$4 00454e50 f   systeminfo.obj
 0001:00053e55       __ehhandler$??$_Uninitialized_copy_al_unchecked1@PBVOSInfo@@PAV1@V?$allocator@VOSInfo@@@std@@@std@@YAPAVOSInfo@@PBV1@0PAV1@AAU?$_Wrap_alloc@V?$allocator@VOSInfo@@@std@@@0@U_General_ptr_iterator_tag@0@U_Any_tag@0@@Z 00454e55 f   systeminfo.obj
 0001:00053e70       __unwindfunclet$??$_Uninitialized_copy_al_unchecked1@PBVMotherboardInfo@@PAV1@V?$allocator@VMotherboardInfo@@@std@@@std@@YAPAVMotherboardInfo@@PBV1@0PAV1@AAU?$_Wrap_alloc@V?$allocator@VMotherboardInfo@@@std@@@0@U_General_ptr_iterator_tag@0@U_Any_tag@0@@Z$4 00454e70 f   systeminfo.obj
 0001:00053e75       __ehhandler$??$_Uninitialized_copy_al_unchecked1@PBVMotherboardInfo@@PAV1@V?$allocator@VMotherboardInfo@@@std@@@std@@YAPAVMotherboardInfo@@PBV1@0PAV1@AAU?$_Wrap_alloc@V?$allocator@VMotherboardInfo@@@std@@@0@U_General_ptr_iterator_tag@0@U_Any_tag@0@@Z 00454e75 f   systeminfo.obj
 0001:00053e90       __unwindfunclet$??$_Uninitialized_copy_al_unchecked1@PBVGPUInfo@@PAV1@V?$allocator@VGPUInfo@@@std@@@std@@YAPAVGPUInfo@@PBV1@0PAV1@AAU?$_Wrap_alloc@V?$allocator@VGPUInfo@@@std@@@0@U_General_ptr_iterator_tag@0@U_Any_tag@0@@Z$4 00454e90 f   systeminfo.obj
 0001:00053e95       __ehhandler$??$_Uninitialized_copy_al_unchecked1@PBVGPUInfo@@PAV1@V?$allocator@VGPUInfo@@@std@@@std@@YAPAVGPUInfo@@PBV1@0PAV1@AAU?$_Wrap_alloc@V?$allocator@VGPUInfo@@@std@@@0@U_General_ptr_iterator_tag@0@U_Any_tag@0@@Z 00454e95 f   systeminfo.obj
 0001:00053eb0       __unwindfunclet$??$_Uninitialized_copy_al_unchecked1@PBVCPUInfo@@PAV1@V?$allocator@VCPUInfo@@@std@@@std@@YAPAVCPUInfo@@PBV1@0PAV1@AAU?$_Wrap_alloc@V?$allocator@VCPUInfo@@@std@@@0@U_General_ptr_iterator_tag@0@U_Any_tag@0@@Z$4 00454eb0 f   systeminfo.obj
 0001:00053eb5       __ehhandler$??$_Uninitialized_copy_al_unchecked1@PBVCPUInfo@@PAV1@V?$allocator@VCPUInfo@@@std@@@std@@YAPAVCPUInfo@@PBV1@0PAV1@AAU?$_Wrap_alloc@V?$allocator@VCPUInfo@@@std@@@0@U_General_ptr_iterator_tag@0@U_Any_tag@0@@Z 00454eb5 f   systeminfo.obj
 0001:00053ed0       __unwindfunclet$??$_Uninitialized_copy_al_unchecked1@PBV?$basic_string@DU?$char_traits@D@std@@V?$allocator@D@2@@std@@PAV12@V?$allocator@V?$basic_string@DU?$char_traits@D@std@@V?$allocator@D@2@@std@@@2@@std@@YAPAV?$basic_string@DU?$char_traits@D@std@@V?$allocator@D@2@@0@PBV10@0PAV10@AAU?$_Wrap_alloc@V?$allocator@V?$basic_string@DU?$char_traits@D@std@@V?$allocator@D@2@@std@@@std@@@0@U_General_ptr_iterator_tag@0@U_Any_tag@0@@Z$4 00454ed0 f   systeminfo.obj
 0001:00053ed5       __ehhandler$??$_Uninitialized_copy_al_unchecked1@PBV?$basic_string@DU?$char_traits@D@std@@V?$allocator@D@2@@std@@PAV12@V?$allocator@V?$basic_string@DU?$char_traits@D@std@@V?$allocator@D@2@@std@@@2@@std@@YAPAV?$basic_string@DU?$char_traits@D@std@@V?$allocator@D@2@@0@PBV10@0PAV10@AAU?$_Wrap_alloc@V?$allocator@V?$basic_string@DU?$char_traits@D@std@@V?$allocator@D@2@@std@@@std@@@0@U_General_ptr_iterator_tag@0@U_Any_tag@0@@Z 00454ed5 f   systeminfo.obj
 0001:00053ef0       __unwindfunclet$??0RAMInfo@@QAE@ABV0@@Z$0 00454ef0 f   systeminfo.obj
 0001:00053ef8       __unwindfunclet$??0RAMInfo@@QAE@ABV0@@Z$1 00454ef8 f   systeminfo.obj
 0001:00053f03       __unwindfunclet$??0RAMInfo@@QAE@ABV0@@Z$2 00454f03 f   systeminfo.obj
 0001:00053f0e       __unwindfunclet$??0RAMInfo@@QAE@ABV0@@Z$3 00454f0e f   systeminfo.obj
 0001:00053f19       __unwindfunclet$??0RAMInfo@@QAE@ABV0@@Z$4 00454f19 f   systeminfo.obj
 0001:00053f24       __unwindfunclet$??0RAMInfo@@QAE@ABV0@@Z$5 00454f24 f   systeminfo.obj
 0001:00053f2f       __unwindfunclet$??0RAMInfo@@QAE@ABV0@@Z$6 00454f2f f   systeminfo.obj
 0001:00053f3d       __ehhandler$??0RAMInfo@@QAE@ABV0@@Z 00454f3d f   systeminfo.obj
 0001:00053f60       __unwindfunclet$??0OSInfo@@QAE@ABV0@@Z$0 00454f60 f   systeminfo.obj
 0001:00053f68       __unwindfunclet$??0OSInfo@@QAE@ABV0@@Z$1 00454f68 f   systeminfo.obj
 0001:00053f73       __unwindfunclet$??0OSInfo@@QAE@ABV0@@Z$2 00454f73 f   systeminfo.obj
 0001:00053f7e       __unwindfunclet$??0OSInfo@@QAE@ABV0@@Z$3 00454f7e f   systeminfo.obj
 0001:00053f89       __unwindfunclet$??0OSInfo@@QAE@ABV0@@Z$4 00454f89 f   systeminfo.obj
 0001:00053f94       __unwindfunclet$??0OSInfo@@QAE@ABV0@@Z$5 00454f94 f   systeminfo.obj
 0001:00053f9f       __unwindfunclet$??0OSInfo@@QAE@ABV0@@Z$6 00454f9f f   systeminfo.obj
 0001:00053fad       __unwindfunclet$??0OSInfo@@QAE@ABV0@@Z$7 00454fad f   systeminfo.obj
 0001:00053fbb       __unwindfunclet$??0OSInfo@@QAE@ABV0@@Z$8 00454fbb f   systeminfo.obj
 0001:00053fc9       __unwindfunclet$??0OSInfo@@QAE@ABV0@@Z$9 00454fc9 f   systeminfo.obj
 0001:00053fd7       __unwindfunclet$??0OSInfo@@QAE@ABV0@@Z$10 00454fd7 f   systeminfo.obj
 0001:00053fe5       __unwindfunclet$??0OSInfo@@QAE@ABV0@@Z$11 00454fe5 f   systeminfo.obj
 0001:00053ff3       __unwindfunclet$??0OSInfo@@QAE@ABV0@@Z$12 00454ff3 f   systeminfo.obj
 0001:00054001       __ehhandler$??0OSInfo@@QAE@ABV0@@Z 00455001 f   systeminfo.obj
 0001:00054020       __unwindfunclet$??0MotherboardInfo@@QAE@ABV0@@Z$0 00455020 f   systeminfo.obj
 0001:00054028       __unwindfunclet$??0MotherboardInfo@@QAE@ABV0@@Z$1 00455028 f   systeminfo.obj
 0001:00054033       __unwindfunclet$??0MotherboardInfo@@QAE@ABV0@@Z$2 00455033 f   systeminfo.obj
 0001:0005403e       __unwindfunclet$??0MotherboardInfo@@QAE@ABV0@@Z$3 0045503e f   systeminfo.obj
 0001:00054049       __ehhandler$??0MotherboardInfo@@QAE@ABV0@@Z 00455049 f   systeminfo.obj
 0001:00054070       __unwindfunclet$??0GPUInfo@@QAE@ABV0@@Z$0 00455070 f   systeminfo.obj
 0001:00054078       __unwindfunclet$??0GPUInfo@@QAE@ABV0@@Z$1 00455078 f   systeminfo.obj
 0001:00054083       __unwindfunclet$??0GPUInfo@@QAE@ABV0@@Z$2 00455083 f   systeminfo.obj
 0001:0005408e       __unwindfunclet$??0GPUInfo@@QAE@ABV0@@Z$3 0045508e f   systeminfo.obj
 0001:00054099       __unwindfunclet$??0GPUInfo@@QAE@ABV0@@Z$4 00455099 f   systeminfo.obj
 0001:000540a4       __unwindfunclet$??0GPUInfo@@QAE@ABV0@@Z$5 004550a4 f   systeminfo.obj
 0001:000540af       __unwindfunclet$??0GPUInfo@@QAE@ABV0@@Z$6 004550af f   systeminfo.obj
 0001:000540bd       __unwindfunclet$??0GPUInfo@@QAE@ABV0@@Z$7 004550bd f   systeminfo.obj
 0001:000540cb       __unwindfunclet$??0GPUInfo@@QAE@ABV0@@Z$8 004550cb f   systeminfo.obj
 0001:000540d9       __ehhandler$??0GPUInfo@@QAE@ABV0@@Z 004550d9 f   systeminfo.obj
 0001:00054100       __unwindfunclet$??0CPUInfo@@QAE@ABV0@@Z$0 00455100 f   systeminfo.obj
 0001:00054108       __unwindfunclet$??0CPUInfo@@QAE@ABV0@@Z$1 00455108 f   systeminfo.obj
 0001:00054113       __unwindfunclet$??0CPUInfo@@QAE@ABV0@@Z$2 00455113 f   systeminfo.obj
 0001:0005411e       __unwindfunclet$??0CPUInfo@@QAE@ABV0@@Z$3 0045511e f   systeminfo.obj
 0001:00054129       __unwindfunclet$??0CPUInfo@@QAE@ABV0@@Z$4 00455129 f   systeminfo.obj
 0001:00054134       __ehhandler$??0CPUInfo@@QAE@ABV0@@Z 00455134 f   systeminfo.obj
 0001:00054150       ??__F?TEMPERATURE_QUERY_STRING@CPUInfo@@0V?$basic_string@DU?$char_traits@D@std@@V?$allocator@D@2@@std@@B@@YAXXZ 00455150 f   systeminfo.obj
 0001:000541a0       ??__F?TEMPERATURE_ERROR_IDENTIFIER_STRING@CPUInfo@@0V?$basic_string@DU?$char_traits@D@std@@V?$allocator@D@2@@std@@B@@YAXXZ 004551a0 f   systeminfo.obj
 0001:000541f0       ??__F?CLOCK_SPEED_QUERY_STRING@CPUInfo@@0V?$basic_string@DU?$char_traits@D@std@@V?$allocator@D@2@@std@@B@@YAXXZ 004551f0 f   systeminfo.obj
 0001:00054240       ??__F?CURRENT_CLOCK_SPEED_IDENTIFIER_STRING@CPUInfo@@0V?$basic_string@DU?$char_traits@D@std@@V?$allocator@D@2@@std@@B@@YAXXZ 00455240 f   systeminfo.obj
 0001:00054290       ??__F?NAME_IDENTIFIER_STRING@CPUInfo@@0V?$basic_string@DU?$char_traits@D@std@@V?$allocator@D@2@@std@@B@@YAXXZ 00455290 f   systeminfo.obj
 0001:000542e0       ??__F?NUMBER_OF_CORES_IDENTIFIER_STRING@CPUInfo@@0V?$basic_string@DU?$char_traits@D@std@@V?$allocator@D@2@@std@@B@@YAXXZ 004552e0 f   systeminfo.obj
 0001:00054330       ??__F?MANUFACTURER_IDENTIFIER_STRING@CPUInfo@@0V?$basic_string@DU?$char_traits@D@std@@V?$allocator@D@2@@std@@B@@YAXXZ 00455330 f   systeminfo.obj
 0001:00054380       ??__F?ARCHITECTURE_IDENTIFIER_STRING@CPUInfo@@0V?$basic_string@DU?$char_traits@D@std@@V?$allocator@D@2@@std@@B@@YAXXZ 00455380 f   systeminfo.obj
 0001:000543d0       ??__F?L2_CACHE_SIZE_IDENTIFIER_STRING@CPUInfo@@0V?$basic_string@DU?$char_traits@D@std@@V?$allocator@D@2@@std@@B@@YAXXZ 004553d0 f   systeminfo.obj
 0001:00054420       ??__F?L3_CACHE_SIZE_IDENTIFIER_STRING@CPUInfo@@0V?$basic_string@DU?$char_traits@D@std@@V?$allocator@D@2@@std@@B@@YAXXZ 00455420 f   systeminfo.obj
 0001:00054470       ??__F?CPU_INFO_QUERY_STRING@CPUInfoDelegate@@0V?$basic_string@DU?$char_traits@D@std@@V?$allocator@D@2@@std@@B@@YAXXZ 00455470 f   systeminfo.obj
 0001:000544c0       ??__F?CPU_INSTANCE_QUERY_STRING@CPUInfoDelegate@@0V?$basic_string@DU?$char_traits@D@std@@V?$allocator@D@2@@std@@B@@YAXXZ 004554c0 f   systeminfo.obj
 0001:00054510       ??__F?CPU_INFO_END_IDENTIFIER_STRING@CPUInfoDelegate@@0V?$basic_string@DU?$char_traits@D@std@@V?$allocator@D@2@@std@@B@@YAXXZ 00455510 f   systeminfo.obj
 0001:00054560       ??__F?NVIDIA_IDENTIFIER_STRING@GPUInfo@@0V?$basic_string@DU?$char_traits@D@std@@V?$allocator@D@2@@std@@B@@YAXXZ 00455560 f   systeminfo.obj
 0001:000545b0       ??__F?INTEL_IDENTIFIER_STRING@GPUInfo@@0V?$basic_string@DU?$char_traits@D@std@@V?$allocator@D@2@@std@@B@@YAXXZ 004555b0 f   systeminfo.obj
 0001:00054600       ??__F?AMD_IDENTIFIER_STRING@GPUInfo@@0V?$basic_string@DU?$char_traits@D@std@@V?$allocator@D@2@@std@@B@@YAXXZ 00455600 f   systeminfo.obj
 0001:00054650       ??__F?NAME_IDENTIFIER_STRING@GPUInfo@@0V?$basic_string@DU?$char_traits@D@std@@V?$allocator@D@2@@std@@B@@YAXXZ 00455650 f   systeminfo.obj
 0001:000546a0       ??__F?MANUFACTURER_IDENTIFIER_STRING@GPUInfo@@0V?$basic_string@DU?$char_traits@D@std@@V?$allocator@D@2@@std@@B@@YAXXZ 004556a0 f   systeminfo.obj
 0001:000546f0       ??__F?ADAPTER_RAM_IDENTIFIER_STRING@GPUInfo@@0V?$basic_string@DU?$char_traits@D@std@@V?$allocator@D@2@@std@@B@@YAXXZ 004556f0 f   systeminfo.obj
 0001:00054740       ??__F?REFRESH_RATE_IDENTIFIER_STRING@GPUInfo@@0V?$basic_string@DU?$char_traits@D@std@@V?$allocator@D@2@@std@@B@@YAXXZ 00455740 f   systeminfo.obj
 0001:00054790       ??__F?DRIVER_VERSION_IDENTIFIER_STRING@GPUInfo@@0V?$basic_string@DU?$char_traits@D@std@@V?$allocator@D@2@@std@@B@@YAXXZ 00455790 f   systeminfo.obj
 0001:000547e0       ??__F?VIDEO_ARCHITECTURE_IDENTIFIER_STRING@GPUInfo@@0V?$basic_string@DU?$char_traits@D@std@@V?$allocator@D@2@@std@@B@@YAXXZ 004557e0 f   systeminfo.obj
 0001:00054830       ??__F?VIDEO_MEMORY_TYPE_IDENTIFIER_STRING@GPUInfo@@0V?$basic_string@DU?$char_traits@D@std@@V?$allocator@D@2@@std@@B@@YAXXZ 00455830 f   systeminfo.obj
 0001:00054880       ??__F?VIDEO_MODE_DESCRIPTION_IDENTIFIER_STRING@GPUInfo@@0V?$basic_string@DU?$char_traits@D@std@@V?$allocator@D@2@@std@@B@@YAXXZ 00455880 f   systeminfo.obj
 0001:000548d0       ??__F?VIDEO_PROCESSOR_IDENTIFIER_STRING@GPUInfo@@0V?$basic_string@DU?$char_traits@D@std@@V?$allocator@D@2@@std@@B@@YAXXZ 004558d0 f   systeminfo.obj
 0001:00054920       ??__F?CAPTION_IDENTIFIER_STRING@GPUInfo@@0V?$basic_string@DU?$char_traits@D@std@@V?$allocator@D@2@@std@@B@@YAXXZ 00455920 f   systeminfo.obj
 0001:00054970       ??__F?GPU_INFO_QUERY_STRING@GPUInfoDelegate@@0V?$basic_string@DU?$char_traits@D@std@@V?$allocator@D@2@@std@@B@@YAXXZ 00455970 f   systeminfo.obj
 0001:000549c0       ??__F?GPU_INSTANCE_QUERY_STRING@GPUInfoDelegate@@0V?$basic_string@DU?$char_traits@D@std@@V?$allocator@D@2@@std@@B@@YAXXZ 004559c0 f   systeminfo.obj
 0001:00054a10       ??__F?GPU_INFO_END_IDENTIFIER_STRING@GPUInfoDelegate@@0V?$basic_string@DU?$char_traits@D@std@@V?$allocator@D@2@@std@@B@@YAXXZ 00455a10 f   systeminfo.obj
 0001:00054a60       ??__F?CHIPSET_QUERY_STRING@MotherboardInfo@@0V?$basic_string@DU?$char_traits@D@std@@V?$allocator@D@2@@std@@B@@YAXXZ 00455a60 f   systeminfo.obj
 0001:00054ab0       ??__F?NAME_IDENTIFIER_STRING@MotherboardInfo@@0V?$basic_string@DU?$char_traits@D@std@@V?$allocator@D@2@@std@@B@@YAXXZ 00455ab0 f   systeminfo.obj
 0001:00054b00       ??__F?MANUFACTURER_IDENTIFIER_STRING@MotherboardInfo@@0V?$basic_string@DU?$char_traits@D@std@@V?$allocator@D@2@@std@@B@@YAXXZ 00455b00 f   systeminfo.obj
 0001:00054b50       ??__F?CHIPSET_IDENTIFIER_STRING@MotherboardInfo@@0V?$basic_string@DU?$char_traits@D@std@@V?$allocator@D@2@@std@@B@@YAXXZ 00455b50 f   systeminfo.obj
 0001:00054ba0       ??__F?CHIPSET_END_IDENTIFIER_STRING@MotherboardInfo@@0V?$basic_string@DU?$char_traits@D@std@@V?$allocator@D@2@@std@@B@@YAXXZ 00455ba0 f   systeminfo.obj
 0001:00054bf0       ??__F?SERIAL_NUMBER_IDENTIFIER_STRING@MotherboardInfo@@0V?$basic_string@DU?$char_traits@D@std@@V?$allocator@D@2@@std@@B@@YAXXZ 00455bf0 f   systeminfo.obj
 0001:00054c40       ??__F?VERSION_IDENTIFIER_STRING@MotherboardInfo@@0V?$basic_string@DU?$char_traits@D@std@@V?$allocator@D@2@@std@@B@@YAXXZ 00455c40 f   systeminfo.obj
 0001:00054c90       ??__F?MOTHERBOARD_INFO_QUERY_STRING@MotherboardInfoDelegate@@0V?$basic_string@DU?$char_traits@D@std@@V?$allocator@D@2@@std@@B@@YAXXZ 00455c90 f   systeminfo.obj
 0001:00054ce0       ??__F?MOTHERBOARD_INSTANCE_QUERY_STRING@MotherboardInfoDelegate@@0V?$basic_string@DU?$char_traits@D@std@@V?$allocator@D@2@@std@@B@@YAXXZ 00455ce0 f   systeminfo.obj
 0001:00054d30       ??__F?MOTHERBOARD_INFO_END_IDENTIFIER_STRING@MotherboardInfoDelegate@@0V?$basic_string@DU?$char_traits@D@std@@V?$allocator@D@2@@std@@B@@YAXXZ 00455d30 f   systeminfo.obj
 0001:00054d80       ??__F?ARCHITECTURE_IDENTIFIER_STRING@OSInfo@@0V?$basic_string@DU?$char_traits@D@std@@V?$allocator@D@2@@std@@B@@YAXXZ 00455d80 f   systeminfo.obj
 0001:00054dd0       ??__F?CAPTION_INDENTIFIER_STRING@OSInfo@@0V?$basic_string@DU?$char_traits@D@std@@V?$allocator@D@2@@std@@B@@YAXXZ 00455dd0 f   systeminfo.obj
 0001:00054e20       ??__F?NAME_IDENTIFIER_STRING@OSInfo@@0V?$basic_string@DU?$char_traits@D@std@@V?$allocator@D@2@@std@@B@@YAXXZ 00455e20 f   systeminfo.obj
 0001:00054e70       ??__F?MANUFACTURER_IDENTIFIER_STRING@OSInfo@@0V?$basic_string@DU?$char_traits@D@std@@V?$allocator@D@2@@std@@B@@YAXXZ 00455e70 f   systeminfo.obj
 0001:00054ec0       ??__F?VERSION_IDENTIFIER_STRING@OSInfo@@0V?$basic_string@DU?$char_traits@D@std@@V?$allocator@D@2@@std@@B@@YAXXZ 00455ec0 f   systeminfo.obj
 0001:00054f10       ??__F?CURRENT_USER_IDENTIFIER_STRING@OSInfo@@0V?$basic_string@DU?$char_traits@D@std@@V?$allocator@D@2@@std@@B@@YAXXZ 00455f10 f   systeminfo.obj
 0001:00054f60       ??__F?INSTALL_DATE_IDENTIFIER_STRING@OSInfo@@0V?$basic_string@DU?$char_traits@D@std@@V?$allocator@D@2@@std@@B@@YAXXZ 00455f60 f   systeminfo.obj
 0001:00054fb0       ??__F?BUILD_NUMBER_IDENTIFIER_STRING@OSInfo@@0V?$basic_string@DU?$char_traits@D@std@@V?$allocator@D@2@@std@@B@@YAXXZ 00455fb0 f   systeminfo.obj
 0001:00055000       ??__F?LAST_BOOT_UP_TIME_IDENTIFIER_STRING@OSInfo@@0V?$basic_string@DU?$char_traits@D@std@@V?$allocator@D@2@@std@@B@@YAXXZ 00456000 f   systeminfo.obj
 0001:00055050       ??__F?BOOT_DEVICE_IDENTIFIER_STRING@OSInfo@@0V?$basic_string@DU?$char_traits@D@std@@V?$allocator@D@2@@std@@B@@YAXXZ 00456050 f   systeminfo.obj
 0001:000550a0       ??__F?SERIAL_NUMBER_IDENTIFIER_STRING@OSInfo@@0V?$basic_string@DU?$char_traits@D@std@@V?$allocator@D@2@@std@@B@@YAXXZ 004560a0 f   systeminfo.obj
 0001:000550f0       ??__F?TOTAL_VIRTUAL_MEMORY_SIZE_IDENTIFIER_STRING@OSInfo@@0V?$basic_string@DU?$char_traits@D@std@@V?$allocator@D@2@@std@@B@@YAXXZ 004560f0 f   systeminfo.obj
 0001:00055140       ??__F?TOTAL_VISIBLE_MEMORY_SIZE_IDENTIFIER_STRING@OSInfo@@0V?$basic_string@DU?$char_traits@D@std@@V?$allocator@D@2@@std@@B@@YAXXZ 00456140 f   systeminfo.obj
 0001:00055190       ??__F?TOTAL_SWAP_SIZE_IDENTIFIER_STRING@OSInfo@@0V?$basic_string@DU?$char_traits@D@std@@V?$allocator@D@2@@std@@B@@YAXXZ 00456190 f   systeminfo.obj
 0001:000551e0       ??__F?FREE_PHYSICAL_MEMORY_IDENTIFIER_STRING@OSInfo@@0V?$basic_string@DU?$char_traits@D@std@@V?$allocator@D@2@@std@@B@@YAXXZ 004561e0 f   systeminfo.obj
 0001:00055230       ??__F?FREE_PHYSICAL_MEMORY_QUERY_STRING@OSInfo@@0V?$basic_string@DU?$char_traits@D@std@@V?$allocator@D@2@@std@@B@@YAXXZ 00456230 f   systeminfo.obj
 0001:00055280       ??__F?FREE_VIRTUAL_MEMORY_IDENTIFIER_STRING@OSInfo@@0V?$basic_string@DU?$char_traits@D@std@@V?$allocator@D@2@@std@@B@@YAXXZ 00456280 f   systeminfo.obj
 0001:000552d0       ??__F?FREE_VIRTUAL_MEMORY_QUERY_STRING@OSInfo@@0V?$basic_string@DU?$char_traits@D@std@@V?$allocator@D@2@@std@@B@@YAXXZ 004562d0 f   systeminfo.obj
 0001:00055320       ??__F?FREE_SPACE_IN_PAGING_FILES_IDENTIFIER_STRING@OSInfo@@0V?$basic_string@DU?$char_traits@D@std@@V?$allocator@D@2@@std@@B@@YAXXZ 00456320 f   systeminfo.obj
 0001:00055370       ??__F?FREE_SPACE_IN_PAGING_FILES_QUERY_STRING@OSInfo@@0V?$basic_string@DU?$char_traits@D@std@@V?$allocator@D@2@@std@@B@@YAXXZ 00456370 f   systeminfo.obj
 0001:000553c0       ??__F?USED_SPACE_IN_PAGING_FILE_IDENTIFIER_STRING@OSInfo@@0V?$basic_string@DU?$char_traits@D@std@@V?$allocator@D@2@@std@@B@@YAXXZ 004563c0 f   systeminfo.obj
 0001:00055410       ??__F?USED_SPACE_IN_PAGING_FILE_QUERY_STRING@OSInfo@@0V?$basic_string@DU?$char_traits@D@std@@V?$allocator@D@2@@std@@B@@YAXXZ 00456410 f   systeminfo.obj
 0001:00055460       ??__F?CURRENT_DATE_TIME_IDENTIFIER_STRING@OSInfo@@0V?$basic_string@DU?$char_traits@D@std@@V?$allocator@D@2@@std@@B@@YAXXZ 00456460 f   systeminfo.obj
 0001:000554b0       ??__F?CURRENT_DATE_TIME_QUERY_STRING@OSInfo@@0V?$basic_string@DU?$char_traits@D@std@@V?$allocator@D@2@@std@@B@@YAXXZ 004564b0 f   systeminfo.obj
 0001:00055500       ??__F?OS_INFO_QUERY_STRING@OSInfoDelegate@@0V?$basic_string@DU?$char_traits@D@std@@V?$allocator@D@2@@std@@B@@YAXXZ 00456500 f   systeminfo.obj
 0001:00055550       ??__F?OS_INSTANCE_QUERY_STRING@OSInfoDelegate@@0V?$basic_string@DU?$char_traits@D@std@@V?$allocator@D@2@@std@@B@@YAXXZ 00456550 f   systeminfo.obj
 0001:000555a0       ??__F?OS_INFO_END_IDENTIFIER_STRING@OSInfoDelegate@@0V?$basic_string@DU?$char_traits@D@std@@V?$allocator@D@2@@std@@B@@YAXXZ 004565a0 f   systeminfo.obj
 0001:000555f0       ??__F?NAME_IDENTIFIER_STRING@RAMInfo@@0V?$basic_string@DU?$char_traits@D@std@@V?$allocator@D@2@@std@@B@@YAXXZ 004565f0 f   systeminfo.obj
 0001:00055640       ??__F?MANUFACTURER_IDENTIFIER_STRING@RAMInfo@@0V?$basic_string@DU?$char_traits@D@std@@V?$allocator@D@2@@std@@B@@YAXXZ 00456640 f   systeminfo.obj
 0001:00055690       ??__F?CAPACITY_IDENTIFIER_STRING@RAMInfo@@0V?$basic_string@DU?$char_traits@D@std@@V?$allocator@D@2@@std@@B@@YAXXZ 00456690 f   systeminfo.obj
 0001:000556e0       ??__F?SERIAL_NUMBER_IDENTIFIER_STRING@RAMInfo@@0V?$basic_string@DU?$char_traits@D@std@@V?$allocator@D@2@@std@@B@@YAXXZ 004566e0 f   systeminfo.obj
 0001:00055730       ??__F?FORM_FACTOR_IDENTIFIER_STRING@RAMInfo@@0V?$basic_string@DU?$char_traits@D@std@@V?$allocator@D@2@@std@@B@@YAXXZ 00456730 f   systeminfo.obj
 0001:00055780       ??__F?PART_NUMBER_IDENTIFIER_STRING@RAMInfo@@0V?$basic_string@DU?$char_traits@D@std@@V?$allocator@D@2@@std@@B@@YAXXZ 00456780 f   systeminfo.obj
 0001:000557d0       ??__F?MEMORY_TYPE_IDENTIFIER_STRING@RAMInfo@@0V?$basic_string@DU?$char_traits@D@std@@V?$allocator@D@2@@std@@B@@YAXXZ 004567d0 f   systeminfo.obj
 0001:00055820       ??__F?CLOCK_SPEED_IDENTIFIER_STRING@RAMInfo@@0V?$basic_string@DU?$char_traits@D@std@@V?$allocator@D@2@@std@@B@@YAXXZ 00456820 f   systeminfo.obj
 0001:00055870       ??__F?BACKUP_CLOCK_SPEED_IDENTIFIER_STRING@RAMInfo@@0V?$basic_string@DU?$char_traits@D@std@@V?$allocator@D@2@@std@@B@@YAXXZ 00456870 f   systeminfo.obj
 0001:000558c0       ??__F?RAM_INFO_QUERY_STRING@RAMInfoDelegate@@0V?$basic_string@DU?$char_traits@D@std@@V?$allocator@D@2@@std@@B@@YAXXZ 004568c0 f   systeminfo.obj
 0001:00055910       ??__F?RAM_INSTANCE_QUERY_STRING@RAMInfoDelegate@@0V?$basic_string@DU?$char_traits@D@std@@V?$allocator@D@2@@std@@B@@YAXXZ 00456910 f   systeminfo.obj
 0001:00055960       ??__F?RAM_INFO_END_IDENTIFIER_STRING@RAMInfoDelegate@@0V?$basic_string@DU?$char_traits@D@std@@V?$allocator@D@2@@std@@B@@YAXXZ 00456960 f   systeminfo.obj
 0001:000559a2       ??__F_Fac_tidy_reg@std@@YAXXZ 004569a2 f   msvcprt:locale0_implib.obj
 0002:000004b8       ?pre_cpp_initializer@@3P6AXXZA 004574b8     MSVCRT:exe_winmain.obj
 0002:000004bc       ?_Fac_tidy_reg$initializer$@std@@3P6AXXZA 004574bc     msvcprt:locale0_implib.obj
 0002:000004c0       ?g_hWarcraftWnd$initializer$@@3P6AXXZA 004574c0     Main.obj
 0002:000004c4       ??TEMPERATURE_QUERY_STRING$initializer$@CPUInfo@@0P6AXXZA@@3P6AXXZA 004574c4     systeminfo.obj
 0002:000004c8       ??TEMPERATURE_ERROR_IDENTIFIER_STRING$initializer$@CPUInfo@@0P6AXXZA@@3P6AXXZA 004574c8     systeminfo.obj
 0002:000004cc       ??CLOCK_SPEED_QUERY_STRING$initializer$@CPUInfo@@0P6AXXZA@@3P6AXXZA 004574cc     systeminfo.obj
 0002:000004d0       ??CURRENT_CLOCK_SPEED_IDENTIFIER_STRING$initializer$@CPUInfo@@0P6AXXZA@@3P6AXXZA 004574d0     systeminfo.obj
 0002:000004d4       ??NAME_IDENTIFIER_STRING$initializer$@CPUInfo@@0P6AXXZA@@3P6AXXZA 004574d4     systeminfo.obj
 0002:000004d8       ??NUMBER_OF_CORES_IDENTIFIER_STRING$initializer$@CPUInfo@@0P6AXXZA@@3P6AXXZA 004574d8     systeminfo.obj
 0002:000004dc       ??MANUFACTURER_IDENTIFIER_STRING$initializer$@CPUInfo@@0P6AXXZA@@3P6AXXZA 004574dc     systeminfo.obj
 0002:000004e0       ??ARCHITECTURE_IDENTIFIER_STRING$initializer$@CPUInfo@@0P6AXXZA@@3P6AXXZA 004574e0     systeminfo.obj
 0002:000004e4       ??L2_CACHE_SIZE_IDENTIFIER_STRING$initializer$@CPUInfo@@0P6AXXZA@@3P6AXXZA 004574e4     systeminfo.obj
 0002:000004e8       ??L3_CACHE_SIZE_IDENTIFIER_STRING$initializer$@CPUInfo@@0P6AXXZA@@3P6AXXZA 004574e8     systeminfo.obj
 0002:000004ec       ??CPU_INFO_QUERY_STRING$initializer$@CPUInfoDelegate@@0P6AXXZA@@3P6AXXZA 004574ec     systeminfo.obj
 0002:000004f0       ??CPU_INSTANCE_QUERY_STRING$initializer$@CPUInfoDelegate@@0P6AXXZA@@3P6AXXZA 004574f0     systeminfo.obj
 0002:000004f4       ??CPU_INFO_END_IDENTIFIER_STRING$initializer$@CPUInfoDelegate@@0P6AXXZA@@3P6AXXZA 004574f4     systeminfo.obj
 0002:000004f8       ??NVIDIA_IDENTIFIER_STRING$initializer$@GPUInfo@@0P6AXXZA@@3P6AXXZA 004574f8     systeminfo.obj
 0002:000004fc       ??INTEL_IDENTIFIER_STRING$initializer$@GPUInfo@@0P6AXXZA@@3P6AXXZA 004574fc     systeminfo.obj
 0002:00000500       ??AMD_IDENTIFIER_STRING$initializer$@GPUInfo@@0P6AXXZA@@3P6AXXZA 00457500     systeminfo.obj
 0002:00000504       ??NAME_IDENTIFIER_STRING$initializer$@GPUInfo@@0P6AXXZA@@3P6AXXZA 00457504     systeminfo.obj
 0002:00000508       ??MANUFACTURER_IDENTIFIER_STRING$initializer$@GPUInfo@@0P6AXXZA@@3P6AXXZA 00457508     systeminfo.obj
 0002:0000050c       ??ADAPTER_RAM_IDENTIFIER_STRING$initializer$@GPUInfo@@0P6AXXZA@@3P6AXXZA 0045750c     systeminfo.obj
 0002:00000510       ??REFRESH_RATE_IDENTIFIER_STRING$initializer$@GPUInfo@@0P6AXXZA@@3P6AXXZA 00457510     systeminfo.obj
 0002:00000514       ??DRIVER_VERSION_IDENTIFIER_STRING$initializer$@GPUInfo@@0P6AXXZA@@3P6AXXZA 00457514     systeminfo.obj
 0002:00000518       ??VIDEO_ARCHITECTURE_IDENTIFIER_STRING$initializer$@GPUInfo@@0P6AXXZA@@3P6AXXZA 00457518     systeminfo.obj
 0002:0000051c       ??VIDEO_MEMORY_TYPE_IDENTIFIER_STRING$initializer$@GPUInfo@@0P6AXXZA@@3P6AXXZA 0045751c     systeminfo.obj
 0002:00000520       ??VIDEO_MODE_DESCRIPTION_IDENTIFIER_STRING$initializer$@GPUInfo@@0P6AXXZA@@3P6AXXZA 00457520     systeminfo.obj
 0002:00000524       ??VIDEO_PROCESSOR_IDENTIFIER_STRING$initializer$@GPUInfo@@0P6AXXZA@@3P6AXXZA 00457524     systeminfo.obj
 0002:00000528       ??CAPTION_IDENTIFIER_STRING$initializer$@GPUInfo@@0P6AXXZA@@3P6AXXZA 00457528     systeminfo.obj
 0002:0000052c       ??GPU_INFO_QUERY_STRING$initializer$@GPUInfoDelegate@@0P6AXXZA@@3P6AXXZA 0045752c     systeminfo.obj
 0002:00000530       ??GPU_INSTANCE_QUERY_STRING$initializer$@GPUInfoDelegate@@0P6AXXZA@@3P6AXXZA 00457530     systeminfo.obj
 0002:00000534       ??GPU_INFO_END_IDENTIFIER_STRING$initializer$@GPUInfoDelegate@@0P6AXXZA@@3P6AXXZA 00457534     systeminfo.obj
 0002:00000538       ??CHIPSET_QUERY_STRING$initializer$@MotherboardInfo@@0P6AXXZA@@3P6AXXZA 00457538     systeminfo.obj
 0002:0000053c       ??NAME_IDENTIFIER_STRING$initializer$@MotherboardInfo@@0P6AXXZA@@3P6AXXZA 0045753c     systeminfo.obj
 0002:00000540       ??MANUFACTURER_IDENTIFIER_STRING$initializer$@MotherboardInfo@@0P6AXXZA@@3P6AXXZA 00457540     systeminfo.obj
 0002:00000544       ??CHIPSET_IDENTIFIER_STRING$initializer$@MotherboardInfo@@0P6AXXZA@@3P6AXXZA 00457544     systeminfo.obj
 0002:00000548       ??CHIPSET_END_IDENTIFIER_STRING$initializer$@MotherboardInfo@@0P6AXXZA@@3P6AXXZA 00457548     systeminfo.obj
 0002:0000054c       ??SERIAL_NUMBER_IDENTIFIER_STRING$initializer$@MotherboardInfo@@0P6AXXZA@@3P6AXXZA 0045754c     systeminfo.obj
 0002:00000550       ??VERSION_IDENTIFIER_STRING$initializer$@MotherboardInfo@@0P6AXXZA@@3P6AXXZA 00457550     systeminfo.obj
 0002:00000554       ??MOTHERBOARD_INFO_QUERY_STRING$initializer$@MotherboardInfoDelegate@@0P6AXXZA@@3P6AXXZA 00457554     systeminfo.obj
 0002:00000558       ??MOTHERBOARD_INSTANCE_QUERY_STRING$initializer$@MotherboardInfoDelegate@@0P6AXXZA@@3P6AXXZA 00457558     systeminfo.obj
 0002:0000055c       ??MOTHERBOARD_INFO_END_IDENTIFIER_STRING$initializer$@MotherboardInfoDelegate@@0P6AXXZA@@3P6AXXZA 0045755c     systeminfo.obj
 0002:00000560       ??ARCHITECTURE_IDENTIFIER_STRING$initializer$@OSInfo@@0P6AXXZA@@3P6AXXZA 00457560     systeminfo.obj
 0002:00000564       ??CAPTION_INDENTIFIER_STRING$initializer$@OSInfo@@0P6AXXZA@@3P6AXXZA 00457564     systeminfo.obj
 0002:00000568       ??NAME_IDENTIFIER_STRING$initializer$@OSInfo@@0P6AXXZA@@3P6AXXZA 00457568     systeminfo.obj
 0002:0000056c       ??MANUFACTURER_IDENTIFIER_STRING$initializer$@OSInfo@@0P6AXXZA@@3P6AXXZA 0045756c     systeminfo.obj
 0002:00000570       ??VERSION_IDENTIFIER_STRING$initializer$@OSInfo@@0P6AXXZA@@3P6AXXZA 00457570     systeminfo.obj
 0002:00000574       ??CURRENT_USER_IDENTIFIER_STRING$initializer$@OSInfo@@0P6AXXZA@@3P6AXXZA 00457574     systeminfo.obj
 0002:00000578       ??INSTALL_DATE_IDENTIFIER_STRING$initializer$@OSInfo@@0P6AXXZA@@3P6AXXZA 00457578     systeminfo.obj
 0002:0000057c       ??BUILD_NUMBER_IDENTIFIER_STRING$initializer$@OSInfo@@0P6AXXZA@@3P6AXXZA 0045757c     systeminfo.obj
 0002:00000580       ??LAST_BOOT_UP_TIME_IDENTIFIER_STRING$initializer$@OSInfo@@0P6AXXZA@@3P6AXXZA 00457580     systeminfo.obj
 0002:00000584       ??BOOT_DEVICE_IDENTIFIER_STRING$initializer$@OSInfo@@0P6AXXZA@@3P6AXXZA 00457584     systeminfo.obj
 0002:00000588       ??SERIAL_NUMBER_IDENTIFIER_STRING$initializer$@OSInfo@@0P6AXXZA@@3P6AXXZA 00457588     systeminfo.obj
 0002:0000058c       ??TOTAL_VIRTUAL_MEMORY_SIZE_IDENTIFIER_STRING$initializer$@OSInfo@@0P6AXXZA@@3P6AXXZA 0045758c     systeminfo.obj
 0002:00000590       ??TOTAL_VISIBLE_MEMORY_SIZE_IDENTIFIER_STRING$initializer$@OSInfo@@0P6AXXZA@@3P6AXXZA 00457590     systeminfo.obj
 0002:00000594       ??TOTAL_SWAP_SIZE_IDENTIFIER_STRING$initializer$@OSInfo@@0P6AXXZA@@3P6AXXZA 00457594     systeminfo.obj
 0002:00000598       ??FREE_PHYSICAL_MEMORY_IDENTIFIER_STRING$initializer$@OSInfo@@0P6AXXZA@@3P6AXXZA 00457598     systeminfo.obj
 0002:0000059c       ??FREE_PHYSICAL_MEMORY_QUERY_STRING$initializer$@OSInfo@@0P6AXXZA@@3P6AXXZA 0045759c     systeminfo.obj
 0002:000005a0       ??FREE_VIRTUAL_MEMORY_IDENTIFIER_STRING$initializer$@OSInfo@@0P6AXXZA@@3P6AXXZA 004575a0     systeminfo.obj
 0002:000005a4       ??FREE_VIRTUAL_MEMORY_QUERY_STRING$initializer$@OSInfo@@0P6AXXZA@@3P6AXXZA 004575a4     systeminfo.obj
 0002:000005a8       ??FREE_SPACE_IN_PAGING_FILES_IDENTIFIER_STRING$initializer$@OSInfo@@0P6AXXZA@@3P6AXXZA 004575a8     systeminfo.obj
 0002:000005ac       ??FREE_SPACE_IN_PAGING_FILES_QUERY_STRING$initializer$@OSInfo@@0P6AXXZA@@3P6AXXZA 004575ac     systeminfo.obj
 0002:000005b0       ??USED_SPACE_IN_PAGING_FILE_IDENTIFIER_STRING$initializer$@OSInfo@@0P6AXXZA@@3P6AXXZA 004575b0     systeminfo.obj
 0002:000005b4       ??USED_SPACE_IN_PAGING_FILE_QUERY_STRING$initializer$@OSInfo@@0P6AXXZA@@3P6AXXZA 004575b4     systeminfo.obj
 0002:000005b8       ??CURRENT_DATE_TIME_IDENTIFIER_STRING$initializer$@OSInfo@@0P6AXXZA@@3P6AXXZA 004575b8     systeminfo.obj
 0002:000005bc       ??CURRENT_DATE_TIME_QUERY_STRING$initializer$@OSInfo@@0P6AXXZA@@3P6AXXZA 004575bc     systeminfo.obj
 0002:000005c0       ??OS_INFO_QUERY_STRING$initializer$@OSInfoDelegate@@0P6AXXZA@@3P6AXXZA 004575c0     systeminfo.obj
 0002:000005c4       ??OS_INSTANCE_QUERY_STRING$initializer$@OSInfoDelegate@@0P6AXXZA@@3P6AXXZA 004575c4     systeminfo.obj
 0002:000005c8       ??OS_INFO_END_IDENTIFIER_STRING$initializer$@OSInfoDelegate@@0P6AXXZA@@3P6AXXZA 004575c8     systeminfo.obj
 0002:000005cc       ??NAME_IDENTIFIER_STRING$initializer$@RAMInfo@@0P6AXXZA@@3P6AXXZA 004575cc     systeminfo.obj
 0002:000005d0       ??MANUFACTURER_IDENTIFIER_STRING$initializer$@RAMInfo@@0P6AXXZA@@3P6AXXZA 004575d0     systeminfo.obj
 0002:000005d4       ??CAPACITY_IDENTIFIER_STRING$initializer$@RAMInfo@@0P6AXXZA@@3P6AXXZA 004575d4     systeminfo.obj
 0002:000005d8       ??SERIAL_NUMBER_IDENTIFIER_STRING$initializer$@RAMInfo@@0P6AXXZA@@3P6AXXZA 004575d8     systeminfo.obj
 0002:000005dc       ??FORM_FACTOR_IDENTIFIER_STRING$initializer$@RAMInfo@@0P6AXXZA@@3P6AXXZA 004575dc     systeminfo.obj
 0002:000005e0       ??PART_NUMBER_IDENTIFIER_STRING$initializer$@RAMInfo@@0P6AXXZA@@3P6AXXZA 004575e0     systeminfo.obj
 0002:000005e4       ??MEMORY_TYPE_IDENTIFIER_STRING$initializer$@RAMInfo@@0P6AXXZA@@3P6AXXZA 004575e4     systeminfo.obj
 0002:000005e8       ??CLOCK_SPEED_IDENTIFIER_STRING$initializer$@RAMInfo@@0P6AXXZA@@3P6AXXZA 004575e8     systeminfo.obj
 0002:000005ec       ??BACKUP_CLOCK_SPEED_IDENTIFIER_STRING$initializer$@RAMInfo@@0P6AXXZA@@3P6AXXZA 004575ec     systeminfo.obj
 0002:000005f0       ??RAM_INFO_QUERY_STRING$initializer$@RAMInfoDelegate@@0P6AXXZA@@3P6AXXZA 004575f0     systeminfo.obj
 0002:000005f4       ??RAM_INSTANCE_QUERY_STRING$initializer$@RAMInfoDelegate@@0P6AXXZA@@3P6AXXZA 004575f4     systeminfo.obj
 0002:000005f8       ??RAM_INFO_END_IDENTIFIER_STRING$initializer$@RAMInfoDelegate@@0P6AXXZA@@3P6AXXZA 004575f8     systeminfo.obj
 0002:00000604       ?pre_c_initializer@@3P6AHXZA 00457604     MSVCRT:exe_winmain.obj
 0002:00000608       ?post_pgo_initializer@@3P6AHXZA 00457608     MSVCRT:exe_winmain.obj
 0002:00000628       _GS_ExceptionPointers      00457628     MSVCRT:gs_report.obj
 0002:000006d0       ?finit@?1??mstate@@9@9     004576d0     libcurl:multi.obj
 0002:00000718       ?none@?3??Curl_update_timer@@9@9 00457718     libcurl:multi.obj
 0002:00000bb0       ?ctts@?1??Curl_mime_contenttype@@9@9 00457bb0     libcurl:mime.obj
 0002:00000c00       _encoders                  00457c00     libcurl:mime.obj
 0002:00000c48       _base64                    00457c48     libcurl:mime.obj
 0002:00000c90       _qp_class                  00457c90     libcurl:mime.obj
 0002:00000d90       _aschex                    00457d90     libcurl:mime.obj
 0002:00001040       _protocols                 00458040     libcurl:url.obj
 0002:00001080       _Curl_handler_dummy        00458080     libcurl:url.obj
 0002:000017e8       ?s_infotype@?2??Curl_debug@@9@9 004587e8     libcurl:sendf.obj
 0002:00001e38       _identity_encoding         00458e38     libcurl:content_encoding.obj
 0002:00001e50       _encodings                 00458e50     libcurl:content_encoding.obj
 0002:00001e58       _client_encoding           00458e58     libcurl:content_encoding.obj
 0002:00001e70       _error_encoding            00458e70     libcurl:content_encoding.obj
 0002:000020a8       ?KEY_NOTUSED@?1??Curl_splayinsert@@9@9 004590a8     libcurl:splay.obj
 0002:00003b8c       ?lookup@?DF@??Curl_SOCKS5@@9@9 0045ab8c     libcurl:socks.obj
 0002:000040b8       _lower_digits              0045b0b8     libcurl:mprintf.obj
 0002:000040e0       _upper_digits              0045b0e0     libcurl:mprintf.obj
 0002:00004108       ?null@?CE@??dprintf_formatf@@9@9 0045b108     libcurl:mprintf.obj
 0002:00004110       ?strnil@?DA@??dprintf_formatf@@9@9 0045b110     libcurl:mprintf.obj
 0002:00004138       ?digits@?1??inet_pton4@@9@9 0045b138     libcurl:inet_pton.obj
 0002:00004144       ?xdigits_l@?1??inet_pton6@@9@9 0045b144     libcurl:inet_pton.obj
 0002:00004158       ?xdigits_u@?1??inet_pton6@@9@9 0045b158     libcurl:inet_pton.obj
 0002:000041bc       _weekday                   0045b1bc     libcurl:parsedate.obj
 0002:000041d8       _tz                        0045b1d8     libcurl:parsedate.obj
 0002:00004514       ?month_days_cumulative@?1??time2epoch@@9@9 0045b514     libcurl:parsedate.obj
 0002:000046e8       _saslimap                  0045b6e8     libcurl:imap.obj
 0002:00004ba8       _saslpop3                  0045bba8     libcurl:pop3.obj
 0002:00004ce0       _saslsmtp                  0045bce0     libcurl:smtp.obj
 0002:00005210       ?ftpauth@?1??ftp_statemachine@@9@9 0045c210     libcurl:ftp.obj
 0002:00005264       ?mode@?1??ftp_state_use_port@@9@9 0045c264     libcurl:ftp.obj
 0002:00005270       ?mode@?1??ftp_state_use_pasv@@9@9 0045c270     libcurl:ftp.obj
 0002:00006050       _telnetoptions             0045d050     libcurl:telnet.obj
 0002:000060f0       _telnetcmds                0045d0f0     libcurl:telnet.obj
 0002:000071c4       ?badbytes@?2??junkscan@@9@9 0045e1c4     libcurl:urlapi.obj
 0002:000072f0       _ascii                     0045e2f0     libcurl:curl_ctype.obj
 0002:000087ac       _errors                    0045f7ac     libcurl:doh.obj
 0002:000089b8       _base64                    0045f9b8     libcurl:base64.obj
 0002:00008a00       _base64url                 0045fa00     libcurl:base64.obj
 0002:00008a54       ?type2_marker@?1??Curl_auth_decode_ntlm_type2_message@@9@9 0045fa54     libcurl:ntlm.obj
 0002:00008f00       _mechtable                 0045ff00     libcurl:curl_sasl.obj
 0002:0000909c       ?magic@?1??Curl_ntlm_core_mk_lm_hash@@9@9 0046009c     libcurl:curl_ntlm_core.obj
 0002:0000911c       _hmac_ipad                 0046011c     libcurl:hmac.obj
 0002:0000911d       _hmac_opad                 0046011d     libcurl:hmac.obj
 0002:00009230       _Int32ToUInt32             00460230     MSVCRT:_ftol3_.obj
 0002:00009238       _DP2to32                   00460238     MSVCRT:_ftol3_.obj
 0002:00009240       _MantissaMask              00460240     MSVCRT:_ftol3_.obj
 0002:00009248       _IntegerBit                00460248     MSVCRT:_ftol3_.obj
 0002:00009250       _SignBit64                 00460250     MSVCRT:_ftol3_.obj
 0002:00009258       _MinFP64                   00460258     MSVCRT:_ftol3_.obj
 0002:00009260       _MinInt64                  00460260     MSVCRT:_ftol3_.obj
 0002:00009268       _MaxInt64                  00460268     MSVCRT:_ftol3_.obj
 0002:00009270       _MaxUInt64                 00460270     MSVCRT:_ftol3_.obj
 0002:00009278       _MaxFP32                   00460278     MSVCRT:_ftol3_.obj
 0002:00009280       _MinFP32                   00460280     MSVCRT:_ftol3_.obj
 0002:00009288       _MinSubInexact             00460288     MSVCRT:_ftol3_.obj
 0002:00009290       _FpExcptTable              00460290     MSVCRT:_ftol3_.obj
 0002:000092a0       _i1075                     004602a0     MSVCRT:_ftol3_.obj
 0002:000092a4       _i1087                     004602a4     MSVCRT:_ftol3_.obj
 0002:000092a8       _x0800                     004602a8     MSVCRT:_ftol3_.obj
 0002:000092ac       _x17FF                     004602ac     MSVCRT:_ftol3_.obj
 0002:000092b0       _CWMask                    004602b0     MSVCRT:_ftol3_.obj
 0002:0000a858       __ehfuncinfo$?KEY@@YA?AV?$basic_string@DU?$char_traits@D@std@@V?$allocator@D@2@@std@@XZ 00461858     protect.obj
 0002:0000a880       __unwindtable$?KEY@@YA?AV?$basic_string@DU?$char_traits@D@std@@V?$allocator@D@2@@std@@XZ 00461880     protect.obj
 0002:0000a8d8       __ehfuncinfo$?write_to_string@@YAIPAXII0@Z 004618d8     protect.obj
 0002:0000a8fc       __unwindtable$?write_to_string@@YAIPAXII0@Z 004618fc     protect.obj
 0002:0000a904       __ehfuncinfo$?IsValidTime@@YA_NHHH@Z 00461904     protect.obj
 0002:0000a928       __unwindtable$?IsValidTime@@YA_NHHH@Z 00461928     protect.obj
 0002:0000a938       __ehfuncinfo$??1sentry@?$basic_ostream@DU?$char_traits@D@std@@@std@@QAE@XZ 00461938     protect.obj
 0002:0000a938       __ehfuncinfo$??1?$function@$$A6A?AV?$basic_string@DU?$char_traits@D@std@@V?$allocator@D@2@@std@@ABV12@@Z@std@@QAE@XZ 00461938     systeminfo.obj
 0002:0000a95c       __unwindtable$??1sentry@?$basic_ostream@DU?$char_traits@D@std@@@std@@QAE@XZ 0046195c     protect.obj
 0002:0000a95c       __unwindtable$??1?$function@$$A6A?AV?$basic_string@DU?$char_traits@D@std@@V?$allocator@D@2@@std@@ABV12@@Z@std@@QAE@XZ 0046195c     systeminfo.obj
 0002:0000a964       __ehfuncinfo$??1_Sentry_base@?$basic_istream@DU?$char_traits@D@std@@@std@@QAE@XZ 00461964     systeminfo.obj
 0002:0000a964       __ehfuncinfo$??1locale@std@@QAE@XZ 00461964     systeminfo.obj
 0002:0000a964       __ehfuncinfo$??1_Sentry_base@?$basic_ostream@DU?$char_traits@D@std@@@std@@QAE@XZ 00461964     protect.obj
 0002:0000a964       __ehfuncinfo$??1_Fac_node@std@@QAE@XZ 00461964     msvcprt:locale0_implib.obj
 0002:0000a964       __ehfuncinfo$??1?$basic_filebuf@DU?$char_traits@D@std@@@std@@UAE@XZ 00461964     systeminfo.obj
 0002:0000a964       __ehfuncinfo$??4?$basic_string@DU?$char_traits@D@std@@V?$allocator@D@2@@std@@QAEAAV01@$$QAV01@@Z 00461964     systeminfo.obj
 0002:0000a988       __ehfuncinfo$?_Copy@?$basic_string@DU?$char_traits@D@std@@V?$allocator@D@2@@std@@QAEXII@Z 00461988     protect.obj
 0002:0000a9ac       __unwindtable$?_Copy@?$basic_string@DU?$char_traits@D@std@@V?$allocator@D@2@@std@@QAEXII@Z 004619ac     protect.obj
 0002:0000a9cc       __tryblocktable$?_Copy@?$basic_string@DU?$char_traits@D@std@@V?$allocator@D@2@@std@@QAEXII@Z 004619cc     protect.obj
 0002:0000a9f4       __catchsym$?_Copy@?$basic_string@DU?$char_traits@D@std@@V?$allocator@D@2@@std@@QAEXII@Z$110 004619f4     protect.obj
 0002:0000aa04       __catchsym$?_Copy@?$basic_string@DU?$char_traits@D@std@@V?$allocator@D@2@@std@@QAEXII@Z$111 00461a04     protect.obj
 0002:0000aa14       __ehfuncinfo$??$?6U?$char_traits@D@std@@@std@@YAAAV?$basic_ostream@DU?$char_traits@D@std@@@0@AAV10@PBD@Z 00461a14     protect.obj
 0002:0000aa38       __unwindtable$??$?6U?$char_traits@D@std@@@std@@YAAAV?$basic_ostream@DU?$char_traits@D@std@@@0@AAV10@PBD@Z 00461a38     protect.obj
 0002:0000aa68       __tryblocktable$??$?6U?$char_traits@D@std@@@std@@YAAAV?$basic_ostream@DU?$char_traits@D@std@@@0@AAV10@PBD@Z 00461a68     protect.obj
 0002:0000aa7c       __catchsym$??$?6U?$char_traits@D@std@@@std@@YAAAV?$basic_ostream@DU?$char_traits@D@std@@@0@AAV10@PBD@Z$10 00461a7c     protect.obj
 0002:0000aa8c       __ehfuncinfo$??$make_unique@VRAMInfoDelegate@@$$V@std@@YA?AV?$unique_ptr@VRAMInfoDelegate@@U?$default_delete@VRAMInfoDelegate@@@std@@@0@XZ 00461a8c     protect.obj
 0002:0000aa8c       __ehfuncinfo$??$make_unique@VCPUInfoDelegate@@$$V@std@@YA?AV?$unique_ptr@VCPUInfoDelegate@@U?$default_delete@VCPUInfoDelegate@@@std@@@0@XZ 00461a8c     protect.obj
 0002:0000aa8c       __ehfuncinfo$??$make_unique@VMotherboardInfoDelegate@@$$V@std@@YA?AV?$unique_ptr@VMotherboardInfoDelegate@@U?$default_delete@VMotherboardInfoDelegate@@@std@@@0@XZ 00461a8c     protect.obj
 0002:0000aa8c       __ehfuncinfo$??$make_unique@VOSInfoDelegate@@$$V@std@@YA?AV?$unique_ptr@VOSInfoDelegate@@U?$default_delete@VOSInfoDelegate@@@std@@@0@XZ 00461a8c     protect.obj
 0002:0000aa8c       __ehfuncinfo$??$make_unique@VGPUInfoDelegate@@$$V@std@@YA?AV?$unique_ptr@VGPUInfoDelegate@@U?$default_delete@VGPUInfoDelegate@@@std@@@0@XZ 00461a8c     protect.obj
 0002:0000aab0       __unwindtable$??$make_unique@VGPUInfoDelegate@@$$V@std@@YA?AV?$unique_ptr@VGPUInfoDelegate@@U?$default_delete@VGPUInfoDelegate@@@std@@@0@XZ 00461ab0     protect.obj
 0002:0000aab0       __unwindtable$??$make_unique@VCPUInfoDelegate@@$$V@std@@YA?AV?$unique_ptr@VCPUInfoDelegate@@U?$default_delete@VCPUInfoDelegate@@@std@@@0@XZ 00461ab0     protect.obj
 0002:0000aab0       __unwindtable$??$make_unique@VMotherboardInfoDelegate@@$$V@std@@YA?AV?$unique_ptr@VMotherboardInfoDelegate@@U?$default_delete@VMotherboardInfoDelegate@@@std@@@0@XZ 00461ab0     protect.obj
 0002:0000aab0       __unwindtable$??$make_unique@VRAMInfoDelegate@@$$V@std@@YA?AV?$unique_ptr@VRAMInfoDelegate@@U?$default_delete@VRAMInfoDelegate@@@std@@@0@XZ 00461ab0     protect.obj
 0002:0000aab0       __unwindtable$??$make_unique@VOSInfoDelegate@@$$V@std@@YA?AV?$unique_ptr@VOSInfoDelegate@@U?$default_delete@VOSInfoDelegate@@@std@@@0@XZ 00461ab0     protect.obj
 0002:0000aab8       __ehfuncinfo$??0CPUInfo@@QAE@ABV?$vector@V?$basic_string@DU?$char_traits@D@std@@V?$allocator@D@2@@std@@V?$allocator@V?$basic_string@DU?$char_traits@D@std@@V?$allocator@D@2@@std@@@2@@std@@H@Z 00461ab8     systeminfo.obj
 0002:0000aae0       __unwindtable$??0CPUInfo@@QAE@ABV?$vector@V?$basic_string@DU?$char_traits@D@std@@V?$allocator@D@2@@std@@V?$allocator@V?$basic_string@DU?$char_traits@D@std@@V?$allocator@D@2@@std@@@2@@std@@H@Z 00461ae0     systeminfo.obj
 0002:0000ab58       __ehfuncinfo$?getArchitecture@CPUInfo@@ABE?AV?$basic_string@DU?$char_traits@D@std@@V?$allocator@D@2@@std@@AAV23@@Z 00461b58     systeminfo.obj
 0002:0000ab7c       __unwindtable$?getArchitecture@CPUInfo@@ABE?AV?$basic_string@DU?$char_traits@D@std@@V?$allocator@D@2@@std@@AAV23@@Z 00461b7c     systeminfo.obj
 0002:0000ab8c       __tryblocktable$?getArchitecture@CPUInfo@@ABE?AV?$basic_string@DU?$char_traits@D@std@@V?$allocator@D@2@@std@@AAV23@@Z 00461b8c     systeminfo.obj
 0002:0000aba0       __catchsym$?getArchitecture@CPUInfo@@ABE?AV?$basic_string@DU?$char_traits@D@std@@V?$allocator@D@2@@std@@AAV23@@Z$81 00461ba0     systeminfo.obj
 0002:0000abb0       __ehfuncinfo$??0CPUInfoDelegate@@QAE@XZ 00461bb0     systeminfo.obj
 0002:0000abd8       __unwindtable$??0CPUInfoDelegate@@QAE@XZ 00461bd8     systeminfo.obj
 0002:0000ac18       __ehfuncinfo$??0GPUInfo@@QAE@ABV?$vector@V?$basic_string@DU?$char_traits@D@std@@V?$allocator@D@2@@std@@V?$allocator@V?$basic_string@DU?$char_traits@D@std@@V?$allocator@D@2@@std@@@2@@std@@H@Z 00461c18     systeminfo.obj
 0002:0000ac3c       __tryblocktable$??0GPUInfo@@QAE@ABV?$vector@V?$basic_string@DU?$char_traits@D@std@@V?$allocator@D@2@@std@@V?$allocator@V?$basic_string@DU?$char_traits@D@std@@V?$allocator@D@2@@std@@@2@@std@@H@Z 00461c3c     systeminfo.obj
 0002:0000ac50       __unwindtable$??0GPUInfo@@QAE@ABV?$vector@V?$basic_string@DU?$char_traits@D@std@@V?$allocator@D@2@@std@@V?$allocator@V?$basic_string@DU?$char_traits@D@std@@V?$allocator@D@2@@std@@@2@@std@@H@Z 00461c50     systeminfo.obj
 0002:0000ad40       __catchsym$??0GPUInfo@@QAE@ABV?$vector@V?$basic_string@DU?$char_traits@D@std@@V?$allocator@D@2@@std@@V?$allocator@V?$basic_string@DU?$char_traits@D@std@@V?$allocator@D@2@@std@@@2@@std@@H@Z$1699 00461d40     systeminfo.obj
 0002:0000ad50       __ehfuncinfo$?getVideoArchitecture@GPUInfo@@ABE?AV?$basic_string@DU?$char_traits@D@std@@V?$allocator@D@2@@std@@ABV23@@Z 00461d50     systeminfo.obj
 0002:0000ad74       __unwindtable$?getVideoArchitecture@GPUInfo@@ABE?AV?$basic_string@DU?$char_traits@D@std@@V?$allocator@D@2@@std@@ABV23@@Z 00461d74     systeminfo.obj
 0002:0000ad84       __tryblocktable$?getVideoArchitecture@GPUInfo@@ABE?AV?$basic_string@DU?$char_traits@D@std@@V?$allocator@D@2@@std@@ABV23@@Z 00461d84     systeminfo.obj
 0002:0000ad98       __catchsym$?getVideoArchitecture@GPUInfo@@ABE?AV?$basic_string@DU?$char_traits@D@std@@V?$allocator@D@2@@std@@ABV23@@Z$29 00461d98     systeminfo.obj
 0002:0000ada8       __ehfuncinfo$?getVideoMemoryType@GPUInfo@@ABE?AV?$basic_string@DU?$char_traits@D@std@@V?$allocator@D@2@@std@@ABV23@@Z 00461da8     systeminfo.obj
 0002:0000adcc       __unwindtable$?getVideoMemoryType@GPUInfo@@ABE?AV?$basic_string@DU?$char_traits@D@std@@V?$allocator@D@2@@std@@ABV23@@Z 00461dcc     systeminfo.obj
 0002:0000addc       __tryblocktable$?getVideoMemoryType@GPUInfo@@ABE?AV?$basic_string@DU?$char_traits@D@std@@V?$allocator@D@2@@std@@ABV23@@Z 00461ddc     systeminfo.obj
 0002:0000adf0       __catchsym$?getVideoMemoryType@GPUInfo@@ABE?AV?$basic_string@DU?$char_traits@D@std@@V?$allocator@D@2@@std@@ABV23@@Z$29 00461df0     systeminfo.obj
 0002:0000ae00       __ehfuncinfo$??0GPUInfoDelegate@@QAE@XZ 00461e00     systeminfo.obj
 0002:0000ae28       __unwindtable$??0GPUInfoDelegate@@QAE@XZ 00461e28     systeminfo.obj
 0002:0000ae68       __ehfuncinfo$??0MotherboardInfo@@QAE@ABV?$vector@V?$basic_string@DU?$char_traits@D@std@@V?$allocator@D@2@@std@@V?$allocator@V?$basic_string@DU?$char_traits@D@std@@V?$allocator@D@2@@std@@@2@@std@@H@Z 00461e68     systeminfo.obj
 0002:0000ae90       __unwindtable$??0MotherboardInfo@@QAE@ABV?$vector@V?$basic_string@DU?$char_traits@D@std@@V?$allocator@D@2@@std@@V?$allocator@V?$basic_string@DU?$char_traits@D@std@@V?$allocator@D@2@@std@@@2@@std@@H@Z 00461e90     systeminfo.obj
 0002:0000aed8       __ehfuncinfo$?determineChipset@MotherboardInfo@@AAEXXZ 00461ed8     systeminfo.obj
 0002:0000aefc       __unwindtable$?determineChipset@MotherboardInfo@@AAEXXZ 00461efc     systeminfo.obj
 0002:0000af28       __ehfuncinfo$??0MotherboardInfoDelegate@@QAE@XZ 00461f28     systeminfo.obj
 0002:0000af50       __unwindtable$??0MotherboardInfoDelegate@@QAE@XZ 00461f50     systeminfo.obj
 0002:0000af90       __ehfuncinfo$??0OSInfo@@QAE@ABV?$vector@V?$basic_string@DU?$char_traits@D@std@@V?$allocator@D@2@@std@@V?$allocator@V?$basic_string@DU?$char_traits@D@std@@V?$allocator@D@2@@std@@@2@@std@@H@Z 00461f90     systeminfo.obj
 0002:0000afb4       __tryblocktable$??0OSInfo@@QAE@ABV?$vector@V?$basic_string@DU?$char_traits@D@std@@V?$allocator@D@2@@std@@V?$allocator@V?$basic_string@DU?$char_traits@D@std@@V?$allocator@D@2@@std@@@2@@std@@H@Z 00461fb4     systeminfo.obj
 0002:0000aff0       __unwindtable$??0OSInfo@@QAE@ABV?$vector@V?$basic_string@DU?$char_traits@D@std@@V?$allocator@D@2@@std@@V?$allocator@V?$basic_string@DU?$char_traits@D@std@@V?$allocator@D@2@@std@@@2@@std@@H@Z 00461ff0     systeminfo.obj
 0002:0000b168       __catchsym$??0OSInfo@@QAE@ABV?$vector@V?$basic_string@DU?$char_traits@D@std@@V?$allocator@D@2@@std@@V?$allocator@V?$basic_string@DU?$char_traits@D@std@@V?$allocator@D@2@@std@@@2@@std@@H@Z$1825 00462168     systeminfo.obj
 0002:0000b178       __catchsym$??0OSInfo@@QAE@ABV?$vector@V?$basic_string@DU?$char_traits@D@std@@V?$allocator@D@2@@std@@V?$allocator@V?$basic_string@DU?$char_traits@D@std@@V?$allocator@D@2@@std@@@2@@std@@H@Z$1826 00462178     systeminfo.obj
 0002:0000b188       __catchsym$??0OSInfo@@QAE@ABV?$vector@V?$basic_string@DU?$char_traits@D@std@@V?$allocator@D@2@@std@@V?$allocator@V?$basic_string@DU?$char_traits@D@std@@V?$allocator@D@2@@std@@@2@@std@@H@Z$1827 00462188     systeminfo.obj
 0002:0000b198       __ehfuncinfo$??0OSInfoDelegate@@QAE@XZ 00462198     systeminfo.obj
 0002:0000b1c0       __unwindtable$??0OSInfoDelegate@@QAE@XZ 004621c0     systeminfo.obj
 0002:0000b200       __ehfuncinfo$??0RAMInfo@@QAE@ABV?$vector@V?$basic_string@DU?$char_traits@D@std@@V?$allocator@D@2@@std@@V?$allocator@V?$basic_string@DU?$char_traits@D@std@@V?$allocator@D@2@@std@@@2@@std@@H@Z 00462200     systeminfo.obj
 0002:0000b224       __tryblocktable$??0RAMInfo@@QAE@ABV?$vector@V?$basic_string@DU?$char_traits@D@std@@V?$allocator@D@2@@std@@V?$allocator@V?$basic_string@DU?$char_traits@D@std@@V?$allocator@D@2@@std@@@2@@std@@H@Z 00462224     systeminfo.obj
 0002:0000b238       __unwindtable$??0RAMInfo@@QAE@ABV?$vector@V?$basic_string@DU?$char_traits@D@std@@V?$allocator@D@2@@std@@V?$allocator@V?$basic_string@DU?$char_traits@D@std@@V?$allocator@D@2@@std@@@2@@std@@H@Z 00462238     systeminfo.obj
 0002:0000b320       __catchsym$??0RAMInfo@@QAE@ABV?$vector@V?$basic_string@DU?$char_traits@D@std@@V?$allocator@D@2@@std@@V?$allocator@V?$basic_string@DU?$char_traits@D@std@@V?$allocator@D@2@@std@@@2@@std@@H@Z$1681 00462320     systeminfo.obj
 0002:0000b330       __ehfuncinfo$?getMemoryType@RAMInfo@@ABE?AV?$basic_string@DU?$char_traits@D@std@@V?$allocator@D@2@@std@@ABV23@@Z 00462330     systeminfo.obj
 0002:0000b354       __unwindtable$?getMemoryType@RAMInfo@@ABE?AV?$basic_string@DU?$char_traits@D@std@@V?$allocator@D@2@@std@@ABV23@@Z 00462354     systeminfo.obj
 0002:0000b364       __tryblocktable$?getMemoryType@RAMInfo@@ABE?AV?$basic_string@DU?$char_traits@D@std@@V?$allocator@D@2@@std@@ABV23@@Z 00462364     systeminfo.obj
 0002:0000b378       __catchsym$?getMemoryType@RAMInfo@@ABE?AV?$basic_string@DU?$char_traits@D@std@@V?$allocator@D@2@@std@@ABV23@@Z$29 00462378     systeminfo.obj
 0002:0000b388       __ehfuncinfo$?getFormFactor@RAMInfo@@ABE?AV?$basic_string@DU?$char_traits@D@std@@V?$allocator@D@2@@std@@ABV23@@Z 00462388     systeminfo.obj
 0002:0000b3ac       __unwindtable$?getFormFactor@RAMInfo@@ABE?AV?$basic_string@DU?$char_traits@D@std@@V?$allocator@D@2@@std@@ABV23@@Z 004623ac     systeminfo.obj
 0002:0000b3bc       __tryblocktable$?getFormFactor@RAMInfo@@ABE?AV?$basic_string@DU?$char_traits@D@std@@V?$allocator@D@2@@std@@ABV23@@Z 004623bc     systeminfo.obj
 0002:0000b3d0       __catchsym$?getFormFactor@RAMInfo@@ABE?AV?$basic_string@DU?$char_traits@D@std@@V?$allocator@D@2@@std@@ABV23@@Z$29 004623d0     systeminfo.obj
 0002:0000b3e0       __ehfuncinfo$??0RAMInfoDelegate@@QAE@XZ 004623e0     systeminfo.obj
 0002:0000b408       __unwindtable$??0RAMInfoDelegate@@QAE@XZ 00462408     systeminfo.obj
 0002:0000b448       __ehfuncinfo$??0SystemCommand@@QAE@V?$initializer_list@V?$basic_string@DU?$char_traits@D@std@@V?$allocator@D@2@@std@@@std@@@Z 00462448     systeminfo.obj
 0002:0000b46c       __unwindtable$??0SystemCommand@@QAE@V?$initializer_list@V?$basic_string@DU?$char_traits@D@std@@V?$allocator@D@2@@std@@@std@@@Z 0046246c     systeminfo.obj
 0002:0000b474       __ehfuncinfo$?stripAllFromString@SystemCommand@@AAE?AV?$basic_string@DU?$char_traits@D@std@@V?$allocator@D@2@@std@@ABV23@0@Z 00462474     systeminfo.obj
 0002:0000b498       __unwindtable$?stripAllFromString@SystemCommand@@AAE?AV?$basic_string@DU?$char_traits@D@std@@V?$allocator@D@2@@std@@ABV23@0@Z 00462498     systeminfo.obj
 0002:0000b4a8       __ehfuncinfo$?stripFromString@SystemCommand@@AAE?AV?$basic_string@DU?$char_traits@D@std@@V?$allocator@D@2@@std@@ABV23@0@Z 004624a8     systeminfo.obj
 0002:0000b4cc       __unwindtable$?stripFromString@SystemCommand@@AAE?AV?$basic_string@DU?$char_traits@D@std@@V?$allocator@D@2@@std@@ABV23@0@Z 004624cc     systeminfo.obj
 0002:0000b4ec       __ehfuncinfo$?stripPipeFromCommand@SystemCommand@@AAEXXZ 004624ec     systeminfo.obj
 0002:0000b510       __unwindtable$?stripPipeFromCommand@SystemCommand@@AAEXXZ 00462510     systeminfo.obj
 0002:0000b530       __ehfuncinfo$?systemCommandLaunch@SystemCommand@@AAEX_N@Z 00462530     systeminfo.obj
 0002:0000b554       __unwindtable$?systemCommandLaunch@SystemCommand@@AAEX_N@Z 00462554     systeminfo.obj
 0002:0000b57c       __ehfuncinfo$??R<lambda_787d45c283701cc870e4fc26d5464600>@@QBE?AV?$basic_string@DU?$char_traits@D@std@@V?$allocator@D@2@@std@@ABV12@@Z 0046257c     systeminfo.obj
 0002:0000b5a0       __unwindtable$??R<lambda_787d45c283701cc870e4fc26d5464600>@@QBE?AV?$basic_string@DU?$char_traits@D@std@@V?$allocator@D@2@@std@@ABV12@@Z 004625a0     systeminfo.obj
 0002:0000b5d8       __ehfuncinfo$??0?$vector@VRAMInfo@@V?$allocator@VRAMInfo@@@std@@@std@@QAE@ABV01@@Z 004625d8     systeminfo.obj
 0002:0000b5fc       __unwindtable$??0?$vector@VRAMInfo@@V?$allocator@VRAMInfo@@@std@@@std@@QAE@ABV01@@Z 004625fc     systeminfo.obj
 0002:0000b60c       __tryblocktable$??0?$vector@VRAMInfo@@V?$allocator@VRAMInfo@@@std@@@std@@QAE@ABV01@@Z 0046260c     systeminfo.obj
 0002:0000b620       __catchsym$??0?$vector@VRAMInfo@@V?$allocator@VRAMInfo@@@std@@@std@@QAE@ABV01@@Z$67 00462620     systeminfo.obj
 0002:0000b630       __ehfuncinfo$??0?$vector@VOSInfo@@V?$allocator@VOSInfo@@@std@@@std@@QAE@ABV01@@Z 00462630     systeminfo.obj
 0002:0000b654       __unwindtable$??0?$vector@VOSInfo@@V?$allocator@VOSInfo@@@std@@@std@@QAE@ABV01@@Z 00462654     systeminfo.obj
 0002:0000b664       __tryblocktable$??0?$vector@VOSInfo@@V?$allocator@VOSInfo@@@std@@@std@@QAE@ABV01@@Z 00462664     systeminfo.obj
 0002:0000b678       __catchsym$??0?$vector@VOSInfo@@V?$allocator@VOSInfo@@@std@@@std@@QAE@ABV01@@Z$67 00462678     systeminfo.obj
 0002:0000b688       __ehfuncinfo$??0?$vector@VMotherboardInfo@@V?$allocator@VMotherboardInfo@@@std@@@std@@QAE@ABV01@@Z 00462688     systeminfo.obj
 0002:0000b6ac       __unwindtable$??0?$vector@VMotherboardInfo@@V?$allocator@VMotherboardInfo@@@std@@@std@@QAE@ABV01@@Z 004626ac     systeminfo.obj
 0002:0000b6bc       __tryblocktable$??0?$vector@VMotherboardInfo@@V?$allocator@VMotherboardInfo@@@std@@@std@@QAE@ABV01@@Z 004626bc     systeminfo.obj
 0002:0000b6d0       __catchsym$??0?$vector@VMotherboardInfo@@V?$allocator@VMotherboardInfo@@@std@@@std@@QAE@ABV01@@Z$67 004626d0     systeminfo.obj
 0002:0000b6e0       __ehfuncinfo$??0?$vector@VGPUInfo@@V?$allocator@VGPUInfo@@@std@@@std@@QAE@ABV01@@Z 004626e0     systeminfo.obj
 0002:0000b704       __unwindtable$??0?$vector@VGPUInfo@@V?$allocator@VGPUInfo@@@std@@@std@@QAE@ABV01@@Z 00462704     systeminfo.obj
 0002:0000b714       __tryblocktable$??0?$vector@VGPUInfo@@V?$allocator@VGPUInfo@@@std@@@std@@QAE@ABV01@@Z 00462714     systeminfo.obj
 0002:0000b728       __catchsym$??0?$vector@VGPUInfo@@V?$allocator@VGPUInfo@@@std@@@std@@QAE@ABV01@@Z$67 00462728     systeminfo.obj
 0002:0000b738       __ehfuncinfo$??0?$vector@VCPUInfo@@V?$allocator@VCPUInfo@@@std@@@std@@QAE@ABV01@@Z 00462738     systeminfo.obj
 0002:0000b75c       __unwindtable$??0?$vector@VCPUInfo@@V?$allocator@VCPUInfo@@@std@@@std@@QAE@ABV01@@Z 0046275c     systeminfo.obj
 0002:0000b76c       __tryblocktable$??0?$vector@VCPUInfo@@V?$allocator@VCPUInfo@@@std@@@std@@QAE@ABV01@@Z 0046276c     systeminfo.obj
 0002:0000b780       __catchsym$??0?$vector@VCPUInfo@@V?$allocator@VCPUInfo@@@std@@@std@@QAE@ABV01@@Z$67 00462780     systeminfo.obj
 0002:0000b790       __ehfuncinfo$?push_back@?$vector@V?$basic_string@DU?$char_traits@D@std@@V?$allocator@D@2@@std@@V?$allocator@V?$basic_string@DU?$char_traits@D@std@@V?$allocator@D@2@@std@@@2@@std@@QAEXABV?$basic_string@DU?$char_traits@D@std@@V?$allocator@D@2@@2@@Z 00462790     systeminfo.obj
 0002:0000b7b4       __unwindtable$?push_back@?$vector@V?$basic_string@DU?$char_traits@D@std@@V?$allocator@D@2@@std@@V?$allocator@V?$basic_string@DU?$char_traits@D@std@@V?$allocator@D@2@@std@@@2@@std@@QAEXABV?$basic_string@DU?$char_traits@D@std@@V?$allocator@D@2@@2@@Z 004627b4     systeminfo.obj
 0002:0000b7c4       __ehfuncinfo$??0?$vector@V?$basic_string@DU?$char_traits@D@std@@V?$allocator@D@2@@std@@V?$allocator@V?$basic_string@DU?$char_traits@D@std@@V?$allocator@D@2@@std@@@2@@std@@QAE@ABV01@@Z 004627c4     systeminfo.obj
 0002:0000b7e8       __unwindtable$??0?$vector@V?$basic_string@DU?$char_traits@D@std@@V?$allocator@D@2@@std@@V?$allocator@V?$basic_string@DU?$char_traits@D@std@@V?$allocator@D@2@@std@@@2@@std@@QAE@ABV01@@Z 004627e8     systeminfo.obj
 0002:0000b7f8       __tryblocktable$??0?$vector@V?$basic_string@DU?$char_traits@D@std@@V?$allocator@D@2@@std@@V?$allocator@V?$basic_string@DU?$char_traits@D@std@@V?$allocator@D@2@@std@@@2@@std@@QAE@ABV01@@Z 004627f8     systeminfo.obj
 0002:0000b80c       __catchsym$??0?$vector@V?$basic_string@DU?$char_traits@D@std@@V?$allocator@D@2@@std@@V?$allocator@V?$basic_string@DU?$char_traits@D@std@@V?$allocator@D@2@@std@@@2@@std@@QAE@ABV01@@Z$67 0046280c     systeminfo.obj
 0002:0000b81c       __ehfuncinfo$??0?$basic_ifstream@DU?$char_traits@D@std@@@std@@QAE@XZ 0046281c     systeminfo.obj
 0002:0000b840       __unwindtable$??0?$basic_ifstream@DU?$char_traits@D@std@@@std@@QAE@XZ 00462840     systeminfo.obj
 0002:0000b858       __ehfuncinfo$?uflow@?$basic_filebuf@DU?$char_traits@D@std@@@std@@MAEHXZ 00462858     systeminfo.obj
 0002:0000b87c       __unwindtable$?uflow@?$basic_filebuf@DU?$char_traits@D@std@@@std@@MAEHXZ 0046287c     systeminfo.obj
 0002:0000b884       __ehfuncinfo$?overflow@?$basic_filebuf@DU?$char_traits@D@std@@@std@@MAEHH@Z 00462884     systeminfo.obj
 0002:0000b8a8       __unwindtable$?overflow@?$basic_filebuf@DU?$char_traits@D@std@@@std@@MAEHH@Z 004628a8     systeminfo.obj
 0002:0000b8b0       __ehfuncinfo$?_Endwrite@?$basic_filebuf@DU?$char_traits@D@std@@@std@@IAE_NXZ 004628b0     systeminfo.obj
 0002:0000b8d4       __unwindtable$?_Endwrite@?$basic_filebuf@DU?$char_traits@D@std@@@std@@IAE_NXZ 004628d4     systeminfo.obj
 0002:0000b8dc       __ehfuncinfo$??$use_facet@V?$ctype@D@std@@@std@@YAABV?$ctype@D@0@ABVlocale@0@@Z 004628dc     systeminfo.obj
 0002:0000b8dc       __ehfuncinfo$??$use_facet@V?$codecvt@DDU_Mbstatet@@@std@@@std@@YAABV?$codecvt@DDU_Mbstatet@@@0@ABVlocale@0@@Z 004628dc     systeminfo.obj
 0002:0000b900       __unwindtable$??$use_facet@V?$codecvt@DDU_Mbstatet@@@std@@@std@@YAABV?$codecvt@DDU_Mbstatet@@@0@ABVlocale@0@@Z 00462900     systeminfo.obj
 0002:0000b900       __unwindtable$??$use_facet@V?$ctype@D@std@@@std@@YAABV?$ctype@D@0@ABVlocale@0@@Z 00462900     systeminfo.obj
 0002:0000b908       __ehfuncinfo$??$?6DU?$char_traits@D@std@@V?$allocator@D@1@@std@@YAAAV?$basic_ostream@DU?$char_traits@D@std@@@0@AAV10@ABV?$basic_string@DU?$char_traits@D@std@@V?$allocator@D@2@@0@@Z 00462908     systeminfo.obj
 0002:0000b92c       __unwindtable$??$?6DU?$char_traits@D@std@@V?$allocator@D@1@@std@@YAAAV?$basic_ostream@DU?$char_traits@D@std@@@0@AAV10@ABV?$basic_string@DU?$char_traits@D@std@@V?$allocator@D@2@@0@@Z 0046292c     systeminfo.obj
 0002:0000b95c       __tryblocktable$??$?6DU?$char_traits@D@std@@V?$allocator@D@1@@std@@YAAAV?$basic_ostream@DU?$char_traits@D@std@@@0@AAV10@ABV?$basic_string@DU?$char_traits@D@std@@V?$allocator@D@2@@0@@Z 0046295c     systeminfo.obj
 0002:0000b970       __catchsym$??$?6DU?$char_traits@D@std@@V?$allocator@D@1@@std@@YAAAV?$basic_ostream@DU?$char_traits@D@std@@@0@AAV10@ABV?$basic_string@DU?$char_traits@D@std@@V?$allocator@D@2@@0@@Z$17 00462970     systeminfo.obj
 0002:0000b980       __ehfuncinfo$??$?HDU?$char_traits@D@std@@V?$allocator@D@1@@std@@YA?AV?$basic_string@DU?$char_traits@D@std@@V?$allocator@D@2@@0@ABV10@PBD@Z 00462980     systeminfo.obj
 0002:0000b9a4       __unwindtable$??$?HDU?$char_traits@D@std@@V?$allocator@D@1@@std@@YA?AV?$basic_string@DU?$char_traits@D@std@@V?$allocator@D@2@@0@ABV10@PBD@Z 004629a4     systeminfo.obj
 0002:0000b9ac       __ehfuncinfo$??$toString@_J@RAMInfo@@ABE?AV?$basic_string@DU?$char_traits@D@std@@V?$allocator@D@2@@std@@AB_J@Z 004629ac     systeminfo.obj
 0002:0000b9ac       __ehfuncinfo$??$toString@_J@GPUInfo@@ABE?AV?$basic_string@DU?$char_traits@D@std@@V?$allocator@D@2@@std@@AB_J@Z 004629ac     systeminfo.obj
 0002:0000b9ac       __ehfuncinfo$??$toString@_J@OSInfo@@ABE?AV?$basic_string@DU?$char_traits@D@std@@V?$allocator@D@2@@std@@AB_J@Z 004629ac     systeminfo.obj
 0002:0000b9d0       __unwindtable$??$toString@_J@OSInfo@@ABE?AV?$basic_string@DU?$char_traits@D@std@@V?$allocator@D@2@@std@@AB_J@Z 004629d0     systeminfo.obj
 0002:0000b9d0       __unwindtable$??$toString@_J@RAMInfo@@ABE?AV?$basic_string@DU?$char_traits@D@std@@V?$allocator@D@2@@std@@AB_J@Z 004629d0     systeminfo.obj
 0002:0000b9d0       __unwindtable$??$toString@_J@GPUInfo@@ABE?AV?$basic_string@DU?$char_traits@D@std@@V?$allocator@D@2@@std@@AB_J@Z 004629d0     systeminfo.obj
 0002:0000b9f8       __ehfuncinfo$??$_Construct@PBV?$basic_string@DU?$char_traits@D@std@@V?$allocator@D@2@@std@@@?$vector@V?$basic_string@DU?$char_traits@D@std@@V?$allocator@D@2@@std@@V?$allocator@V?$basic_string@DU?$char_traits@D@std@@V?$allocator@D@2@@std@@@2@@std@@QAEXPBV?$basic_string@DU?$char_traits@D@std@@V?$allocator@D@2@@1@0Uforward_iterator_tag@1@@Z 004629f8     systeminfo.obj
 0002:0000ba1c       __unwindtable$??$_Construct@PBV?$basic_string@DU?$char_traits@D@std@@V?$allocator@D@2@@std@@@?$vector@V?$basic_string@DU?$char_traits@D@std@@V?$allocator@D@2@@std@@V?$allocator@V?$basic_string@DU?$char_traits@D@std@@V?$allocator@D@2@@std@@@2@@std@@QAEXPBV?$basic_string@DU?$char_traits@D@std@@V?$allocator@D@2@@1@0Uforward_iterator_tag@1@@Z 00462a1c     systeminfo.obj
 0002:0000ba2c       __tryblocktable$??$_Construct@PBV?$basic_string@DU?$char_traits@D@std@@V?$allocator@D@2@@std@@@?$vector@V?$basic_string@DU?$char_traits@D@std@@V?$allocator@D@2@@std@@V?$allocator@V?$basic_string@DU?$char_traits@D@std@@V?$allocator@D@2@@std@@@2@@std@@QAEXPBV?$basic_string@DU?$char_traits@D@std@@V?$allocator@D@2@@1@0Uforward_iterator_tag@1@@Z 00462a2c     systeminfo.obj
 0002:0000ba40       __catchsym$??$_Construct@PBV?$basic_string@DU?$char_traits@D@std@@V?$allocator@D@2@@std@@@?$vector@V?$basic_string@DU?$char_traits@D@std@@V?$allocator@D@2@@std@@V?$allocator@V?$basic_string@DU?$char_traits@D@std@@V?$allocator@D@2@@std@@@2@@std@@QAEXPBV?$basic_string@DU?$char_traits@D@std@@V?$allocator@D@2@@1@0Uforward_iterator_tag@1@@Z$43 00462a40     systeminfo.obj
 0002:0000ba50       __ehfuncinfo$??$?5DU?$char_traits@D@std@@V?$allocator@D@1@@std@@YAAAV?$basic_istream@DU?$char_traits@D@std@@@0@$$QAV10@AAV?$basic_string@DU?$char_traits@D@std@@V?$allocator@D@2@@0@@Z 00462a50     systeminfo.obj
 0002:0000ba74       __unwindtable$??$?5DU?$char_traits@D@std@@V?$allocator@D@1@@std@@YAAAV?$basic_istream@DU?$char_traits@D@std@@@0@$$QAV10@AAV?$basic_string@DU?$char_traits@D@std@@V?$allocator@D@2@@0@@Z 00462a74     systeminfo.obj
 0002:0000baac       __tryblocktable$??$?5DU?$char_traits@D@std@@V?$allocator@D@1@@std@@YAAAV?$basic_istream@DU?$char_traits@D@std@@@0@$$QAV10@AAV?$basic_string@DU?$char_traits@D@std@@V?$allocator@D@2@@0@@Z 00462aac     systeminfo.obj
 0002:0000bac0       __catchsym$??$?5DU?$char_traits@D@std@@V?$allocator@D@1@@std@@YAAAV?$basic_istream@DU?$char_traits@D@std@@@0@$$QAV10@AAV?$basic_string@DU?$char_traits@D@std@@V?$allocator@D@2@@0@@Z$89 00462ac0     systeminfo.obj
 0002:0000bad0       __ehfuncinfo$??1sentry@?$basic_istream@DU?$char_traits@D@std@@@std@@QAE@XZ 00462ad0     systeminfo.obj
 0002:0000baf4       __unwindtable$??1sentry@?$basic_istream@DU?$char_traits@D@std@@@std@@QAE@XZ 00462af4     systeminfo.obj
 0002:0000bafc       __ehfuncinfo$??$_Uninitialized_copy_al_unchecked1@PBVRAMInfo@@PAV1@V?$allocator@VRAMInfo@@@std@@@std@@YAPAVRAMInfo@@PBV1@0PAV1@AAU?$_Wrap_alloc@V?$allocator@VRAMInfo@@@std@@@0@U_General_ptr_iterator_tag@0@U_Any_tag@0@@Z 00462afc     systeminfo.obj
 0002:0000bb20       __unwindtable$??$_Uninitialized_copy_al_unchecked1@PBVRAMInfo@@PAV1@V?$allocator@VRAMInfo@@@std@@@std@@YAPAVRAMInfo@@PBV1@0PAV1@AAU?$_Wrap_alloc@V?$allocator@VRAMInfo@@@std@@@0@U_General_ptr_iterator_tag@0@U_Any_tag@0@@Z 00462b20     systeminfo.obj
 0002:0000bb38       __tryblocktable$??$_Uninitialized_copy_al_unchecked1@PBVRAMInfo@@PAV1@V?$allocator@VRAMInfo@@@std@@@std@@YAPAVRAMInfo@@PBV1@0PAV1@AAU?$_Wrap_alloc@V?$allocator@VRAMInfo@@@std@@@0@U_General_ptr_iterator_tag@0@U_Any_tag@0@@Z 00462b38     systeminfo.obj
 0002:0000bb4c       __catchsym$??$_Uninitialized_copy_al_unchecked1@PBVRAMInfo@@PAV1@V?$allocator@VRAMInfo@@@std@@@std@@YAPAVRAMInfo@@PBV1@0PAV1@AAU?$_Wrap_alloc@V?$allocator@VRAMInfo@@@std@@@0@U_General_ptr_iterator_tag@0@U_Any_tag@0@@Z$6 00462b4c     systeminfo.obj
 0002:0000bb5c       __ehfuncinfo$??$_Uninitialized_copy_al_unchecked1@PBVOSInfo@@PAV1@V?$allocator@VOSInfo@@@std@@@std@@YAPAVOSInfo@@PBV1@0PAV1@AAU?$_Wrap_alloc@V?$allocator@VOSInfo@@@std@@@0@U_General_ptr_iterator_tag@0@U_Any_tag@0@@Z 00462b5c     systeminfo.obj
 0002:0000bb80       __unwindtable$??$_Uninitialized_copy_al_unchecked1@PBVOSInfo@@PAV1@V?$allocator@VOSInfo@@@std@@@std@@YAPAVOSInfo@@PBV1@0PAV1@AAU?$_Wrap_alloc@V?$allocator@VOSInfo@@@std@@@0@U_General_ptr_iterator_tag@0@U_Any_tag@0@@Z 00462b80     systeminfo.obj
 0002:0000bb98       __tryblocktable$??$_Uninitialized_copy_al_unchecked1@PBVOSInfo@@PAV1@V?$allocator@VOSInfo@@@std@@@std@@YAPAVOSInfo@@PBV1@0PAV1@AAU?$_Wrap_alloc@V?$allocator@VOSInfo@@@std@@@0@U_General_ptr_iterator_tag@0@U_Any_tag@0@@Z 00462b98     systeminfo.obj
 0002:0000bbac       __catchsym$??$_Uninitialized_copy_al_unchecked1@PBVOSInfo@@PAV1@V?$allocator@VOSInfo@@@std@@@std@@YAPAVOSInfo@@PBV1@0PAV1@AAU?$_Wrap_alloc@V?$allocator@VOSInfo@@@std@@@0@U_General_ptr_iterator_tag@0@U_Any_tag@0@@Z$6 00462bac     systeminfo.obj
 0002:0000bbbc       __ehfuncinfo$??$_Uninitialized_copy_al_unchecked1@PBVMotherboardInfo@@PAV1@V?$allocator@VMotherboardInfo@@@std@@@std@@YAPAVMotherboardInfo@@PBV1@0PAV1@AAU?$_Wrap_alloc@V?$allocator@VMotherboardInfo@@@std@@@0@U_General_ptr_iterator_tag@0@U_Any_tag@0@@Z 00462bbc     systeminfo.obj
 0002:0000bbe0       __unwindtable$??$_Uninitialized_copy_al_unchecked1@PBVMotherboardInfo@@PAV1@V?$allocator@VMotherboardInfo@@@std@@@std@@YAPAVMotherboardInfo@@PBV1@0PAV1@AAU?$_Wrap_alloc@V?$allocator@VMotherboardInfo@@@std@@@0@U_General_ptr_iterator_tag@0@U_Any_tag@0@@Z 00462be0     systeminfo.obj
 0002:0000bbf8       __tryblocktable$??$_Uninitialized_copy_al_unchecked1@PBVMotherboardInfo@@PAV1@V?$allocator@VMotherboardInfo@@@std@@@std@@YAPAVMotherboardInfo@@PBV1@0PAV1@AAU?$_Wrap_alloc@V?$allocator@VMotherboardInfo@@@std@@@0@U_General_ptr_iterator_tag@0@U_Any_tag@0@@Z 00462bf8     systeminfo.obj
 0002:0000bc0c       __catchsym$??$_Uninitialized_copy_al_unchecked1@PBVMotherboardInfo@@PAV1@V?$allocator@VMotherboardInfo@@@std@@@std@@YAPAVMotherboardInfo@@PBV1@0PAV1@AAU?$_Wrap_alloc@V?$allocator@VMotherboardInfo@@@std@@@0@U_General_ptr_iterator_tag@0@U_Any_tag@0@@Z$6 00462c0c     systeminfo.obj
 0002:0000bc1c       __ehfuncinfo$??$_Uninitialized_copy_al_unchecked1@PBVGPUInfo@@PAV1@V?$allocator@VGPUInfo@@@std@@@std@@YAPAVGPUInfo@@PBV1@0PAV1@AAU?$_Wrap_alloc@V?$allocator@VGPUInfo@@@std@@@0@U_General_ptr_iterator_tag@0@U_Any_tag@0@@Z 00462c1c     systeminfo.obj
 0002:0000bc40       __unwindtable$??$_Uninitialized_copy_al_unchecked1@PBVGPUInfo@@PAV1@V?$allocator@VGPUInfo@@@std@@@std@@YAPAVGPUInfo@@PBV1@0PAV1@AAU?$_Wrap_alloc@V?$allocator@VGPUInfo@@@std@@@0@U_General_ptr_iterator_tag@0@U_Any_tag@0@@Z 00462c40     systeminfo.obj
 0002:0000bc58       __tryblocktable$??$_Uninitialized_copy_al_unchecked1@PBVGPUInfo@@PAV1@V?$allocator@VGPUInfo@@@std@@@std@@YAPAVGPUInfo@@PBV1@0PAV1@AAU?$_Wrap_alloc@V?$allocator@VGPUInfo@@@std@@@0@U_General_ptr_iterator_tag@0@U_Any_tag@0@@Z 00462c58     systeminfo.obj
 0002:0000bc6c       __catchsym$??$_Uninitialized_copy_al_unchecked1@PBVGPUInfo@@PAV1@V?$allocator@VGPUInfo@@@std@@@std@@YAPAVGPUInfo@@PBV1@0PAV1@AAU?$_Wrap_alloc@V?$allocator@VGPUInfo@@@std@@@0@U_General_ptr_iterator_tag@0@U_Any_tag@0@@Z$6 00462c6c     systeminfo.obj
 0002:0000bc7c       __ehfuncinfo$??$_Uninitialized_copy_al_unchecked1@PBVCPUInfo@@PAV1@V?$allocator@VCPUInfo@@@std@@@std@@YAPAVCPUInfo@@PBV1@0PAV1@AAU?$_Wrap_alloc@V?$allocator@VCPUInfo@@@std@@@0@U_General_ptr_iterator_tag@0@U_Any_tag@0@@Z 00462c7c     systeminfo.obj
 0002:0000bca0       __unwindtable$??$_Uninitialized_copy_al_unchecked1@PBVCPUInfo@@PAV1@V?$allocator@VCPUInfo@@@std@@@std@@YAPAVCPUInfo@@PBV1@0PAV1@AAU?$_Wrap_alloc@V?$allocator@VCPUInfo@@@std@@@0@U_General_ptr_iterator_tag@0@U_Any_tag@0@@Z 00462ca0     systeminfo.obj
 0002:0000bcb8       __tryblocktable$??$_Uninitialized_copy_al_unchecked1@PBVCPUInfo@@PAV1@V?$allocator@VCPUInfo@@@std@@@std@@YAPAVCPUInfo@@PBV1@0PAV1@AAU?$_Wrap_alloc@V?$allocator@VCPUInfo@@@std@@@0@U_General_ptr_iterator_tag@0@U_Any_tag@0@@Z 00462cb8     systeminfo.obj
 0002:0000bccc       __catchsym$??$_Uninitialized_copy_al_unchecked1@PBVCPUInfo@@PAV1@V?$allocator@VCPUInfo@@@std@@@std@@YAPAVCPUInfo@@PBV1@0PAV1@AAU?$_Wrap_alloc@V?$allocator@VCPUInfo@@@std@@@0@U_General_ptr_iterator_tag@0@U_Any_tag@0@@Z$6 00462ccc     systeminfo.obj
 0002:0000bcdc       __ehfuncinfo$??$_Uninitialized_copy_al_unchecked1@PBV?$basic_string@DU?$char_traits@D@std@@V?$allocator@D@2@@std@@PAV12@V?$allocator@V?$basic_string@DU?$char_traits@D@std@@V?$allocator@D@2@@std@@@2@@std@@YAPAV?$basic_string@DU?$char_traits@D@std@@V?$allocator@D@2@@0@PBV10@0PAV10@AAU?$_Wrap_alloc@V?$allocator@V?$basic_string@DU?$char_traits@D@std@@V?$allocator@D@2@@std@@@std@@@0@U_General_ptr_iterator_tag@0@U_Any_tag@0@@Z 00462cdc     systeminfo.obj
 0002:0000bd00       __unwindtable$??$_Uninitialized_copy_al_unchecked1@PBV?$basic_string@DU?$char_traits@D@std@@V?$allocator@D@2@@std@@PAV12@V?$allocator@V?$basic_string@DU?$char_traits@D@std@@V?$allocator@D@2@@std@@@2@@std@@YAPAV?$basic_string@DU?$char_traits@D@std@@V?$allocator@D@2@@0@PBV10@0PAV10@AAU?$_Wrap_alloc@V?$allocator@V?$basic_string@DU?$char_traits@D@std@@V?$allocator@D@2@@std@@@std@@@0@U_General_ptr_iterator_tag@0@U_Any_tag@0@@Z 00462d00     systeminfo.obj
 0002:0000bd18       __tryblocktable$??$_Uninitialized_copy_al_unchecked1@PBV?$basic_string@DU?$char_traits@D@std@@V?$allocator@D@2@@std@@PAV12@V?$allocator@V?$basic_string@DU?$char_traits@D@std@@V?$allocator@D@2@@std@@@2@@std@@YAPAV?$basic_string@DU?$char_traits@D@std@@V?$allocator@D@2@@0@PBV10@0PAV10@AAU?$_Wrap_alloc@V?$allocator@V?$basic_string@DU?$char_traits@D@std@@V?$allocator@D@2@@std@@@std@@@0@U_General_ptr_iterator_tag@0@U_Any_tag@0@@Z 00462d18     systeminfo.obj
 0002:0000bd2c       __catchsym$??$_Uninitialized_copy_al_unchecked1@PBV?$basic_string@DU?$char_traits@D@std@@V?$allocator@D@2@@std@@PAV12@V?$allocator@V?$basic_string@DU?$char_traits@D@std@@V?$allocator@D@2@@std@@@2@@std@@YAPAV?$basic_string@DU?$char_traits@D@std@@V?$allocator@D@2@@0@PBV10@0PAV10@AAU?$_Wrap_alloc@V?$allocator@V?$basic_string@DU?$char_traits@D@std@@V?$allocator@D@2@@std@@@std@@@0@U_General_ptr_iterator_tag@0@U_Any_tag@0@@Z$37 00462d2c     systeminfo.obj
 0002:0000bd3c       __ehfuncinfo$??0RAMInfo@@QAE@ABV0@@Z 00462d3c     systeminfo.obj
 0002:0000bd60       __unwindtable$??0RAMInfo@@QAE@ABV0@@Z 00462d60     systeminfo.obj
 0002:0000bd98       __ehfuncinfo$??0OSInfo@@QAE@ABV0@@Z 00462d98     systeminfo.obj
 0002:0000bdc0       __unwindtable$??0OSInfo@@QAE@ABV0@@Z 00462dc0     systeminfo.obj
 0002:0000be28       __ehfuncinfo$??0MotherboardInfo@@QAE@ABV0@@Z 00462e28     systeminfo.obj
 0002:0000be4c       __unwindtable$??0MotherboardInfo@@QAE@ABV0@@Z 00462e4c     systeminfo.obj
 0002:0000be70       __ehfuncinfo$??0GPUInfo@@QAE@ABV0@@Z 00462e70     systeminfo.obj
 0002:0000be98       __unwindtable$??0GPUInfo@@QAE@ABV0@@Z 00462e98     systeminfo.obj
 0002:0000bee0       __ehfuncinfo$??0CPUInfo@@QAE@ABV0@@Z 00462ee0     systeminfo.obj
 0002:0000bf04       __unwindtable$??0CPUInfo@@QAE@ABV0@@Z 00462f04     systeminfo.obj
 0002:0000bf30       __sehtable$??_M@YGXPAXIIP6EX0@Z@Z 00462f30     MSVCRT:ehvecdtr.obj
 0002:0000bf50       __sehtable$?__ArrayUnwind@@YGXPAXIIP6EX0@Z@Z 00462f50     MSVCRT:ehvecdtr.obj
 0002:0000bf70       __sehtable$___scrt_is_nonwritable_in_current_image 00462f70     MSVCRT:utility.obj
 0002:0000bf90       __sehtable$?__scrt_common_main_seh@@YAHXZ 00462f90     MSVCRT:exe_winmain.obj
 0002:0000c762       .idata$6                   00463762     kernel32:KERNEL32.dll
 0002:0000c8ae       .idata$6                   004638ae     user32:USER32.dll
 0002:0000c8ce       .idata$6                   004638ce     gdi32:GDI32.dll
 0002:0000c91c       .idata$6                   0046391c     advapi32:ADVAPI32.dll
 0002:0000d4f6       .idata$6                   004644f6     msvcprt:MSVCP140.dll
 0002:0000d516       .idata$6                   00464516     d3d9:d3d9.dll
 0002:0000d532       .idata$6                   00464532     d3dx9:d3dx9_43.dll
 0002:0000d5b6       .idata$6                   004645b6     ws2_32:WS2_32.dll
 0002:0000d5c2       .idata$6                   004645c2     wldap32:WLDAP32.dll
 0002:0000d6aa       .idata$6                   004646aa     vcruntime:VCRUNTIME140.dll
 0002:0000db3e       .idata$6                   00464b3e     ucrt:api-ms-win-crt-stdio-l1-1-0.dll
 0002:0000db5e       .idata$6                   00464b5e     ucrt:api-ms-win-crt-runtime-l1-1-0.dll
 0002:0000db80       .idata$6                   00464b80     ucrt:api-ms-win-crt-convert-l1-1-0.dll
 0002:0000dba2       .idata$6                   00464ba2     ucrt:api-ms-win-crt-time-l1-1-0.dll
 0002:0000dbc2       .idata$6                   00464bc2     ucrt:api-ms-win-crt-filesystem-l1-1-0.dll
 0002:0000dbe8       .idata$6                   00464be8     ucrt:api-ms-win-crt-heap-l1-1-0.dll
 0002:0000dc08       .idata$6                   00464c08     ucrt:api-ms-win-crt-math-l1-1-0.dll
 0002:0000dc28       .idata$6                   00464c28     ucrt:api-ms-win-crt-locale-l1-1-0.dll
 0002:0000dc4a       .idata$6                   00464c4a     ucrt:api-ms-win-crt-string-l1-1-0.dll
 0002:0000dc6c       .idata$6                   00464c6c     ucrt:api-ms-win-crt-utility-l1-1-0.dll
 0002:0000dc8e       .idata$6                   00464c8e     ucrt:api-ms-win-crt-multibyte-l1-1-0.dll
 0003:0000002c       ?if_prefix@?2??bindlocal@@9@9 0046602c     libcurl:connect.obj
 0003:00000030       ?host_prefix@?2??bindlocal@@9@9 00466030     libcurl:connect.obj
 0003:000004b0       ?_Fac_head@std@@3PAU_Fac_node@1@A 004664b0     msvcprt:locale0_implib.obj
 0003:000004b4       ?_Fac_tidy_reg@std@@3U_Fac_tidy_reg_t@1@B 004664b4     msvcprt:locale0_implib.obj
 0003:000004c0       ?module_local_atexit_table@@3U_onexit_table_t@@A 004664c0     MSVCRT:utility.obj
 0003:000004cc       ?module_local_at_quick_exit_table@@3U_onexit_table_t@@A 004664cc     MSVCRT:utility.obj
 0003:000004d8       ?is_initialized_as_dll@@3_NA 004664d8     MSVCRT:utility.obj
 0003:000004e0       _GS_ExceptionRecord        004664e0     MSVCRT:gs_report.obj
 0003:00000530       _GS_ContextRecord          00466530     MSVCRT:gs_report.obj
 0003:00000818       _initialized               00466818     libcurl:easy.obj
 0003:0000081c       _init_flags                0046681c     libcurl:easy.obj
 0003:00000820       ?tv_zero@?1??multi_timeout@@9@9 00466820     libcurl:multi.obj
 0003:00000830       ?detectOsState@?1??Curl_sndbufset@@9@9 00466830     libcurl:connect.obj
 0003:00000838       _s_hIpHlpApiDll            00466838     libcurl:system_win32.obj
 0003:00000840       ?tv_zero@?1??Curl_splaygetbest@@9@9 00466840     libcurl:splay.obj
 0003:00000850       ?randseed@?1??randit@@9@9  00466850     libcurl:rand.obj
 0003:00000854       ?seeded@?1??randit@@9@9    00466854     libcurl:rand.obj
 0004:00000000       __guard_fids_??__E_Fac_tidy_reg@std@@YAXXZ 00468000     msvcprt:locale0_implib.obj
 0004:00000004       __guard_fids__             00468004     msvcprt:locale0_implib.obj
 0004:00000008       __guard_fids__             00468008     MSVCRT:std_type_info_static.obj
 0004:0000000c       __guard_fids__             0046800c     MSVCRT:exe_winmain.obj
 0004:00000010       __guard_fids__             00468010     MSVCRT:exe_winmain.obj
 0004:00000014       __guard_fids__             00468014     MSVCRT:exe_winmain.obj
 0004:00000018       __guard_fids_?pre_c_initialization@@YAHXZ 00468018     MSVCRT:exe_winmain.obj
 0004:00000020       __guard_fids__             00468020     MSVCRT:throw_bad_alloc.obj
 0004:00000028       __guard_fids__             00468028     MSVCRT:throw_bad_alloc.obj
 0004:00000030       __guard_fids__             00468030     MSVCRT:throw_bad_alloc.obj
 0004:00000038       __guard_fids__             00468038     MSVCRT:throw_bad_alloc.obj
 0004:0000003c       __guard_fids__             0046803c     MSVCRT:throw_bad_alloc.obj
 0004:00000040       __guard_fids__             00468040     MSVCRT:throw_bad_alloc.obj
 0004:00000044       __guard_fids__             00468044     MSVCRT:throw_bad_alloc.obj
 0004:00000048       __guard_fids___except_handler4 00468048     MSVCRT:_chandler4gs_.obj
 0004:0000004c       __guard_fids____scrt_set_unhandled_exception_filter 0046804c     MSVCRT:utility_desktop.obj
 0004:00000050       __guard_fids__             00468050     MSVCRT:guard_support.obj
 0005:00000060       $R000000                   00469060     * linker generated manifest res *
