 Warcraft III - External MapHack

 Timestamp is 6090079c (Mon May  3 17:24:28 2021)

 Preferred load address is 00400000

 Start         Length     Name                   Class
 0001:00000000 000009f0H .text$di                CODE
 0001:000009f0 00051ad0H .text$mn                CODE
 0001:000524c0 00001290H .text$x                 CODE
 0001:00053750 00001d41H .text$yd                CODE
 0002:00000000 000004a4H .idata$5                DATA
 0002:000004a4 00000004H .00cfg                  DATA
 0002:000004a8 00000004H .CRT$XCA                DATA
 0002:000004ac 00000004H .CRT$XCAA               DATA
 0002:000004b0 00000004H .CRT$XCL                DATA
 0002:000004b4 0000013cH .CRT$XCU                DATA
 0002:000005f0 00000004H .CRT$XCZ                DATA
 0002:000005f4 00000004H .CRT$XIA                DATA
 0002:000005f8 00000004H .CRT$XIAA               DATA
 0002:000005fc 00000004H .CRT$XIAC               DATA
 0002:00000600 00000004H .CRT$XIZ                DATA
 0002:00000604 00000004H .CRT$XPA                DATA
 0002:00000608 00000004H .CRT$XPZ                DATA
 0002:0000060c 00000004H .CRT$XTA                DATA
 0002:00000610 00000010H .CRT$XTZ                DATA
 0002:00000614 00000000H .gfids$y                DATA
 0002:00000620 000098a0H .rdata                  DATA
 0002:00009ec0 00000000H .rdata$CastGuardVftablesA DATA
 0002:00009ec0 00000000H .rdata$CastGuardVftablesC DATA
 0002:00009ec0 00000590H .rdata$r                DATA
 0002:0000a450 000000c4H .rdata$sxdata           DATA
 0002:0000a514 000002ecH .rdata$zzzdbg           DATA
 0002:0000a800 00000004H .rtc$IAA                DATA
 0002:0000a804 00000004H .rtc$IZZ                DATA
 0002:0000a808 00000004H .rtc$TAA                DATA
 0002:0000a80c 00000004H .rtc$TZZ                DATA
 0002:0000a810 0000132cH .xdata$x                DATA
 0002:0000bb3c 00000000H .edata                  DATA
 0002:0000bb3c 000001a4H .idata$2                DATA
 0002:0000bce0 00000014H .idata$3                DATA
 0002:0000bcf4 000004a4H .idata$4                DATA
 0002:0000c198 000019aaH .idata$6                DATA
 0003:00000000 000007a4H .data                   DATA
 0003:000007a4 000000b4H .data$r                 DATA
 0003:00000858 00000398H .data$rs                DATA
 0003:00000bf0 000004d0H .bss                    DATA
 0004:00000000 00000060H .rsrc$01                DATA
 0004:00000060 00000188H .rsrc$02                DATA

  Address         Publics by Value              Rva+Base       Lib:Object

 0000:00000000       ___guard_eh_cont_table     00000000     <absolute>
 0000:00000000       ___hybrid_code_map         00000000     <absolute>
 0000:00000000       ___guard_iat_count         00000000     <absolute>
 0000:00000000       ___guard_fids_count        00000000     <absolute>
 0000:00000000       ___guard_longjmp_count     00000000     <absolute>
 0000:00000000       ___hybrid_code_map_count   00000000     <absolute>
 0000:00000000       ___arm64x_extra_rfe_table_size 00000000     <absolute>
 0000:00000000       ___arm64x_redirection_metadata 00000000     <absolute>
 0000:00000000       ___guard_check_icall_a64n_fptr 00000000     <absolute>
 0000:00000000       ___enclave_config          00000000     <absolute>
 0000:00000000       ___arm64x_redirection_metadata_count 00000000     <absolute>
 0000:00000000       ___x64_code_ranges_to_entry_points_count 00000000     <absolute>
 0000:00000000       ___guard_fids_table        00000000     <absolute>
 0000:00000000       ___arm64x_native_entrypoint 00000000     <absolute>
 0000:00000000       ___x64_code_ranges_to_entry_points 00000000     <absolute>
 0000:00000000       ___guard_iat_table         00000000     <absolute>
 0000:00000000       ___hybrid_auxiliary_iat    00000000     <absolute>
 0000:00000000       ___dynamic_value_reloc_table 00000000     <absolute>
 0000:00000000       ___AbsoluteZero            00000000     <absolute>
 0000:00000000       ___guard_eh_cont_count     00000000     <absolute>
 0000:00000000       ___guard_longjmp_table     00000000     <absolute>
 0000:00000000       ___volatile_metadata       00000000     <absolute>
 0000:00000000       ___hybrid_auxiliary_iat_copy 00000000     <absolute>
 0000:00000000       ___arm64x_extra_rfe_table  00000000     <absolute>
 0000:00000031       ___safe_se_handler_count   00000031     <absolute>
 0000:00000100       ___guard_flags             00000100     <absolute>
 0000:00000000       ___ImageBase               00400000     <linker-defined>
 0001:000009f0       _WinMain@16                004019f0 f   Main.obj
 0001:00000ea0       ?Render@@YAXXZ             00401ea0 f   Main.obj
 0001:00001480       ?WndProc@@YGJPAUHWND__@@IIJ@Z 00402480 f   Main.obj
 0001:000014d0       ___local_stdio_printf_options 004024d0 f i protect.obj
 0001:000014e0       __vsnprintf_l              004024e0 f i protect.obj
 0001:00001520       _sprintf                   00402520 f i protect.obj
 0001:00001540       ??0exception@std@@QAE@ABV01@@Z 00402540 f i protect.obj
 0001:00001570       ?what@exception@std@@UBEPBDXZ 00402570 f i protect.obj
 0001:00001580       ??_Gexception@std@@UAEPAXI@Z 00402580 f i protect.obj
 0001:00001580       ??_Gbad_alloc@std@@UAEPAXI@Z 00402580 f i protect.obj
 0001:00001580       ??_Ebad_array_new_length@std@@UAEPAXI@Z 00402580 f i * CIL library *:* CIL module *
 0001:00001580       ??_Eexception@std@@UAEPAXI@Z 00402580 f i * CIL library *:* CIL module *
 0001:00001580       ??_Gbad_array_new_length@std@@UAEPAXI@Z 00402580 f i protect.obj
 0001:00001580       ??_Ebad_alloc@std@@UAEPAXI@Z 00402580 f i * CIL library *:* CIL module *
 0001:00001580       ??_Ebad_cast@std@@UAEPAXI@Z 00402580 f i * CIL library *:* CIL module *
 0001:00001580       ??_Gbad_cast@std@@UAEPAXI@Z 00402580 f i systeminfo.obj
 0001:000015c0       ??1bad_array_new_length@std@@UAE@XZ 004025c0 f i protect.obj
 0001:000015c0       ??1bad_cast@std@@UAE@XZ    004025c0 f i systeminfo.obj
 0001:000015c0       ??1bad_alloc@std@@UAE@XZ   004025c0 f i protect.obj
 0001:000015e0       ??0bad_array_new_length@std@@QAE@XZ 004025e0 f i protect.obj
 0001:00001600       ?_Throw_bad_array_new_length@std@@YAXXZ 00402600 f i protect.obj
 0001:00001600       ?__scrt_throw_std_bad_array_new_length@@YAXXZ 00402600 f i MSVCRT:throw_bad_alloc.obj
 0001:00001620       ??0bad_array_new_length@std@@QAE@ABV01@@Z 00402620 f i protect.obj
 0001:00001660       ??0bad_alloc@std@@QAE@ABV01@@Z 00402660 f i protect.obj
 0001:000016a0       ?_Xlen_string@std@@YAXXZ   004026a0 f i protect.obj
 0001:000016b0       ?Gen@@YAKV?$basic_string@DU?$char_traits@D@std@@V?$allocator@D@2@@std@@@Z 004026b0 f   protect.obj
 0001:00001720       ?Gen@@YAKH@Z               00402720 f   protect.obj
 0001:00001830       ?KEY@@YA?AV?$basic_string@DU?$char_traits@D@std@@V?$allocator@D@2@@std@@XZ 00402830 f   protect.obj
 0001:00005080       ?write_to_string@@YAIPAXII0@Z 00406080 f   protect.obj
 0001:00005190       ?IsValidTime@@YA_NHHH@Z    00406190 f   protect.obj
 0001:00005430       ??1?$unique_ptr@VOSInfoDelegate@@U?$default_delete@VOSInfoDelegate@@@std@@@std@@QAE@XZ 00406430 f i protect.obj
 0001:00005450       ??1?$unique_ptr@VGPUInfoDelegate@@U?$default_delete@VGPUInfoDelegate@@@std@@@std@@QAE@XZ 00406450 f i protect.obj
 0001:00005470       ??1?$unique_ptr@VRAMInfoDelegate@@U?$default_delete@VRAMInfoDelegate@@@std@@@std@@QAE@XZ 00406470 f i protect.obj
 0001:00005490       ??1?$unique_ptr@VMotherboardInfoDelegate@@U?$default_delete@VMotherboardInfoDelegate@@@std@@@std@@QAE@XZ 00406490 f i protect.obj
 0001:000054b0       ??1?$unique_ptr@VCPUInfoDelegate@@U?$default_delete@VCPUInfoDelegate@@@std@@@std@@QAE@XZ 004064b0 f i protect.obj
 0001:000054d0       ??1?$vector@VRAMInfo@@V?$allocator@VRAMInfo@@@std@@@std@@QAE@XZ 004064d0 f i protect.obj
 0001:000054e0       ??1?$vector@VOSInfo@@V?$allocator@VOSInfo@@@std@@@std@@QAE@XZ 004064e0 f i protect.obj
 0001:000054f0       ??1?$vector@VMotherboardInfo@@V?$allocator@VMotherboardInfo@@@std@@@std@@QAE@XZ 004064f0 f i protect.obj
 0001:00005500       ??1?$vector@VGPUInfo@@V?$allocator@VGPUInfo@@@std@@@std@@QAE@XZ 00406500 f i protect.obj
 0001:00005510       ??1?$vector@VCPUInfo@@V?$allocator@VCPUInfo@@@std@@@std@@QAE@XZ 00406510 f i protect.obj
 0001:00005520       ?c_str@?$basic_string@DU?$char_traits@D@std@@V?$allocator@D@2@@std@@QBEPBDXZ 00406520 f i protect.obj
 0001:00005530       ??Y?$basic_string@DU?$char_traits@D@std@@V?$allocator@D@2@@std@@QAEAAV01@QBD@Z 00406530 f i protect.obj
 0001:00005530       ?append@?$basic_string@DU?$char_traits@D@std@@V?$allocator@D@2@@std@@QAEAAV12@QBD@Z 00406530 f i protect.obj
 0001:000055a0       ??1?$basic_string@DU?$char_traits@D@std@@V?$allocator@D@2@@std@@QAE@XZ 004065a0 f i protect.obj
 0001:000055f0       ??1sentry@?$basic_ostream@DU?$char_traits@D@std@@@std@@QAE@XZ 004065f0 f i protect.obj
 0001:00005660       ?_Tidy@?$vector@VRAMInfo@@V?$allocator@VRAMInfo@@@std@@@std@@AAEXXZ 00406660 f i protect.obj
 0001:000056f0       ?_Tidy@?$vector@VOSInfo@@V?$allocator@VOSInfo@@@std@@@std@@AAEXXZ 004066f0 f i protect.obj
 0001:00005780       ?_Tidy@?$vector@VMotherboardInfo@@V?$allocator@VMotherboardInfo@@@std@@@std@@AAEXXZ 00406780 f i protect.obj
 0001:00005800       ?_Tidy@?$vector@VGPUInfo@@V?$allocator@VGPUInfo@@@std@@@std@@AAEXXZ 00406800 f i protect.obj
 0001:00005890       ?_Tidy@?$vector@VCPUInfo@@V?$allocator@VCPUInfo@@@std@@@std@@AAEXXZ 00406890 f i protect.obj
 0001:00005920       ?assign@?$basic_string@DU?$char_traits@D@std@@V?$allocator@D@2@@std@@QAEAAV12@QBDI@Z 00406920 f i protect.obj
 0001:00005a60       ??1_Sentry_base@?$basic_ostream@DU?$char_traits@D@std@@@std@@QAE@XZ 00406a60 f i protect.obj
 0001:00005a60       ??1_Sentry_base@?$basic_istream@DU?$char_traits@D@std@@@std@@QAE@XZ 00406a60 f i systeminfo.obj
 0001:00005ab0       ?_Destroy@?$vector@VRAMInfo@@V?$allocator@VRAMInfo@@@std@@@std@@AAEXPAVRAMInfo@@0@Z 00406ab0 f i protect.obj
 0001:00005ae0       ?deallocate@?$allocator@VRAMInfo@@@std@@QAEXQAVRAMInfo@@I@Z 00406ae0 f i protect.obj
 0001:00005b20       ?_Destroy@?$vector@VOSInfo@@V?$allocator@VOSInfo@@@std@@@std@@AAEXPAVOSInfo@@0@Z 00406b20 f i protect.obj
 0001:00005b50       ?deallocate@?$allocator@VOSInfo@@@std@@QAEXQAVOSInfo@@I@Z 00406b50 f i protect.obj
 0001:00005b90       ?_Destroy@?$vector@VMotherboardInfo@@V?$allocator@VMotherboardInfo@@@std@@@std@@AAEXPAVMotherboardInfo@@0@Z 00406b90 f i protect.obj
 0001:00005bc0       ?deallocate@?$allocator@VMotherboardInfo@@@std@@QAEXQAVMotherboardInfo@@I@Z 00406bc0 f i protect.obj
 0001:00005c00       ?_Destroy@?$vector@VGPUInfo@@V?$allocator@VGPUInfo@@@std@@@std@@AAEXPAVGPUInfo@@0@Z 00406c00 f i protect.obj
 0001:00005c30       ?deallocate@?$allocator@VGPUInfo@@@std@@QAEXQAVGPUInfo@@I@Z 00406c30 f i protect.obj
 0001:00005c70       ?_Destroy@?$vector@VCPUInfo@@V?$allocator@VCPUInfo@@@std@@@std@@AAEXPAVCPUInfo@@0@Z 00406c70 f i protect.obj
 0001:00005ca0       ?deallocate@?$allocator@VCPUInfo@@@std@@QAEXQAVCPUInfo@@I@Z 00406ca0 f i protect.obj
 0001:00005ce0       ?_Xran@?$_String_val@U?$_Simple_types@D@std@@@std@@SAXXZ 00406ce0 f i protect.obj
 0001:00005cf0       ??$?6U?$char_traits@D@std@@@std@@YAAAV?$basic_ostream@DU?$char_traits@D@std@@@0@AAV10@PBD@Z 00406cf0 f i protect.obj
 0001:00005f30       ??$endl@DU?$char_traits@D@std@@@std@@YAAAV?$basic_ostream@DU?$char_traits@D@std@@@0@AAV10@@Z 00406f30 f i protect.obj
 0001:00005f60       ??$_Reallocate_grow_by@V<lambda_ab246b20b9526e2ef7792587e4298a77>@@PBDI@?$basic_string@DU?$char_traits@D@std@@V?$allocator@D@2@@std@@AAEAAV01@IV<lambda_ab246b20b9526e2ef7792587e4298a77>@@PBDI@Z 00406f60 f i protect.obj
 0001:000060c0       ??1RAMInfo@@QAE@XZ         004070c0 f i protect.obj
 0001:00006320       ??1OSInfo@@QAE@XZ          00407320 f i protect.obj
 0001:00006780       ??1MotherboardInfo@@QAE@XZ 00407780 f i protect.obj
 0001:000068e0       ??1GPUInfo@@QAE@XZ         004078e0 f i protect.obj
 0001:00006bf0       ??1CPUInfo@@QAE@XZ         00407bf0 f i protect.obj
 0001:00006da0       ??0bad_cast@std@@QAE@XZ    00407da0 f i systeminfo.obj
 0001:00006dc0       ?_Throw_bad_cast@std@@YAXXZ 00407dc0 f i systeminfo.obj
 0001:00006de0       ??0bad_cast@std@@QAE@ABV01@@Z 00407de0 f i systeminfo.obj
 0001:00006e20       ??1locale@std@@QAE@XZ      00407e20 f i systeminfo.obj
 0001:00006e40       ??0CPUInfo@@QAE@ABV?$vector@V?$basic_string@DU?$char_traits@D@std@@V?$allocator@D@2@@std@@V?$allocator@V?$basic_string@DU?$char_traits@D@std@@V?$allocator@D@2@@std@@@2@@std@@H@Z 00407e40 f   systeminfo.obj
 0001:000076f0       ??1SystemCommand@@QAE@XZ   004086f0 f i systeminfo.obj
 0001:00007790       ?getArchitecture@CPUInfo@@ABE?AV?$basic_string@DU?$char_traits@D@std@@V?$allocator@D@2@@std@@AAV23@@Z 00408790 f   systeminfo.obj
 0001:000078b0       ??0CPUInfoDelegate@@QAE@XZ 004088b0 f   systeminfo.obj
 0001:00007b80       ??0GPUInfo@@QAE@ABV?$vector@V?$basic_string@DU?$char_traits@D@std@@V?$allocator@D@2@@std@@V?$allocator@V?$basic_string@DU?$char_traits@D@std@@V?$allocator@D@2@@std@@@2@@std@@H@Z 00408b80 f   systeminfo.obj
 0001:00008b40       ?getVideoArchitecture@GPUInfo@@ABE?AV?$basic_string@DU?$char_traits@D@std@@V?$allocator@D@2@@std@@ABV23@@Z 00409b40 f   systeminfo.obj
 0001:00008d90       ?getVideoMemoryType@GPUInfo@@ABE?AV?$basic_string@DU?$char_traits@D@std@@V?$allocator@D@2@@std@@ABV23@@Z 00409d90 f   systeminfo.obj
 0001:00008f30       ??0GPUInfoDelegate@@QAE@XZ 00409f30 f   systeminfo.obj
 0001:00009200       ??0MotherboardInfo@@QAE@ABV?$vector@V?$basic_string@DU?$char_traits@D@std@@V?$allocator@D@2@@std@@V?$allocator@V?$basic_string@DU?$char_traits@D@std@@V?$allocator@D@2@@std@@@2@@std@@H@Z 0040a200 f   systeminfo.obj
 0001:00009630       ?determineChipset@MotherboardInfo@@AAEXXZ 0040a630 f   systeminfo.obj
 0001:00009870       ??0MotherboardInfoDelegate@@QAE@XZ 0040a870 f   systeminfo.obj
 0001:00009b40       ??0OSInfo@@QAE@ABV?$vector@V?$basic_string@DU?$char_traits@D@std@@V?$allocator@D@2@@std@@V?$allocator@V?$basic_string@DU?$char_traits@D@std@@V?$allocator@D@2@@std@@@2@@std@@H@Z 0040ab40 f   systeminfo.obj
 0001:0000b660       ?serialNumber@OSInfo@@QBE?AV?$basic_string@DU?$char_traits@D@std@@V?$allocator@D@2@@std@@XZ 0040c660 f   systeminfo.obj
 0001:0000b680       ?totalVirtualMemory@OSInfo@@QBE?AV?$basic_string@DU?$char_traits@D@std@@V?$allocator@D@2@@std@@XZ 0040c680 f   systeminfo.obj
 0001:0000b6a0       ?totalVisibleMemory@OSInfo@@QBE?AV?$basic_string@DU?$char_traits@D@std@@V?$allocator@D@2@@std@@XZ 0040c6a0 f   systeminfo.obj
 0001:0000b6c0       ?totalSwapSize@OSInfo@@QBE?AV?$basic_string@DU?$char_traits@D@std@@V?$allocator@D@2@@std@@XZ 0040c6c0 f   systeminfo.obj
 0001:0000b6e0       ??0OSInfoDelegate@@QAE@XZ  0040c6e0 f   systeminfo.obj
 0001:0000b9b0       ??0RAMInfo@@QAE@ABV?$vector@V?$basic_string@DU?$char_traits@D@std@@V?$allocator@D@2@@std@@V?$allocator@V?$basic_string@DU?$char_traits@D@std@@V?$allocator@D@2@@std@@@2@@std@@H@Z 0040c9b0 f   systeminfo.obj
 0001:0000ca80       ?getMemoryType@RAMInfo@@ABE?AV?$basic_string@DU?$char_traits@D@std@@V?$allocator@D@2@@std@@ABV23@@Z 0040da80 f   systeminfo.obj
 0001:0000cce0       ?getFormFactor@RAMInfo@@ABE?AV?$basic_string@DU?$char_traits@D@std@@V?$allocator@D@2@@std@@ABV23@@Z 0040dce0 f   systeminfo.obj
 0001:0000cf30       ??0RAMInfoDelegate@@QAE@XZ 0040df30 f   systeminfo.obj
 0001:0000d200       ?stripAllFromString@SystemCommand@@AAE?AV?$basic_string@DU?$char_traits@D@std@@V?$allocator@D@2@@std@@ABV23@0@Z 0040e200 f   systeminfo.obj
 0001:0000d390       ?stripFromString@SystemCommand@@AAE?AV?$basic_string@DU?$char_traits@D@std@@V?$allocator@D@2@@std@@ABV23@0@Z 0040e390 f   systeminfo.obj
 0001:0000d650       ?stripPipeFromCommand@SystemCommand@@AAEXXZ 0040e650 f   systeminfo.obj
 0001:0000d800       ?systemCommandLaunch@SystemCommand@@AAEX_N@Z 0040e800 f   systeminfo.obj
 0001:0000df50       ??1?$function@$$A6A?AV?$basic_string@DU?$char_traits@D@std@@V?$allocator@D@2@@std@@ABV12@@Z@std@@QAE@XZ 0040ef50 f i systeminfo.obj
 0001:0000df80       ??0?$vector@VRAMInfo@@V?$allocator@VRAMInfo@@@std@@@std@@QAE@ABV01@@Z 0040ef80 f i systeminfo.obj
 0001:0000e160       ??0?$vector@VMotherboardInfo@@V?$allocator@VMotherboardInfo@@@std@@@std@@QAE@ABV01@@Z 0040f160 f i systeminfo.obj
 0001:0000e300       ??0?$vector@VGPUInfo@@V?$allocator@VGPUInfo@@@std@@@std@@QAE@ABV01@@Z 0040f300 f i systeminfo.obj
 0001:0000e510       ??0?$vector@VCPUInfo@@V?$allocator@VCPUInfo@@@std@@@std@@QAE@ABV01@@Z 0040f510 f i systeminfo.obj
 0001:0000e6c0       ?seekpos@?$basic_stringbuf@DU?$char_traits@D@std@@V?$allocator@D@2@@std@@MAE?AV?$fpos@U_Mbstatet@@@2@V32@H@Z 0040f6c0 f i systeminfo.obj
 0001:0000e7d0       ?seekoff@?$basic_stringbuf@DU?$char_traits@D@std@@V?$allocator@D@2@@std@@MAE?AV?$fpos@U_Mbstatet@@@2@_JHH@Z 0040f7d0 f i systeminfo.obj
 0001:0000e960       ?underflow@?$basic_stringbuf@DU?$char_traits@D@std@@V?$allocator@D@2@@std@@MAEHXZ 0040f960 f i systeminfo.obj
 0001:0000e9c0       ?pbackfail@?$basic_stringbuf@DU?$char_traits@D@std@@V?$allocator@D@2@@std@@MAEHH@Z 0040f9c0 f i systeminfo.obj
 0001:0000ea20       ?overflow@?$basic_stringbuf@DU?$char_traits@D@std@@V?$allocator@D@2@@std@@MAEHH@Z 0040fa20 f i systeminfo.obj
 0001:0000ebe0       ??1?$basic_stringbuf@DU?$char_traits@D@std@@V?$allocator@D@2@@std@@UAE@XZ 0040fbe0 f i systeminfo.obj
 0001:0000ec90       ??1?$vector@V?$basic_string@DU?$char_traits@D@std@@V?$allocator@D@2@@std@@V?$allocator@V?$basic_string@DU?$char_traits@D@std@@V?$allocator@D@2@@std@@@2@@std@@QAE@XZ 0040fc90 f i systeminfo.obj
 0001:0000eca0       ??0?$vector@V?$basic_string@DU?$char_traits@D@std@@V?$allocator@D@2@@std@@V?$allocator@V?$basic_string@DU?$char_traits@D@std@@V?$allocator@D@2@@std@@@2@@std@@QAE@ABV01@@Z 0040fca0 f i systeminfo.obj
 0001:0000eda0       ?imbue@?$basic_filebuf@DU?$char_traits@D@std@@@std@@MAEXABVlocale@2@@Z 0040fda0 f i systeminfo.obj
 0001:0000eec0       ?sync@?$basic_filebuf@DU?$char_traits@D@std@@@std@@MAEHXZ 0040fec0 f i systeminfo.obj
 0001:0000eef0       ?setbuf@?$basic_filebuf@DU?$char_traits@D@std@@@std@@MAEPAV?$basic_streambuf@DU?$char_traits@D@std@@@2@PAD_J@Z 0040fef0 f i systeminfo.obj
 0001:0000efe0       ?seekpos@?$basic_filebuf@DU?$char_traits@D@std@@@std@@MAE?AV?$fpos@U_Mbstatet@@@2@V32@H@Z 0040ffe0 f i systeminfo.obj
 0001:0000f0c0       ?seekoff@?$basic_filebuf@DU?$char_traits@D@std@@@std@@MAE?AV?$fpos@U_Mbstatet@@@2@_JHH@Z 004100c0 f i systeminfo.obj
 0001:0000f1e0       ?xsputn@?$basic_filebuf@DU?$char_traits@D@std@@@std@@MAE_JPBD_J@Z 004101e0 f i systeminfo.obj
 0001:0000f2d0       ?xsgetn@?$basic_filebuf@DU?$char_traits@D@std@@@std@@MAE_JPAD_J@Z 004102d0 f i systeminfo.obj
 0001:0000f400       ?uflow@?$basic_filebuf@DU?$char_traits@D@std@@@std@@MAEHXZ 00410400 f i systeminfo.obj
 0001:0000f650       ?underflow@?$basic_filebuf@DU?$char_traits@D@std@@@std@@MAEHXZ 00410650 f i systeminfo.obj
 0001:0000f690       ?pbackfail@?$basic_filebuf@DU?$char_traits@D@std@@@std@@MAEHH@Z 00410690 f i systeminfo.obj
 0001:0000f740       ?overflow@?$basic_filebuf@DU?$char_traits@D@std@@@std@@MAEHH@Z 00410740 f i systeminfo.obj
 0001:0000f890       ?_Unlock@?$basic_filebuf@DU?$char_traits@D@std@@@std@@UAEXXZ 00410890 f i systeminfo.obj
 0001:0000f8a0       ?_Lock@?$basic_filebuf@DU?$char_traits@D@std@@@std@@UAEXXZ 004108a0 f i systeminfo.obj
 0001:0000f8b0       ??1?$basic_filebuf@DU?$char_traits@D@std@@@std@@UAE@XZ 004108b0 f i systeminfo.obj
 0001:0000f970       ??0?$basic_ifstream@DU?$char_traits@D@std@@@std@@QAE@XZ 00410970 f i systeminfo.obj
 0001:0000fa50       ?find@?$basic_string@DU?$char_traits@D@std@@V?$allocator@D@2@@std@@QBEIABV12@I@Z 00410a50 f i systeminfo.obj
 0001:0000fb70       ??4?$basic_string@DU?$char_traits@D@std@@V?$allocator@D@2@@std@@QAEAAV01@$$QAV01@@Z 00410b70 f i systeminfo.obj
 0001:0000fbf0       ??0?$basic_string@DU?$char_traits@D@std@@V?$allocator@D@2@@std@@QAE@ABV01@@Z 00410bf0 f i systeminfo.obj
 0001:0000fcc0       ??_E?$basic_stringbuf@DU?$char_traits@D@std@@V?$allocator@D@2@@std@@UAEPAXI@Z 00410cc0 f i * CIL library *:* CIL module *
 0001:0000fcc0       ??_G?$basic_stringbuf@DU?$char_traits@D@std@@V?$allocator@D@2@@std@@UAEPAXI@Z 00410cc0 f i systeminfo.obj
 0001:0000fcf0       ??_E?$basic_stringstream@DU?$char_traits@D@std@@V?$allocator@D@2@@std@@UAEPAXI@Z 00410cf0 f i * CIL library *:* CIL module *
 0001:0000fcf0       ??_G?$basic_stringstream@DU?$char_traits@D@std@@V?$allocator@D@2@@std@@UAEPAXI@Z 00410cf0 f i systeminfo.obj
 0001:0000fd50       ??_E?$basic_filebuf@DU?$char_traits@D@std@@@std@@UAEPAXI@Z 00410d50 f i * CIL library *:* CIL module *
 0001:0000fd50       ??_G?$basic_filebuf@DU?$char_traits@D@std@@@std@@UAEPAXI@Z 00410d50 f i systeminfo.obj
 0001:0000fd80       ??_G?$basic_ifstream@DU?$char_traits@D@std@@@std@@UAEPAXI@Z 00410d80 f i systeminfo.obj
 0001:0000fd80       ??_E?$basic_ifstream@DU?$char_traits@D@std@@@std@@UAEPAXI@Z 00410d80 f i * CIL library *:* CIL module *
 0001:0000fde0       ??_D?$basic_stringstream@DU?$char_traits@D@std@@V?$allocator@D@2@@std@@QAEXXZ 00410de0 f i systeminfo.obj
 0001:0000fe20       ??1?$_Tidy_guard@V?$vector@V?$basic_string@DU?$char_traits@D@std@@V?$allocator@D@2@@std@@V?$allocator@V?$basic_string@DU?$char_traits@D@std@@V?$allocator@D@2@@std@@@2@@std@@@std@@QAE@XZ 00410e20 f i systeminfo.obj
 0001:0000fe30       ??1?$_Tidy_guard@V?$vector@VCPUInfo@@V?$allocator@VCPUInfo@@@std@@@std@@@std@@QAE@XZ 00410e30 f i systeminfo.obj
 0001:0000fe40       ??1?$_Tidy_guard@V?$vector@VGPUInfo@@V?$allocator@VGPUInfo@@@std@@@std@@@std@@QAE@XZ 00410e40 f i systeminfo.obj
 0001:0000fe50       ??1?$_Tidy_guard@V?$vector@VMotherboardInfo@@V?$allocator@VMotherboardInfo@@@std@@@std@@@std@@QAE@XZ 00410e50 f i systeminfo.obj
 0001:0000fe60       ??1?$_Tidy_guard@V?$vector@VOSInfo@@V?$allocator@VOSInfo@@@std@@@std@@@std@@QAE@XZ 00410e60 f i systeminfo.obj
 0001:0000fe70       ??1?$_Tidy_guard@V?$vector@VRAMInfo@@V?$allocator@VRAMInfo@@@std@@@std@@@std@@QAE@XZ 00410e70 f i systeminfo.obj
 0001:0000fe80       ?_Tidy@?$vector@V?$basic_string@DU?$char_traits@D@std@@V?$allocator@D@2@@std@@V?$allocator@V?$basic_string@DU?$char_traits@D@std@@V?$allocator@D@2@@std@@@2@@std@@AAEXXZ 00410e80 f i systeminfo.obj
 0001:0000ff00       ?_Destroy@?$vector@V?$basic_string@DU?$char_traits@D@std@@V?$allocator@D@2@@std@@V?$allocator@V?$basic_string@DU?$char_traits@D@std@@V?$allocator@D@2@@std@@@2@@std@@AAEXPAV?$basic_string@DU?$char_traits@D@std@@V?$allocator@D@2@@2@0@Z 00410f00 f i systeminfo.obj
 0001:0000ff20       ?_Endwrite@?$basic_filebuf@DU?$char_traits@D@std@@@std@@IAE_NXZ 00410f20 f i systeminfo.obj
 0001:0000fff0       ?allocate@?$allocator@V?$basic_string@DU?$char_traits@D@std@@V?$allocator@D@2@@std@@@std@@QAEPAV?$basic_string@DU?$char_traits@D@std@@V?$allocator@D@2@@2@I@Z 00410ff0 f i systeminfo.obj
 0001:00010050       ?deallocate@?$allocator@V?$basic_string@DU?$char_traits@D@std@@V?$allocator@D@2@@std@@@std@@QAEXQAV?$basic_string@DU?$char_traits@D@std@@V?$allocator@D@2@@2@I@Z 00411050 f i systeminfo.obj
 0001:00010090       ??$use_facet@V?$ctype@D@std@@@std@@YAABV?$ctype@D@0@ABVlocale@0@@Z 00411090 f i systeminfo.obj
 0001:00010190       ??$?HDU?$char_traits@D@std@@V?$allocator@D@1@@std@@YA?AV?$basic_string@DU?$char_traits@D@std@@V?$allocator@D@2@@0@ABV10@QBD@Z 00411190 f i systeminfo.obj
 0001:000102b0       ??$?8DU?$char_traits@D@std@@V?$allocator@D@1@@std@@YA_NABV?$basic_string@DU?$char_traits@D@std@@V?$allocator@D@2@@0@QBD@Z 004112b0 f i systeminfo.obj
 0001:00010340       ??$_Emplace_reallocate@AAV?$vector@V?$basic_string@DU?$char_traits@D@std@@V?$allocator@D@2@@std@@V?$allocator@V?$basic_string@DU?$char_traits@D@std@@V?$allocator@D@2@@std@@@2@@std@@AAH@?$vector@VCPUInfo@@V?$allocator@VCPUInfo@@@std@@@std@@QAEPAVCPUInfo@@QAV2@AAV?$vector@V?$basic_string@DU?$char_traits@D@std@@V?$allocator@D@2@@std@@V?$allocator@V?$basic_string@DU?$char_traits@D@std@@V?$allocator@D@2@@std@@@2@@1@AAH@Z 00411340 f i systeminfo.obj
 0001:00010590       ??$toString@_J@OSInfo@@ABE?AV?$basic_string@DU?$char_traits@D@std@@V?$allocator@D@2@@std@@AB_J@Z 00411590 f i systeminfo.obj
 0001:00010590       ??$toString@_J@GPUInfo@@ABE?AV?$basic_string@DU?$char_traits@D@std@@V?$allocator@D@2@@std@@AB_J@Z 00411590 f i systeminfo.obj
 0001:00010590       ??$toString@_J@RAMInfo@@ABE?AV?$basic_string@DU?$char_traits@D@std@@V?$allocator@D@2@@std@@AB_J@Z 00411590 f i systeminfo.obj
 0001:00010730       ??$_Emplace_reallocate@AAV?$vector@V?$basic_string@DU?$char_traits@D@std@@V?$allocator@D@2@@std@@V?$allocator@V?$basic_string@DU?$char_traits@D@std@@V?$allocator@D@2@@std@@@2@@std@@AAH@?$vector@VGPUInfo@@V?$allocator@VGPUInfo@@@std@@@std@@QAEPAVGPUInfo@@QAV2@AAV?$vector@V?$basic_string@DU?$char_traits@D@std@@V?$allocator@D@2@@std@@V?$allocator@V?$basic_string@DU?$char_traits@D@std@@V?$allocator@D@2@@std@@@2@@1@AAH@Z 00411730 f i systeminfo.obj
 0001:00010980       ??$_Emplace_reallocate@AAV?$vector@V?$basic_string@DU?$char_traits@D@std@@V?$allocator@D@2@@std@@V?$allocator@V?$basic_string@DU?$char_traits@D@std@@V?$allocator@D@2@@std@@@2@@std@@AAH@?$vector@VMotherboardInfo@@V?$allocator@VMotherboardInfo@@@std@@@std@@QAEPAVMotherboardInfo@@QAV2@AAV?$vector@V?$basic_string@DU?$char_traits@D@std@@V?$allocator@D@2@@std@@V?$allocator@V?$basic_string@DU?$char_traits@D@std@@V?$allocator@D@2@@std@@@2@@1@AAH@Z 00411980 f i systeminfo.obj
 0001:00010ba0       ??$_Emplace_reallocate@AAV?$vector@V?$basic_string@DU?$char_traits@D@std@@V?$allocator@D@2@@std@@V?$allocator@V?$basic_string@DU?$char_traits@D@std@@V?$allocator@D@2@@std@@@2@@std@@AAH@?$vector@VOSInfo@@V?$allocator@VOSInfo@@@std@@@std@@QAEPAVOSInfo@@QAV2@AAV?$vector@V?$basic_string@DU?$char_traits@D@std@@V?$allocator@D@2@@std@@V?$allocator@V?$basic_string@DU?$char_traits@D@std@@V?$allocator@D@2@@std@@@2@@1@AAH@Z 00411ba0 f i systeminfo.obj
 0001:00010e50       ??$_Emplace_reallocate@AAV?$vector@V?$basic_string@DU?$char_traits@D@std@@V?$allocator@D@2@@std@@V?$allocator@V?$basic_string@DU?$char_traits@D@std@@V?$allocator@D@2@@std@@@2@@std@@AAH@?$vector@VRAMInfo@@V?$allocator@VRAMInfo@@@std@@@std@@QAEPAVRAMInfo@@QAV2@AAV?$vector@V?$basic_string@DU?$char_traits@D@std@@V?$allocator@D@2@@std@@V?$allocator@V?$basic_string@DU?$char_traits@D@std@@V?$allocator@D@2@@std@@@2@@1@AAH@Z 00411e50 f i systeminfo.obj
 0001:000110a0       ??$_Emplace_reallocate@V?$basic_string@DU?$char_traits@D@std@@V?$allocator@D@2@@std@@@?$vector@V?$basic_string@DU?$char_traits@D@std@@V?$allocator@D@2@@std@@V?$allocator@V?$basic_string@DU?$char_traits@D@std@@V?$allocator@D@2@@std@@@2@@std@@QAEPAV?$basic_string@DU?$char_traits@D@std@@V?$allocator@D@2@@1@QAV21@$$QAV21@@Z 004120a0 f i systeminfo.obj
 0001:00011230       ??$_Emplace_reallocate@ABV?$basic_string@DU?$char_traits@D@std@@V?$allocator@D@2@@std@@@?$vector@V?$basic_string@DU?$char_traits@D@std@@V?$allocator@D@2@@std@@V?$allocator@V?$basic_string@DU?$char_traits@D@std@@V?$allocator@D@2@@std@@@2@@std@@QAEPAV?$basic_string@DU?$char_traits@D@std@@V?$allocator@D@2@@1@QAV21@ABV21@@Z 00412230 f i systeminfo.obj
 0001:000113f0       ??$_Destroy_range@V?$allocator@V?$basic_string@DU?$char_traits@D@std@@V?$allocator@D@2@@std@@@std@@@std@@YAXPAV?$basic_string@DU?$char_traits@D@std@@V?$allocator@D@2@@0@QAV10@AAV?$allocator@V?$basic_string@DU?$char_traits@D@std@@V?$allocator@D@2@@std@@@0@@Z 004123f0 f i systeminfo.obj
 0001:00011460       ??$_Reallocate_grow_by@V<lambda_15711c68e099a15a58f4d77303cb286d>@@D@?$basic_string@DU?$char_traits@D@std@@V?$allocator@D@2@@std@@AAEAAV01@IV<lambda_15711c68e099a15a58f4d77303cb286d>@@D@Z 00412460 f i systeminfo.obj
 0001:000115a0       ??1?$unique_ptr@V_Facet_base@std@@U?$default_delete@V_Facet_base@std@@@2@@std@@QAE@XZ 004125a0 f i systeminfo.obj
 0001:000115b0       ?_Xlength@?$vector@VMotherboardInfo@@V?$allocator@VMotherboardInfo@@@std@@@std@@CAXXZ 004125b0 f i systeminfo.obj
 0001:000115b0       ?_Xlength@?$vector@VRAMInfo@@V?$allocator@VRAMInfo@@@std@@@std@@CAXXZ 004125b0 f i systeminfo.obj
 0001:000115b0       ?_Xlength@?$vector@V?$basic_string@DU?$char_traits@D@std@@V?$allocator@D@2@@std@@V?$allocator@V?$basic_string@DU?$char_traits@D@std@@V?$allocator@D@2@@std@@@2@@std@@CAXXZ 004125b0 f i systeminfo.obj
 0001:000115b0       ?_Xlength@?$vector@VGPUInfo@@V?$allocator@VGPUInfo@@@std@@@std@@CAXXZ 004125b0 f i systeminfo.obj
 0001:000115b0       ?_Xlength@?$vector@VOSInfo@@V?$allocator@VOSInfo@@@std@@@std@@CAXXZ 004125b0 f i systeminfo.obj
 0001:000115b0       ?_Xlength@?$vector@VCPUInfo@@V?$allocator@VCPUInfo@@@std@@@std@@CAXXZ 004125b0 f i systeminfo.obj
 0001:000115c0       ??0?$basic_string@DU?$char_traits@D@std@@V?$allocator@D@2@@std@@QAE@U_String_constructor_concat_tag@1@AAV01@1@Z 004125c0 f i systeminfo.obj
 0001:000117a0       ??$_Insert_string@DU?$char_traits@D@std@@I@std@@YAAAV?$basic_ostream@DU?$char_traits@D@std@@@0@AAV10@QBDI@Z 004127a0 f i systeminfo.obj
 0001:000119a0       ??$_Uninitialized_copy@PAVOSInfo@@V?$allocator@VOSInfo@@@std@@@std@@YAPAVOSInfo@@QAV1@0PAV1@AAV?$allocator@VOSInfo@@@0@@Z 004129a0 f i systeminfo.obj
 0001:00011b50       ??$_Uninitialized_move@PAVRAMInfo@@V?$allocator@VRAMInfo@@@std@@@std@@YAPAVRAMInfo@@QAV1@0PAV1@AAV?$allocator@VRAMInfo@@@0@@Z 00412b50 f i systeminfo.obj
 0001:00011da0       ??$_Uninitialized_move@PAVMotherboardInfo@@V?$allocator@VMotherboardInfo@@@std@@@std@@YAPAVMotherboardInfo@@QAV1@0PAV1@AAV?$allocator@VMotherboardInfo@@@0@@Z 00412da0 f i systeminfo.obj
 0001:00011f00       ??$_Uninitialized_move@PAVGPUInfo@@V?$allocator@VGPUInfo@@@std@@@std@@YAPAVGPUInfo@@QAV1@0PAV1@AAV?$allocator@VGPUInfo@@@0@@Z 00412f00 f i systeminfo.obj
 0001:00012170       ??$_Uninitialized_move@PAVCPUInfo@@V?$allocator@VCPUInfo@@@std@@@std@@YAPAVCPUInfo@@QAV1@0PAV1@AAV?$allocator@VCPUInfo@@@0@@Z 00413170 f i systeminfo.obj
 0001:00012330       ??$_Uninitialized_move@PAV?$basic_string@DU?$char_traits@D@std@@V?$allocator@D@2@@std@@V?$allocator@V?$basic_string@DU?$char_traits@D@std@@V?$allocator@D@2@@std@@@2@@std@@YAPAV?$basic_string@DU?$char_traits@D@std@@V?$allocator@D@2@@0@QAV10@0PAV10@AAV?$allocator@V?$basic_string@DU?$char_traits@D@std@@V?$allocator@D@2@@std@@@0@@Z 00413330 f i systeminfo.obj
 0001:00012390       ??1?$_Uninitialized_backout_al@V?$allocator@V?$basic_string@DU?$char_traits@D@std@@V?$allocator@D@2@@std@@@std@@@std@@QAE@XZ 00413390 f i systeminfo.obj
 0001:000123a0       ??1?$_Uninitialized_backout_al@V?$allocator@VCPUInfo@@@std@@@std@@QAE@XZ 004133a0 f i systeminfo.obj
 0001:000123d0       ??1?$_Uninitialized_backout_al@V?$allocator@VGPUInfo@@@std@@@std@@QAE@XZ 004133d0 f i systeminfo.obj
 0001:00012400       ??1?$_Uninitialized_backout_al@V?$allocator@VMotherboardInfo@@@std@@@std@@QAE@XZ 00413400 f i systeminfo.obj
 0001:00012430       ??1?$_Uninitialized_backout_al@V?$allocator@VOSInfo@@@std@@@std@@QAE@XZ 00413430 f i systeminfo.obj
 0001:00012460       ??1?$_Uninitialized_backout_al@V?$allocator@VRAMInfo@@@std@@@std@@QAE@XZ 00413460 f i systeminfo.obj
 0001:00012500       ??$?5DU?$char_traits@D@std@@V?$allocator@D@1@@std@@YAAAV?$basic_istream@DU?$char_traits@D@std@@@0@$$QAV10@AAV?$basic_string@DU?$char_traits@D@std@@V?$allocator@D@2@@0@@Z 00413500 f i systeminfo.obj
 0001:00012700       ??1sentry@?$basic_istream@DU?$char_traits@D@std@@@std@@QAE@XZ 00413700 f i systeminfo.obj
 0001:00012760       ??0OSInfo@@QAE@$$QAV0@@Z   00413760 f i systeminfo.obj
 0001:00012b1b       ??_E?$basic_stringstream@DU?$char_traits@D@std@@V?$allocator@D@2@@std@@$4PPPPPPPM@A@AEPAXI@Z 00413b1b f i systeminfo.obj
 0001:00012b23       ??_E?$basic_ifstream@DU?$char_traits@D@std@@@std@@$4PPPPPPPM@A@AEPAXI@Z 00413b23 f i systeminfo.obj
 0001:00012b2b       ??1_Fac_node@std@@QAE@XZ   00413b2b f i msvcprt:locale0_implib.obj
 0001:00012b5c       ??1_Fac_tidy_reg_t@std@@QAE@XZ 00413b5c f i msvcprt:locale0_implib.obj
 0001:00012b83       ?_Facet_Register@std@@YAXPAV_Facet_base@1@@Z 00413b83 f   msvcprt:locale0_implib.obj
 0001:00012baf       ?_Lock@?$basic_streambuf@DU?$char_traits@D@std@@@std@@UAEXXZ 00413baf f   msvcprt:MSVCP140.dll
 0001:00012bb5       ?_Unlock@?$basic_streambuf@DU?$char_traits@D@std@@@std@@UAEXXZ 00413bb5 f   msvcprt:MSVCP140.dll
 0001:00012bbb       ?showmanyc@?$basic_streambuf@DU?$char_traits@D@std@@@std@@MAE_JXZ 00413bbb f   msvcprt:MSVCP140.dll
 0001:00012bc1       ?uflow@?$basic_streambuf@DU?$char_traits@D@std@@@std@@MAEHXZ 00413bc1 f   msvcprt:MSVCP140.dll
 0001:00012bc7       ?xsgetn@?$basic_streambuf@DU?$char_traits@D@std@@@std@@MAE_JPAD_J@Z 00413bc7 f   msvcprt:MSVCP140.dll
 0001:00012bcd       ?xsputn@?$basic_streambuf@DU?$char_traits@D@std@@@std@@MAE_JPBD_J@Z 00413bcd f   msvcprt:MSVCP140.dll
 0001:00012bd3       ?setbuf@?$basic_streambuf@DU?$char_traits@D@std@@@std@@MAEPAV12@PAD_J@Z 00413bd3 f   msvcprt:MSVCP140.dll
 0001:00012bd9       ?sync@?$basic_streambuf@DU?$char_traits@D@std@@@std@@MAEHXZ 00413bd9 f   msvcprt:MSVCP140.dll
 0001:00012bdf       ?imbue@?$basic_streambuf@DU?$char_traits@D@std@@@std@@MAEXABVlocale@2@@Z 00413bdf f   msvcprt:MSVCP140.dll
 0001:00012be5       @__security_check_cookie@4 00413be5 f   MSVCRT:secchk.obj
 0001:00012bf6       ??2@YAPAXI@Z               00413bf6 f   MSVCRT:new_scalar.obj
 0001:00012c26       ??3@YAXPAXI@Z              00413c26 f   MSVCRT:delete_scalar_size.obj
 0001:00012c34       ??_Etype_info@@UAEPAXI@Z   00413c34 f i MSVCRT:std_type_info_static.obj
 0001:00012c34       ??_Gtype_info@@UAEPAXI@Z   00413c34 f i MSVCRT:std_type_info_static.obj
 0001:00012c57       ??_M@YGXPAXIIP6EX0@Z@Z     00413c57 f   MSVCRT:ehvecdtr.obj
 0001:00012cdc       ?__ArrayUnwind@@YGXPAXIIP6EX0@Z@Z 00413cdc f   MSVCRT:ehvecdtr.obj
 0001:00012db0       ___scrt_acquire_startup_lock 00413db0 f   MSVCRT:utility.obj
 0001:00012de2       ___scrt_initialize_crt     00413de2 f   MSVCRT:utility.obj
 0001:00012e1b       ___scrt_initialize_onexit_tables 00413e1b f   MSVCRT:utility.obj
 0001:00012ea2       ___scrt_is_nonwritable_in_current_image 00413ea2 f   MSVCRT:utility.obj
 0001:00012f36       ___scrt_release_startup_lock 00413f36 f   MSVCRT:utility.obj
 0001:00012f53       ___scrt_uninitialize_crt   00413f53 f   MSVCRT:utility.obj
 0001:00012f7b       __onexit                   00413f7b f   MSVCRT:utility.obj
 0001:00012fa8       _atexit                    00413fa8 f   MSVCRT:utility.obj
 0001:000131fe       _WinMainCRTStartup         004141fe f   MSVCRT:exe_winmain.obj
 0001:00013208       __initialize_invalid_parameter_handler 00414208 f i MSVCRT:invalid_parameter_handler.obj
 0001:00013208       @_guard_check_icall_nop@4  00414208 f i MSVCRT:guard_support.obj
 0001:00013208       __initialize_denormal_control 00414208 f i MSVCRT:denormal_control.obj
 0001:0001320b       ___raise_securityfailure   0041420b f   MSVCRT:gs_report.obj
 0001:00013233       ___report_gsfailure        00414233 f   MSVCRT:gs_report.obj
 0001:0001332d       ___report_rangecheckfailure 0041432d f   MSVCRT:gs_report.obj
 0001:00013339       ___report_securityfailure  00414339 f   MSVCRT:gs_report.obj
 0001:00013408       ??0bad_alloc@std@@QAE@XZ   00414408 f i MSVCRT:throw_bad_alloc.obj
 0001:00013420       ?__scrt_throw_std_bad_alloc@@YAXXZ 00414420 f   MSVCRT:throw_bad_alloc.obj
 0001:0001343d       ??3@YAXPAX@Z               0041443d f   MSVCRT:delete_scalar.obj
 0001:00013450       __SEH_prolog4              00414450 f   MSVCRT:sehprolg4.obj
 0001:00013496       __except_handler4          00414496 f   MSVCRT:chandler4gs.obj
 0001:000134c5       ___isa_available_init      004144c5 f   MSVCRT:cpu_disp.obj
 0001:00013696       __get_startup_argv_mode    00414696 f   MSVCRT:argv_mode.obj
 0001:0001369a       ___scrt_is_ucrt_dll_in_use 0041469a f   MSVCRT:ucrt_detection.obj
 0001:000136a6       ___scrt_fastfail           004146a6 f   MSVCRT:utility_desktop.obj
 0001:000137c1       ___scrt_get_show_window_mode 004147c1 f   MSVCRT:utility_desktop.obj
 0001:000137f2       ___scrt_initialize_mta     004147f2 f   MSVCRT:utility_desktop.obj
 0001:00013800       _Curl_if2ip                00414800 f   libcurl:if2ip.obj
 0001:00013800       __matherr                  00414800 f   MSVCRT:matherr.obj
 0001:00013800       _Curl_ssl_backend          00414800 f   libcurl:vtls.obj
 0001:00013800       __get_startup_new_mode     00414800 f   MSVCRT:new_mode.obj
 0001:00013800       ___scrt_exe_initialize_mta 00414800 f   MSVCRT:utility_desktop.obj
 0001:00013800       __get_startup_thread_locale_mode 00414800 f   MSVCRT:thread_locale.obj
 0001:00013800       __get_startup_commit_mode  00414800 f   MSVCRT:commit_mode.obj
 0001:00013800       ___scrt_initialize_winrt   00414800 f   MSVCRT:utility_desktop.obj
 0001:00013800       _Curl_resolver_global_init 00414800 f   libcurl:asyn-thread.obj
 0001:00013800       _Curl_posttransfer         00414800 f   libcurl:transfer.obj
 0001:00013800       ___scrt_stub_for_initialize_mta 00414800 f   MSVCRT:utility_desktop.obj
 0001:00013803       ___scrt_is_managed_app     00414803 f   MSVCRT:utility_desktop.obj
 0001:00013846       ___scrt_set_unhandled_exception_filter 00414846 f   MSVCRT:utility_desktop.obj
 0001:00013852       ___scrt_unhandled_exception_filter@4 00414852 f   MSVCRT:utility_desktop.obj
 0001:000138a8       __crt_debugger_hook        004148a8 f   MSVCRT:utility_desktop.obj
 0001:000138fd       ___security_init_cookie    004148fd f   MSVCRT:gs_support.obj
 0001:00013948       __get_startup_file_mode    00414948 f   MSVCRT:file_mode.obj
 0001:0001394e       ?__scrt_initialize_type_info@@YAXXZ 0041494e f   MSVCRT:tncleanup.obj
 0001:00013960       ___vcrt_uninitialize       00414960 f   MSVCRT:ucrt_stubs.obj
 0001:00013960       __should_initialize_environment 00414960 f   MSVCRT:env_mode.obj
 0001:00013960       _Curl_auth_is_digest_supported 00414960 f   libcurl:digest.obj
 0001:00013960       ___scrt_stub_for_acrt_initialize 00414960 f   MSVCRT:ucrt_stubs.obj
 0001:00013960       ___scrt_stub_for_acrt_uninitialize 00414960 f   MSVCRT:ucrt_stubs.obj
 0001:00013960       ___acrt_uninitialize       00414960 f   MSVCRT:ucrt_stubs.obj
 0001:00013960       ___acrt_initialize         00414960 f   MSVCRT:ucrt_stubs.obj
 0001:00013960       ___vcrt_initialize         00414960 f   MSVCRT:ucrt_stubs.obj
 0001:00013960       _Curl_auth_is_ntlm_supported 00414960 f   libcurl:ntlm.obj
 0001:00013963       __initialize_default_precision 00414963 f   MSVCRT:default_precision.obj
 0001:00013984       ___local_stdio_scanf_options 00414984 f i MSVCRT:default_local_stdio_options.obj
 0001:0001398a       ___scrt_initialize_default_local_stdio_options 0041498a f   MSVCRT:default_local_stdio_options.obj
 0001:000139a7       ___scrt_is_user_matherr_present 004149a7 f   MSVCRT:matherr_detection.obj
 0001:000139b3       ___scrt_get_dyn_tls_init_callback 004149b3 f   MSVCRT:dyn_tls_init.obj
 0001:000139b9       ___scrt_get_dyn_tls_dtor_callback 004149b9 f   MSVCRT:dyn_tls_dtor.obj
 0001:000139bf       __RTC_Initialize           004149bf f   MSVCRT:initsect.obj
 0001:000139eb       __RTC_Terminate            004149eb f   MSVCRT:initsect.obj
 0001:00013a20       _curl_easy_cleanup         00414a20 f   libcurl:easy.obj
 0001:00013a40       _curl_easy_init            00414a40 f   libcurl:easy.obj
 0001:00013a80       _curl_easy_perform         00414a80 f   libcurl:easy.obj
 0001:00013aa0       _curl_global_init          00414aa0 f   libcurl:easy.obj
 0001:00013cc0       _Curl_setblobopt           00414cc0 f   libcurl:setopt.obj
 0001:00013d60       _Curl_setstropt            00414d60 f   libcurl:setopt.obj
 0001:00013dd0       _Curl_vsetopt              00414dd0 f   libcurl:setopt.obj
 0001:00016a40       _curl_easy_setopt          00417a40 f   libcurl:setopt.obj
 0001:00016b30       _Curl_slist_append_nodup   00417b30 f   libcurl:slist.obj
 0001:00016b70       _curl_slist_append         00417b70 f   libcurl:slist.obj
 0001:00016bb0       _curl_slist_free_all       00417bb0 f   libcurl:slist.obj
 0001:00016c10       _Curl_attach_connnection   00417c10 f   libcurl:multi.obj
 0001:00016c40       _Curl_detach_connnection   00417c40 f   libcurl:multi.obj
 0001:00016c70       _Curl_expire               00417c70 f   libcurl:multi.obj
 0001:00016dd0       _Curl_expire_clear         00417dd0 f   libcurl:multi.obj
 0001:00016e70       _Curl_expire_done          00417e70 f   libcurl:multi.obj
 0001:00016e80       _Curl_multi_closed         00417e80 f   libcurl:multi.obj
 0001:00016ee0       _Curl_multi_handle         00417ee0 f   libcurl:multi.obj
 0001:00017030       _Curl_multi_max_host_connections 00418030 f   libcurl:multi.obj
 0001:00017050       _Curl_multi_max_total_connections 00418050 f   libcurl:multi.obj
 0001:00017070       _Curl_multiplex_wanted     00418070 f   libcurl:multi.obj
 0001:00017090       _Curl_preconnect           00418090 f   libcurl:multi.obj
 0001:000170d0       _Curl_set_in_callback      004180d0 f   libcurl:multi.obj
 0001:00017100       _Curl_update_timer         00418100 f   libcurl:multi.obj
 0001:00017330       _curl_multi_add_handle     00418330 f   libcurl:multi.obj
 0001:000174c0       _curl_multi_cleanup        004184c0 f   libcurl:multi.obj
 0001:000175c0       _curl_multi_info_read      004185c0 f   libcurl:multi.obj
 0001:00017630       _curl_multi_perform        00418630 f   libcurl:multi.obj
 0001:00017740       _curl_multi_poll           00418740 f   libcurl:multi.obj
 0001:00017760       _curl_multi_remove_handle  00418760 f   libcurl:multi.obj
 0001:00017930       _curl_multi_setopt         00418930 f   libcurl:multi.obj
 0001:00017aa0       _curl_multi_timeout        00418aa0 f   libcurl:multi.obj
 0001:000196d0       _Curl_resolver_cleanup     0041a6d0 f   libcurl:asyn-thread.obj
 0001:00019a10       _Curl_free_idnconverted_hostname 0041aa10 f   libcurl:url.obj
 0001:00019ab0       _Curl_cookie_add           0041aab0 f   libcurl:cookie.obj
 0001:0001a7e0       _Curl_cookie_cleanup       0041b7e0 f   libcurl:cookie.obj
 0001:0001a830       _Curl_cookie_clearall      0041b830 f   libcurl:cookie.obj
 0001:0001a870       _Curl_cookie_clearsess     0041b870 f   libcurl:cookie.obj
 0001:0001a8f0       _Curl_cookie_freelist      0041b8f0 f   libcurl:cookie.obj
 0001:0001a920       _Curl_cookie_getlist       0041b920 f   libcurl:cookie.obj
 0001:0001aa90       _Curl_cookie_init          0041ba90 f   libcurl:cookie.obj
 0001:0001ac70       _Curl_cookie_loadfiles     0041bc70 f   libcurl:cookie.obj
 0001:0001acf0       _Curl_flush_cookies        0041bcf0 f   libcurl:cookie.obj
 0001:0001b740       _sscanf                    0041c740 f i libcurl:cookie.obj
 0001:0001b7f0       _Curl_resolver_cancel      0041c7f0 f   libcurl:asyn-thread.obj
 0001:0001b800       _Curl_resolver_getaddrinfo 0041c800 f   libcurl:asyn-thread.obj
 0001:0001b8c0       _Curl_resolver_getsock     0041c8c0 f   libcurl:asyn-thread.obj
 0001:0001b980       _Curl_resolver_init        0041c980 f   libcurl:asyn-thread.obj
 0001:0001b9b0       _Curl_resolver_is_resolved 0041c9b0 f   libcurl:asyn-thread.obj
 0001:0001bb00       _Curl_resolver_kill        0041cb00 f   libcurl:asyn-thread.obj
 0001:0001bb30       _Curl_resolver_wait_resolv 0041cb30 f   libcurl:asyn-thread.obj
 0001:0001bfc0       _Curl_dyn_add              0041cfc0 f   libcurl:dynbuf.obj
 0001:0001bff0       _Curl_dyn_addf             0041cff0 f   libcurl:dynbuf.obj
 0001:0001c010       _Curl_dyn_addn             0041d010 f   libcurl:dynbuf.obj
 0001:0001c020       _Curl_dyn_free             0041d020 f   libcurl:dynbuf.obj
 0001:0001c050       _Curl_dyn_init             0041d050 f   libcurl:dynbuf.obj
 0001:0001c080       _Curl_dyn_len              0041d080 f   libcurl:dynbuf.obj
 0001:0001c090       _Curl_dyn_uptr             0041d090 f   libcurl:dynbuf.obj
 0001:0001c090       _Curl_dyn_ptr              0041d090 f   libcurl:dynbuf.obj
 0001:0001c0a0       _Curl_dyn_reset            0041d0a0 f   libcurl:dynbuf.obj
 0001:0001c0c0       _Curl_dyn_vaddf            0041d0c0 f   libcurl:dynbuf.obj
 0001:0001c690       _Curl_mime_add_header      0041d690 f   libcurl:mime.obj
 0001:0001c6f0       _Curl_mime_cleanpart       0041d6f0 f   libcurl:mime.obj
 0001:0001c760       _Curl_mime_contenttype     0041d760 f   libcurl:mime.obj
 0001:0001c7d0       _Curl_mime_initpart        0041d7d0 f   libcurl:mime.obj
 0001:0001c810       _Curl_mime_prepare_headers 0041d810 f   libcurl:mime.obj
 0001:0001cb20       _Curl_mime_read            0041db20 f   libcurl:mime.obj
 0001:0001cb50       _Curl_mime_rewind          0041db50 f   libcurl:mime.obj
 0001:0001cb70       _Curl_mime_set_subparts    0041db70 f   libcurl:mime.obj
 0001:0001cc40       _Curl_mime_size            0041dc40 f   libcurl:mime.obj
 0001:0001ce50       _curl_mime_addpart         0041de50 f   libcurl:mime.obj
 0001:0001ceb0       _curl_mime_data            0041deb0 f   libcurl:mime.obj
 0001:0001cf50       _curl_mime_data_cb         0041df50 f   libcurl:mime.obj
 0001:0001cfa0       _curl_mime_filedata        0041dfa0 f   libcurl:mime.obj
 0001:0001d0c0       _curl_mime_filename        0041e0c0 f   libcurl:mime.obj
 0001:0001d110       _curl_mime_free            0041e110 f   libcurl:mime.obj
 0001:0001d160       _curl_mime_headers         0041e160 f   libcurl:mime.obj
 0001:0001d1b0       _curl_mime_init            0041e1b0 f   libcurl:mime.obj
 0001:0001d230       _curl_mime_name            0041e230 f   libcurl:mime.obj
 0001:0001d280       _curl_mime_subparts        0041e280 f   libcurl:mime.obj
 0001:0001d2a0       _curl_mime_type            0041e2a0 f   libcurl:mime.obj
 0001:0001df30       _Curl_conncache_add_conn   0041ef30 f   libcurl:conncache.obj
 0001:0001e030       _Curl_conncache_close_all_connections 0041f030 f   libcurl:conncache.obj
 0001:0001e0e0       _Curl_conncache_destroy    0041f0e0 f   libcurl:conncache.obj
 0001:0001e100       _Curl_conncache_extract_bundle 0041f100 f   libcurl:conncache.obj
 0001:0001e1b0       _Curl_conncache_extract_oldest 0041f1b0 f   libcurl:conncache.obj
 0001:0001e2e0       _Curl_conncache_find_bundle 0041f2e0 f   libcurl:conncache.obj
 0001:0001e380       _Curl_conncache_foreach    0041f380 f   libcurl:conncache.obj
 0001:0001e450       _Curl_conncache_init       0041f450 f   libcurl:conncache.obj
 0001:0001e4c0       _Curl_conncache_remove_conn 0041f4c0 f   libcurl:conncache.obj
 0001:0001e550       _Curl_conncache_return_conn 0041f550 f   libcurl:conncache.obj
 0001:0001e5d0       _Curl_conncache_size       0041f5d0 f   libcurl:conncache.obj
 0001:0001f0a0       _Curl_builtin_scheme       004200a0 f   libcurl:url.obj
 0001:0001f0e0       _Curl_close                004200e0 f   libcurl:url.obj
 0001:0001f460       _Curl_connect              00420460 f   libcurl:url.obj
 0001:0001f520       _Curl_disconnect           00420520 f   libcurl:url.obj
 0001:0001f5b0       _Curl_free_request_state   004205b0 f   libcurl:url.obj
 0001:0001f620       _Curl_freeset              00420620 f   libcurl:url.obj
 0001:0001f6f0       _Curl_idnconvert_hostname  004206f0 f   libcurl:url.obj
 0001:0001f720       _Curl_init_do              00420720 f   libcurl:url.obj
 0001:0001f7f0       _Curl_init_userdefined     004207f0 f   libcurl:url.obj
 0001:0001fa40       _Curl_is_ASCII_name        00420a40 f   libcurl:url.obj
 0001:0001fa70       _Curl_open                 00420a70 f   libcurl:url.obj
 0001:0001fb50       _Curl_parse_login_details  00420b50 f   libcurl:url.obj
 0001:0001fd70       _Curl_setup_conn           00420d70 f   libcurl:url.obj
 0001:0001fe70       _Curl_uc_to_curlcode       00420e70 f   libcurl:url.obj
 0001:0001feb0       _Curl_verboseconnect       00420eb0 f   libcurl:url.obj
 0001:00022ea0       _Curl_initinfo             00423ea0 f   libcurl:getinfo.obj
 0001:00023040       _Curl_memdup               00424040 f   libcurl:strdup.obj
 0001:00023070       _Curl_saferealloc          00424070 f   libcurl:strdup.obj
 0001:000230a0       _Curl_client_write         004240a0 f   libcurl:sendf.obj
 0001:000230d0       _Curl_debug                004240d0 f   libcurl:sendf.obj
 0001:00023160       _Curl_failf                00424160 f   libcurl:sendf.obj
 0001:00023220       _Curl_infof                00424220 f   libcurl:sendf.obj
 0001:000232e0       _Curl_read                 004242e0 f   libcurl:sendf.obj
 0001:00023350       _Curl_read_plain           00424350 f   libcurl:sendf.obj
 0001:000233a0       _Curl_recv_has_postponed_data 004243a0 f   libcurl:sendf.obj
 0001:000233d0       _Curl_recv_plain           004243d0 f   libcurl:sendf.obj
 0001:000234d0       _Curl_send_plain           004244d0 f   libcurl:sendf.obj
 0001:000235c0       _Curl_write                004245c0 f   libcurl:sendf.obj
 0001:00023630       _Curl_write_plain          00424630 f   libcurl:sendf.obj
 0001:000239f0       _Curl_addr2string          004249f0 f   libcurl:connect.obj
 0001:00023a90       _Curl_closesocket          00424a90 f   libcurl:connect.obj
 0001:00023b10       _Curl_conn_data_pending    00424b10 f   libcurl:connect.obj
 0001:00023b60       _Curl_connalive            00424b60 f   libcurl:connect.obj
 0001:00023ba0       _Curl_conncontrol          00424ba0 f   libcurl:connect.obj
 0001:00023bf0       _Curl_connecthost          00424bf0 f   libcurl:connect.obj
 0001:00023d60       _Curl_conninfo_local       00424d60 f   libcurl:connect.obj
 0001:00023e40       _Curl_conninfo_remote      00424e40 f   libcurl:connect.obj
 0001:00023f40       _Curl_is_connected         00424f40 f   libcurl:connect.obj
 0001:00024470       _Curl_persistconninfo      00425470 f   libcurl:connect.obj
 0001:00024540       _Curl_sndbufset            00425540 f   libcurl:connect.obj
 0001:000245e0       _Curl_socket               004255e0 f   libcurl:connect.obj
 0001:00024700       _Curl_timeleft             00425700 f   libcurl:connect.obj
 0001:00024880       _Curl_updateconninfo       00425880 f   libcurl:connect.obj
 0001:00025650       _curlx_read                00426650 f   libcurl:warnless.obj
 0001:00025670       _curlx_uztosi              00426670 f   libcurl:warnless.obj
 0001:00025670       _curlx_uztosz              00426670 f   libcurl:warnless.obj
 0001:00025670       _curlx_sltosi              00426670 f   libcurl:warnless.obj
 0001:00025680       _curlx_sotouz              00426680 f   libcurl:warnless.obj
 0001:00025680       _curlx_uztoui              00426680 f   libcurl:warnless.obj
 0001:00025680       _curlx_sltoui              00426680 f   libcurl:warnless.obj
 0001:00025690       _curlx_sltous              00426690 f   libcurl:warnless.obj
 0001:00025690       _curlx_ultous              00426690 f   libcurl:warnless.obj
 0001:00025690       _curlx_uitous              00426690 f   libcurl:warnless.obj
 0001:000256a0       _curlx_ultouc              004266a0 f   libcurl:warnless.obj
 0001:000256b0       _curlx_write               004266b0 f   libcurl:warnless.obj
 0001:000256d0       _Curl_http_auth_cleanup_digest 004266d0 f   libcurl:http_digest.obj
 0001:00025700       _Curl_input_digest         00426700 f   libcurl:http_digest.obj
 0001:00025770       _Curl_output_digest        00426770 f   libcurl:http_digest.obj
 0001:000258d0       _Curl_load_library         004268d0 f   libcurl:system_win32.obj
 0001:00025a20       _Curl_win32_init           00426a20 f   libcurl:system_win32.obj
 0001:00025ae0       _Curl_alpnid2str           00426ae0 f   libcurl:altsvc.obj
 0001:00025b10       _Curl_altsvc_cleanup       00426b10 f   libcurl:altsvc.obj
 0001:00025b60       _Curl_altsvc_ctrl          00426b60 f   libcurl:altsvc.obj
 0001:00025b80       _Curl_altsvc_init          00426b80 f   libcurl:altsvc.obj
 0001:00025bb0       _Curl_altsvc_load          00426bb0 f   libcurl:altsvc.obj
 0001:00025bc0       _Curl_altsvc_lookup        00426bc0 f   libcurl:altsvc.obj
 0001:00025c60       _Curl_altsvc_parse         00426c60 f   libcurl:altsvc.obj
 0001:00026140       _Curl_altsvc_save          00427140 f   libcurl:altsvc.obj
 0001:00026780       _Curl_raw_toupper          00427780 f   libcurl:strcase.obj
 0001:000267a0       _Curl_safe_strcasecompare  004277a0 f   libcurl:strcase.obj
 0001:000267d0       _Curl_strcasecompare       004277d0 f   libcurl:strcase.obj
 0001:00026840       _Curl_strncasecompare      00427840 f   libcurl:strcase.obj
 0001:000268d0       _Curl_strntolower          004278d0 f   libcurl:strcase.obj
 0001:00026910       _Curl_strntoupper          00427910 f   libcurl:strcase.obj
 0001:00026950       _curl_strequal             00427950 f   libcurl:strcase.obj
 0001:00026960       _curl_strnequal            00427960 f   libcurl:strcase.obj
 0001:00026a60       _Curl_all_content_encodings 00427a60 f   libcurl:content_encoding.obj
 0001:00026b60       _Curl_build_unencoding_stack 00427b60 f   libcurl:content_encoding.obj
 0001:00026c70       _Curl_unencode_cleanup     00427c70 f   libcurl:content_encoding.obj
 0001:00026cb0       _Curl_unencode_write       00427cb0 f   libcurl:content_encoding.obj
 0001:00026d90       _Curl_share_lock           00427d90 f   libcurl:share.obj
 0001:00026dd0       _Curl_share_unlock         00427dd0 f   libcurl:share.obj
 0001:00026e10       _Curl_now                  00427e10 f   libcurl:timeval.obj
 0001:00026eb0       _Curl_timediff             00427eb0 f   libcurl:timeval.obj
 0001:00026f40       _Curl_timediff_us          00427f40 f   libcurl:timeval.obj
 0001:00026fb0       _Curl_ftp_parselist_geterror 00427fb0 f   libcurl:ftplistparser.obj
 0001:00026fb0       _Curl_llist_count          00427fb0 f   libcurl:llist.obj
 0001:00026fc0       _Curl_llist_destroy        00427fc0 f   libcurl:llist.obj
 0001:00026ff0       _Curl_llist_init           00427ff0 f   libcurl:llist.obj
 0001:00027020       _Curl_llist_insert_next    00428020 f   libcurl:llist.obj
 0001:000270a0       _Curl_llist_remove         004280a0 f   libcurl:llist.obj
 0001:00027120       _Curl_hash_add             00428120 f   libcurl:hash.obj
 0001:000271b0       _Curl_hash_clean           004281b0 f   libcurl:hash.obj
 0001:000271d0       _Curl_hash_clean_with_criterium 004281d0 f   libcurl:hash.obj
 0001:00027250       _Curl_hash_delete          00428250 f   libcurl:hash.obj
 0001:000272d0       _Curl_hash_destroy         004282d0 f   libcurl:hash.obj
 0001:00027320       _Curl_hash_init            00428320 f   libcurl:hash.obj
 0001:000273b0       _Curl_hash_next_element    004283b0 f   libcurl:hash.obj
 0001:00027420       _Curl_hash_pick            00428420 f   libcurl:hash.obj
 0001:00027490       _Curl_hash_start_iterate   00428490 f   libcurl:hash.obj
 0001:000274b0       _Curl_hash_str             004284b0 f   libcurl:hash.obj
 0001:00027500       _Curl_str_key_compare      00428500 f   libcurl:hash.obj
 0001:000275f0       _Curl_ipv6works            004285f0 f   libcurl:hostip6.obj
 0001:00027640       _Curl_ipvalid              00428640 f   libcurl:hostip6.obj
 0001:00027660       _Curl_cache_addr           00428660 f   libcurl:hostip.obj
 0001:00027780       _Curl_fetch_addr           00428780 f   libcurl:hostip.obj
 0001:000277d0       _Curl_hostcache_clean      004287d0 f   libcurl:hostip.obj
 0001:00027820       _Curl_hostcache_prune      00428820 f   libcurl:hostip.obj
 0001:00027890       _Curl_loadhostpairs        00428890 f   libcurl:hostip.obj
 0001:00027d20       _Curl_mk_dnscache          00428d20 f   libcurl:hostip.obj
 0001:00027d50       _Curl_num_addresses        00428d50 f   libcurl:hostip.obj
 0001:00027d70       _Curl_once_resolved        00428d70 f   libcurl:hostip.obj
 0001:00027dd0       _Curl_printable_address    00428dd0 f   libcurl:hostip.obj
 0001:00027e20       _Curl_resolv               00428e20 f   libcurl:hostip.obj
 0001:00028050       _Curl_resolv_check         00429050 f   libcurl:hostip.obj
 0001:00028080       _Curl_resolv_getsock       00429080 f   libcurl:hostip.obj
 0001:000280a0       _Curl_resolv_timeout       004290a0 f   libcurl:hostip.obj
 0001:000280e0       _Curl_resolv_unlock        004290e0 f   libcurl:hostip.obj
 0001:00028130       _Curl_resolver_error       00429130 f   libcurl:hostip.obj
 0001:00028550       _Curl_splay                00429550 f   libcurl:splay.obj
 0001:000286b0       _Curl_splaygetbest         004296b0 f   libcurl:splay.obj
 0001:00028760       _Curl_splayinsert          00429760 f   libcurl:splay.obj
 0001:00028860       _Curl_splayremove          00429860 f   libcurl:splay.obj
 0001:00028a20       _Curl_http                 00429a20 f   libcurl:http.obj
 0001:00028ff0       _Curl_http_done            00429ff0 f   libcurl:http.obj
 0001:000290d0       _Curl_http_connect         0042a0d0 f   libcurl:http.obj
 0001:00029150       _Curl_add_custom_headers   0042a150 f   libcurl:http.obj
 0001:00029480       _Curl_add_timecondition    0042a480 f   libcurl:http.obj
 0001:000295c0       _Curl_buffer_send          0042a5c0 f   libcurl:http.obj
 0001:00029840       _Curl_checkProxyheaders    0042a840 f   libcurl:http.obj
 0001:000298c0       _Curl_compareheader        0042a8c0 f   libcurl:http.obj
 0001:00029990       _Curl_copy_header_value    0042a990 f   libcurl:http.obj
 0001:00029a60       _Curl_http_auth_act        0042aa60 f   libcurl:http.obj
 0001:00029c70       _Curl_http_body            0042ac70 f   libcurl:http.obj
 0001:00029e50       _Curl_http_bodysend        0042ae50 f   libcurl:http.obj
 0001:0002a590       _Curl_http_compile_trailers 0042b590 f   libcurl:http.obj
 0001:0002a620       _Curl_http_cookies         0042b620 f   libcurl:http.obj
 0001:0002a7b0       _Curl_http_firstwrite      0042b7b0 f   libcurl:http.obj
 0001:0002a8c0       _Curl_http_header          0042b8c0 f   libcurl:http.obj
 0001:0002af90       _Curl_http_host            0042bf90 f   libcurl:http.obj
 0001:0002b1c0       _Curl_http_input_auth      0042c1c0 f   libcurl:http.obj
 0001:0002b390       _Curl_http_method          0042c390 f   libcurl:http.obj
 0001:0002b440       _Curl_http_output_auth     0042c440 f   libcurl:http.obj
 0001:0002b590       _Curl_http_range           0042c590 f   libcurl:http.obj
 0001:0002b6d0       _Curl_http_readwrite_headers 0042c6d0 f   libcurl:http.obj
 0001:0002bf70       _Curl_http_resume          0042cf70 f   libcurl:http.obj
 0001:0002c160       _Curl_http_statusline      0042d160 f   libcurl:http.obj
 0001:0002c280       _Curl_http_target          0042d280 f   libcurl:http.obj
 0001:0002c470       _Curl_http_useragent       0042d470 f   libcurl:http.obj
 0001:0002ceb0       _Curl_wildcard_dtor        0042deb0 f   libcurl:wildcard.obj
 0001:0002cf20       _Curl_wildcard_init        0042df20 f   libcurl:wildcard.obj
 0001:0002cf60       _Curl_socketpair           0042df60 f   libcurl:socketpair.obj
 0001:0002d150       _Curl_checkheaders         0042e150 f   libcurl:transfer.obj
 0001:0002d1b0       _Curl_done_sending         0042e1b0 f   libcurl:transfer.obj
 0001:0002d1e0       _Curl_fillreadbuffer       0042e1e0 f   libcurl:transfer.obj
 0001:0002d5a0       _Curl_follow               0042e5a0 f   libcurl:transfer.obj
 0001:0002d900       _Curl_get_upload_buffer    0042e900 f   libcurl:transfer.obj
 0001:0002d940       _Curl_init_CONNECT         0042e940 f   libcurl:transfer.obj
 0001:0002d960       _Curl_meets_timecondition  0042e960 f   libcurl:transfer.obj
 0001:0002d9d0       _Curl_pretransfer          0042e9d0 f   libcurl:transfer.obj
 0001:0002dcf0       _Curl_readrewind           0042ecf0 f   libcurl:transfer.obj
 0001:0002de60       _Curl_readwrite            0042ee60 f   libcurl:transfer.obj
 0001:0002e180       _Curl_retry_request        0042f180 f   libcurl:transfer.obj
 0001:0002e2e0       _Curl_setup_transfer       0042f2e0 f   libcurl:transfer.obj
 0001:0002e480       _Curl_single_getsock       0042f480 f   libcurl:transfer.obj
 0001:0002f000       _curlx_nonblock            00430000 f   libcurl:nonblock.obj
 0001:0002f030       _Curl_pgrsDone             00430030 f   libcurl:progress.obj
 0001:0002f090       _Curl_pgrsLimitWaitTime    00430090 f   libcurl:progress.obj
 0001:0002f160       _Curl_pgrsResetTransferSizes 00430160 f   libcurl:progress.obj
 0001:0002f180       _Curl_pgrsSetDownloadCounter 00430180 f   libcurl:progress.obj
 0001:0002f1a0       _Curl_pgrsSetDownloadSize  004301a0 f   libcurl:progress.obj
 0001:0002f1f0       _Curl_pgrsSetUploadCounter 004301f0 f   libcurl:progress.obj
 0001:0002f210       _Curl_pgrsSetUploadSize    00430210 f   libcurl:progress.obj
 0001:0002f260       _Curl_pgrsStartNow         00430260 f   libcurl:progress.obj
 0001:0002f300       _Curl_pgrsTime             00430300 f   libcurl:progress.obj
 0001:0002f470       _Curl_pgrsUpdate           00430470 f   libcurl:progress.obj
 0001:0002f600       _Curl_ratelimit            00430600 f   libcurl:progress.obj
 0001:00030200       _Curl_poll                 00431200 f   libcurl:select.obj
 0001:000304b0       _Curl_socket_check         004314b0 f   libcurl:select.obj
 0001:000305c0       _Curl_wait_ms              004315c0 f   libcurl:select.obj
 0001:00030740       _Curl_speedcheck           00431740 f   libcurl:speedcheck.obj
 0001:00030840       _Curl_speedinit            00431840 f   libcurl:speedcheck.obj
 0001:000311d0       _Curl_connect_complete     004321d0 f   libcurl:http_proxy.obj
 0001:000311f0       _Curl_connect_free         004321f0 f   libcurl:http_proxy.obj
 0001:00031220       _Curl_connect_ongoing      00432220 f   libcurl:http_proxy.obj
 0001:00031240       _Curl_proxyCONNECT         00432240 f   libcurl:http_proxy.obj
 0001:000312a0       _Curl_proxy_connect        004322a0 f   libcurl:http_proxy.obj
 0001:000314a0       _Curl_SOCKS4               004324a0 f   libcurl:socks.obj
 0001:00031b20       _Curl_SOCKS5               00432b20 f   libcurl:socks.obj
 0001:000326f0       _Curl_SOCKS_getsock        004336f0 f   libcurl:socks.obj
 0001:00032770       _Curl_dyn_vprintf          00433770 f   libcurl:mprintf.obj
 0001:00032830       _curl_maprintf             00433830 f   libcurl:mprintf.obj
 0001:00032850       _curl_mfprintf             00433850 f   libcurl:mprintf.obj
 0001:00032870       _curl_msnprintf            00433870 f   libcurl:mprintf.obj
 0001:00032890       _curl_mvaprintf            00433890 f   libcurl:mprintf.obj
 0001:00032910       _curl_mvsnprintf           00433910 f   libcurl:mprintf.obj
 0001:00033cf0       _curlx_win32_access        00434cf0 f   libcurl:curl_multibyte.obj
 0001:00033d00       _curlx_win32_fopen         00434d00 f   libcurl:curl_multibyte.obj
 0001:00033d10       _curlx_win32_open          00434d10 f   libcurl:curl_multibyte.obj
 0001:00033d40       _curlx_win32_stat          00434d40 f   libcurl:curl_multibyte.obj
 0001:00033d50       _Curl_strtok_r             00434d50 f   libcurl:strtok.obj
 0001:00033dd0       _curlx_strtoofft           00434dd0 f   libcurl:strtoofft.obj
 0001:00033e90       _Curl_get_line             00434e90 f   libcurl:curl_get_line.obj
 0001:00033f00       _Curl_memrchr              00434f00 f   libcurl:curl_memrchr.obj
 0001:00033f30       _Curl_inet_pton            00434f30 f   libcurl:inet_pton.obj
 0001:00034240       _Curl_getdate_capped       00435240 f   libcurl:parsedate.obj
 0001:000342b0       _Curl_gmtime               004352b0 f   libcurl:parsedate.obj
 0001:00034970       _Curl_rand                 00435970 f   libcurl:rand.obj
 0001:000349d0       _Curl_rand_hex             004359d0 f   libcurl:rand.obj
 0001:00034b10       _Curl_rename               00435b10 f   libcurl:rename.obj
 0001:00034bf0       _Curl_freeaddrinfo         00435bf0 f   libcurl:curl_addrinfo.obj
 0001:00034c20       _Curl_getaddrinfo_ex       00435c20 f   libcurl:curl_addrinfo.obj
 0001:00034db0       _Curl_he2ai                00435db0 f   libcurl:curl_addrinfo.obj
 0001:00034ef0       _Curl_ip2addr              00435ef0 f   libcurl:curl_addrinfo.obj
 0001:00034fc0       _Curl_str2addr             00435fc0 f   libcurl:curl_addrinfo.obj
 0001:00035050       _Curl_unix2addr            00436050 f   libcurl:curl_addrinfo.obj
 0001:00035100       _Curl_addrinfo_callback    00436100 f   libcurl:hostasyn.obj
 0001:00035190       _Curl_getaddrinfo          00436190 f   libcurl:hostasyn.obj
 0001:000351a0       _Curl_thread_create        004361a0 f   libcurl:curl_threads.obj
 0001:000351d0       _Curl_thread_destroy       004361d0 f   libcurl:curl_threads.obj
 0001:000351e0       _Curl_thread_join          004361e0 f   libcurl:curl_threads.obj
 0001:00037710       _Curl_pop3_write           00438710 f   libcurl:pop3.obj
 0001:00038930       _Curl_smtp_escape_eob      00439930 f   libcurl:smtp.obj
 0001:0003ab60       _Curl_GetFTPResponse       0043bb60 f   libcurl:ftp.obj
 0001:000440e0       _Curl_rtsp_parseheader     004450e0 f   libcurl:rtsp.obj
 0001:00046060       _curl_getenv               00447060 f   libcurl:getenv.obj
 0001:00046070       _Curl_is_absolute_url      00447070 f   libcurl:urlapi.obj
 0001:00046480       _curl_url                  00447480 f   libcurl:urlapi.obj
 0001:00046490       _curl_url_cleanup          00447490 f   libcurl:urlapi.obj
 0001:000464b0       _curl_url_dup              004474b0 f   libcurl:urlapi.obj
 0001:000465d0       _curl_url_get              004475d0 f   libcurl:urlapi.obj
 0001:00046ae0       _curl_url_set              00447ae0 f   libcurl:urlapi.obj
 0001:00047bf0       _Curl_isalnum              00448bf0 f   libcurl:curl_ctype.obj
 0001:00047c10       _Curl_isalpha              00448c10 f   libcurl:curl_ctype.obj
 0001:00047c30       _Curl_iscntrl              00448c30 f   libcurl:curl_ctype.obj
 0001:00047c50       _Curl_isdigit              00448c50 f   libcurl:curl_ctype.obj
 0001:00047c70       _Curl_isgraph              00448c70 f   libcurl:curl_ctype.obj
 0001:00047c90       _Curl_islower              00448c90 f   libcurl:curl_ctype.obj
 0001:00047cb0       _Curl_isprint              00448cb0 f   libcurl:curl_ctype.obj
 0001:00047cd0       _Curl_isspace              00448cd0 f   libcurl:curl_ctype.obj
 0001:00047cf0       _Curl_isupper              00448cf0 f   libcurl:curl_ctype.obj
 0001:00047d10       _Curl_isxdigit             00448d10 f   libcurl:curl_ctype.obj
 0001:00047d30       _Curl_parsenetrc           00448d30 f   libcurl:netrc.obj
 0001:00048290       _Curl_clone_primary_ssl_config 00449290 f   libcurl:vtls.obj
 0001:00048430       _Curl_free_primary_ssl_config 00449430 f   libcurl:vtls.obj
 0001:000484e0       _Curl_ssl_config_matches   004494e0 f   libcurl:vtls.obj
 0001:00048700       _Curl_isunreserved         00449700 f   libcurl:escape.obj
 0001:00048790       _Curl_urldecode            00449790 f   libcurl:escape.obj
 0001:000488b0       _Curl_http_auth_cleanup_ntlm 004498b0 f   libcurl:http_ntlm.obj
 0001:000488e0       _Curl_input_ntlm           004498e0 f   libcurl:http_ntlm.obj
 0001:000489f0       _Curl_output_ntlm          004499f0 f   libcurl:http_ntlm.obj
 0001:00048c00       _Curl_strerror             00449c00 f   libcurl:strerror.obj
 0001:00048d00       _curl_easy_strerror        00449d00 f   libcurl:strerror.obj
 0001:00049520       _Curl_ipv6_scope           0044a520 f   libcurl:if2ip.obj
 0001:000495c0       _Curl_inet_ntop            0044a5c0 f   libcurl:inet_ntop.obj
 0001:000498f0       _curlx_verify_windows_version 0044a8f0 f   libcurl:version_win32.obj
 0001:00049a50       _Curl_auth_create_digest_http_message 0044aa50 f   libcurl:digest.obj
 0001:00049ac0       _Curl_auth_create_digest_md5_message 0044aac0 f   libcurl:digest.obj
 0001:0004a010       _Curl_auth_decode_digest_http_message 0044b010 f   libcurl:digest.obj
 0001:0004a4d0       _Curl_auth_digest_cleanup  0044b4d0 f   libcurl:digest.obj
 0001:0004a550       _Curl_auth_digest_get_pair 0044b550 f   libcurl:digest.obj
 0001:0004ae30       _Curl_chunked_strerror     0044be30 f   libcurl:http_chunks.obj
 0001:0004ae90       _Curl_httpchunk_init       0044be90 f   libcurl:http_chunks.obj
 0001:0004aec0       _Curl_httpchunk_read       0044bec0 f   libcurl:http_chunks.obj
 0001:0004b250       _Curl_doh                  0044c250 f   libcurl:doh.obj
 0001:0004b370       _Curl_doh_is_resolved      0044c370 f   libcurl:doh.obj
 0001:0004c7c0       _Curl_getformdata          0044d7c0 f   libcurl:formdata.obj
 0001:0004caf0       _Curl_base64_decode        0044daf0 f   libcurl:base64.obj
 0001:0004cbf0       _Curl_base64_encode        0044dbf0 f   libcurl:base64.obj
 0001:0004cc20       _Curl_base64url_encode     0044dc20 f   libcurl:base64.obj
 0001:0004cec0       _Curl_auth_cleanup_ntlm    0044dec0 f   libcurl:ntlm.obj
 0001:0004cef0       _Curl_auth_create_ntlm_type1_message 0044def0 f   libcurl:ntlm.obj
 0001:0004cfa0       _Curl_auth_create_ntlm_type3_message 0044dfa0 f   libcurl:ntlm.obj
 0001:0004d540       _Curl_auth_decode_ntlm_type2_message 0044e540 f   libcurl:ntlm.obj
 0001:0004d760       _Curl_output_aws_sigv4     0044e760 f   libcurl:http_aws_sigv4.obj
 0001:0004e170       _Curl_fileinfo_alloc       0044f170 f   libcurl:fileinfo.obj
 0001:0004e180       _Curl_fileinfo_cleanup     0044f180 f   libcurl:fileinfo.obj
 0001:0004e1b0       _Curl_pp_disconnect        0044f1b0 f   libcurl:pingpong.obj
 0001:0004e1e0       _Curl_pp_flushsend         0044f1e0 f   libcurl:pingpong.obj
 0001:0004e260       _Curl_pp_getsock           0044f260 f   libcurl:pingpong.obj
 0001:0004e290       _Curl_pp_init              0044f290 f   libcurl:pingpong.obj
 0001:0004e2d0       _Curl_pp_moredata          0044f2d0 f   libcurl:pingpong.obj
 0001:0004e300       _Curl_pp_readresp          0044f300 f   libcurl:pingpong.obj
 0001:0004e5c0       _Curl_pp_sendf             0044f5c0 f   libcurl:pingpong.obj
 0001:0004e5e0       _Curl_pp_setup             0044f5e0 f   libcurl:pingpong.obj
 0001:0004e600       _Curl_pp_state_timeout     0044f600 f   libcurl:pingpong.obj
 0001:0004e6d0       _Curl_pp_statemach         0044f6d0 f   libcurl:pingpong.obj
 0001:0004e820       _Curl_pp_vsendf            0044f820 f   libcurl:pingpong.obj
 0001:0004e920       _Curl_sasl_can_authenticate 0044f920 f   libcurl:curl_sasl.obj
 0001:0004e950       _Curl_sasl_cleanup         0044f950 f   libcurl:curl_sasl.obj
 0001:0004e970       _Curl_sasl_continue        0044f970 f   libcurl:curl_sasl.obj
 0001:0004ee20       _Curl_sasl_decode_mech     0044fe20 f   libcurl:curl_sasl.obj
 0001:0004ef20       _Curl_sasl_init            0044ff20 f   libcurl:curl_sasl.obj
 0001:0004ef60       _Curl_sasl_parse_url_auth_option 0044ff60 f   libcurl:curl_sasl.obj
 0001:0004efe0       _Curl_sasl_start           0044ffe0 f   libcurl:curl_sasl.obj
 0001:0004f470       _Curl_MD5_final            00450470 f   libcurl:md5.obj
 0001:0004f4a0       _Curl_MD5_init             004504a0 f   libcurl:md5.obj
 0001:0004f4f0       _Curl_HMAC_update          004504f0 f   libcurl:hmac.obj
 0001:0004f4f0       _Curl_MD5_update           004504f0 f   libcurl:md5.obj
 0001:0004f510       _Curl_md5it                00450510 f   libcurl:md5.obj
 0001:0004f550       _Curl_gethostname          00450550 f   libcurl:curl_gethostname.obj
 0001:0004f590       _Curl_ftp_parselist        00450590 f   libcurl:ftplistparser.obj
 0001:00050130       _Curl_ftp_parselist_data_alloc 00451130 f   libcurl:ftplistparser.obj
 0001:00050140       _Curl_ftp_parselist_data_free 00451140 f   libcurl:ftplistparser.obj
 0001:000503c0       _Curl_range                004513c0 f   libcurl:curl_range.obj
 0001:00050520       _Curl_ntlm_core_lm_resp    00451520 f   libcurl:curl_ntlm_core.obj
 0001:00050560       _Curl_ntlm_core_mk_lm_hash 00451560 f   libcurl:curl_ntlm_core.obj
 0001:00050610       _Curl_ntlm_core_mk_lmv2_resp 00451610 f   libcurl:curl_ntlm_core.obj
 0001:00050690       _Curl_ntlm_core_mk_nt_hash 00451690 f   libcurl:curl_ntlm_core.obj
 0001:00050720       _Curl_ntlm_core_mk_ntlmv2_hash 00451720 f   libcurl:curl_ntlm_core.obj
 0001:000507b0       _Curl_ntlm_core_mk_ntlmv2_resp 004517b0 f   libcurl:curl_ntlm_core.obj
 0001:00050b10       _Curl_read16_be            00451b10 f   libcurl:curl_endian.obj
 0001:00050b30       _Curl_read16_le            00451b30 f   libcurl:curl_endian.obj
 0001:00050b50       _Curl_read32_le            00451b50 f   libcurl:curl_endian.obj
 0001:00050b80       _Curl_dedotdotify          00451b80 f   libcurl:dotdot.obj
 0001:00050e00       _Curl_auth_build_spn       00451e00 f   libcurl:vauth.obj
 0001:00050f00       _Curl_sha256it             00451f00 f   libcurl:sha256.obj
 0001:00050f40       _Curl_HMAC_final           00451f40 f   libcurl:hmac.obj
 0001:00050f90       _Curl_HMAC_init            00451f90 f   libcurl:hmac.obj
 0001:000510a0       _Curl_hmacit               004520a0 f   libcurl:hmac.obj
 0001:000510f0       _Curl_auth_create_external_message 004520f0 f   libcurl:cleartext.obj
 0001:00051100       _Curl_auth_create_login_message 00452100 f   libcurl:cleartext.obj
 0001:00051170       _Curl_auth_create_plain_message 00452170 f   libcurl:cleartext.obj
 0001:00051280       _Curl_auth_create_cram_md5_message 00452280 f   libcurl:cram.obj
 0001:000513d0       _Curl_auth_decode_cram_md5_message 004523d0 f   libcurl:cram.obj
 0001:00051420       _Curl_auth_create_oauth_bearer_message 00452420 f   libcurl:oauth2.obj
 0001:000514a0       _Curl_auth_create_xoauth_bearer_message 004524a0 f   libcurl:oauth2.obj
 0001:00051500       _Curl_fnmatch              00452500 f   libcurl:curl_fnmatch.obj
 0001:00051e20       _Curl_des_set_odd_parity   00452e20 f   libcurl:curl_des.obj
 0001:00051e70       _Curl_md4it                00452e70 f   libcurl:md4.obj
 0001:00051ef3       ___WSAFDIsSet@8            00452ef3 f   ws2_32:WS2_32.dll
 0001:00051ef9       ___CxxFrameHandler3        00452ef9 f   vcruntime:VCRUNTIME140.dll
 0001:00051eff       ___std_terminate           00452eff f   vcruntime:VCRUNTIME140.dll
 0001:00051f05       ___current_exception       00452f05 f   vcruntime:VCRUNTIME140.dll
 0001:00051f0b       ___current_exception_context 00452f0b f   vcruntime:VCRUNTIME140.dll
 0001:00051f11       __CxxThrowException@8      00452f11 f   vcruntime:VCRUNTIME140.dll
 0001:00051f17       __except_handler4_common   00452f17 f   vcruntime:VCRUNTIME140.dll
 0001:00051f1d       _memset                    00452f1d f   vcruntime:VCRUNTIME140.dll
 0001:00051f23       _memcpy                    00452f23 f   vcruntime:VCRUNTIME140.dll
 0001:00051f29       _memmove                   00452f29 f   vcruntime:VCRUNTIME140.dll
 0001:00051f2f       _memchr                    00452f2f f   vcruntime:VCRUNTIME140.dll
 0001:00051f35       __callnewh                 00452f35 f   ucrt:api-ms-win-crt-heap-l1-1-0.dll
 0001:00051f3b       _malloc                    00452f3b f   ucrt:api-ms-win-crt-heap-l1-1-0.dll
 0001:00051f41       _terminate                 00452f41 f   ucrt:api-ms-win-crt-runtime-l1-1-0.dll
 0001:00051f47       __configure_narrow_argv    00452f47 f   ucrt:api-ms-win-crt-runtime-l1-1-0.dll
 0001:00051f4d       __initialize_narrow_environment 00452f4d f   ucrt:api-ms-win-crt-runtime-l1-1-0.dll
 0001:00051f53       __initialize_onexit_table  00452f53 f   ucrt:api-ms-win-crt-runtime-l1-1-0.dll
 0001:00051f59       __register_onexit_function 00452f59 f   ucrt:api-ms-win-crt-runtime-l1-1-0.dll
 0001:00051f5f       __crt_atexit               00452f5f f   ucrt:api-ms-win-crt-runtime-l1-1-0.dll
 0001:00051f65       __cexit                    00452f65 f   ucrt:api-ms-win-crt-runtime-l1-1-0.dll
 0001:00051f6b       __seh_filter_exe           00452f6b f   ucrt:api-ms-win-crt-runtime-l1-1-0.dll
 0001:00051f71       __set_app_type             00452f71 f   ucrt:api-ms-win-crt-runtime-l1-1-0.dll
 0001:00051f77       ___setusermatherr          00452f77 f   ucrt:api-ms-win-crt-math-l1-1-0.dll
 0001:00051f7d       __get_narrow_winmain_command_line 00452f7d f   ucrt:api-ms-win-crt-runtime-l1-1-0.dll
 0001:00051f83       __initterm                 00452f83 f   ucrt:api-ms-win-crt-runtime-l1-1-0.dll
 0001:00051f89       __initterm_e               00452f89 f   ucrt:api-ms-win-crt-runtime-l1-1-0.dll
 0001:00051f8f       _exit                      00452f8f f   ucrt:api-ms-win-crt-runtime-l1-1-0.dll
 0001:00051f95       __exit                     00452f95 f   ucrt:api-ms-win-crt-runtime-l1-1-0.dll
 0001:00051f9b       __set_fmode                00452f9b f   ucrt:api-ms-win-crt-stdio-l1-1-0.dll
 0001:00051fa1       __c_exit                   00452fa1 f   ucrt:api-ms-win-crt-runtime-l1-1-0.dll
 0001:00051fa7       __register_thread_local_exe_atexit_callback 00452fa7 f   ucrt:api-ms-win-crt-runtime-l1-1-0.dll
 0001:00051fad       __configthreadlocale       00452fad f   ucrt:api-ms-win-crt-locale-l1-1-0.dll
 0001:00051fb3       __set_new_mode             00452fb3 f   ucrt:api-ms-win-crt-heap-l1-1-0.dll
 0001:00051fb9       ___p__commode              00452fb9 f   ucrt:api-ms-win-crt-stdio-l1-1-0.dll
 0001:00051fbf       _free                      00452fbf f   ucrt:api-ms-win-crt-heap-l1-1-0.dll
 0001:00051fc5       __controlfp_s              00452fc5 f   ucrt:api-ms-win-crt-runtime-l1-1-0.dll
 0001:00051fcb       _realloc                   00452fcb f   ucrt:api-ms-win-crt-heap-l1-1-0.dll
 0001:00051fd1       _calloc                    00452fd1 f   ucrt:api-ms-win-crt-heap-l1-1-0.dll
 0001:00051fe0       __alldiv                   00452fe0 f   MSVCRT:lldiv.obj
 0001:00052090       __chkstk                   00453090 f   MSVCRT:chkstk.obj
 0001:00052090       __alloca_probe             00453090 f   MSVCRT:chkstk.obj
 0001:000520c0       __dtol3                    004530c0 f   MSVCRT:ftol3.obj
 0001:00052170       __ltod3                    00453170 f   MSVCRT:ftol3.obj
 0001:000521c0       __alldvrm                  004531c0 f   MSVCRT:lldvrm.obj
 0001:000522a0       __allmul                   004532a0 f   MSVCRT:llmul.obj
 0001:000522e0       __allrem                   004532e0 f   MSVCRT:llrem.obj
 0001:000523a0       __aulldvrm                 004533a0 f   MSVCRT:ulldvrm.obj
 0001:00052435       __strdup                   00453435 f   ucrt:api-ms-win-crt-string-l1-1-0.dll
 0001:00052435       _strdup                    00453435 f   ucrt:api-ms-win-crt-string-l1-1-0.dll
 0001:0005243b       __filter_x86_sse2_floating_point_exception_default 0045343b f   MSVCRT:x86_exception_filter.obj
 0001:0005243b       __filter_x86_sse2_floating_point_exception 0045343b f   MSVCRT:x86_exception_filter.obj
 0002:00000000       __imp__AdjustTokenPrivileges@24 00457000     advapi32:ADVAPI32.dll
 0002:00000004       __imp__CryptImportKey@24   00457004     advapi32:ADVAPI32.dll
 0002:00000008       __imp__CryptDestroyKey@4   00457008     advapi32:ADVAPI32.dll
 0002:0000000c       __imp__CryptDestroyHash@4  0045700c     advapi32:ADVAPI32.dll
 0002:00000010       __imp__CryptHashData@16    00457010     advapi32:ADVAPI32.dll
 0002:00000014       __imp__CryptCreateHash@20  00457014     advapi32:ADVAPI32.dll
 0002:00000018       __imp__CryptGetHashParam@20 00457018     advapi32:ADVAPI32.dll
 0002:0000001c       __imp__CryptReleaseContext@8 0045701c     advapi32:ADVAPI32.dll
 0002:00000020       __imp__CryptAcquireContextA@20 00457020     advapi32:ADVAPI32.dll
 0002:00000024       __imp__CryptEncrypt@28     00457024     advapi32:ADVAPI32.dll
 0002:00000028       __imp__LookupPrivilegeValueA@12 00457028     advapi32:ADVAPI32.dll
 0002:0000002c       __imp__OpenProcessToken@12 0045702c     advapi32:ADVAPI32.dll
 0002:00000030       \177ADVAPI32_NULL_THUNK_DATA 00457030     advapi32:ADVAPI32.dll
 0002:00000034       __imp__CreateSolidBrush@4  00457034     gdi32:GDI32.dll
 0002:00000038       \177GDI32_NULL_THUNK_DATA  00457038     gdi32:GDI32.dll
 0002:0000003c       __imp__GetCurrentThreadId@0 0045703c     kernel32:KERNEL32.dll
 0002:00000040       __imp__GetSystemTimeAsFileTime@4 00457040     kernel32:KERNEL32.dll
 0002:00000044       __imp__InitializeSListHead@4 00457044     kernel32:KERNEL32.dll
 0002:00000048       __imp__EnterCriticalSection@4 00457048     kernel32:KERNEL32.dll
 0002:0000004c       __imp__LeaveCriticalSection@4 0045704c     kernel32:KERNEL32.dll
 0002:00000050       __imp__GetCurrentProcessId@0 00457050     kernel32:KERNEL32.dll
 0002:00000054       __imp__DeleteCriticalSection@4 00457054     kernel32:KERNEL32.dll
 0002:00000058       __imp__SleepEx@8           00457058     kernel32:KERNEL32.dll
 0002:0000005c       __imp__QueryPerformanceFrequency@4 0045705c     kernel32:KERNEL32.dll
 0002:00000060       __imp__GetSystemDirectoryA@8 00457060     kernel32:KERNEL32.dll
 0002:00000064       __imp__QueryPerformanceCounter@4 00457064     kernel32:KERNEL32.dll
 0002:00000068       __imp__InitializeCriticalSectionEx@12 00457068     kernel32:KERNEL32.dll
 0002:0000006c       __imp__GetStartupInfoW@4   0045706c     kernel32:KERNEL32.dll
 0002:00000070       __imp__IsDebuggerPresent@0 00457070     kernel32:KERNEL32.dll
 0002:00000074       __imp__IsProcessorFeaturePresent@4 00457074     kernel32:KERNEL32.dll
 0002:00000078       __imp__GetModuleHandleW@4  00457078     kernel32:KERNEL32.dll
 0002:0000007c       __imp__GetModuleHandleA@4  0045707c     kernel32:KERNEL32.dll
 0002:00000080       __imp__GetProcAddress@8    00457080     kernel32:KERNEL32.dll
 0002:00000084       __imp__LoadLibraryA@4      00457084     kernel32:KERNEL32.dll
 0002:00000088       __imp__GetTickCount@0      00457088     kernel32:KERNEL32.dll
 0002:0000008c       __imp__Sleep@4             0045708c     kernel32:KERNEL32.dll
 0002:00000090       __imp__MoveFileExA@12      00457090     kernel32:KERNEL32.dll
 0002:00000094       __imp__WaitForSingleObjectEx@12 00457094     kernel32:KERNEL32.dll
 0002:00000098       __imp__GetStdHandle@4      00457098     kernel32:KERNEL32.dll
 0002:0000009c       __imp__GetFileType@4       0045709c     kernel32:KERNEL32.dll
 0002:000000a0       __imp__ReadFile@20         004570a0     kernel32:KERNEL32.dll
 0002:000000a4       __imp__PeekNamedPipe@24    004570a4     kernel32:KERNEL32.dll
 0002:000000a8       __imp__WaitForMultipleObjects@16 004570a8     kernel32:KERNEL32.dll
 0002:000000ac       __imp__GetEnvironmentVariableA@12 004570ac     kernel32:KERNEL32.dll
 0002:000000b0       __imp__GetLastError@0      004570b0     kernel32:KERNEL32.dll
 0002:000000b4       __imp__SetLastError@4      004570b4     kernel32:KERNEL32.dll
 0002:000000b8       __imp__FormatMessageW@28   004570b8     kernel32:KERNEL32.dll
 0002:000000bc       __imp__VerSetConditionMask@16 004570bc     kernel32:KERNEL32.dll
 0002:000000c0       __imp__VerifyVersionInfoA@16 004570c0     kernel32:KERNEL32.dll
 0002:000000c4       __imp__TerminateProcess@8  004570c4     kernel32:KERNEL32.dll
 0002:000000c8       __imp__SetUnhandledExceptionFilter@4 004570c8     kernel32:KERNEL32.dll
 0002:000000cc       __imp__AllocConsole@0      004570cc     kernel32:KERNEL32.dll
 0002:000000d0       __imp__K32EnumProcessModules@16 004570d0     kernel32:KERNEL32.dll
 0002:000000d4       __imp__ReadProcessMemory@20 004570d4     kernel32:KERNEL32.dll
 0002:000000d8       __imp__CloseHandle@4       004570d8     kernel32:KERNEL32.dll
 0002:000000dc       __imp__K32GetModuleFileNameExA@16 004570dc     kernel32:KERNEL32.dll
 0002:000000e0       __imp__OpenProcess@12      004570e0     kernel32:KERNEL32.dll
 0002:000000e4       __imp__GetCurrentProcess@0 004570e4     kernel32:KERNEL32.dll
 0002:000000e8       __imp__UnhandledExceptionFilter@4 004570e8     kernel32:KERNEL32.dll
 0002:000000ec       \177KERNEL32_NULL_THUNK_DATA 004570ec     kernel32:KERNEL32.dll
 0002:000000f0       __imp_?_Getcat@?$codecvt@DDU_Mbstatet@@@std@@SAIPAPBVfacet@locale@2@PBV42@@Z 004570f0     msvcprt:MSVCP140.dll
 0002:000000f4       __imp_??6?$basic_ostream@DU?$char_traits@D@std@@@std@@QAEAAV01@_J@Z 004570f4     msvcprt:MSVCP140.dll
 0002:000000f8       __imp_?sgetc@?$basic_streambuf@DU?$char_traits@D@std@@@std@@QAEHXZ 004570f8     msvcprt:MSVCP140.dll
 0002:000000fc       __imp_?unshift@?$codecvt@DDU_Mbstatet@@@std@@QBEHAAU_Mbstatet@@PAD1AAPAD@Z 004570fc     msvcprt:MSVCP140.dll
 0002:00000100       __imp_??0?$basic_streambuf@DU?$char_traits@D@std@@@std@@IAE@XZ 00457100     msvcprt:MSVCP140.dll
 0002:00000104       __imp_?_Init@?$basic_streambuf@DU?$char_traits@D@std@@@std@@IAEXXZ 00457104     msvcprt:MSVCP140.dll
 0002:00000108       __imp_?in@?$codecvt@DDU_Mbstatet@@@std@@QBEHAAU_Mbstatet@@PBD1AAPBDPAD3AAPAD@Z 00457108     msvcprt:MSVCP140.dll
 0002:0000010c       __imp_?out@?$codecvt@DDU_Mbstatet@@@std@@QBEHAAU_Mbstatet@@PBD1AAPBDPAD3AAPAD@Z 0045710c     msvcprt:MSVCP140.dll
 0002:00000110       __imp_?snextc@?$basic_streambuf@DU?$char_traits@D@std@@@std@@QAEHXZ 00457110     msvcprt:MSVCP140.dll
 0002:00000114       __imp_?_Pninc@?$basic_streambuf@DU?$char_traits@D@std@@@std@@IAEPADXZ 00457114     msvcprt:MSVCP140.dll
 0002:00000118       __imp_??0?$basic_ios@DU?$char_traits@D@std@@@std@@IAE@XZ 00457118     msvcprt:MSVCP140.dll
 0002:0000011c       __imp_??0?$basic_istream@DU?$char_traits@D@std@@@std@@QAE@PAV?$basic_streambuf@DU?$char_traits@D@std@@@1@_N@Z 0045711c     msvcprt:MSVCP140.dll
 0002:00000120       __imp_??1?$basic_streambuf@DU?$char_traits@D@std@@@std@@UAE@XZ 00457120     msvcprt:MSVCP140.dll
 0002:00000124       __imp_?_Lock@?$basic_streambuf@DU?$char_traits@D@std@@@std@@UAEXXZ 00457124     msvcprt:MSVCP140.dll
 0002:00000128       __imp_?_Unlock@?$basic_streambuf@DU?$char_traits@D@std@@@std@@UAEXXZ 00457128     msvcprt:MSVCP140.dll
 0002:0000012c       __imp_?showmanyc@?$basic_streambuf@DU?$char_traits@D@std@@@std@@MAE_JXZ 0045712c     msvcprt:MSVCP140.dll
 0002:00000130       __imp_?uflow@?$basic_streambuf@DU?$char_traits@D@std@@@std@@MAEHXZ 00457130     msvcprt:MSVCP140.dll
 0002:00000134       __imp_?xsgetn@?$basic_streambuf@DU?$char_traits@D@std@@@std@@MAE_JPAD_J@Z 00457134     msvcprt:MSVCP140.dll
 0002:00000138       __imp_?xsputn@?$basic_streambuf@DU?$char_traits@D@std@@@std@@MAE_JPBD_J@Z 00457138     msvcprt:MSVCP140.dll
 0002:0000013c       __imp_?setbuf@?$basic_streambuf@DU?$char_traits@D@std@@@std@@MAEPAV12@PAD_J@Z 0045713c     msvcprt:MSVCP140.dll
 0002:00000140       __imp_?sync@?$basic_streambuf@DU?$char_traits@D@std@@@std@@MAEHXZ 00457140     msvcprt:MSVCP140.dll
 0002:00000144       __imp_?imbue@?$basic_streambuf@DU?$char_traits@D@std@@@std@@MAEXABVlocale@2@@Z 00457144     msvcprt:MSVCP140.dll
 0002:00000148       __imp_??1?$basic_ios@DU?$char_traits@D@std@@@std@@UAE@XZ 00457148     msvcprt:MSVCP140.dll
 0002:0000014c       __imp_??1?$basic_istream@DU?$char_traits@D@std@@@std@@UAE@XZ 0045714c     msvcprt:MSVCP140.dll
 0002:00000150       __imp_??1?$basic_iostream@DU?$char_traits@D@std@@@std@@UAE@XZ 00457150     msvcprt:MSVCP140.dll
 0002:00000154       __imp_?getloc@ios_base@std@@QBE?AVlocale@2@XZ 00457154     msvcprt:MSVCP140.dll
 0002:00000158       __imp_?_Getcat@?$ctype@D@std@@SAIPAPBVfacet@locale@2@PBV42@@Z 00457158     msvcprt:MSVCP140.dll
 0002:0000015c       __imp_?always_noconv@codecvt_base@std@@QBE_NXZ 0045715c     msvcprt:MSVCP140.dll
 0002:00000160       __imp_??Bid@locale@std@@QAEIXZ 00457160     msvcprt:MSVCP140.dll
 0002:00000164       __imp_??0?$basic_iostream@DU?$char_traits@D@std@@@std@@QAE@PAV?$basic_streambuf@DU?$char_traits@D@std@@@1@@Z 00457164     msvcprt:MSVCP140.dll
 0002:00000168       __imp_?_Ipfx@?$basic_istream@DU?$char_traits@D@std@@@std@@QAE_N_N@Z 00457168     msvcprt:MSVCP140.dll
 0002:0000016c       __imp_?id@?$ctype@D@std@@2V0locale@2@A 0045716c     msvcprt:MSVCP140.dll
 0002:00000170       __imp_?id@?$codecvt@DDU_Mbstatet@@@std@@2V0locale@2@A 00457170     msvcprt:MSVCP140.dll
 0002:00000174       __imp_?_Getgloballocale@locale@std@@CAPAV_Locimp@12@XZ 00457174     msvcprt:MSVCP140.dll
 0002:00000178       __imp_??0_Lockit@std@@QAE@H@Z 00457178     msvcprt:MSVCP140.dll
 0002:0000017c       __imp_??1_Lockit@std@@QAE@XZ 0045717c     msvcprt:MSVCP140.dll
 0002:00000180       __imp_??6?$basic_ostream@DU?$char_traits@D@std@@@std@@QAEAAV01@H@Z 00457180     msvcprt:MSVCP140.dll
 0002:00000184       __imp_??6?$basic_ostream@DU?$char_traits@D@std@@@std@@QAEAAV01@P6AAAV01@AAV01@@Z@Z 00457184     msvcprt:MSVCP140.dll
 0002:00000188       __imp_?setstate@?$basic_ios@DU?$char_traits@D@std@@@std@@QAEXH_N@Z 00457188     msvcprt:MSVCP140.dll
 0002:0000018c       __imp_?flush@?$basic_ostream@DU?$char_traits@D@std@@@std@@QAEAAV12@XZ 0045718c     msvcprt:MSVCP140.dll
 0002:00000190       __imp_?_Osfx@?$basic_ostream@DU?$char_traits@D@std@@@std@@QAEXXZ 00457190     msvcprt:MSVCP140.dll
 0002:00000194       __imp_?sputc@?$basic_streambuf@DU?$char_traits@D@std@@@std@@QAEHD@Z 00457194     msvcprt:MSVCP140.dll
 0002:00000198       __imp_?put@?$basic_ostream@DU?$char_traits@D@std@@@std@@QAEAAV12@D@Z 00457198     msvcprt:MSVCP140.dll
 0002:0000019c       __imp_?widen@?$basic_ios@DU?$char_traits@D@std@@@std@@QBEDD@Z 0045719c     msvcprt:MSVCP140.dll
 0002:000001a0       __imp_?sputn@?$basic_streambuf@DU?$char_traits@D@std@@@std@@QAE_JPBD_J@Z 004571a0     msvcprt:MSVCP140.dll
 0002:000001a4       __imp_?_Xlength_error@std@@YAXPBD@Z 004571a4     msvcprt:MSVCP140.dll
 0002:000001a8       __imp_?_Xout_of_range@std@@YAXPBD@Z 004571a8     msvcprt:MSVCP140.dll
 0002:000001ac       __imp_?_Xinvalid_argument@std@@YAXPBD@Z 004571ac     msvcprt:MSVCP140.dll
 0002:000001b0       __imp_?uncaught_exception@std@@YA_NXZ 004571b0     msvcprt:MSVCP140.dll
 0002:000001b4       __imp_?cout@std@@3V?$basic_ostream@DU?$char_traits@D@std@@@1@A 004571b4     msvcprt:MSVCP140.dll
 0002:000001b8       \177MSVCP140_NULL_THUNK_DATA 004571b8     msvcprt:MSVCP140.dll
 0002:000001bc       __imp__GetMessageA@16      004571bc     user32:USER32.dll
 0002:000001c0       __imp__DispatchMessageA@4  004571c0     user32:USER32.dll
 0002:000001c4       __imp__GetWindowRect@8     004571c4     user32:USER32.dll
 0002:000001c8       __imp__DestroyWindow@4     004571c8     user32:USER32.dll
 0002:000001cc       __imp__ShowWindow@8        004571cc     user32:USER32.dll
 0002:000001d0       __imp__GetForegroundWindow@0 004571d0     user32:USER32.dll
 0002:000001d4       __imp__MoveWindow@24       004571d4     user32:USER32.dll
 0002:000001d8       __imp__GetWindowThreadProcessId@8 004571d8     user32:USER32.dll
 0002:000001dc       __imp__CreateWindowExA@48  004571dc     user32:USER32.dll
 0002:000001e0       __imp__SetLayeredWindowAttributes@16 004571e0     user32:USER32.dll
 0002:000001e4       __imp__TranslateMessage@4  004571e4     user32:USER32.dll
 0002:000001e8       __imp__UnregisterClassA@8  004571e8     user32:USER32.dll
 0002:000001ec       __imp__PostQuitMessage@4   004571ec     user32:USER32.dll
 0002:000001f0       __imp__FindWindowA@8       004571f0     user32:USER32.dll
 0002:000001f4       __imp__RegisterClassExA@4  004571f4     user32:USER32.dll
 0002:000001f8       __imp__UpdateWindow@4      004571f8     user32:USER32.dll
 0002:000001fc       __imp__DefWindowProcA@16   004571fc     user32:USER32.dll
 0002:00000200       \177USER32_NULL_THUNK_DATA 00457200     user32:USER32.dll
 0002:00000204       __imp__memchr              00457204     vcruntime:VCRUNTIME140.dll
 0002:00000208       __imp__strrchr             00457208     vcruntime:VCRUNTIME140.dll
 0002:0000020c       __imp__strchr              0045720c     vcruntime:VCRUNTIME140.dll
 0002:00000210       __imp__memmove             00457210     vcruntime:VCRUNTIME140.dll
 0002:00000214       __imp__memcpy              00457214     vcruntime:VCRUNTIME140.dll
 0002:00000218       __imp__strstr              00457218     vcruntime:VCRUNTIME140.dll
 0002:0000021c       __imp____CxxFrameHandler3  0045721c     vcruntime:VCRUNTIME140.dll
 0002:00000220       __imp____std_exception_destroy 00457220     vcruntime:VCRUNTIME140.dll
 0002:00000224       __imp____std_exception_copy 00457224     vcruntime:VCRUNTIME140.dll
 0002:00000228       __imp____std_terminate     00457228     vcruntime:VCRUNTIME140.dll
 0002:0000022c       __imp____current_exception 0045722c     vcruntime:VCRUNTIME140.dll
 0002:00000230       __imp____current_exception_context 00457230     vcruntime:VCRUNTIME140.dll
 0002:00000234       __imp___CxxThrowException@8 00457234     vcruntime:VCRUNTIME140.dll
 0002:00000238       __imp___except_handler4_common 00457238     vcruntime:VCRUNTIME140.dll
 0002:0000023c       __imp__memset              0045723c     vcruntime:VCRUNTIME140.dll
 0002:00000240       \177VCRUNTIME140_NULL_THUNK_DATA 00457240     vcruntime:VCRUNTIME140.dll
 0002:00000244       __imp__ldap_memfree        00457244     wldap32:WLDAP32.dll
 0002:00000248       __imp__ldap_get_dn         00457248     wldap32:WLDAP32.dll
 0002:0000024c       __imp__ldap_value_free_len 0045724c     wldap32:WLDAP32.dll
 0002:00000250       __imp__ldap_get_values_len 00457250     wldap32:WLDAP32.dll
 0002:00000254       __imp__ber_free            00457254     wldap32:WLDAP32.dll
 0002:00000258       __imp__ldap_search_s       00457258     wldap32:WLDAP32.dll
 0002:0000025c       __imp__ldap_next_attribute 0045725c     wldap32:WLDAP32.dll
 0002:00000260       __imp__ldap_simple_bind_s  00457260     wldap32:WLDAP32.dll
 0002:00000264       __imp__ldap_set_option     00457264     wldap32:WLDAP32.dll
 0002:00000268       __imp__ldap_unbind_s       00457268     wldap32:WLDAP32.dll
 0002:0000026c       __imp__ldap_first_attribute 0045726c     wldap32:WLDAP32.dll
 0002:00000270       __imp__ldap_sslinit        00457270     wldap32:WLDAP32.dll
 0002:00000274       __imp__ldap_init           00457274     wldap32:WLDAP32.dll
 0002:00000278       __imp__ldap_msgfree        00457278     wldap32:WLDAP32.dll
 0002:0000027c       __imp__ldap_next_entry     0045727c     wldap32:WLDAP32.dll
 0002:00000280       __imp__ldap_err2string     00457280     wldap32:WLDAP32.dll
 0002:00000284       __imp__ldap_first_entry    00457284     wldap32:WLDAP32.dll
 0002:00000288       \177WLDAP32_NULL_THUNK_DATA 00457288     wldap32:WLDAP32.dll
 0002:0000028c       __imp__htons@4             0045728c     ws2_32:WS2_32.dll
 0002:00000290       __imp__ntohs@4             00457290     ws2_32:WS2_32.dll
 0002:00000294       __imp__setsockopt@20       00457294     ws2_32:WS2_32.dll
 0002:00000298       __imp__getsockopt@20       00457298     ws2_32:WS2_32.dll
 0002:0000029c       __imp__getsockname@12      0045729c     ws2_32:WS2_32.dll
 0002:000002a0       __imp__socket@12           004572a0     ws2_32:WS2_32.dll
 0002:000002a4       __imp__getpeername@12      004572a4     ws2_32:WS2_32.dll
 0002:000002a8       __imp__WSAIoctl@36         004572a8     ws2_32:WS2_32.dll
 0002:000002ac       __imp__WSAStartup@8        004572ac     ws2_32:WS2_32.dll
 0002:000002b0       __imp__WSACleanup@0        004572b0     ws2_32:WS2_32.dll
 0002:000002b4       __imp__accept@12           004572b4     ws2_32:WS2_32.dll
 0002:000002b8       __imp__htonl@4             004572b8     ws2_32:WS2_32.dll
 0002:000002bc       __imp__listen@8            004572bc     ws2_32:WS2_32.dll
 0002:000002c0       __imp__ioctlsocket@12      004572c0     ws2_32:WS2_32.dll
 0002:000002c4       __imp____WSAFDIsSet@8      004572c4     ws2_32:WS2_32.dll
 0002:000002c8       __imp__select@20           004572c8     ws2_32:WS2_32.dll
 0002:000002cc       __imp__getaddrinfo@16      004572cc     ws2_32:WS2_32.dll
 0002:000002d0       __imp__freeaddrinfo@4      004572d0     ws2_32:WS2_32.dll
 0002:000002d4       __imp__WSACloseEvent@4     004572d4     ws2_32:WS2_32.dll
 0002:000002d8       __imp__WSACreateEvent@0    004572d8     ws2_32:WS2_32.dll
 0002:000002dc       __imp__WSAEnumNetworkEvents@12 004572dc     ws2_32:WS2_32.dll
 0002:000002e0       __imp__WSAEventSelect@12   004572e0     ws2_32:WS2_32.dll
 0002:000002e4       __imp__recvfrom@24         004572e4     ws2_32:WS2_32.dll
 0002:000002e8       __imp__sendto@24           004572e8     ws2_32:WS2_32.dll
 0002:000002ec       __imp__gethostname@8       004572ec     ws2_32:WS2_32.dll
 0002:000002f0       __imp__connect@12          004572f0     ws2_32:WS2_32.dll
 0002:000002f4       __imp__bind@12             004572f4     ws2_32:WS2_32.dll
 0002:000002f8       __imp__WSAGetLastError@0   004572f8     ws2_32:WS2_32.dll
 0002:000002fc       __imp__send@16             004572fc     ws2_32:WS2_32.dll
 0002:00000300       __imp__recv@16             00457300     ws2_32:WS2_32.dll
 0002:00000304       __imp__closesocket@4       00457304     ws2_32:WS2_32.dll
 0002:00000308       __imp__WSASetLastError@4   00457308     ws2_32:WS2_32.dll
 0002:0000030c       \177WS2_32_NULL_THUNK_DATA 0045730c     ws2_32:WS2_32.dll
 0002:00000310       __imp__atoi                00457310     ucrt:api-ms-win-crt-convert-l1-1-0.dll
 0002:00000314       __imp__wcstombs            00457314     ucrt:api-ms-win-crt-convert-l1-1-0.dll
 0002:00000318       __imp__strtoll             00457318     ucrt:api-ms-win-crt-convert-l1-1-0.dll
 0002:0000031c       __imp__strtol              0045731c     ucrt:api-ms-win-crt-convert-l1-1-0.dll
 0002:00000320       __imp__strtoul             00457320     ucrt:api-ms-win-crt-convert-l1-1-0.dll
 0002:00000324       \177api-ms-win-crt-convert-l1-1-0_NULL_THUNK_DATA 00457324     ucrt:api-ms-win-crt-convert-l1-1-0.dll
 0002:00000328       __imp___fstat64            00457328     ucrt:api-ms-win-crt-filesystem-l1-1-0.dll
 0002:0000032c       __imp___stat64             0045732c     ucrt:api-ms-win-crt-filesystem-l1-1-0.dll
 0002:00000330       __imp___access             00457330     ucrt:api-ms-win-crt-filesystem-l1-1-0.dll
 0002:00000334       __imp___lock_file          00457334     ucrt:api-ms-win-crt-filesystem-l1-1-0.dll
 0002:00000338       __imp___unlock_file        00457338     ucrt:api-ms-win-crt-filesystem-l1-1-0.dll
 0002:0000033c       __imp___unlink             0045733c     ucrt:api-ms-win-crt-filesystem-l1-1-0.dll
 0002:0000033c       __imp__unlink              0045733c     ucrt:api-ms-win-crt-filesystem-l1-1-0.dll
 0002:00000340       \177api-ms-win-crt-filesystem-l1-1-0_NULL_THUNK_DATA 00457340     ucrt:api-ms-win-crt-filesystem-l1-1-0.dll
 0002:00000344       __imp__malloc              00457344     ucrt:api-ms-win-crt-heap-l1-1-0.dll
 0002:00000348       __imp___callnewh           00457348     ucrt:api-ms-win-crt-heap-l1-1-0.dll
 0002:0000034c       __imp___set_new_mode       0045734c     ucrt:api-ms-win-crt-heap-l1-1-0.dll
 0002:00000350       __imp__free                00457350     ucrt:api-ms-win-crt-heap-l1-1-0.dll
 0002:00000354       __imp__realloc             00457354     ucrt:api-ms-win-crt-heap-l1-1-0.dll
 0002:00000358       __imp__calloc              00457358     ucrt:api-ms-win-crt-heap-l1-1-0.dll
 0002:0000035c       \177api-ms-win-crt-heap-l1-1-0_NULL_THUNK_DATA 0045735c     ucrt:api-ms-win-crt-heap-l1-1-0.dll
 0002:00000360       __imp___configthreadlocale 00457360     ucrt:api-ms-win-crt-locale-l1-1-0.dll
 0002:00000364       \177api-ms-win-crt-locale-l1-1-0_NULL_THUNK_DATA 00457364     ucrt:api-ms-win-crt-locale-l1-1-0.dll
 0002:00000368       __imp____setusermatherr    00457368     ucrt:api-ms-win-crt-math-l1-1-0.dll
 0002:0000036c       \177api-ms-win-crt-math-l1-1-0_NULL_THUNK_DATA 0045736c     ucrt:api-ms-win-crt-math-l1-1-0.dll
 0002:00000370       __imp___mbspbrk            00457370     ucrt:api-ms-win-crt-multibyte-l1-1-0.dll
 0002:00000374       \177api-ms-win-crt-multibyte-l1-1-0_NULL_THUNK_DATA 00457374     ucrt:api-ms-win-crt-multibyte-l1-1-0.dll
 0002:00000378       __imp___initialize_onexit_table 00457378     ucrt:api-ms-win-crt-runtime-l1-1-0.dll
 0002:0000037c       __imp___beginthreadex      0045737c     ucrt:api-ms-win-crt-runtime-l1-1-0.dll
 0002:00000380       __imp___errno              00457380     ucrt:api-ms-win-crt-runtime-l1-1-0.dll
 0002:00000384       __imp___register_onexit_function 00457384     ucrt:api-ms-win-crt-runtime-l1-1-0.dll
 0002:00000388       __imp___crt_atexit         00457388     ucrt:api-ms-win-crt-runtime-l1-1-0.dll
 0002:0000038c       __imp___getpid             0045738c     ucrt:api-ms-win-crt-runtime-l1-1-0.dll
 0002:00000390       __imp___invalid_parameter_noinfo_noreturn 00457390     ucrt:api-ms-win-crt-runtime-l1-1-0.dll
 0002:00000394       __imp__terminate           00457394     ucrt:api-ms-win-crt-runtime-l1-1-0.dll
 0002:00000398       __imp___controlfp_s        00457398     ucrt:api-ms-win-crt-runtime-l1-1-0.dll
 0002:0000039c       __imp___cexit              0045739c     ucrt:api-ms-win-crt-runtime-l1-1-0.dll
 0002:000003a0       __imp___seh_filter_exe     004573a0     ucrt:api-ms-win-crt-runtime-l1-1-0.dll
 0002:000003a4       __imp___set_app_type       004573a4     ucrt:api-ms-win-crt-runtime-l1-1-0.dll
 0002:000003a8       __imp___initialize_narrow_environment 004573a8     ucrt:api-ms-win-crt-runtime-l1-1-0.dll
 0002:000003ac       __imp___initterm           004573ac     ucrt:api-ms-win-crt-runtime-l1-1-0.dll
 0002:000003b0       __imp___initterm_e         004573b0     ucrt:api-ms-win-crt-runtime-l1-1-0.dll
 0002:000003b4       __imp__exit                004573b4     ucrt:api-ms-win-crt-runtime-l1-1-0.dll
 0002:000003b8       __imp___configure_narrow_argv 004573b8     ucrt:api-ms-win-crt-runtime-l1-1-0.dll
 0002:000003bc       __imp__strerror            004573bc     ucrt:api-ms-win-crt-runtime-l1-1-0.dll
 0002:000003c0       __imp___exit               004573c0     ucrt:api-ms-win-crt-runtime-l1-1-0.dll
 0002:000003c4       __imp__system              004573c4     ucrt:api-ms-win-crt-runtime-l1-1-0.dll
 0002:000003c8       __imp____sys_nerr          004573c8     ucrt:api-ms-win-crt-runtime-l1-1-0.dll
 0002:000003cc       __imp___register_thread_local_exe_atexit_callback 004573cc     ucrt:api-ms-win-crt-runtime-l1-1-0.dll
 0002:000003d0       __imp___c_exit             004573d0     ucrt:api-ms-win-crt-runtime-l1-1-0.dll
 0002:000003d4       __imp___get_narrow_winmain_command_line 004573d4     ucrt:api-ms-win-crt-runtime-l1-1-0.dll
 0002:000003d8       \177api-ms-win-crt-runtime-l1-1-0_NULL_THUNK_DATA 004573d8     ucrt:api-ms-win-crt-runtime-l1-1-0.dll
 0002:000003dc       __imp___pclose             004573dc     ucrt:api-ms-win-crt-stdio-l1-1-0.dll
 0002:000003e0       __imp__read                004573e0     ucrt:api-ms-win-crt-stdio-l1-1-0.dll
 0002:000003e0       __imp___read               004573e0     ucrt:api-ms-win-crt-stdio-l1-1-0.dll
 0002:000003e4       __imp__fputs               004573e4     ucrt:api-ms-win-crt-stdio-l1-1-0.dll
 0002:000003e8       __imp__write               004573e8     ucrt:api-ms-win-crt-stdio-l1-1-0.dll
 0002:000003e8       __imp___write              004573e8     ucrt:api-ms-win-crt-stdio-l1-1-0.dll
 0002:000003ec       __imp__fgetc               004573ec     ucrt:api-ms-win-crt-stdio-l1-1-0.dll
 0002:000003f0       __imp__fclose              004573f0     ucrt:api-ms-win-crt-stdio-l1-1-0.dll
 0002:000003f4       __imp__fflush              004573f4     ucrt:api-ms-win-crt-stdio-l1-1-0.dll
 0002:000003f8       __imp____p__commode        004573f8     ucrt:api-ms-win-crt-stdio-l1-1-0.dll
 0002:000003fc       __imp__fputc               004573fc     ucrt:api-ms-win-crt-stdio-l1-1-0.dll
 0002:00000400       __imp__feof                00457400     ucrt:api-ms-win-crt-stdio-l1-1-0.dll
 0002:00000404       __imp___lseeki64           00457404     ucrt:api-ms-win-crt-stdio-l1-1-0.dll
 0002:00000408       __imp____stdio_common_vsprintf 00457408     ucrt:api-ms-win-crt-stdio-l1-1-0.dll
 0002:0000040c       __imp__freopen_s           0045740c     ucrt:api-ms-win-crt-stdio-l1-1-0.dll
 0002:00000410       __imp___open               00457410     ucrt:api-ms-win-crt-stdio-l1-1-0.dll
 0002:00000414       __imp__fseek               00457414     ucrt:api-ms-win-crt-stdio-l1-1-0.dll
 0002:00000418       __imp__fopen               00457418     ucrt:api-ms-win-crt-stdio-l1-1-0.dll
 0002:0000041c       __imp____acrt_iob_func     0045741c     ucrt:api-ms-win-crt-stdio-l1-1-0.dll
 0002:00000420       __imp____stdio_common_vsscanf 00457420     ucrt:api-ms-win-crt-stdio-l1-1-0.dll
 0002:00000424       __imp___set_fmode          00457424     ucrt:api-ms-win-crt-stdio-l1-1-0.dll
 0002:00000428       __imp___get_stream_buffer_pointers 00457428     ucrt:api-ms-win-crt-stdio-l1-1-0.dll
 0002:0000042c       __imp___fseeki64           0045742c     ucrt:api-ms-win-crt-stdio-l1-1-0.dll
 0002:00000430       __imp__fread               00457430     ucrt:api-ms-win-crt-stdio-l1-1-0.dll
 0002:00000434       __imp__fsetpos             00457434     ucrt:api-ms-win-crt-stdio-l1-1-0.dll
 0002:00000438       __imp__ungetc              00457438     ucrt:api-ms-win-crt-stdio-l1-1-0.dll
 0002:0000043c       __imp___popen              0045743c     ucrt:api-ms-win-crt-stdio-l1-1-0.dll
 0002:00000440       __imp__setvbuf             00457440     ucrt:api-ms-win-crt-stdio-l1-1-0.dll
 0002:00000444       __imp__fgetpos             00457444     ucrt:api-ms-win-crt-stdio-l1-1-0.dll
 0002:00000448       __imp__fwrite              00457448     ucrt:api-ms-win-crt-stdio-l1-1-0.dll
 0002:0000044c       __imp__fgets               0045744c     ucrt:api-ms-win-crt-stdio-l1-1-0.dll
 0002:00000450       __imp__close               00457450     ucrt:api-ms-win-crt-stdio-l1-1-0.dll
 0002:00000450       __imp___close              00457450     ucrt:api-ms-win-crt-stdio-l1-1-0.dll
 0002:00000454       \177api-ms-win-crt-stdio-l1-1-0_NULL_THUNK_DATA 00457454     ucrt:api-ms-win-crt-stdio-l1-1-0.dll
 0002:00000458       __imp__tolower             00457458     ucrt:api-ms-win-crt-string-l1-1-0.dll
 0002:0000045c       __imp___strdup             0045745c     ucrt:api-ms-win-crt-string-l1-1-0.dll
 0002:0000045c       __imp__strdup              0045745c     ucrt:api-ms-win-crt-string-l1-1-0.dll
 0002:00000460       __imp__strpbrk             00457460     ucrt:api-ms-win-crt-string-l1-1-0.dll
 0002:00000464       __imp__strspn              00457464     ucrt:api-ms-win-crt-string-l1-1-0.dll
 0002:00000468       __imp__strcspn             00457468     ucrt:api-ms-win-crt-string-l1-1-0.dll
 0002:0000046c       __imp__strncmp             0045746c     ucrt:api-ms-win-crt-string-l1-1-0.dll
 0002:00000470       __imp__strncpy             00457470     ucrt:api-ms-win-crt-string-l1-1-0.dll
 0002:00000474       \177api-ms-win-crt-string-l1-1-0_NULL_THUNK_DATA 00457474     ucrt:api-ms-win-crt-string-l1-1-0.dll
 0002:00000478       __imp___time64             00457478     ucrt:api-ms-win-crt-time-l1-1-0.dll
 0002:0000047c       __imp___gmtime64           0045747c     ucrt:api-ms-win-crt-time-l1-1-0.dll
 0002:00000480       __imp___localtime64        00457480     ucrt:api-ms-win-crt-time-l1-1-0.dll
 0002:00000484       __imp__strftime            00457484     ucrt:api-ms-win-crt-time-l1-1-0.dll
 0002:00000488       \177api-ms-win-crt-time-l1-1-0_NULL_THUNK_DATA 00457488     ucrt:api-ms-win-crt-time-l1-1-0.dll
 0002:0000048c       __imp__qsort               0045748c     ucrt:api-ms-win-crt-utility-l1-1-0.dll
 0002:00000490       \177api-ms-win-crt-utility-l1-1-0_NULL_THUNK_DATA 00457490     ucrt:api-ms-win-crt-utility-l1-1-0.dll
 0002:00000494       __imp__Direct3DCreate9@4   00457494     d3d9:d3d9.dll
 0002:00000498       \177d3d9_NULL_THUNK_DATA   00457498     d3d9:d3d9.dll
 0002:0000049c       __imp__D3DXCreateLine@8    0045749c     d3dx9:d3dx9_43.dll
 0002:000004a0       \177d3dx9_43_NULL_THUNK_DATA 004574a0     d3dx9:d3dx9_43.dll
 0002:000004a4       ___guard_check_icall_fptr  004574a4     MSVCRT:guard_support.obj
 0002:000004a8       ___xc_a                    004574a8     MSVCRT:initializers.obj
 0002:000005f0       ___xc_z                    004575f0     MSVCRT:initializers.obj
 0002:000005f4       ___xi_a                    004575f4     MSVCRT:initializers.obj
 0002:00000600       ___xi_z                    00457600     MSVCRT:initializers.obj
 0002:00000604       ___xp_a                    00457604     MSVCRT:initializers.obj
 0002:00000608       ___xp_z                    00457608     MSVCRT:initializers.obj
 0002:0000060c       ___xt_a                    0045760c     MSVCRT:initializers.obj
 0002:00000610       ___xt_z                    00457610     MSVCRT:initializers.obj
 0002:00000624       ??_7type_info@@6B@         00457624     MSVCRT:std_type_info_static.obj
 0002:00000634       ??_7exception@std@@6B@     00457634     MSVCRT:throw_bad_alloc.obj
 0002:00000640       ??_7bad_alloc@std@@6B@     00457640     MSVCRT:throw_bad_alloc.obj
 0002:00000648       ??_C@_0P@GHFPNOJB@bad?5allocation@ 00457648     MSVCRT:throw_bad_alloc.obj
 0002:0000065c       ??_7bad_array_new_length@std@@6B@ 0045765c     MSVCRT:throw_bad_alloc.obj
 0002:00000664       ??_C@_0CJ@FAHCKHJA@easy?5handle?5already?5used?5in?5mult@ 00457664     libcurl:easy.obj
 0002:0000068d       ??_C@_00CNPNBAHC@?$AA@     0045768d     libcurl:setopt.obj
 0002:00000690       ??_C@_03NIFPGLBG@ALL?$AA@  00457690     libcurl:setopt.obj
 0002:00000694       ??_C@_04BFMIILII@SESS?$AA@ 00457694     libcurl:setopt.obj
 0002:0000069c       ??_C@_05KALGKIBB@FLUSH?$AA@ 0045769c     libcurl:setopt.obj
 0002:000006a4       ??_C@_06DCHFNDBF@RELOAD?$AA@ 004576a4     libcurl:setopt.obj
 0002:000006ac       ??_C@_0M@ICGHKGOK@Set?9Cookie?3?$AA@ 004576ac     libcurl:setopt.obj
 0002:00000710       ??_C@_0CH@LECELJNK@Connection?5?$CD?$CFld?5to?5host?5?$CFs?5left?5@ 00457710     libcurl:multi.obj
 0002:00000738       ??_C@_03OFAPEBGM@?$CFs?6?$AA@ 00457738     libcurl:multi.obj
 0002:0000073c       ??_C@_0CN@BEDJOLPM@Resolving?5timed?5out?5after?5?$CFI64d?5@ 0045773c     libcurl:multi.obj
 0002:0000076c       ??_C@_0CO@PINFDPJN@Connection?5timed?5out?5after?5?$CFI64d@ 0045776c     libcurl:multi.obj
 0002:000007a0       ??_C@_0FE@NBLGEINA@Operation?5timed?5out?5after?5?$CFI64d?5@ 004577a0     libcurl:multi.obj
 0002:000007f8       ??_C@_0EH@GJEAMCHA@Operation?5timed?5out?5after?5?$CFI64d?5@ 004577f8     libcurl:multi.obj
 0002:00000840       ??_C@_0CH@NOKKCOPP@Transfer?5was?5pending?0?5now?5try?5an@ 00457840     libcurl:multi.obj
 0002:00000868       ??_C@_0CG@EBAFLAEC@Hostname?5?8?$CFs?8?5was?5found?5in?5DNS?5c@ 00457868     libcurl:multi.obj
 0002:00000890       ??_C@_0CJ@OALAEPML@Internal?5error?5removing?5splay?5no@ 00457890     libcurl:multi.obj
 0002:000008bc       ??_C@_0CJ@EHKACPHP@Internal?5error?5clearing?5splay?5no@ 004578bc     libcurl:multi.obj
 0002:000008e8       ??_C@_01KMDKNFGN@?1?$AA@   004578e8     libcurl:cookie.obj
 0002:000008ec       ??_C@_0CE@BBKJHKDF@ignoring?5failed?5cookie_init?5for?5@ 004578ec     libcurl:cookie.obj
 0002:00000910       ??_C@_09IPAEKDAI@localhost?$AA@ 00457910     libcurl:cookie.obj
 0002:0000091c       ??_C@_0BK@IIFEHJP@?$CF4095?$FL?$FO?$DL?$AN?6?$DN?$FN?5?$DN?$CF4095?$FL?$FO?$DL?$AN?6?$FN?$AA@ 0045791c     libcurl:cookie.obj
 0002:00000938       ??_C@_0DE@IBKAGOK@oversized?5cookie?5dropped?0?5name?1v@ 00457938     libcurl:cookie.obj
 0002:0000096c       ??_C@_09OLPEHKPE@__Secure?9?$AA@ 0045796c     libcurl:cookie.obj
 0002:00000978       ??_C@_07DBHHKFCO@__Host?9?$AA@ 00457978     libcurl:cookie.obj
 0002:00000980       ??_C@_06CKKGAKDB@secure?$AA@ 00457980     libcurl:cookie.obj
 0002:00000988       ??_C@_08LKPJDOCJ@httponly?$AA@ 00457988     libcurl:cookie.obj
 0002:00000994       ??_C@_04LNEJFJGI@path?$AA@ 00457994     libcurl:cookie.obj
 0002:0000099c       ??_C@_06LKIIGAOE@domain?$AA@ 0045799c     libcurl:cookie.obj
 0002:000009a4       ??_C@_01JLIPDDHJ@?3?$AA@   004579a4     libcurl:cookie.obj
 0002:000009a8       ??_C@_0CO@IPHLIEKA@skipped?5cookie?5with?5bad?5tailmatc@ 004579a8     libcurl:cookie.obj
 0002:000009d8       ??_C@_07CPCPJPKL@version?$AA@ 004579d8     libcurl:cookie.obj
 0002:000009e0       ??_C@_07PEFKGEJF@max?9age?$AA@ 004579e0     libcurl:cookie.obj
 0002:000009e8       ??_C@_07MJGJEDBB@expires?$AA@ 004579e8     libcurl:cookie.obj
 0002:000009f0       ??_C@_0L@KAKJBGGD@?$CDHttpOnly_?$AA@ 004579f0     libcurl:cookie.obj
 0002:000009fc       ??_C@_01GPOEFGEJ@?7?$AA@   004579fc     libcurl:cookie.obj
 0002:00000a00       ??_C@_04HCDDPBNL@TRUE?$AA@ 00457a00     libcurl:cookie.obj
 0002:00000a08       ??_C@_05MAJJAKPI@FALSE?$AA@ 00457a08     libcurl:cookie.obj
 0002:00000a10       ??_C@_08IMELJCAM@Replaced?$AA@ 00457a10     libcurl:cookie.obj
 0002:00000a1c       ??_C@_05BNECJBCE@Added?$AA@ 00457a1c     libcurl:cookie.obj
 0002:00000a24       ??_C@_0DI@KHDIKDMI@?$CFs?5cookie?5?$CFs?$DN?$CC?$CFs?$CC?5for?5domain?5?$CFs?0@ 00457a24     libcurl:cookie.obj
 0002:00000a5c       ??_C@_04CGFJFPFD@none?$AA@ 00457a5c     libcurl:cookie.obj
 0002:00000a64       ??_C@_01JOAMLHOP@?9?$AA@   00457a64     libcurl:cookie.obj
 0002:00000a68       ??_C@_02BMJICGCB@rt?$AA@   00457a68     libcurl:cookie.obj
 0002:00000a6c       ??_C@_07CIFAGBMG@unknown?$AA@ 00457a6c     libcurl:cookie.obj
 0002:00000a74       ??_C@_01LFCBOECM@?4?$AA@   00457a74     libcurl:cookie.obj
 0002:00000a78       ??_C@_0BM@FIJJOLNN@?$CFs?$CFs?$CFs?7?$CFs?7?$CFs?7?$CFs?7?$CFI64d?7?$CFs?7?$CFs?$AA@ 00457a78     libcurl:cookie.obj
 0002:00000a94       ??_C@_09HFHMDOBG@?$CFs?4?$CFs?4tmp?$AA@ 00457a94     libcurl:cookie.obj
 0002:00000aa0       ??_C@_02BKFDOEMK@wt?$AA@   00457aa0     libcurl:cookie.obj
 0002:00000aa8       ??_C@_0IE@HIOMJDLH@?$CD?5Netscape?5HTTP?5Cookie?5File?6?$CD?5ht@ 00457aa8     libcurl:cookie.obj
 0002:00000b2c       ??_C@_0BJ@LMHKHCLE@?$CD?6?$CD?5Fatal?5libcurl?5error?6?$AA@ 00457b2c     libcurl:cookie.obj
 0002:00000b48       ??_C@_0CH@EIDBEPEM@WARNING?3?5failed?5to?5save?5cookies?5@ 00457b48     libcurl:cookie.obj
 0002:00000b70       ??_C@_02DPKJAMEF@?$CFd?$AA@ 00457b70     libcurl:asyn-thread.obj
 0002:00000b74       ??_C@_0CF@DENKCHCB@getaddrinfo?$CI?$CJ?5thread?5failed?5to?5s@ 00457b74     libcurl:asyn-thread.obj
 0002:00000d94       ??_C@_04JFHMGKLD@?4gif?$AA@ 00457d94     libcurl:mime.obj
 0002:00000d9c       ??_C@_09HADNJIG@image?1gif?$AA@ 00457d9c     libcurl:mime.obj
 0002:00000da8       ??_C@_04GNPKBLNA@?4jpg?$AA@ 00457da8     libcurl:mime.obj
 0002:00000db0       ??_C@_0L@PJKHLKFB@image?1jpeg?$AA@ 00457db0     libcurl:mime.obj
 0002:00000dbc       ??_C@_05KPIGABMB@?4jpeg?$AA@ 00457dbc     libcurl:mime.obj
 0002:00000dc4       ??_C@_04EEOGCCFB@?4png?$AA@ 00457dc4     libcurl:mime.obj
 0002:00000dcc       ??_C@_09NGJJJBGE@image?1png?$AA@ 00457dcc     libcurl:mime.obj
 0002:00000dd8       ??_C@_04EEGGHPHH@?4svg?$AA@ 00457dd8     libcurl:mime.obj
 0002:00000de0       ??_C@_0O@MMMFMLNF@image?1svg?$CLxml?$AA@ 00457de0     libcurl:mime.obj
 0002:00000df0       ??_C@_04LCMACLFG@?4txt?$AA@ 00457df0     libcurl:mime.obj
 0002:00000df8       ??_C@_0L@NPNLKGOJ@text?1plain?$AA@ 00457df8     libcurl:mime.obj
 0002:00000e04       ??_C@_04DKBFJDAN@?4htm?$AA@ 00457e04     libcurl:mime.obj
 0002:00000e0c       ??_C@_09KABDMIOB@text?1html?$AA@ 00457e0c     libcurl:mime.obj
 0002:00000e18       ??_C@_05LHMDENIF@?4html?$AA@ 00457e18     libcurl:mime.obj
 0002:00000e20       ??_C@_04FAGKJGMG@?4pdf?$AA@ 00457e20     libcurl:mime.obj
 0002:00000e28       ??_C@_0BA@MHMDKHOF@application?1pdf?$AA@ 00457e28     libcurl:mime.obj
 0002:00000e38       ??_C@_04GAOAGNCM@?4xml?$AA@ 00457e38     libcurl:mime.obj
 0002:00000e40       ??_C@_0BA@PHEJFMAP@application?1xml?$AA@ 00457e40     libcurl:mime.obj
 0002:00000e50       ??_C@_06FNFBAEBE@binary?$AA@ 00457e50     libcurl:mime.obj
 0002:00000e58       ??_C@_04DFPGIIHA@8bit?$AA@ 00457e58     libcurl:mime.obj
 0002:00000e60       ??_C@_04LHKGBPKB@7bit?$AA@ 00457e60     libcurl:mime.obj
 0002:00000e68       ??_C@_06JEFEFGEJ@base64?$AA@ 00457e68     libcurl:mime.obj
 0002:00000e70       ??_C@_0BB@CAHAECFA@quoted?9printable?$AA@ 00457e70     libcurl:mime.obj
 0002:00000e84       ??_C@_02JDPG@rb?$AA@       00457e84     libcurl:mime.obj
 0002:00000e88       ??_C@_0N@LAFFMKKA@Content?9Type?$AA@ 00457e88     libcurl:mime.obj
 0002:00000e98       ??_C@_02PCIJFNDE@?$AN?6?$AA@ 00457e98     libcurl:mime.obj
 0002:00000e9c       ??_C@_04LOEPKDGL@?$AN?6?9?9?$AA@ 00457e9c     libcurl:mime.obj
 0002:00000ea4       ??_C@_04KAODOPGN@?9?9?$AN?6?$AA@ 00457ea4     libcurl:mime.obj
 0002:00000eac       ??_C@_0BP@IAECJDB@Can?8t?5add?5itself?5as?5a?5subpart?$CB?$AA@ 00457eac     libcurl:mime.obj
 0002:00000ecc       ??_C@_0M@MJDFHGPO@?$DL?5boundary?$DN?$AA@ 00457ecc     libcurl:mime.obj
 0002:00000ed8       ??_C@_0BF@JGMBPGGP@Content?9Type?3?5?$CFs?$CFs?$CFs?$AA@ 00457ed8     libcurl:mime.obj
 0002:00000ef0       ??_C@_0BA@LBPJGHIO@multipart?1mixed?$AA@ 00457ef0     libcurl:mime.obj
 0002:00000f00       ??_C@_0BJ@JDCJMJCJ@application?1octet?9stream?$AA@ 00457f00     libcurl:mime.obj
 0002:00000f1c       ??_C@_0BE@LMOOGHBG@Content?9Disposition?$AA@ 00457f1c     libcurl:mime.obj
 0002:00000f30       ??_C@_0L@LMJJPMNG@multipart?1?$AA@ 00457f30     libcurl:mime.obj
 0002:00000f3c       ??_C@_0L@HBDHCFKP@attachment?$AA@ 00457f3c     libcurl:mime.obj
 0002:00000f48       ??_C@_01BJJEKLCA@?$CC?$AA@ 00457f48     libcurl:mime.obj
 0002:00000f4c       ??_C@_0N@EBLPPAMO@?$DL?5filename?$DN?$CC?$AA@ 00457f4c     libcurl:mime.obj
 0002:00000f5c       ??_C@_08LCJOLIGB@?$DL?5name?$DN?$CC?$AA@ 00457f5c     libcurl:mime.obj
 0002:00000f68       ??_C@_0CE@DDNMPDM@Content?9Disposition?3?5?$CFs?$CFs?$CFs?$CFs?$CFs?$CF@ 00457f68     libcurl:mime.obj
 0002:00000f8c       ??_C@_0BK@MJFMDPAI@Content?9Transfer?9Encoding?$AA@ 00457f8c     libcurl:mime.obj
 0002:00000fa8       ??_C@_0BO@GPACEDCJ@Content?9Transfer?9Encoding?3?5?$CFs?$AA@ 00457fa8     libcurl:mime.obj
 0002:00000fc8       ??_C@_0BE@PILCJFLE@multipart?1form?9data?$AA@ 00457fc8     libcurl:mime.obj
 0002:00000fdc       ??_C@_09DMEGNLGK@form?9data?$AA@ 00457fdc     libcurl:mime.obj
 0002:00000ff0       __xmm@2d2d2d2d2d2d2d2d2d2d2d2d2d2d2d2d 00457ff0     libcurl:mime.obj
 0002:00001000       ??_C@_05MLEOJOPP@?$CFld?$CFs?$AA@ 00458000     libcurl:conncache.obj
 0002:00001008       ??_C@_0DD@OLONMPCM@Connection?5cache?5is?5full?0?5closin@ 00458008     libcurl:conncache.obj
 0002:000010cc       ??_C@_0O@PKKFKPHL@?$DMno?5protocol?$DO?$AA@ 004580cc     libcurl:url.obj
 0002:000010dc       ??_C@_0BI@DDGGAIOA@Closing?5connection?5?$CFld?6?$AA@ 004580dc     libcurl:url.obj
 0002:000010f4       ??_C@_0DB@DJFDJCOE@Too?5old?5connection?5?$CI?$CFld?5seconds?$CJ@ 004580f4     libcurl:url.obj
 0002:00001128       ??_C@_0CC@JFLBHGMD@Connection?5?$CFld?5seems?5to?5be?5dead?$CB@ 00458128     libcurl:url.obj
 0002:0000114c       ??_C@_0O@EFAPFLJF@can?5multiplex?$AA@ 0045814c     libcurl:url.obj
 0002:0000115c       ??_C@_08HGENMDLD@serially?$AA@ 0045815c     libcurl:url.obj
 0002:00001168       ??_C@_0CD@OCDJOGEP@Found?5bundle?5for?5host?5?$CFs?3?5?$CFp?5?$FL?$CFs@ 00458168     libcurl:url.obj
 0002:0000118c       ??_C@_0CM@DIEBCPAL@Server?5doesn?8t?5support?5multiplex@ 0045818c     libcurl:url.obj
 0002:000011b8       ??_C@_0CI@GFGFLNAA@Server?5doesn?8t?5support?5multiplex@ 004581b8     libcurl:url.obj
 0002:000011e0       ??_C@_0CE@OANFFLBC@Could?5multiplex?0?5but?5not?5asked?5t@ 004581e0     libcurl:url.obj
 0002:00001204       ??_C@_0CK@OJMDJFJB@Can?5not?5multiplex?0?5even?5if?5we?5wa@ 00458204     libcurl:url.obj
 0002:00001230       ??_C@_0DG@ICACGPNK@Connection?5?$CD?$CFld?5is?5still?5name?5re@ 00458230     libcurl:url.obj
 0002:00001268       ??_C@_0DA@HEGJMKAL@Connection?5?$CD?$CFld?5isn?8t?5open?5enoug@ 00458268     libcurl:url.obj
 0002:00001298       ??_C@_0BP@IJOBPHC@Multiplexed?5connection?5found?$CB?6?$AA@ 00458298     libcurl:url.obj
 0002:000012b8       ??_C@_0DP@IINEECKA@Found?5pending?5candidate?5for?5reus@ 004582b8     libcurl:url.obj
 0002:000012f8       ??_C@_0CG@GIJHGMPJ@Connected?5to?5?$CFs?5?$CI?$CFs?$CJ?5port?5?$CFld?5?$CI?$CD@ 004582f8     libcurl:url.obj
 0002:00001320       ??_C@_0DG@OJGGOHOC@IDN?5support?5not?5present?0?5can?8t?5p@ 00458320     libcurl:url.obj
 0002:00001358       ??_C@_0DD@CPLPHJPM@Protocol?5?$CC?$CFs?$CC?5not?5supported?5or?5d@ 00458358     libcurl:url.obj
 0002:0000138c       ??_C@_0BI@BEHOBPHB@Invalid?5zoneid?3?5?$CFs?$DL?5?$CFs?6?$AA@ 0045838c     libcurl:url.obj
 0002:000013a4       ??_C@_07NCHOALFK@?$CFs?3?1?1?$CFs?$AA@ 004583a4     libcurl:url.obj
 0002:000013ac       ??_C@_04DAMGJPCA@file?$AA@ 004583ac     libcurl:url.obj
 0002:000013b4       ??_C@_06OJJNHGNN@?$CFI64d?9?$AA@ 004583b4     libcurl:url.obj
 0002:000013bc       ??_C@_02KEGNLNML@?0?5?$AA@ 004583bc     libcurl:url.obj
 0002:000013c0       ??_C@_01NBENCBCI@?$CK?$AA@ 004583c0     libcurl:url.obj
 0002:000013c4       ??_C@_06PIGEBLLD@_proxy?$AA@ 004583c4     libcurl:url.obj
 0002:000013cc       ??_C@_0L@BKCFCEPH@http_proxy?$AA@ 004583cc     libcurl:url.obj
 0002:000013d8       ??_C@_09IFLEAELB@all_proxy?$AA@ 004583d8     libcurl:url.obj
 0002:000013e4       ??_C@_09HKPIAANK@ALL_PROXY?$AA@ 004583e4     libcurl:url.obj
 0002:000013f0       ??_C@_0CE@MLGGMLP@Uses?5proxy?5env?5variable?5?$CFs?5?$DN?$DN?5?8?$CF@ 004583f0     libcurl:url.obj
 0002:00001414       ??_C@_05BCHGOAMK@https?$AA@ 00458414     libcurl:url.obj
 0002:0000141c       ??_C@_07FDHAHIOH@socks5h?$AA@ 0045841c     libcurl:url.obj
 0002:00001424       ??_C@_06IAICDOJI@socks5?$AA@ 00458424     libcurl:url.obj
 0002:0000142c       ??_C@_07IDHAKJJJ@socks4a?$AA@ 0045842c     libcurl:url.obj
 0002:00001434       ??_C@_06JJJJAPNJ@socks4?$AA@ 00458434     libcurl:url.obj
 0002:0000143c       ??_C@_05LBOKJHLG@socks?$AA@ 0045843c     libcurl:url.obj
 0002:00001444       ??_C@_04IAFLKNP@http?$AA@  00458444     libcurl:url.obj
 0002:0000144c       ??_C@_0CC@CEKBDKLM@Unsupported?5proxy?5scheme?5for?5?8?$CFs@ 0045844c     libcurl:url.obj
 0002:00001470       ??_C@_0CB@HLNKMBJD@Unsupported?5proxy?5syntax?5in?5?8?$CFs?8@ 00458470     libcurl:url.obj
 0002:00001498       ??_C@_0EK@MGMANAOF@Unsupported?5proxy?5?8?$CFs?8?0?5libcurl?5@ 00458498     libcurl:url.obj
 0002:000014e4       ??_C@_0BA@GJPPEADO@memory?5shortage?$AA@ 004584e4     libcurl:url.obj
 0002:000014f4       ??_C@_08BOGLDIEC@no_proxy?$AA@ 004584f4     libcurl:url.obj
 0002:00001500       ??_C@_08KOHKDPPJ@NO_PROXY?$AA@ 00458500     libcurl:url.obj
 0002:0000150c       ??_C@_0DG@MFBPPKBC@Couldn?8t?5find?5host?5?$CFs?5in?5the?5?$CFs?5@ 0045850c     libcurl:url.obj
 0002:00001544       ??_C@_09BMFBKPHA@anonymous?$AA@ 00458544     libcurl:url.obj
 0002:00001550       ??_C@_0BA@LJIKBFGM@ftp?$EAexample?4com?$AA@ 00458550     libcurl:url.obj
 0002:00001560       ??_C@_03MMIJIMKH@?$CF25?$AA@ 00458560     libcurl:url.obj
 0002:00001564       ??_C@_0CN@NDBDIMOC@Please?5URL?5encode?5?$CF?$CF?5as?5?$CF?$CF25?0?5se@ 00458564     libcurl:url.obj
 0002:00001594       ??_C@_0BN@IHHAEPKG@Invalid?5IPv6?5address?5format?6?$AA@ 00458594     libcurl:url.obj
 0002:000015b4       ??_C@_0DF@IONEKJDD@No?5valid?5port?5number?5in?5connect?5@ 004585b4     libcurl:url.obj
 0002:000015ec       ??_C@_01LBDDMOBJ@?$FN?$AA@ 004585ec     libcurl:url.obj
 0002:000015f0       ??_C@_01OHGJGJJP@?$FL?$AA@ 004585f0     libcurl:url.obj
 0002:000015f4       ??_C@_06DIJPEION@?$CFs?$CFs?$CFs?$AA@ 004585f4     libcurl:url.obj
 0002:000015fc       ??_C@_0BM@PMENCPCA@Connecting?5to?5hostname?3?5?$CFs?6?$AA@ 004585fc     libcurl:url.obj
 0002:00001618       ??_C@_0BI@BICCPIEJ@Connecting?5to?5port?3?5?$CFd?6?$AA@ 00458618     libcurl:url.obj
 0002:00001630       ??_C@_0DA@NFHFFFEO@Alt?9svc?5connecting?5from?5?$FL?$CFs?$FN?$CFs?3?$CF@ 00458630     libcurl:url.obj
 0002:00001660       ??_C@_0CA@PCHAHPEF@Unix?5socket?5path?5too?5long?3?5?8?$CFs?8?$AA@ 00458660     libcurl:url.obj
 0002:00001680       ??_C@_0BL@CBGJLMGC@Could?5not?5resolve?5host?3?5?$CFs?$AA@ 00458680     libcurl:url.obj
 0002:0000169c       ??_C@_0BM@PBLGFFN@Couldn?8t?5resolve?5proxy?5?8?$CFs?8?$AA@ 0045869c     libcurl:url.obj
 0002:000016b8       ??_C@_05BFHPMDA@proxy?$AA@ 004586b8     libcurl:url.obj
 0002:000016c0       ??_C@_04OODOLJMA@host?$AA@ 004586c0     libcurl:url.obj
 0002:000016c8       ??_C@_0DB@KBMGPDLF@Re?9using?5existing?5connection?$CB?5?$CI?$CD@ 004586c8     libcurl:url.obj
 0002:000016fc       ??_C@_0CN@MPPLPHGC@No?5more?5connections?5allowed?5to?5h@ 004586fc     libcurl:url.obj
 0002:0000172c       ??_C@_0CD@DJOOMEOI@No?5connections?5available?5in?5cach@ 0045872c     libcurl:url.obj
 0002:00001750       ??_C@_0BL@LKODOMNP@No?5connections?5available?4?6?$AA@ 00458750     libcurl:url.obj
 0002:0000176c       ??_C@_0CO@KHIJKMHA@NTLM?5picked?5AND?5auth?5done?5set?0?5c@ 0045876c     libcurl:url.obj
 0002:0000179c       ??_C@_0DE@GICFFDLJ@NTLM?9proxy?5picked?5AND?5auth?5done?5@ 0045879c     libcurl:url.obj
 0002:000017d0       ??_C@_04BINJNOJD@HEAD?$AA@ 004587d0     libcurl:getinfo.obj
 0002:000017d8       ??_C@_04HCJEIHPL@POST?$AA@ 004587d8     libcurl:getinfo.obj
 0002:000017e0       ??_C@_03KBBGFLEK@PUT?$AA@  004587e0     libcurl:getinfo.obj
 0002:000017e4       ??_C@_03HAPOJHBM@GET?$AA@  004587e4     libcurl:getinfo.obj
 0002:00001800       ??_C@_04MPPNMCOK@?4?4?4?6?$AA@ 00458800     libcurl:sendf.obj
 0002:00001808       ??_C@_03KHICJKCI@?4?4?4?$AA@ 00458808     libcurl:sendf.obj
 0002:0000180c       ??_C@_0BB@JCBOFDKN@Send?5failure?3?5?$CFs?$AA@ 0045880c     libcurl:sendf.obj
 0002:00001820       ??_C@_0BB@GOGKBCCD@Recv?5failure?3?5?$CFs?$AA@ 00458820     libcurl:sendf.obj
 0002:00001834       ??_C@_0DD@KHGMOPKJ@Write?5callback?5asked?5for?5PAUSE?5w@ 00458834     libcurl:sendf.obj
 0002:00001868       ??_C@_0CG@EMCHOAAB@Failure?5writing?5output?5to?5destin@ 00458868     libcurl:sendf.obj
 0002:00001890       ??_C@_0BG@OFFCIDAN@Failed?5writing?5header?$AA@ 00458890     libcurl:sendf.obj
 0002:000018a8       ??_C@_0CF@PEMBPPBD@Failed?5to?5set?5SO_KEEPALIVE?5on?5fd@ 004588a8     libcurl:connect.obj
 0002:000018d0       ??_C@_0CP@NKGEMNPP@Failed?5to?5set?5SIO_KEEPALIVE_VALS@ 004588d0     libcurl:connect.obj
 0002:00001900       ??_C@_03FIFADKBL@if?$CB?$AA@ 00458900     libcurl:connect.obj
 0002:00001904       ??_C@_05BHBFOJOK@host?$CB?$AA@ 00458904     libcurl:connect.obj
 0002:0000190c       ??_C@_0CA@NNLJLENH@Couldn?8t?5bind?5to?5interface?5?8?$CFs?8?$AA@ 0045890c     libcurl:connect.obj
 0002:0000192c       ??_C@_0DF@GKHAKMGC@Local?5Interface?5?$CFs?5is?5ip?5?$CFs?5usin@ 0045892c     libcurl:connect.obj
 0002:00001964       ??_C@_0DA@OPBJKDFD@Name?5?8?$CFs?8?5family?5?$CFi?5resolved?5to?5@ 00458964     libcurl:connect.obj
 0002:00001994       ??_C@_0BG@CIMNBOAN@Couldn?8t?5bind?5to?5?8?$CFs?8?$AA@ 00458994     libcurl:connect.obj
 0002:000019ac       ??_C@_0CH@DDKDPEAI@getsockname?$CI?$CJ?5failed?5with?5errno?5@ 004589ac     libcurl:connect.obj
 0002:000019d4       ??_C@_0BB@PLFEKLHG@Local?5port?3?5?$CFhu?6?$AA@ 004589d4     libcurl:connect.obj
 0002:000019e8       ??_C@_0CM@IFAJKKEJ@Bind?5to?5local?5port?5?$CFhu?5failed?0?5t@ 004589e8     libcurl:connect.obj
 0002:00001a14       ??_C@_0BO@NNMFENBA@bind?5failed?5with?5errno?5?$CFd?3?5?$CFs?$AA@ 00458a14     libcurl:connect.obj
 0002:00001a34       ??_C@_0CH@IBJKPDAO@getpeername?$CI?$CJ?5failed?5with?5errno?5@ 00458a34     libcurl:connect.obj
 0002:00001a5c       ??_C@_0CL@PFOECMOH@ssrem?5inet_ntop?$CI?$CJ?5failed?5with?5er@ 00458a5c     libcurl:connect.obj
 0002:00001a88       ??_C@_0CL@FJICKPK@ssloc?5inet_ntop?$CI?$CJ?5failed?5with?5er@ 00458a88     libcurl:connect.obj
 0002:00001ab4       ??_C@_0BP@FBEALKHG@unknown?5proxytype?5option?5given?$AA@ 00458ab4     libcurl:connect.obj
 0002:00001ad4       ??_C@_0BE@GAEGKOEF@Connection?5time?9out?$AA@ 00458ad4     libcurl:connect.obj
 0002:00001ae8       ??_C@_0CG@OOKPFHPB@After?5?$CFI64dms?5connect?5time?0?5move@ 00458ae8     libcurl:connect.obj
 0002:00001b10       ??_C@_0CD@INOOPIKI@connect?5to?5?$CFs?5port?5?$CFld?5failed?3?5?$CF@ 00458b10     libcurl:connect.obj
 0002:00001b34       ??_C@_0CF@PFFPOJAN@Failed?5to?5connect?5to?5?$CFs?5port?5?$CFld@ 00458b34     libcurl:connect.obj
 0002:00001b5c       ??_C@_0BP@MAILANNH@Could?5not?5set?5TCP_NODELAY?3?5?$CFs?6?$AA@ 00458b5c     libcurl:connect.obj
 0002:00001b7c       ??_C@_0CN@NLCIOFFH@sa_addr?5inet_ntop?$CI?$CJ?5failed?5with?5@ 00458b7c     libcurl:connect.obj
 0002:00001bac       ??_C@_0BD@MPJNDNNC@?5?5Trying?5?$CFs?3?$CFd?4?4?4?6?$AA@ 00458bac     libcurl:connect.obj
 0002:00001bc0       ??_C@_0CD@EAMEJFBB@Immediate?5connect?5fail?5for?5?$CFs?3?5?$CF@ 00458bc0     libcurl:connect.obj
 0002:00001be4       ??_C@_06MHCCOJOO@Digest?$AA@ 00458be4     libcurl:http_digest.obj
 0002:00001bec       ??_C@_04EBNJJJJI@?$CF?4?$CKs?$AA@ 00458bec     libcurl:http_digest.obj
 0002:00001bf4       ??_C@_06MJEPAECD@Proxy?9?$AA@ 00458bf4     libcurl:http_digest.obj
 0002:00001bfc       ??_C@_0BN@NPMGGCBO@?$CFsAuthorization?3?5Digest?5?$CFs?$AN?6?$AA@ 00458bfc     libcurl:http_digest.obj
 0002:00001c1c       ??_C@_0N@BBCKHBCL@iphlpapi?4dll?$AA@ 00458c1c     libcurl:system_win32.obj
 0002:00001c2c       ??_C@_0P@GFPCJLDD@if_nametoindex?$AA@ 00458c2c     libcurl:system_win32.obj
 0002:00001c3c       ??_C@_08PNLNEKOB@kernel32?$AA@ 00458c3c     libcurl:system_win32.obj
 0002:00001c48       ??_C@_0P@GILJFMCJ@LoadLibraryExA?$AA@ 00458c48     libcurl:system_win32.obj
 0002:00001c58       ??_C@_02HHAEMJFE@?2?1?$AA@ 00458c58     libcurl:system_win32.obj
 0002:00001c5c       ??_C@_0BA@NMFGOKJN@AddDllDirectory?$AA@ 00458c5c     libcurl:system_win32.obj
 0002:00001c6c       ??_C@_02IACHLLMH@h1?$AA@   00458c6c     libcurl:altsvc.obj
 0002:00001c70       ??_C@_02KLAKOIAE@h2?$AA@   00458c70     libcurl:altsvc.obj
 0002:00001c74       ??_C@_02LCBBNJEF@h3?$AA@   00458c74     libcurl:altsvc.obj
 0002:00001c78       ??_C@_0CM@DAEANJFD@?$CF10s?5?$CF512s?5?$CFu?5?$CF10s?5?$CF512s?5?$CFu?5?$CC?$CF64@ 00458c78     libcurl:altsvc.obj
 0002:00001ca4       ??_C@_0DF@DAAFPCNG@?$CFs?5?$CFs?5?$CFu?5?$CFs?5?$CFs?5?$CFu?5?$CC?$CFd?$CF02d?$CF02d?5?$CF0@ 00458ca4     libcurl:altsvc.obj
 0002:00001ce0       ??_C@_0HG@JDCLPEEL@?$CD?5Your?5alt?9svc?5cache?4?5https?3?1?1cu@ 00458ce0     libcurl:altsvc.obj
 0002:00001d58       ??_C@_0CH@GNONCAKC@Excessive?5alt?9svc?5header?0?5ignori@ 00458d58     libcurl:altsvc.obj
 0002:00001d80       ??_C@_05MEHLAELG@clear?$AA@ 00458d80     libcurl:altsvc.obj
 0002:00001d88       ??_C@_0CK@IFODLHOH@Excessive?5alt?9svc?5host?5name?0?5ign@ 00458d88     libcurl:altsvc.obj
 0002:00001db4       ??_C@_0CK@IIDJBGKI@Unknown?5alt?9svc?5port?5number?0?5ign@ 00458db4     libcurl:altsvc.obj
 0002:00001de0       ??_C@_02DMFHCEHI@ma?$AA@   00458de0     libcurl:altsvc.obj
 0002:00001de4       ??_C@_07EMFBDGOD@persist?$AA@ 00458de4     libcurl:altsvc.obj
 0002:00001dec       ??_C@_0BO@EALCHFOF@Added?5alt?9svc?3?5?$CFs?3?$CFd?5over?5?$CFs?6?$AA@ 00458dec     libcurl:altsvc.obj
 0002:00001e0c       ??_C@_0CM@MLGGHAPD@Unknown?5alt?9svc?5protocol?5?$CC?$CFs?$CC?0?5s@ 00458e0c     libcurl:altsvc.obj
 0002:00001e88       ??_C@_08LBJOIDDC@identity?$AA@ 00458e88     libcurl:content_encoding.obj
 0002:00001e98       ??_C@_0EO@CHCFCBOE@Unrecognized?5content?5encoding?5ty@ 00458e98     libcurl:content_encoding.obj
 0002:00001ee8       ??_C@_07KCKHAHHI@chunked?$AA@ 00458ee8     libcurl:content_encoding.obj
 0002:00001ef0       ??_C@_03CNODDBJO@?3?$CFu?$AA@ 00458ef0     libcurl:hostip.obj
 0002:00001ef4       ??_C@_0CJ@BHEFAGPN@Hostname?5in?5DNS?5cache?5was?5stale?0@ 00458ef4     libcurl:hostip.obj
 0002:00001f20       ??_C@_0BH@EAPFBJAK@Shuffling?5?$CFi?5addresses?$AA@ 00458f20     libcurl:hostip.obj
 0002:00001f38       ??_C@_0CE@NGLGBBNH@Hostname?5?$CFs?5was?5found?5in?5DNS?5cac@ 00458f38     libcurl:hostip.obj
 0002:00001f5c       ??_C@_0M@CAIHMLOC@?$CF255?$FL?$FO?3?$FN?3?$CFd?$AA@ 00458f5c     libcurl:hostip.obj
 0002:00001f68       ??_C@_0DE@ELJFMFMM@Couldn?8t?5parse?5CURLOPT_RESOLVE?5r@ 00458f68     libcurl:hostip.obj
 0002:00001f9c       ??_C@_0CF@FMMIAGMF@Resolve?5address?5?8?$CFs?8?5found?5illeg@ 00458f9c     libcurl:hostip.obj
 0002:00001fc4       ??_C@_0CM@LICJDDJG@Couldn?8t?5parse?5CURLOPT_RESOLVE?5e@ 00458fc4     libcurl:hostip.obj
 0002:00001ff0       ??_C@_0CN@JHBOBPLC@RESOLVE?5?$CFs?3?$CFd?5is?5?9?5old?5addresses@ 00458ff0     libcurl:hostip.obj
 0002:00002020       ??_C@_0BB@KFONHPNE@?5?$CInon?9permanent?$CJ?$AA@ 00459020     libcurl:hostip.obj
 0002:00002034       ??_C@_0BP@KGHHPNAO@Added?5?$CFs?3?$CFd?3?$CFs?5to?5DNS?5cache?$CFs?6?$AA@ 00459034     libcurl:hostip.obj
 0002:00002054       ??_C@_0DF@FGOBCBFC@RESOLVE?5?$CFs?3?$CFd?5is?5wildcard?0?5enabl@ 00459054     libcurl:hostip.obj
 0002:0000208c       ??_C@_0BJ@MIAHLHBF@Could?5not?5resolve?5?$CFs?3?5?$CFs?$AA@ 0045908c     libcurl:hostip.obj
 0002:000020b8       ??_C@_04MEDPFIKH@HTTP?$AA@ 004590b8     libcurl:http.obj
 0002:000020c0       ??_C@_0CD@KELEPDPB@HTTP?13?5requested?5for?5non?9HTTPS?5U@ 004590c0     libcurl:http.obj
 0002:000020e8       _Curl_handler_http         004590e8     libcurl:http.obj
 0002:00002134       ??_C@_05CCMOGDN@?$CFs?3?$CFs?$AA@ 00459134     libcurl:http.obj
 0002:0000213c       ??_C@_0BM@NMNAGCIL@?$CFsAuthorization?3?5Basic?5?$CFs?$AN?6?$AA@ 0045913c     libcurl:http.obj
 0002:00002158       ??_C@_0BL@JHLMAFGM@Authorization?3?5Bearer?5?$CFs?$AN?6?$AA@ 00459158     libcurl:http.obj
 0002:00002174       ??_C@_0BK@HOMHMGOD@Rewind?5stream?5after?5send?6?$AA@ 00459174     libcurl:http.obj
 0002:00002190       ??_C@_0DB@DNAPMGHO@NTLM?5send?0?5close?5instead?5of?5send@ 00459190     libcurl:http.obj
 0002:000021c4       ??_C@_0BK@CMMBNKGD@Forcing?5HTTP?11?41?5for?5NTLM?$AA@ 004591c4     libcurl:http.obj
 0002:000021e0       ??_C@_0CF@BBGENOPF@The?5requested?5URL?5returned?5error@ 004591e0     libcurl:http.obj
 0002:00002208       ??_C@_09HPCLDLMD@AWS_SIGV4?$AA@ 00459208     libcurl:http.obj
 0002:00002214       ??_C@_04KGCGDDND@NTLM?$AA@ 00459214     libcurl:http.obj
 0002:0000221c       ??_C@_0BE@PPNONACO@Proxy?9authorization?$AA@ 0045921c     libcurl:http.obj
 0002:00002230       ??_C@_0O@NAFGPKMI@Authorization?$AA@ 00459230     libcurl:http.obj
 0002:00002240       ??_C@_05NIKDGMHP@Basic?$AA@ 00459240     libcurl:http.obj
 0002:00002248       ??_C@_0P@LAMGMCAB@Authorization?3?$AA@ 00459248     libcurl:http.obj
 0002:00002258       ??_C@_06NPEPPOGN@Bearer?$AA@ 00459258     libcurl:http.obj
 0002:00002260       ??_C@_05GPLPJAG@Proxy?$AA@ 00459260     libcurl:http.obj
 0002:00002268       ??_C@_06LGMEBDBC@Server?$AA@ 00459268     libcurl:http.obj
 0002:00002270       ??_C@_0CB@BNDOODNM@?$CFs?5auth?5using?5?$CFs?5with?5user?5?8?$CFs?8?6@ 00459270     libcurl:http.obj
 0002:00002294       ??_C@_0CI@DKAENECE@Authentication?5problem?4?5Ignoring@ 00459294     libcurl:http.obj
 0002:000022bc       ??_C@_0CI@DIJIGOJK@Ignoring?5duplicate?5digest?5auth?5h@ 004592bc     libcurl:http.obj
 0002:000022e4       ??_C@_04JIEPCJPP@TCP6?$AA@ 004592e4     libcurl:http.obj
 0002:000022ec       ??_C@_04KKHJELHN@TCP4?$AA@ 004592ec     libcurl:http.obj
 0002:000022f4       ??_C@_0BH@GGJGKPOP@PROXY?5?$CFs?5?$CFs?5?$CFs?5?$CFi?5?$CFi?$AN?6?$AA@ 004592f4     libcurl:http.obj
 0002:0000230c       ??_C@_0BI@KEPAADBC@Empty?5reply?5from?5server?$AA@ 0045930c     libcurl:http.obj
 0002:00002324       ??_C@_03GCKCNDHP@1?41?$AA@ 00459324     libcurl:http.obj
 0002:00002328       ??_C@_03HLLJOCDO@1?40?$AA@ 00459328     libcurl:http.obj
 0002:0000232c       ??_C@_06GHDJNLIG@Expect?$AA@ 0045932c     libcurl:http.obj
 0002:00002334       ??_C@_0N@IOPAKPOD@100?9continue?$AA@ 00459334     libcurl:http.obj
 0002:00002344       ??_C@_07CBBFMBLH@Expect?3?$AA@ 00459344     libcurl:http.obj
 0002:0000234c       ??_C@_0BH@JCEGEJFB@Expect?3?5100?9continue?$AN?6?$AA@ 0045934c     libcurl:http.obj
 0002:00002364       ??_C@_01EEMJAFIK@?6?$AA@   00459364     libcurl:http.obj
 0002:00002368       ??_C@_0DB@KNJCCOIM@Malformatted?5trailing?5header?5?$CB?5S@ 00459368     libcurl:http.obj
 0002:0000239c       ??_C@_05LJIPCHEG@Host?3?$AA@ 0045939c     libcurl:http.obj
 0002:000023a4       ??_C@_0O@PDMPCIFL@Content?9Type?3?$AA@ 004593a4     libcurl:http.obj
 0002:000023b4       ??_C@_0BA@DIGAFIOK@Content?9Length?3?$AA@ 004593b4     libcurl:http.obj
 0002:000023c4       ??_C@_0M@HJBFCNNB@Connection?3?$AA@ 004593c4     libcurl:http.obj
 0002:000023d0       ??_C@_0BD@DNFFOCFM@Transfer?9Encoding?3?$AA@ 004593d0     libcurl:http.obj
 0002:000023e4       ??_C@_07HKOKENHM@Cookie?3?$AA@ 004593e4     libcurl:http.obj
 0002:000023ec       ??_C@_04LLEBNMDN@?$CFs?$AN?6?$AA@ 004593ec     libcurl:http.obj
 0002:000023f4       ??_C@_0BC@PCIFJBEC@Invalid?5TIMEVALUE?$AA@ 004593f4     libcurl:http.obj
 0002:00002408       ??_C@_0BC@GJLFBBBL@If?9Modified?9Since?$AA@ 00459408     libcurl:http.obj
 0002:0000241c       ??_C@_0BE@DDBHAKNF@If?9Unmodified?9Since?$AA@ 0045941c     libcurl:http.obj
 0002:00002430       ??_C@_0O@FICEOEAF@Last?9Modified?$AA@ 00459430     libcurl:http.obj
 0002:00002440       ??_C@_0CJ@PBKGCGNN@?$CFs?3?5?$CFs?0?5?$CF02d?5?$CFs?5?$CF4d?5?$CF02d?3?$CF02d?3?$CF0@ 00459440     libcurl:http.obj
 0002:0000246c       ??_C@_0L@DMPACEMJ@User?9Agent?$AA@ 0045946c     libcurl:http.obj
 0002:00002478       ??_C@_04CPPPJGME@Host?$AA@ 00459478     libcurl:http.obj
 0002:00002480       ??_C@_09PEHAMPH@Host?3?$CFs?$AN?6?$AA@ 00459480     libcurl:http.obj
 0002:0000248c       ??_C@_0P@CKOLCGKA@Host?3?5?$CFs?$CFs?$CFs?$AN?6?$AA@ 0045948c     libcurl:http.obj
 0002:0000249c       ??_C@_0BC@DBODHBND@Host?3?5?$CFs?$CFs?$CFs?3?$CFd?$AN?6?$AA@ 0045949c     libcurl:http.obj
 0002:000024b0       ??_C@_03LMDBDBEG@ftp?$AA@  004594b0     libcurl:http.obj
 0002:000024b4       ??_C@_06ODENPNKJ@?$DLtype?$DN?$AA@ 004594b4     libcurl:http.obj
 0002:000024bc       ??_C@_08MMJPNGCD@?$DLtype?$DN?$CFc?$AA@ 004594bc     libcurl:http.obj
 0002:000024c8       ??_C@_03EMGHGGCK@?$DP?$CFs?$AA@ 004594c8     libcurl:http.obj
 0002:000024cc       ??_C@_0BC@ELHLFCNH@Transfer?9Encoding?$AA@ 004594cc     libcurl:http.obj
 0002:000024e0       ??_C@_0CL@OGPNFEKJ@Chunky?5upload?5is?5not?5supported?5b@ 004594e0     libcurl:http.obj
 0002:0000250c       ??_C@_0BN@HCMGFBOG@Transfer?9Encoding?3?5chunked?$AN?6?$AA@ 0045950c     libcurl:http.obj
 0002:0000252c       ??_C@_0P@HOJGPHBA@Content?9Length?$AA@ 0045952c     libcurl:http.obj
 0002:0000253c       ??_C@_0BI@LJIKFNCE@Content?9Length?3?5?$CFI64d?$AN?6?$AA@ 0045953c     libcurl:http.obj
 0002:00002554       ??_C@_0BL@KJBPLOOA@Failed?5sending?5PUT?5request?$AA@ 00459554     libcurl:http.obj
 0002:00002570       ??_C@_0BG@DPJOPI@Content?9Length?3?50?$AN?6?$AN?6?$AA@ 00459570     libcurl:http.obj
 0002:00002588       ??_C@_0BM@OJEBFGIF@Failed?5sending?5POST?5request?$AA@ 00459588     libcurl:http.obj
 0002:000025a4       ??_C@_0DC@DMFLICKC@Content?9Type?3?5application?1x?9www?9@ 004595a4     libcurl:http.obj
 0002:000025d8       ??_C@_04GMEAFLDM@?$CFx?$AN?6?$AA@ 004595d8     libcurl:http.obj
 0002:000025e0       ??_C@_05CPFNAGPN@0?$AN?6?$AN?6?$AA@ 004595e0     libcurl:http.obj
 0002:000025e8       ??_C@_0CB@KDDFLMMJ@Failed?5sending?5HTTP?5POST?5request@ 004595e8     libcurl:http.obj
 0002:0000260c       ??_C@_0BM@FKBPNPDJ@Failed?5sending?5HTTP?5request?$AA@ 0045960c     libcurl:http.obj
 0002:00002628       ??_C@_06EGBLANDJ@Cookie?$AA@ 00459628     libcurl:http.obj
 0002:00002630       ??_C@_08MMENPDPI@Cookie?3?5?$AA@ 00459630     libcurl:http.obj
 0002:0000263c       ??_C@_02LNAEAIDO@?$DL?5?$AA@ 0045963c     libcurl:http.obj
 0002:00002640       ??_C@_07CHANAGMK@?$CFs?$CFs?$DN?$CFs?$AA@ 00459640     libcurl:http.obj
 0002:00002648       ??_C@_04HDOCAJNK@?$CFs?$CFs?$AA@ 00459648     libcurl:http.obj
 0002:00002650       ??_C@_05CFMCGLCK@Range?$AA@ 00459650     libcurl:http.obj
 0002:00002658       ??_C@_0BC@MAJANMND@Range?3?5bytes?$DN?$CFs?$AN?6?$AA@ 00459658     libcurl:http.obj
 0002:0000266c       ??_C@_0O@PLGHKCFM@Content?9Range?$AA@ 0045966c     libcurl:http.obj
 0002:0000267c       ??_C@_0CF@GOIFFLMO@Content?9Range?3?5bytes?50?9?$CFI64d?1?$CFI6@ 0045967c     libcurl:http.obj
 0002:000026a4       ??_C@_0CF@JBBBEEAB@Content?9Range?3?5bytes?5?$CFs?$CFI64d?1?$CFI6@ 004596a4     libcurl:http.obj
 0002:000026cc       ??_C@_0CA@KGFKCJEO@Content?9Range?3?5bytes?5?$CFs?1?$CFI64d?$AN?6?$AA@ 004596cc     libcurl:http.obj
 0002:000026ec       ??_C@_0BG@FAJPNPNB@Could?5not?5seek?5stream?$AA@ 004596ec     libcurl:http.obj
 0002:00002704       ??_C@_0CL@LFKAINMC@Could?5only?5read?5?$CFI64d?5bytes?5from@ 00459704     libcurl:http.obj
 0002:00002730       ??_C@_0CB@BPNMMFKO@File?5already?5completely?5uploaded@ 00459730     libcurl:http.obj
 0002:00002754       ??_C@_0BM@KNDLFPLE@Ignoring?5the?5response?9body?6?$AA@ 00459754     libcurl:http.obj
 0002:00002770       ??_C@_0CK@ELFDNGAB@The?5entire?5document?5is?5already?5d@ 00459770     libcurl:http.obj
 0002:000027a0       ??_C@_0EA@PGICDNJG@HTTP?5server?5doesn?8t?5seem?5to?5supp@ 004597a0     libcurl:http.obj
 0002:000027e0       ??_C@_0BP@BDCHAEKO@Simulate?5a?5HTTP?5304?5response?$CB?6?$AA@ 004597e0     libcurl:http.obj
 0002:00002800       ??_C@_05DFPCBGAP@?$CFs?$DP?$CFs?$AA@ 00459800     libcurl:http.obj
 0002:00002808       ??_C@_07EJAMNJLN@Referer?$AA@ 00459808     libcurl:http.obj
 0002:00002810       ??_C@_0O@JOAPDPIB@Referer?3?5?$CFs?$AN?6?$AA@ 00459810     libcurl:http.obj
 0002:00002820       ??_C@_0BA@KDJCHKHJ@Accept?9Encoding?$AA@ 00459820     libcurl:http.obj
 0002:00002830       ??_C@_0BG@NKBLEFIE@Accept?9Encoding?3?5?$CFs?$AN?6?$AA@ 00459830     libcurl:http.obj
 0002:00002848       ??_C@_06MDEHPNLG@Accept?$AA@ 00459848     libcurl:http.obj
 0002:00002850       ??_C@_0O@GHCMGJMD@Accept?3?5?$CK?1?$CK?$AN?6?$AA@ 00459850     libcurl:http.obj
 0002:00002860       ??_C@_03IKGEINEE@?$CFs?5?$AA@ 00459860     libcurl:http.obj
 0002:00002864       ??_C@_08DCLKEDJA@Alt?9Used?$AA@ 00459864     libcurl:http.obj
 0002:00002870       ??_C@_0BC@NLLFJIJM@Alt?9Used?3?5?$CFs?3?$CFd?$AN?6?$AA@ 00459870     libcurl:http.obj
 0002:00002884       ??_C@_0BB@MLFPABGO@Proxy?9Connection?$AA@ 00459884     libcurl:http.obj
 0002:00002898       ??_C@_0BP@HADNPFIL@Proxy?9Connection?3?5Keep?9Alive?$AN?6?$AA@ 00459898     libcurl:http.obj
 0002:000028b8       ??_C@_0CD@NHMGHKMA@?5HTTP?1?$CFs?$AN?6?$CFs?$CFs?$CFs?$CFs?$CFs?$CFs?$CFs?$CFs?$CFs?$CFs?$CFs@ 004598b8     libcurl:http.obj
 0002:000028dc       ??_C@_0DG@MEACOPGN@upload?5completely?5sent?5off?3?5?$CFI64@ 004598dc     libcurl:http.obj
 0002:00002914       ??_C@_05FKGKDBHO@HTTP?1?$AA@ 00459914     libcurl:http.obj
 0002:0000291c       ??_C@_05GFPACIDK@RTSP?1?$AA@ 0045991c     libcurl:http.obj
 0002:00002924       ??_C@_0BL@GFBKPFMO@Maximum?5file?5size?5exceeded?$AA@ 00459924     libcurl:http.obj
 0002:00002940       ??_C@_0CB@KGLAHIH@Overflow?5Content?9Length?3?5value?$CB?6@ 00459940     libcurl:http.obj
 0002:00002964       ??_C@_0BO@DIBNEJMM@Invalid?5Content?9Length?3?5value?$AA@ 00459964     libcurl:http.obj
 0002:00002984       ??_C@_0L@FFDPOIEG@keep?9alive?$AA@ 00459984     libcurl:http.obj
 0002:00002990       ??_C@_0BC@IPGIMNCH@Proxy?9Connection?3?$AA@ 00459990     libcurl:http.obj
 0002:000029a4       ??_C@_0CO@NNECKAAI@HTTP?11?40?5proxy?5connection?5set?5to@ 004599a4     libcurl:http.obj
 0002:000029d4       ??_C@_05LBOHBHFK@close?$AA@ 004599d4     libcurl:http.obj
 0002:000029dc       ??_C@_0CG@GBJOIAPM@HTTP?11?41?5proxy?5connection?5set?5cl@ 004599dc     libcurl:http.obj
 0002:00002a04       ??_C@_0CI@DLONMNKD@HTTP?11?40?5connection?5set?5to?5keep?5@ 00459a04     libcurl:http.obj
 0002:00002a2c       ??_C@_0BC@FGDKEGD@Content?9Encoding?3?$AA@ 00459a2c     libcurl:http.obj
 0002:00002a40       ??_C@_0N@OFDPOHHB@Retry?9After?3?$AA@ 00459a40     libcurl:http.obj
 0002:00002a50       ??_C@_0P@EHIPKEAE@Content?9Range?3?$AA@ 00459a50     libcurl:http.obj
 0002:00002a60       ??_C@_0P@FFJLAOBC@Last?9Modified?3?$AA@ 00459a60     libcurl:http.obj
 0002:00002a70       ??_C@_0BC@EALNDOCH@WWW?9Authenticate?3?$AA@ 00459a70     libcurl:http.obj
 0002:00002a84       ??_C@_0BE@IHHLHIBG@Proxy?9authenticate?3?$AA@ 00459a84     libcurl:http.obj
 0002:00002a98       ??_C@_09GILIFLDG@Location?3?$AA@ 00459a98     libcurl:http.obj
 0002:00002aa4       ??_C@_08KKJBEKGK@Alt?9Svc?3?$AA@ 00459aa4     libcurl:http.obj
 0002:00002ab0       ??_C@_0CD@KMCBNFEI@HTTP?51?40?0?5assume?5close?5after?5bod@ 00459ab0     libcurl:http.obj
 0002:00002ad4       ??_C@_0CD@KCIPCEBM@Received?5HTTP?10?49?5when?5not?5allow@ 00459ad4     libcurl:http.obj
 0002:00002af8       ??_C@_0O@HIILDMIH@Received?5101?6?$AA@ 00459af8     libcurl:http.obj
 0002:00002b08       ??_C@_0DJ@MIHKJEOL@no?5chunk?0?5no?5close?0?5no?5size?4?5Ass@ 00459b08     libcurl:http.obj
 0002:00002b44       ??_C@_0DH@BADDOKJP@Connection?5closure?5while?5negotia@ 00459b44     libcurl:http.obj
 0002:00002b7c       ??_C@_0CB@CMHNBKGH@Got?5417?5while?5waiting?5for?5a?5100?6@ 00459b7c     libcurl:http.obj
 0002:00002ba0       ??_C@_0CN@PJJLOEM@HTTP?5error?5before?5end?5of?5send?0?5k@ 00459ba0     libcurl:http.obj
 0002:00002bd0       ??_C@_0CN@NJNEALCI@HTTP?5error?5before?5end?5of?5send?0?5s@ 00459bd0     libcurl:http.obj
 0002:00002c00       ??_C@_0CH@COOIMIHN@Keep?5sending?5data?5to?5get?5tossed?5@ 00459c00     libcurl:http.obj
 0002:00002c28       ??_C@_0BD@MJKOHCIC@?5HTTP?1?$CF1d?4?$CF1d?$CFc?$CF3d?$AA@ 00459c28     libcurl:http.obj
 0002:00002c3c       ??_C@_0BA@KFEEPMFA@?5HTTP?1?$CF1?$FL23?$FN?5?$CFd?$AA@ 00459c3c     libcurl:http.obj
 0002:00002c4c       ??_C@_0CN@OHBDOBD@Unsupported?5HTTP?5version?5?$CI?$CFu?4?$CFd?$CJ@ 00459c4c     libcurl:http.obj
 0002:00002c7c       ??_C@_0CC@JKBOGHFA@Lying?5server?0?5not?5serving?5HTTP?12@ 00459c7c     libcurl:http.obj
 0002:00002ca0       ??_C@_0CI@LFNOECD@Mark?5bundle?5as?5not?5supporting?5mu@ 00459ca0     libcurl:http.obj
 0002:00002cc8       ??_C@_09ENILIIEL@?5HTTP?5?$CF3d?$AA@ 00459cc8     libcurl:http.obj
 0002:00002cd4       ??_C@_0CF@HNNLNLIA@Unsupported?5HTTP?5version?5in?5resp@ 00459cd4     libcurl:http.obj
 0002:00002cfc       ??_C@_0BD@IHBBDGA@?5RTSP?1?$CF1d?4?$CF1d?$CFc?$CF3d?$AA@ 00459cfc     libcurl:http.obj
 0002:00002d10       ??_C@_02BBAHNLBA@?$CFp?$AA@ 00459d10     libcurl:socketpair.obj
 0002:00002d14       ??_C@_0DM@ENEANEJF@Moving?5trailers?5state?5machine?5fr@ 00459d14     libcurl:transfer.obj
 0002:00002d50       ??_C@_0CP@HJNKABJC@operation?5aborted?5by?5trailing?5he@ 00459d50     libcurl:transfer.obj
 0002:00002d80       ??_C@_0CC@PPBDDFKE@Successfully?5compiled?5trailers?4?$AN@ 00459d80     libcurl:transfer.obj
 0002:00002da4       ??_C@_0BO@MMBEFIGJ@operation?5aborted?5by?5callback?$AA@ 00459da4     libcurl:transfer.obj
 0002:00002dc4       ??_C@_0DC@KLEIDKKI@Read?5callback?5asked?5for?5PAUSE?5wh@ 00459dc4     libcurl:transfer.obj
 0002:00002df8       ??_C@_0CD@HAMJCOCA@read?5function?5returned?5funny?5val@ 00459df8     libcurl:transfer.obj
 0002:00002e1c       ??_C@_05DOCBBEPK@?$CFzx?$CFs?$AA@ 00459e1c     libcurl:transfer.obj
 0002:00002e24       ??_C@_0DB@OHDOBAMJ@Signaling?5end?5of?5chunked?5upload?5@ 00459e24     libcurl:transfer.obj
 0002:00002e58       ??_C@_0DI@GAABNBIG@Signaling?5end?5of?5chunked?5upload?5@ 00459e58     libcurl:transfer.obj
 0002:00002e90       ??_C@_0BN@LINFGIKF@Cannot?5rewind?5mime?1post?5data?$AA@ 00459e90     libcurl:transfer.obj
 0002:00002eb0       ??_C@_0CA@DIJIHPOF@seek?5callback?5returned?5error?5?$CFd?$AA@ 00459eb0     libcurl:transfer.obj
 0002:00002ed0       ??_C@_0CA@FAMFIPII@the?5ioctl?5callback?5returned?5?$CFd?6?$AA@ 00459ed0     libcurl:transfer.obj
 0002:00002ef0       ??_C@_0CB@KPKNOGEG@ioctl?5callback?5returned?5error?5?$CFd@ 00459ef0     libcurl:transfer.obj
 0002:00002f14       ??_C@_0CG@CHEKEDLE@necessary?5data?5rewind?5wasn?8t?5pos@ 00459f14     libcurl:transfer.obj
 0002:00002f3c       ??_C@_0CK@FAJPFEAA@The?5requested?5document?5is?5not?5ne@ 00459f3c     libcurl:transfer.obj
 0002:00002f68       ??_C@_0CK@HMOOBMAB@The?5requested?5document?5is?5not?5ol@ 00459f68     libcurl:transfer.obj
 0002:00002f94       ??_C@_0DI@LKBFDFDE@Excess?5found?3?5excess?5?$DN?5?$CFzd?5url?5?$DN@ 00459f94     libcurl:transfer.obj
 0002:00002fcc       ??_C@_0CK@CJJBEGPJ@Failed?5reading?5the?5chunked?9encod@ 00459fcc     libcurl:transfer.obj
 0002:00002ff8       ??_C@_0BH@ONNJJKOC@?$CFs?5in?5chunked?9encoding?$AA@ 00459ff8     libcurl:transfer.obj
 0002:00003010       ??_C@_0CJ@LNLGBBHG@Leftovers?5after?5chunking?3?5?$CF?5I64d@ 0045a010     libcurl:transfer.obj
 0002:00003040       ??_C@_0FM@BBNOIMMG@Excess?5found?5in?5a?5read?3?5excess?5?$DN@ 0045a040     libcurl:transfer.obj
 0002:0000309c       ??_C@_0DJ@GJLMKBJF@we?5are?5done?5reading?5and?5this?5is?5@ 0045a09c     libcurl:transfer.obj
 0002:000030d8       ??_C@_0CA@FDBKFCML@Failed?5to?5alloc?5scratch?5buffer?$CB?$AA@ 0045a0d8     libcurl:transfer.obj
 0002:000030f8       ??_C@_0CF@KMDHNAMD@We?5are?5completely?5uploaded?5and?5f@ 0045a0f8     libcurl:transfer.obj
 0002:00003120       ??_C@_0BL@EMJDLKIE@select?1poll?5returned?5error?$AA@ 0045a120     libcurl:transfer.obj
 0002:0000313c       ??_C@_0BP@GGMDICAN@Done?5waiting?5for?5100?9continue?6?$AA@ 0045a13c     libcurl:transfer.obj
 0002:0000315c       ??_C@_0DD@EDBBFLBK@transfer?5closed?5with?5?$CFI64d?5bytes@ 0045a15c     libcurl:transfer.obj
 0002:00003190       ??_C@_0DF@NKPPDLKD@transfer?5closed?5with?5outstanding@ 0045a190     libcurl:transfer.obj
 0002:000031c8       ??_C@_0M@BHCFJOKI@No?5URL?5set?$CB?$AA@ 0045a1c8     libcurl:transfer.obj
 0002:000031d4       ??_C@_0BB@CAJCOHBO@User?9Agent?3?5?$CFs?$AN?6?$AA@ 0045a1d4     libcurl:transfer.obj
 0002:000031e8       ??_C@_0CB@MELNCDNE@Maximum?5?$CI?$CFld?$CJ?5redirects?5followed@ 0045a1e8     libcurl:transfer.obj
 0002:0000320c       ??_C@_0CJ@KJEMPLIM@Issue?5another?5request?5to?5this?5UR@ 0045a20c     libcurl:transfer.obj
 0002:00003238       ??_C@_0BJ@HBHELCBA@Switch?5from?5POST?5to?5GET?6?$AA@ 0045a238     libcurl:transfer.obj
 0002:00003254       ??_C@_0O@HGEEJMOP@Switch?5to?5?$CFs?6?$AA@ 0045a254     libcurl:transfer.obj
 0002:00003264       ??_C@_0CK@CDCMFBLO@REFUSED_STREAM?0?5retrying?5a?5fresh@ 0045a264     libcurl:transfer.obj
 0002:00003290       ??_C@_0DB@JBFLNIDB@Connection?5died?0?5tried?5?$CFd?5times?5@ 0045a290     libcurl:transfer.obj
 0002:000032c4       ??_C@_0DM@GDKKDADD@Connection?5died?0?5retrying?5a?5fres@ 0045a2c4     libcurl:transfer.obj
 0002:00003300       ??_C@_08JGCGJPK@?9?9?3?9?9?3?9?9?$AA@ 0045a300     libcurl:progress.obj
 0002:0000330c       ??_C@_0BH@DDKMEPEA@?$CF2I64d?3?$CF02I64d?3?$CF02I64d?$AA@ 0045a30c     libcurl:progress.obj
 0002:00003324       ??_C@_0BB@HBEGKPFM@?$CF3I64dd?5?$CF02I64dh?$AA@ 0045a324     libcurl:progress.obj
 0002:00003338       ??_C@_07HBLPGDFD@?$CF7I64dd?$AA@ 0045a338     libcurl:progress.obj
 0002:00003340       ??_C@_06JPBNOAO@?$CF5I64d?$AA@ 0045a340     libcurl:progress.obj
 0002:00003348       ??_C@_07MHMPGFAB@?$CF4I64dk?$AA@ 0045a348     libcurl:progress.obj
 0002:00003350       ??_C@_0P@HINFNDLG@?$CF2I64d?4?$CF0I64dM?$AA@ 0045a350     libcurl:progress.obj
 0002:00003360       ??_C@_07EBBOGCF@?$CF4I64dM?$AA@ 0045a360     libcurl:progress.obj
 0002:00003368       ??_C@_0P@ICDKDLDM@?$CF2I64d?4?$CF0I64dG?$AA@ 0045a368     libcurl:progress.obj
 0002:00003378       ??_C@_07POPOAOKP@?$CF4I64dG?$AA@ 0045a378     libcurl:progress.obj
 0002:00003380       ??_C@_07JPBBEPDN@?$CF4I64dT?$AA@ 0045a380     libcurl:progress.obj
 0002:00003388       ??_C@_07PLHNIKDJ@?$CF4I64dP?$AA@ 0045a388     libcurl:progress.obj
 0002:00003390       ??_C@_0CP@JLABFKHL@?$CK?$CK?5Resuming?5transfer?5from?5byte?5p@ 0045a390     libcurl:progress.obj
 0002:000033c0       ??_C@_0KC@DNGKHLLM@?5?5?$CF?$CF?5Total?5?5?5?5?$CF?$CF?5Received?5?$CF?$CF?5Xfe@ 0045a3c0     libcurl:progress.obj
 0002:00003464       ??_C@_0DF@JLDNJIPD@?$AN?$CF3I64d?5?$CFs?5?5?$CF3I64d?5?$CFs?5?5?$CF3I64d?5?$CFs@ 0045a464     libcurl:progress.obj
 0002:0000349c       ??_C@_0BB@GAJGHPCC@Callback?5aborted?$AA@ 0045a49c     libcurl:progress.obj
 0002:000034b0       __real@408f400000000000    0045a4b0     libcurl:progress.obj
 0002:000034b8       ??_C@_0EN@COANIBDN@Operation?5too?5slow?4?5Less?5than?5?$CFl@ 0045a4b8     libcurl:speedcheck.obj
 0002:00003508       ??_C@_0BK@PNKMNPKO@allocate?5connect?5buffer?$CB?6?$AA@ 0045a508     libcurl:http_proxy.obj
 0002:00003524       ??_C@_0BK@OHJCNBEA@CONNECT?5phase?5completed?$CB?6?$AA@ 0045a524     libcurl:http_proxy.obj
 0002:00003540       ??_C@_09FJKLDKHO@?$CFs?$CFs?$CFs?3?$CFd?$AA@ 0045a540     libcurl:http_proxy.obj
 0002:0000354c       ??_C@_0L@LAAIKCML@Host?3?5?$CFs?$AN?6?$AA@ 0045a54c     libcurl:http_proxy.obj
 0002:00003558       ??_C@_0CG@JIEEDFAF@Establish?5HTTP?5proxy?5tunnel?5to?5?$CF@ 0045a558     libcurl:http_proxy.obj
 0002:00003580       ??_C@_07FNNMGOPK@CONNECT?$AA@ 0045a580     libcurl:http_proxy.obj
 0002:00003588       ??_C@_0BN@HGHMBOED@CONNECT?5?$CFs?5HTTP?1?$CFs?$AN?6?$CFs?$CFs?$CFs?$CFs?$AA@ 0045a588     libcurl:http_proxy.obj
 0002:000035a8       ??_C@_0CA@KCBNIFEI@Failed?5sending?5CONNECT?5to?5proxy?$AA@ 0045a5a8     libcurl:http_proxy.obj
 0002:000035c8       ??_C@_0CF@KOLJOBP@Proxy?5CONNECT?5aborted?5due?5to?5tim@ 0045a5c8     libcurl:http_proxy.obj
 0002:000035f0       ??_C@_0CB@DICNFOOE@Proxy?5CONNECT?5connection?5closed?6@ 0045a5f0     libcurl:http_proxy.obj
 0002:00003614       ??_C@_0BG@JFLKGDIG@Proxy?5CONNECT?5aborted?$AA@ 0045a614     libcurl:http_proxy.obj
 0002:0000362c       ??_C@_0BE@LIFOKNAI@chunk?5reading?5DONE?6?$AA@ 0045a62c     libcurl:http_proxy.obj
 0002:00003640       ??_C@_0BM@LDKBIKH@CONNECT?5response?5too?5large?$CB?$AA@ 0045a640     libcurl:http_proxy.obj
 0002:0000365c       ??_C@_0CF@EGEEKEED@Ignore?5?$CFI64d?5bytes?5of?5response?9b@ 0045a65c     libcurl:http_proxy.obj
 0002:00003684       ??_C@_0BO@ECLLDHEE@Ignore?5chunked?5response?9body?6?$AA@ 0045a684     libcurl:http_proxy.obj
 0002:000036a4       ??_C@_0DC@KNKBLKEG@Ignoring?5Content?9Length?5in?5CONNE@ 0045a6a4     libcurl:http_proxy.obj
 0002:000036d8       ??_C@_0DF@HKNKCFIL@Ignoring?5Transfer?9Encoding?5in?5CO@ 0045a6d8     libcurl:http_proxy.obj
 0002:00003710       ??_C@_0BL@FDNFJOM@CONNECT?5responded?5chunked?6?$AA@ 0045a710     libcurl:http_proxy.obj
 0002:0000372c       ??_C@_0N@HGFACOOI@HTTP?11?4?$CFd?5?$CFd?$AA@ 0045a72c     libcurl:http_proxy.obj
 0002:0000373c       ??_C@_0BJ@KOKGPDEF@Connect?5me?5again?5please?6?$AA@ 0045a73c     libcurl:http_proxy.obj
 0002:00003758       ??_C@_0CP@GIFMMFLA@Received?5HTTP?5code?5?$CFd?5from?5proxy@ 0045a758     libcurl:http_proxy.obj
 0002:00003788       ??_C@_0CF@LHCLBLEC@Proxy?5replied?5?$CFd?5to?5CONNECT?5requ@ 0045a788     libcurl:http_proxy.obj
 0002:000037b0       ??_C@_01MCMALHOG@a?$AA@    0045a7b0     libcurl:socks.obj
 0002:000037b4       ??_C@_0CP@GODCGMBP@SOCKS4?$CFs?3?5connecting?5to?5HTTP?5pro@ 0045a7b4     libcurl:socks.obj
 0002:000037e4       ??_C@_0BP@BFLNLLPD@SOCKS4?5communication?5to?5?$CFs?3?$CFd?6?$AA@ 0045a7e4     libcurl:socks.obj
 0002:00003804       ??_C@_0CD@BBPIICAB@SOCKS4?5non?9blocking?5resolve?5of?5?$CF@ 0045a804     libcurl:socks.obj
 0002:00003828       ??_C@_0BJ@HAGKBMCP@Hostname?5?8?$CFs?8?5was?5found?6?$AA@ 0045a828     libcurl:socks.obj
 0002:00003844       ??_C@_0CO@JJCMGPBJ@SOCKS4?5connect?5to?5IPv4?5?$CFs?5?$CIlocal@ 0045a844     libcurl:socks.obj
 0002:00003874       ??_C@_0CG@NKAIHKN@SOCKS4?5connection?5to?5?$CFs?5not?5supp@ 0045a874     libcurl:socks.obj
 0002:0000389c       ??_C@_0CL@BDNFEDCD@Failed?5to?5resolve?5?$CC?$CFs?$CC?5for?5SOCKS@ 0045a89c     libcurl:socks.obj
 0002:000038c8       ??_C@_0CL@MCOGLIGC@Too?5long?5SOCKS?5proxy?5user?5name?0?5@ 0045a8c8     libcurl:socks.obj
 0002:000038f4       ??_C@_0BL@JJKDFGHD@SOCKS4?3?5too?5long?5host?5name?$AA@ 0045a8f4     libcurl:socks.obj
 0002:00003910       ??_C@_0CH@MHLMDCGL@Failed?5to?5send?5SOCKS4?5connect?5re@ 0045a910     libcurl:socks.obj
 0002:00003938       ??_C@_0DB@OIJFDGGK@SOCKS4?3?5Failed?5receiving?5connect@ 0045a938     libcurl:socks.obj
 0002:0000396c       ??_C@_0BL@EDONHKIC@connection?5to?5proxy?5closed?$AA@ 0045a96c     libcurl:socks.obj
 0002:00003988       ??_C@_0DF@PDFOFKGI@SOCKS4?5reply?5has?5wrong?5version?0?5@ 0045a988     libcurl:socks.obj
 0002:000039c0       ??_C@_0BL@KEGECNIK@SOCKS4?$CFs?5request?5granted?4?6?$AA@ 0045a9c0     libcurl:socks.obj
 0002:000039e0       ??_C@_0FG@CLNHBPIC@Can?8t?5complete?5SOCKS4?5connection@ 0045a9e0     libcurl:socks.obj
 0002:00003a38       ??_C@_0II@IBODGEP@Can?8t?5complete?5SOCKS4?5connection@ 0045aa38     libcurl:socks.obj
 0002:00003ac0       ??_C@_0IM@JGJMKCMN@Can?8t?5complete?5SOCKS4?5connection@ 0045aac0     libcurl:socks.obj
 0002:00003b50       ??_C@_0ED@LEIEKNLE@Can?8t?5complete?5SOCKS4?5connection@ 0045ab50     libcurl:socks.obj
 0002:00003bb8       ??_C@_0CN@HPHFPLLC@SOCKS5?3?5connecting?5to?5HTTP?5proxy@ 0045abb8     libcurl:socks.obj
 0002:00003be8       ??_C@_0FC@NMNHLDOO@SOCKS5?3?5server?5resolving?5disable@ 0045abe8     libcurl:socks.obj
 0002:00003c3c       ??_C@_0DP@BIGHPBCP@warning?3?5unsupported?5value?5passe@ 0045ac3c     libcurl:socks.obj
 0002:00003c7c       ??_C@_0CH@GMDFCCKK@Unable?5to?5send?5initial?5SOCKS5?5re@ 0045ac7c     libcurl:socks.obj
 0002:00003ca4       ??_C@_0CL@JAKJLHBC@Unable?5to?5receive?5initial?5SOCKS5@ 0045aca4     libcurl:socks.obj
 0002:00003cd0       ??_C@_0BL@PPAECMCI@Connection?5to?5proxy?5closed?$AA@ 0045acd0     libcurl:socks.obj
 0002:00003cec       ??_C@_0DF@KPPCOMKD@Received?5invalid?5version?5in?5init@ 0045acec     libcurl:socks.obj
 0002:00003d24       ??_C@_0DL@FCEPENBN@SOCKS5?5GSSAPI?5per?9message?5authen@ 0045ad24     libcurl:socks.obj
 0002:00003d60       ??_C@_0CJ@CHHGJDNO@No?5authentication?5method?5was?5acc@ 0045ad60     libcurl:socks.obj
 0002:00003d8c       ??_C@_0DJ@GEDKBFPH@Undocumented?5SOCKS5?5mode?5attempt@ 0045ad8c     libcurl:socks.obj
 0002:00003dc8       ??_C@_0CK@NCDGADEO@Excessive?5user?5name?5length?5for?5p@ 0045adc8     libcurl:socks.obj
 0002:00003df4       ??_C@_0CJ@LKBHCEIE@Excessive?5password?5length?5for?5pr@ 0045adf4     libcurl:socks.obj
 0002:00003e20       ??_C@_0CP@CMDGNMCE@Failed?5to?5send?5SOCKS5?5sub?9negoti@ 0045ae20     libcurl:socks.obj
 0002:00003e50       ??_C@_0DD@BOLKPAMM@Unable?5to?5receive?5SOCKS5?5sub?9neg@ 0045ae50     libcurl:socks.obj
 0002:00003e84       ??_C@_0DA@CLHHICIG@User?5was?5rejected?5by?5the?5SOCKS5?5@ 0045ae84     libcurl:socks.obj
 0002:00003eb4       ??_C@_0BN@BFPKMOIA@SOCKS5?3?5hostname?5?8?$CFs?8?5found?6?$AA@ 0045aeb4     libcurl:socks.obj
 0002:00003ed4       ??_C@_0CL@NCFLJMOD@Failed?5to?5resolve?5?$CC?$CFs?$CC?5for?5SOCKS@ 0045aed4     libcurl:socks.obj
 0002:00003f00       ??_C@_03HODKBCIO@?3?$CFd?$AA@ 0045af00     libcurl:socks.obj
 0002:00003f04       ??_C@_0CO@HBDLPPLI@SOCKS5?5connect?5to?5IPv4?5?$CFs?5?$CIlocal@ 0045af04     libcurl:socks.obj
 0002:00003f34       ??_C@_0CO@OBFNNJOF@SOCKS5?5connect?5to?5IPv6?5?$CFs?5?$CIlocal@ 0045af34     libcurl:socks.obj
 0002:00003f64       ??_C@_0CG@DLFCBHFO@SOCKS5?5connection?5to?5?$CFs?5not?5supp@ 0045af64     libcurl:socks.obj
 0002:00003f8c       ??_C@_0CN@FPICFOPM@SOCKS5?5connect?5to?5?$CFs?3?$CFd?5?$CIremotel@ 0045af8c     libcurl:socks.obj
 0002:00003fbc       ??_C@_0CH@BAFOLCDD@Failed?5to?5send?5SOCKS5?5connect?5re@ 0045afbc     libcurl:socks.obj
 0002:00003fe4       ??_C@_0CO@HHLOPEDO@Failed?5to?5receive?5SOCKS5?5connect@ 0045afe4     libcurl:socks.obj
 0002:00004014       ??_C@_0DF@MICEHEFP@SOCKS5?5reply?5has?5wrong?5version?0?5@ 0045b014     libcurl:socks.obj
 0002:0000404c       ??_C@_0CN@LLAFNAAA@Can?8t?5complete?5SOCKS5?5connection@ 0045b04c     libcurl:socks.obj
 0002:0000407c       ??_C@_0CF@NJGGJEDC@SOCKS5?5reply?5has?5wrong?5address?5t@ 0045b07c     libcurl:socks.obj
 0002:000040a4       ??_C@_0BJ@DJFGPDDE@SOCKS5?5request?5granted?4?6?$AA@ 0045b0a4     libcurl:socks.obj
 0002:00004120       ??_C@_03PDPKDIOM@I32?$AA@  0045b120     libcurl:mprintf.obj
 0002:00004124       ??_C@_03KDGLFNIB@I64?$AA@  0045b124     libcurl:mprintf.obj
 0002:00004128       ??_C@_03JALODAI@?$CFld?$AA@ 0045b128     libcurl:mprintf.obj
 0002:0000412c       ??_C@_04JAJMFKGM@?4?$CFld?$AA@ 0045b12c     libcurl:mprintf.obj
 0002:00004138       __real@4024000000000000    0045b138     libcurl:mprintf.obj
 0002:00004178       _Curl_wkday                0045b178     libcurl:parsedate.obj
 0002:00004194       _Curl_month                0045b194     libcurl:parsedate.obj
 0002:0000454c       ??_C@_03PDAGKDH@Mon?$AA@   0045b54c     libcurl:parsedate.obj
 0002:00004550       ??_C@_03NAGEINEP@Tue?$AA@  0045b550     libcurl:parsedate.obj
 0002:00004554       ??_C@_03MHOMLAJA@Wed?$AA@  0045b554     libcurl:parsedate.obj
 0002:00004558       ??_C@_03IOFIKPDN@Thu?$AA@  0045b558     libcurl:parsedate.obj
 0002:0000455c       ??_C@_03IDIOELNC@Fri?$AA@  0045b55c     libcurl:parsedate.obj
 0002:00004560       ??_C@_03FEFJNEK@Sat?$AA@   0045b560     libcurl:parsedate.obj
 0002:00004564       ??_C@_03KOEHGMDN@Sun?$AA@  0045b564     libcurl:parsedate.obj
 0002:00004568       ??_C@_03JIHJHPIE@Jan?$AA@  0045b568     libcurl:parsedate.obj
 0002:0000456c       ??_C@_03HJBDCHOM@Feb?$AA@  0045b56c     libcurl:parsedate.obj
 0002:00004570       ??_C@_03ODNJBKGA@Mar?$AA@  0045b570     libcurl:parsedate.obj
 0002:00004574       ??_C@_03LEOLGMJP@Apr?$AA@  0045b574     libcurl:parsedate.obj
 0002:00004578       ??_C@_03CNMDKL@May?$AA@    0045b578     libcurl:parsedate.obj
 0002:0000457c       ??_C@_03IDFGHECI@Jun?$AA@  0045b57c     libcurl:parsedate.obj
 0002:00004580       ??_C@_03LBGABGKK@Jul?$AA@  0045b580     libcurl:parsedate.obj
 0002:00004584       ??_C@_03IFJFEIGA@Aug?$AA@  0045b584     libcurl:parsedate.obj
 0002:00004588       ??_C@_03GGCAPAJC@Sep?$AA@  0045b588     libcurl:parsedate.obj
 0002:0000458c       ??_C@_03BMAOKBAD@Oct?$AA@  0045b58c     libcurl:parsedate.obj
 0002:00004590       ??_C@_03JPJOFNIA@Nov?$AA@  0045b590     libcurl:parsedate.obj
 0002:00004594       ??_C@_03MKABNOCG@Dec?$AA@  0045b594     libcurl:parsedate.obj
 0002:00004598       ??_C@_06JLEDEDGH@Monday?$AA@ 0045b598     libcurl:parsedate.obj
 0002:000045a0       ??_C@_07BAAGCFCM@Tuesday?$AA@ 0045b5a0     libcurl:parsedate.obj
 0002:000045a8       ??_C@_09DLIGFAKA@Wednesday?$AA@ 0045b5a8     libcurl:parsedate.obj
 0002:000045b4       ??_C@_08HACCIKIA@Thursday?$AA@ 0045b5b4     libcurl:parsedate.obj
 0002:000045c0       ??_C@_06JECMNKMI@Friday?$AA@ 0045b5c0     libcurl:parsedate.obj
 0002:000045c8       ??_C@_08INBOOONO@Saturday?$AA@ 0045b5c8     libcurl:parsedate.obj
 0002:000045d4       ??_C@_06OOPIFAJ@Sunday?$AA@ 0045b5d4     libcurl:parsedate.obj
 0002:000045dc       ??_C@_0DK@DJOHIPMC@?$CF31?$FLABCDEFGHIJKLMNOPQRSTUVWXYZab@ 0045b5dc     libcurl:parsedate.obj
 0002:00004618       ??_C@_0BB@DDKNHMEG@?$CF02d?3?$CF02d?3?$CF02d?$CFn?$AA@ 0045b618     libcurl:parsedate.obj
 0002:0000462c       ??_C@_0M@GGPEELHK@?$CF02d?3?$CF02d?$CFn?$AA@ 0045b62c     libcurl:parsedate.obj
 0002:00004638       ??_C@_0CB@GKOJBLCO@WARNING?3?5Using?5weak?5random?5seed?6@ 0045b638     libcurl:rand.obj
 0002:0000465c       ??_C@_0BB@JCEFLFJE@0123456789abcdef?$AA@ 0045b65c     libcurl:rand.obj
 0002:00004670       _Curl_handler_gopher       0045b670     libcurl:gopher.obj
 0002:000046bc       ??_C@_06IFFOBMCL@GOPHER?$AA@ 0045b6bc     libcurl:gopher.obj
 0002:000046c4       ??_C@_0BO@PBGBECFJ@Failed?5sending?5Gopher?5request?$AA@ 0045b6c4     libcurl:gopher.obj
 0002:000046e4       ??_C@_04MOKDAIJJ@IMAP?$AA@ 0045b6e4     libcurl:imap.obj
 0002:00004710       _Curl_handler_imap         0045b710     libcurl:imap.obj
 0002:0000475c       ??_C@_04CJJOKOB@imap?$AA@  0045b75c     libcurl:imap.obj
 0002:00004764       ??_C@_02GIPFHKNO@OK?$AA@   0045b764     libcurl:imap.obj
 0002:00004768       ??_C@_0L@LNNPCDBM@CAPABILITY?$AA@ 0045b768     libcurl:imap.obj
 0002:00004774       ??_C@_04PCOPKCKE@LIST?$AA@ 0045b774     libcurl:imap.obj
 0002:0000477c       ??_C@_05CIPFEEPL@STORE?$AA@ 0045b77c     libcurl:imap.obj
 0002:00004784       ??_C@_05JDMAOHF@FETCH?$AA@ 0045b784     libcurl:imap.obj
 0002:0000478c       ??_C@_06LCPJPOPK@SELECT?$AA@ 0045b78c     libcurl:imap.obj
 0002:00004794       ??_C@_07JOOLACMD@EXAMINE?$AA@ 0045b794     libcurl:imap.obj
 0002:0000479c       ??_C@_06GBNAAIDA@SEARCH?$AA@ 0045b79c     libcurl:imap.obj
 0002:000047a4       ??_C@_07JEPHAMII@EXPUNGE?$AA@ 0045b7a4     libcurl:imap.obj
 0002:000047ac       ??_C@_04NFFONMDK@LSUB?$AA@ 0045b7ac     libcurl:imap.obj
 0002:000047b4       ??_C@_03MJDGODDN@UID?$AA@  0045b7b4     libcurl:imap.obj
 0002:000047b8       ??_C@_04NMBEDBAI@NOOP?$AA@ 0045b7b8     libcurl:imap.obj
 0002:000047c0       ??_C@_0CB@FHOJFP@Unexpected?5continuation?5response@ 0045b7c0     libcurl:imap.obj
 0002:000047e4       ??_C@_08EBJFDHCC@STARTTLS?$AA@ 0045b7e4     libcurl:imap.obj
 0002:000047f0       ??_C@_0M@HKLLGBJE@LOGIN?5?$CFs?5?$CFs?$AA@ 0045b7f0     libcurl:imap.obj
 0002:000047fc       ??_C@_0BD@HAAFOLAI@AUTHENTICATE?5?$CFs?5?$CFs?$AA@ 0045b7fc     libcurl:imap.obj
 0002:00004810       ??_C@_0BA@MBJBMJEE@AUTHENTICATE?5?$CFs?$AA@ 0045b810     libcurl:imap.obj
 0002:00004820       ??_C@_02DKCKIIND@?$CFs?$AA@ 0045b820     libcurl:imap.obj
 0002:00004824       ??_C@_0CP@IMHCGJPM@No?5known?5authentication?5mechanis@ 0045b824     libcurl:imap.obj
 0002:00004854       ??_C@_0M@HEIBGALO@LIST?5?$CC?$CFs?$CC?5?$CK?$AA@ 0045b854     libcurl:imap.obj
 0002:00004860       ??_C@_0CB@CNPLJHNG@Cannot?5SELECT?5without?5a?5mailbox?4@ 0045b860     libcurl:imap.obj
 0002:00004884       ??_C@_09GMKLHBDP@SELECT?5?$CFs?$AA@ 0045b884     libcurl:imap.obj
 0002:00004890       ??_C@_0BK@HINEGIBC@UID?5FETCH?5?$CFs?5BODY?$FL?$CFs?$FN?$DM?$CFs?$DO?$AA@ 0045b890     libcurl:imap.obj
 0002:000048ac       ??_C@_0BG@MFEJGEMK@UID?5FETCH?5?$CFs?5BODY?$FL?$CFs?$FN?$AA@ 0045b8ac     libcurl:imap.obj
 0002:000048c4       ??_C@_0BG@KDICJLOA@FETCH?5?$CFs?5BODY?$FL?$CFs?$FN?$DM?$CFs?$DO?$AA@ 0045b8c4     libcurl:imap.obj
 0002:000048dc       ??_C@_0BC@DBBDHOGD@FETCH?5?$CFs?5BODY?$FL?$CFs?$FN?$AA@ 0045b8dc     libcurl:imap.obj
 0002:000048f0       ??_C@_0BM@MDAKNOLA@Cannot?5FETCH?5without?5a?5UID?4?$AA@ 0045b8f0     libcurl:imap.obj
 0002:0000490c       ??_C@_0CB@OJIMGEKK@Cannot?5APPEND?5without?5a?5mailbox?4@ 0045b90c     libcurl:imap.obj
 0002:00004930       ??_C@_0N@CMGFLCKF@Mime?9Version?$AA@ 0045b930     libcurl:imap.obj
 0002:00004940       ??_C@_0BC@LJLDDNIA@Mime?9Version?3?51?40?$AA@ 0045b940     libcurl:imap.obj
 0002:00004954       ??_C@_0CL@KHDECIDD@Cannot?5APPEND?5with?5unknown?5input@ 0045b954     libcurl:imap.obj
 0002:00004980       ??_C@_0BK@BLHEIJNH@APPEND?5?$CFs?5?$CI?2Seen?$CJ?5?$HL?$CFI64d?$HN?$AA@ 0045b980     libcurl:imap.obj
 0002:0000499c       ??_C@_0CG@GFOCBLJM@Cannot?5SEARCH?5without?5a?5query?5st@ 0045b99c     libcurl:imap.obj
 0002:000049c4       ??_C@_09PAMHLMCN@SEARCH?5?$CFs?$AA@ 0045b9c4     libcurl:imap.obj
 0002:000049d0       ??_C@_06ICDCDPAM@LOGOUT?$AA@ 0045b9d0     libcurl:imap.obj
 0002:000049d8       ??_C@_0CM@LEKNMHGJ@PREAUTH?5connection?0?5already?5auth@ 0045b9d8     libcurl:imap.obj
 0002:00004a04       ??_C@_0CE@FKNEKFDD@Got?5unexpected?5imap?9server?5respo@ 0045ba04     libcurl:imap.obj
 0002:00004a28       ??_C@_0O@MEFIGCNE@LOGINDISABLED?$AA@ 0045ba28     libcurl:imap.obj
 0002:00004a38       ??_C@_05CKMEMLBN@AUTH?$DN?$AA@ 0045ba38     libcurl:imap.obj
 0002:00004a40       ??_C@_0BI@BIKPOJKH@STARTTLS?5not?5supported?4?$AA@ 0045ba40     libcurl:imap.obj
 0002:00004a58       ??_C@_0BA@IKAEMKBM@STARTTLS?5denied?$AA@ 0045ba58     libcurl:imap.obj
 0002:00004a68       ??_C@_0BJ@KPCPDCOC@Authentication?5cancelled?$AA@ 0045ba68     libcurl:imap.obj
 0002:00004a84       ??_C@_0BC@GNMNACJK@Access?5denied?4?5?$CFc?$AA@ 0045ba84     libcurl:imap.obj
 0002:00004a98       ??_C@_0CB@HHPEICDC@OK?5?$FLUIDVALIDITY?5?$CF19?$FL0123456789?$FN?$FN@ 0045ba98     libcurl:imap.obj
 0002:00004abc       ??_C@_0CA@GGNJMECP@Mailbox?5UIDVALIDITY?5has?5changed?$AA@ 0045babc     libcurl:imap.obj
 0002:00004adc       ??_C@_0O@IFFBAKPD@Select?5failed?$AA@ 0045badc     libcurl:imap.obj
 0002:00004aec       ??_C@_0BP@GLMKNCNJ@Found?5?$CFI64d?5bytes?5to?5download?6?$AA@ 0045baec     libcurl:imap.obj
 0002:00004b0c       ??_C@_0DG@HDINJNJA@Written?5?$CFzu?5bytes?0?5?$CFI64u?5bytes?5a@ 0045bb0c     libcurl:imap.obj
 0002:00004b44       ??_C@_0CA@GCPCMMJK@Failed?5to?5parse?5FETCH?5response?4?$AA@ 0045bb44     libcurl:imap.obj
 0002:00004b64       ??_C@_06KPMAOGPB@?$CFc?$CF03d?$AA@ 0045bb64     libcurl:imap.obj
 0002:00004b6c       ??_C@_05DNIIFBMG@?$CFs?5?$CFs?$AA@ 0045bb6c     libcurl:imap.obj
 0002:00004b74       ??_C@_07OHGMEIBP@?$CI?$CJ?$HL?5?$CF?$CK?$FN?$AA@ 0045bb74     libcurl:imap.obj
 0002:00004b7c       ??_C@_0M@BOIGKDFF@UIDVALIDITY?$AA@ 0045bb7c     libcurl:imap.obj
 0002:00004b88       ??_C@_09NEHACAIH@MAILINDEX?$AA@ 0045bb88     libcurl:imap.obj
 0002:00004b94       ??_C@_07OADICAGF@SECTION?$AA@ 0045bb94     libcurl:imap.obj
 0002:00004b9c       ??_C@_07GKNKJNCD@PARTIAL?$AA@ 0045bb9c     libcurl:imap.obj
 0002:00004ba4       ??_C@_04FKGOMEMC@POP3?$AA@ 0045bba4     libcurl:pop3.obj
 0002:00004bd0       _Curl_handler_pop3         0045bbd0     libcurl:pop3.obj
 0002:00004c1c       ??_C@_03NJDAHFJE@pop?$AA@  0045bc1c     libcurl:pop3.obj
 0002:00004c20       ??_C@_04IAPIEFNH@CAPA?$AA@ 0045bc20     libcurl:pop3.obj
 0002:00004c28       ??_C@_04OKBHFPDP@STLS?$AA@ 0045bc28     libcurl:pop3.obj
 0002:00004c30       ??_C@_07BCMGCIGK@USER?5?$CFs?$AA@ 0045bc30     libcurl:pop3.obj
 0002:00004c38       ??_C@_04NOJCDH@?$CF02x?$AA@ 0045bc38     libcurl:pop3.obj
 0002:00004c40       ??_C@_0L@NCKPAHGC@APOP?5?$CFs?5?$CFs?$AA@ 0045bc40     libcurl:pop3.obj
 0002:00004c4c       ??_C@_0L@LFENDKBE@AUTH?5?$CFs?5?$CFs?$AA@ 0045bc4c     libcurl:pop3.obj
 0002:00004c58       ??_C@_07GLDNHMJM@AUTH?5?$CFs?$AA@ 0045bc58     libcurl:pop3.obj
 0002:00004c60       ??_C@_04DEPMIFPM@RETR?$AA@ 0045bc60     libcurl:pop3.obj
 0002:00004c68       ??_C@_04GBOBDPBG@QUIT?$AA@ 0045bc68     libcurl:pop3.obj
 0002:00004c70       ??_C@_0CE@PFHNFNOL@Got?5unexpected?5pop3?9server?5respo@ 0045bc70     libcurl:pop3.obj
 0002:00004c94       ??_C@_0BE@NGBFBFLB@STLS?5not?5supported?4?$AA@ 0045bc94     libcurl:pop3.obj
 0002:00004ca8       ??_C@_0BK@FLOCGBM@Authentication?5failed?3?5?$CFd?$AA@ 0045bca8     libcurl:pop3.obj
 0002:00004cc4       ??_C@_07ECIIGDNP@PASS?5?$CFs?$AA@ 0045bcc4     libcurl:pop3.obj
 0002:00004ccc       ??_C@_05EMLFECFL@?$CLAPOP?$AA@ 0045bccc     libcurl:pop3.obj
 0002:00004cd4       ??_C@_05KMJPGPH@?$AN?6?4?$AN?6?$AA@ 0045bcd4     libcurl:pop3.obj
 0002:00004cdc       ??_C@_04POBOOGCB@SMTP?$AA@ 0045bcdc     libcurl:smtp.obj
 0002:00004d08       _Curl_handler_smtp         0045bd08     libcurl:smtp.obj
 0002:00004d54       ??_C@_04DCCEAEFJ@smtp?$AA@ 0045bd54     libcurl:smtp.obj
 0002:00004d5c       ??_C@_07LENLNDIO@EHLO?5?$CFs?$AA@ 0045bd5c     libcurl:smtp.obj
 0002:00004d64       ??_C@_07EOAJKHJP@HELO?5?$CFs?$AA@ 0045bd64     libcurl:smtp.obj
 0002:00004d6c       ??_C@_09KGGPGOEC@?5SMTPUTF8?$AA@ 0045bd6c     libcurl:smtp.obj
 0002:00004d78       ??_C@_01EOFPKCAF@?$EA?$AA@ 0045bd78     libcurl:smtp.obj
 0002:00004d7c       ??_C@_0O@LLBOEPLL@VRFY?5?$CFs?$CFs?$CFs?$CFs?$AA@ 0045bd7c     libcurl:smtp.obj
 0002:00004d8c       ??_C@_04KFDBLEKN@EXPN?$AA@ 0045bd8c     libcurl:smtp.obj
 0002:00004d94       ??_C@_07LLFIICBM@?$CFs?5?$CFs?$CFs?$AA@ 0045bd94     libcurl:smtp.obj
 0002:00004d9c       ??_C@_04DOKPJKJF@HELP?$AA@ 0045bd9c     libcurl:smtp.obj
 0002:00004da4       ??_C@_07IAOBMFMB@?$DM?$CFs?$EA?$CFs?$DO?$AA@ 0045bda4     libcurl:smtp.obj
 0002:00004dac       ??_C@_04NNJCMPBN@?$DM?$CFs?$DO?$AA@ 0045bdac     libcurl:smtp.obj
 0002:00004db4       ??_C@_02GMAKCBGE@?$DM?$DO?$AA@ 0045bdb4     libcurl:smtp.obj
 0002:00004db8       ??_C@_05LLAMLEHD@?$CFI64d?$AA@ 0045bdb8     libcurl:smtp.obj
 0002:00004dc0       ??_C@_06MKNOLBCP@?5SIZE?$DN?$AA@ 0045bdc0     libcurl:smtp.obj
 0002:00004dc8       ??_C@_06MJNHIMFM@?5AUTH?$DN?$AA@ 0045bdc8     libcurl:smtp.obj
 0002:00004dd0       ??_C@_0BH@CCDJIIDH@MAIL?5FROM?3?$CFs?$CFs?$CFs?$CFs?$CFs?$CFs?$AA@ 0045bdd0     libcurl:smtp.obj
 0002:00004de8       ??_C@_0BA@HHMHFILL@RCPT?5TO?3?$DM?$CFs?$EA?$CFs?$DO?$AA@ 0045bde8     libcurl:smtp.obj
 0002:00004df8       ??_C@_0N@LGJBDMGK@RCPT?5TO?3?$DM?$CFs?$DO?$AA@ 0045bdf8     libcurl:smtp.obj
 0002:00004e08       ??_C@_0CI@FJFEAKAL@Got?5unexpected?5smtp?9server?5respo@ 0045be08     libcurl:smtp.obj
 0002:00004e30       ??_C@_0BJ@EDGODDHJ@STARTTLS?5denied?0?5code?5?$CFd?$AA@ 0045be30     libcurl:smtp.obj
 0002:00004e4c       ??_C@_0BJ@DNMHCFHF@Remote?5access?5denied?3?5?$CFd?$AA@ 0045be4c     libcurl:smtp.obj
 0002:00004e68       ??_C@_0CB@HKFOBCB@Unexpectedly?5short?5EHLO?5response@ 0045be68     libcurl:smtp.obj
 0002:00004e8c       ??_C@_0BD@COCKJOPI@Command?5failed?3?5?$CFd?$AA@ 0045be8c     libcurl:smtp.obj
 0002:00004ea0       ??_C@_0BA@FIAGOBAE@MAIL?5failed?3?5?$CFd?$AA@ 0045bea0     libcurl:smtp.obj
 0002:00004eb0       ??_C@_0BA@LOKNLPKK@RCPT?5failed?3?5?$CFd?$AA@ 0045beb0     libcurl:smtp.obj
 0002:00004ec0       ??_C@_0BN@DILLHMBG@RCPT?5failed?3?5?$CFd?5?$CIlast?5error?$CJ?$AA@ 0045bec0     libcurl:smtp.obj
 0002:00004ee0       ??_C@_04DFNBDBBL@DATA?$AA@ 0045bee0     libcurl:smtp.obj
 0002:00004ee8       ??_C@_0BA@BDBJMDJD@DATA?5failed?3?5?$CFd?$AA@ 0045bee8     libcurl:smtp.obj
 0002:00004ef8       ??_C@_04JHCEEOPB@?$AN?6?4?4?$AA@ 0045bef8     libcurl:smtp.obj
 0002:00004f00       ??_C@_0BJ@NPJPFJML@?$CF04d?$CF02d?$CF02d?$CF02d?$CF02d?$CF02d?$AA@ 0045bf00     libcurl:ftp.obj
 0002:00004f1c       ??_C@_0CA@CJAAICLH@?$CF04d?$CF02d?$CF02d?5?$CF02d?3?$CF02d?3?$CF02d?5GMT?$AA@ 0045bf1c     libcurl:ftp.obj
 0002:00004f3c       ??_C@_0DE@GKBAFMFA@Last?9Modified?3?5?$CFs?0?5?$CF02d?5?$CFs?5?$CF4d?5?$CF@ 0045bf3c     libcurl:ftp.obj
 0002:00004f70       ??_C@_0BP@EOJCADGH@unsupported?5MDTM?5reply?5format?6?$AA@ 0045bf70     libcurl:ftp.obj
 0002:00004f90       ??_C@_0BK@JLENJKNN@Given?5file?5does?5not?5exist?$AA@ 0045bf90     libcurl:ftp.obj
 0002:00004fac       ??_C@_0BK@LIEJIOFD@Skipping?5time?5comparison?6?$AA@ 0045bfac     libcurl:ftp.obj
 0002:00004fc8       ??_C@_0BK@DEMDJAEI@Couldn?8t?5set?5desired?5mode?$AA@ 0045bfc8     libcurl:ftp.obj
 0002:00004fe4       ??_C@_0DF@NIKHFCK@Got?5a?5?$CF03d?5response?5code?5instead@ 0045bfe4     libcurl:ftp.obj
 0002:0000501c       ??_C@_0CB@IDOEMMGJ@ftp?5server?5doesn?8t?5support?5SIZE?6@ 0045c01c     libcurl:ftp.obj
 0002:00005040       ??_C@_0CM@HFMKHHME@Offset?5?$CI?$CFI64d?$CJ?5was?5beyond?5file?5s@ 0045c040     libcurl:ftp.obj
 0002:0000506c       ??_C@_0CE@DDNCLNDJ@File?5already?5completely?5download@ 0045c06c     libcurl:ftp.obj
 0002:00005090       ??_C@_0CO@NFEHDDGP@Instructs?5server?5to?5resume?5from?5@ 0045c090     libcurl:ftp.obj
 0002:000050c0       ??_C@_0L@GMAGLFCO@REST?5?$CFI64d?$AA@ 0045c0c0     libcurl:ftp.obj
 0002:000050cc       ??_C@_0BI@DFLKJFAC@The?5file?5does?5not?5exist?$AA@ 0045c0cc     libcurl:ftp.obj
 0002:000050e4       ??_C@_0BH@OONDMNFK@Accept?9ranges?3?5bytes?$AN?6?$AA@ 0045c0e4     libcurl:ftp.obj
 0002:000050fc       ??_C@_0BC@MLOKPHOJ@Couldn?8t?5use?5REST?$AA@ 0045c0fc     libcurl:ftp.obj
 0002:00005110       ??_C@_0BH@NAGIDHLA@Failed?5FTP?5upload?3?5?$CF0d?$AA@ 0045c110     libcurl:ftp.obj
 0002:00005128       ??_C@_0CJ@KNNCCANJ@Data?5conn?5was?5not?5available?5imme@ 0045c128     libcurl:ftp.obj
 0002:00005154       ??_C@_06LCIDCBMH@?5bytes?$AA@ 0045c154     libcurl:ftp.obj
 0002:0000515c       ??_C@_0BF@OJNOJFMB@Maxdownload?5?$DN?5?$CFI64d?6?$AA@ 0045c15c     libcurl:ftp.obj
 0002:00005174       ??_C@_0BP@JBOHHHEF@Getting?5file?5with?5size?3?5?$CFI64d?6?$AA@ 0045c174     libcurl:ftp.obj
 0002:00005194       ??_C@_0BE@IHDENKLC@RETR?5response?3?5?$CF03d?$AA@ 0045c194     libcurl:ftp.obj
 0002:000051a8       ??_C@_07HLPDJPKF@PBSZ?5?$CFd?$AA@ 0045c1a8     libcurl:ftp.obj
 0002:000051b0       ??_C@_03LBMKPMDK@FTP?$AA@  0045c1b0     libcurl:ftp.obj
 0002:000051b4       ??_C@_07NEPAJNMI@ACCT?5?$CFs?$AA@ 0045c1b4     libcurl:ftp.obj
 0002:000051bc       ??_C@_0CC@FIJBPOPC@ACCT?5requested?5but?5none?5availabl@ 0045c1bc     libcurl:ftp.obj
 0002:000051e0       ??_C@_0BE@IDFIDIK@Access?5denied?3?5?$CF03d?$AA@ 0045c1e0     libcurl:ftp.obj
 0002:000051f4       ??_C@_0BO@KPCJJKDD@ACCT?5rejected?5by?5server?3?5?$CF03d?$AA@ 0045c1f4     libcurl:ftp.obj
 0002:00005220       _Curl_handler_ftp          0045c220     libcurl:ftp.obj
 0002:00005284       ??_C@_0CB@MGPFOKOC@Error?5accept?$CI?$CJing?5server?5connect@ 0045c284     libcurl:ftp.obj
 0002:000052a8       ??_C@_0CB@CHFILBBG@Connection?5accepted?5from?5server?6@ 0045c2a8     libcurl:ftp.obj
 0002:000052cc       ??_C@_0BN@OADDFOLF@Checking?5for?5server?5connect?6?$AA@ 0045c2cc     libcurl:ftp.obj
 0002:000052ec       ??_C@_0DF@ECKOGFBG@Accept?5timeout?5occurred?5while?5wa@ 0045c2ec     libcurl:ftp.obj
 0002:00005324       ??_C@_0DI@EHJDBFKM@There?5is?5negative?5response?5in?5ca@ 0045c324     libcurl:ftp.obj
 0002:0000535c       ??_C@_0DF@BCDKPLJO@Got?5a?5?$CF03d?5ftp?9server?5response?5w@ 0045c35c     libcurl:ftp.obj
 0002:00005394       ??_C@_0CH@IPEAPKCM@Error?5while?5waiting?5for?5server?5c@ 0045c394     libcurl:ftp.obj
 0002:000053bc       ??_C@_0CN@DICMJIKG@Ready?5to?5accept?5data?5connection?5@ 0045c3bc     libcurl:ftp.obj
 0002:000053ec       ??_C@_0DA@LIJFNFEC@unsupported?5parameter?5to?5CURLOPT@ 0045c3ec     libcurl:ftp.obj
 0002:0000541c       ??_C@_0DA@FIFPKHDL@Ctrl?5conn?5has?5data?5while?5waiting@ 0045c41c     libcurl:ftp.obj
 0002:0000544c       ??_C@_0DA@NKJCHCEC@Doing?5the?5SSL?1TLS?5handshake?5on?5t@ 0045c44c     libcurl:ftp.obj
 0002:0000547c       ??_C@_07JIEIOJCN@PROT?5?$CFc?$AA@ 0045c47c     libcurl:ftp.obj
 0002:00005484       ??_C@_0CN@HIFIJJNN@Preparing?5for?5accepting?5server?5o@ 0045c484     libcurl:ftp.obj
 0002:000054b4       ??_C@_03POJCPIGP@CCC?$AA@  0045c4b4     libcurl:ftp.obj
 0002:000054b8       ??_C@_0CK@DIEJGCGD@Failed?5to?5clear?5the?5command?5chan@ 0045c4b8     libcurl:ftp.obj
 0002:000054e4       ??_C@_04EAEGPFGI@SYST?$AA@ 0045c4e4     libcurl:ftp.obj
 0002:000054ec       ??_C@_0BE@OCHIMCLN@Entry?5path?5is?5?8?$CFs?8?6?$AA@ 0045c4ec     libcurl:ftp.obj
 0002:00005500       ??_C@_0BL@LGIJMHED@Failed?5to?5figure?5out?5path?6?$AA@ 0045c500     libcurl:ftp.obj
 0002:0000551c       ??_C@_06JNDPFLAI@OS?1400?$AA@ 0045c51c     libcurl:ftp.obj
 0002:00005524       ??_C@_0P@JBGEGJKJ@SITE?5NAMEFMT?51?$AA@ 0045c524     libcurl:ftp.obj
 0002:00005534       ??_C@_0BO@OHEGJEDF@QUOT?5command?5failed?5with?5?$CF03d?$AA@ 0045c534     libcurl:ftp.obj
 0002:00005554       ??_C@_06BFAFDBBO@MKD?5?$CFs?$AA@ 0045c554     libcurl:ftp.obj
 0002:0000555c       ??_C@_0DD@PPJPGINE@Server?5denied?5you?5to?5change?5to?5t@ 0045c55c     libcurl:ftp.obj
 0002:00005590       ??_C@_0BI@BHKLDLGC@Failed?5to?5MKD?5dir?3?5?$CF03d?$AA@ 0045c590     libcurl:ftp.obj
 0002:000055a8       ??_C@_0CA@MIHDFENK@PRET?5command?5not?5accepted?3?5?$CF03d?$AA@ 0045c5a8     libcurl:ftp.obj
 0002:000055c8       ??_C@_03OIFAJNHF@PWD?$AA@  0045c5c8     libcurl:ftp.obj
 0002:000055cc       ??_C@_0CA@BPKLCDMI@Remembering?5we?5are?5in?5dir?5?$CC?$CFs?$CC?6?$AA@ 0045c5cc     libcurl:ftp.obj
 0002:000055ec       ??_C@_04JOBIBMIG@ABOR?$AA@ 0045c5ec     libcurl:ftp.obj
 0002:000055f4       ??_C@_0CB@ELHFDEFP@Failure?5sending?5ABOR?5command?3?5?$CFs@ 0045c5f4     libcurl:ftp.obj
 0002:00005618       ??_C@_0BO@IBJECBBL@control?5connection?5looks?5dead?$AA@ 0045c618     libcurl:ftp.obj
 0002:00005638       ??_C@_06DBCOIIKD@CWD?5?$CFs?$AA@ 0045c638     libcurl:ftp.obj
 0002:00005640       ??_C@_0DA@LKDFHHHG@partial?5download?5completed?0?5clos@ 0045c640     libcurl:ftp.obj
 0002:00005670       ??_C@_0BM@KBMOAOIH@Exceeded?5storage?5allocation?$AA@ 0045c670     libcurl:ftp.obj
 0002:0000568c       ??_C@_0CB@MBIEKFAL@server?5did?5not?5report?5OK?0?5got?5?$CFd@ 0045c68c     libcurl:ftp.obj
 0002:000056b0       ??_C@_0DI@GGNLIACP@Uploaded?5unaligned?5file?5size?5?$CI?$CFI@ 0045c6b0     libcurl:ftp.obj
 0002:000056e8       ??_C@_0CI@BFHFHKBK@Received?5only?5partial?5file?3?5?$CFI64@ 0045c6e8     libcurl:ftp.obj
 0002:00005710       ??_C@_0BG@JNDKCNAF@No?5data?5was?5received?$CB?$AA@ 0045c710     libcurl:ftp.obj
 0002:00005728       ??_C@_0BN@KKEKOBII@QUOT?5string?5not?5accepted?3?5?$CFs?$AA@ 0045c728     libcurl:ftp.obj
 0002:00005748       ??_C@_07LBAFLNFB@TYPE?5?$CFc?$AA@ 0045c748     libcurl:ftp.obj
 0002:00005750       ??_C@_0BP@PDGEBKHD@Connecting?5to?5?$CFs?5?$CI?$CFs?$CJ?5port?5?$CFd?6?$AA@ 0045c750     libcurl:ftp.obj
 0002:00005770       ??_C@_0BJ@KBDKIMG@getsockname?$CI?$CJ?5failed?3?5?$CFs?$AA@ 0045c770     libcurl:ftp.obj
 0002:0000578c       ??_C@_0DD@DMEJNKPI@failed?5to?5resolve?5the?5address?5pr@ 0045c78c     libcurl:ftp.obj
 0002:000057c0       ??_C@_0BD@OKODOHGG@socket?5failure?3?5?$CFs?$AA@ 0045c7c0     libcurl:ftp.obj
 0002:000057d4       ??_C@_0DA@CIIHINBN@bind?$CIport?$DN?$CFhu?$CJ?5on?5non?9local?5addr@ 0045c7d4     libcurl:ftp.obj
 0002:00005804       ??_C@_0BK@PGDLCBEF@bind?$CIport?$DN?$CFhu?$CJ?5failed?3?5?$CFs?$AA@ 0045c804     libcurl:ftp.obj
 0002:00005820       ??_C@_0CE@CGKJCPDM@bind?$CI?$CJ?5failed?0?5we?5ran?5out?5of?5por@ 0045c820     libcurl:ftp.obj
 0002:00005844       ??_C@_0CF@BIADGCCG@ftp_perform?5ends?5with?5SECONDARY?3@ 0045c844     libcurl:ftp.obj
 0002:0000586c       ??_C@_0P@JIPLFCKK@?$CFs?5?$HM?$CFd?$HM?$CFs?$HM?$CFhu?$HM?$AA@ 0045c86c     libcurl:ftp.obj
 0002:0000587c       ??_C@_0CB@BJFEKOJI@Failure?5sending?5EPRT?5command?3?5?$CFs@ 0045c87c     libcurl:ftp.obj
 0002:000058a0       ??_C@_06IEKOAMEP@?0?$CFd?0?$CFd?$AA@ 0045c8a0     libcurl:ftp.obj
 0002:000058a8       ??_C@_0CB@JCGGICMN@Failure?5sending?5PORT?5command?3?5?$CFs@ 0045c8a8     libcurl:ftp.obj
 0002:000058cc       ??_C@_0BP@PMBCHHFK@Connect?5data?5stream?5passively?6?$AA@ 0045c8cc     libcurl:ftp.obj
 0002:000058ec       ??_C@_0BM@CBMMJPAN@Wildcard?5?9?5Parsing?5started?6?$AA@ 0045c8ec     libcurl:ftp.obj
 0002:00005908       ??_C@_04LPPBABPG@NLST?$AA@ 0045c908     libcurl:ftp.obj
 0002:00005910       ??_C@_07HDBBNIBK@PRET?5?$CFs?$AA@ 0045c910     libcurl:ftp.obj
 0002:00005918       ??_C@_0N@JGBIEHDA@PRET?5STOR?5?$CFs?$AA@ 0045c918     libcurl:ftp.obj
 0002:00005928       ??_C@_0N@PCAKCCIM@PRET?5RETR?5?$CFs?$AA@ 0045c928     libcurl:ftp.obj
 0002:00005938       ??_C@_07EDEBBIDH@REST?5?$CFd?$AA@ 0045c938     libcurl:ftp.obj
 0002:00005940       ??_C@_0BK@EBFHJJOJ@Wildcard?5?9?5START?5of?5?$CC?$CFs?$CC?6?$AA@ 0045c940     libcurl:ftp.obj
 0002:0000595c       ??_C@_0CB@HPHNJDIO@Wildcard?5?9?5?$CC?$CFs?$CC?5skipped?5by?5user?6@ 0045c95c     libcurl:ftp.obj
 0002:00005980       ??_C@_07DHEHBJLB@SIZE?5?$CFs?$AA@ 0045c980     libcurl:ftp.obj
 0002:00005988       ??_C@_01CLKCMJKC@?5?$AA@   0045c988     libcurl:ftp.obj
 0002:0000598c       ??_C@_0CB@JNMCPEIN@Failure?5sending?5QUIT?5command?3?5?$CFs@ 0045c98c     libcurl:ftp.obj
 0002:000059b0       ??_C@_07DFNLHBNJ@MDTM?5?$CFs?$AA@ 0045c9b0     libcurl:ftp.obj
 0002:000059b8       ??_C@_0BE@KEOJEJGI@Failed?5to?5read?5data?$AA@ 0045c9b8     libcurl:ftp.obj
 0002:000059cc       ??_C@_0CC@MLJOLKKA@File?5already?5completely?5uploaded@ 0045c9cc     libcurl:ftp.obj
 0002:000059f0       ??_C@_07FKAENFJM@APPE?5?$CFs?$AA@ 0045c9f0     libcurl:ftp.obj
 0002:000059f8       ??_C@_07LAJFDMAF@STOR?5?$CFs?$AA@ 0045c9f8     libcurl:ftp.obj
 0002:00005a00       ??_C@_0CI@FGKDODBE@Uploading?5to?5a?5URL?5without?5a?5fil@ 0045ca00     libcurl:ftp.obj
 0002:00005a28       ??_C@_0CM@BBAADEII@Request?5has?5same?5path?5as?5previou@ 0045ca28     libcurl:ftp.obj
 0002:00005a54       ??_C@_07NEIHFJLJ@RETR?5?$CFs?$AA@ 0045ca54     libcurl:ftp.obj
 0002:00005a5c       ??_C@_0BN@DGOLGMBJ@Failed?5EPSV?5attempt?0?5exiting?$AA@ 0045ca5c     libcurl:ftp.obj
 0002:00005a7c       ??_C@_0CF@LLFCDFKE@Failed?5EPSV?5attempt?4?5Disabling?5E@ 0045ca7c     libcurl:ftp.obj
 0002:00005aa4       ??_C@_04KAHNJCEK@PASV?$AA@ 0045caa4     libcurl:ftp.obj
 0002:00005aac       ??_C@_0L@PJBCJFDL@?$CFc?$CFc?$CFc?$CFu?$CFc?$AA@ 0045caac     libcurl:ftp.obj
 0002:00005ab8       ??_C@_0CC@DPAPDPDE@Illegal?5port?5number?5in?5EPSV?5repl@ 0045cab8     libcurl:ftp.obj
 0002:00005adc       ??_C@_0BN@NDEBJJDH@Weirdly?5formatted?5EPSV?5reply?$AA@ 0045cadc     libcurl:ftp.obj
 0002:00005afc       ??_C@_0BC@GDCBJEOP@?$CFu?0?$CFu?0?$CFu?0?$CFu?0?$CFu?0?$CFu?$AA@ 0045cafc     libcurl:ftp.obj
 0002:00005b10       ??_C@_0CE@JAKPPKFJ@Couldn?8t?5interpret?5the?5227?9respo@ 0045cb10     libcurl:ftp.obj
 0002:00005b34       ??_C@_0DJ@BDPONOCF@Skip?5?$CFu?4?$CFu?4?$CFu?4?$CFu?5for?5data?5connec@ 0045cb34     libcurl:ftp.obj
 0002:00005b70       ??_C@_0M@CDHNGIPM@?$CFu?4?$CFu?4?$CFu?4?$CFu?$AA@ 0045cb70     libcurl:ftp.obj
 0002:00005b7c       ??_C@_0BN@NLMHLNCJ@Bad?5PASV?1EPSV?5response?3?5?$CF03d?$AA@ 0045cb7c     libcurl:ftp.obj
 0002:00005b9c       ??_C@_0CA@JCGDHCDD@Can?8t?5resolve?5proxy?5host?5?$CFs?3?$CFhu?$AA@ 0045cb9c     libcurl:ftp.obj
 0002:00005bbc       ??_C@_0BO@IFBOOOND@Can?8t?5resolve?5new?5host?5?$CFs?3?$CFhu?$AA@ 0045cbbc     libcurl:ftp.obj
 0002:00005bdc       ??_C@_0BG@GHLIGHGL@disabling?5EPRT?5usage?6?$AA@ 0045cbdc     libcurl:ftp.obj
 0002:00005bf4       ??_C@_0BC@GNDMALEK@Failed?5to?5do?5PORT?$AA@ 0045cbf4     libcurl:ftp.obj
 0002:00005c08       ??_C@_0BO@NCOMJOLE@Connect?5data?5stream?5actively?6?$AA@ 0045cc08     libcurl:ftp.obj
 0002:00005c28       ??_C@_0BJ@DGDBOHFM@We?5got?5a?5421?5?9?5timeout?$CB?6?$AA@ 0045cc28     libcurl:ftp.obj
 0002:00005c44       ??_C@_0BF@LJJJLKGP@FTP?5response?5timeout?$AA@ 0045cc44     libcurl:ftp.obj
 0002:00005c5c       ??_C@_0DC@FEDHDEPK@FTP?5response?5aborted?5due?5to?5sele@ 0045cc5c     libcurl:ftp.obj
 0002:00005c90       ??_C@_04PMPMHNFI@FILE?$AA@ 0045cc90     libcurl:file.obj
 0002:00005c98       _Curl_handler_file         0045cc98     libcurl:file.obj
 0002:00005ce4       ??_C@_0BG@EMIMEGKB@Couldn?8t?5open?5file?5?$CFs?$AA@ 0045cce4     libcurl:file.obj
 0002:00005cfc       ??_C@_0BK@BBIJKCFE@Can?8t?5open?5?$CFs?5for?5writing?$AA@ 0045ccfc     libcurl:file.obj
 0002:00005d18       ??_C@_0BJ@PBDLFGHG@Can?8t?5get?5the?5size?5of?5?$CFs?$AA@ 0045cd18     libcurl:file.obj
 0002:00005d34       ??_C@_0DG@OCPCIEKF@Last?9Modified?3?5?$CFs?0?5?$CF02d?5?$CFs?5?$CF4d?5?$CF@ 0045cd34     libcurl:file.obj
 0002:00005d6c       ??_C@_0BM@JKOBLIFI@Can?8t?5get?5the?5size?5of?5file?4?$AA@ 0045cd6c     libcurl:file.obj
 0002:00005d88       ??_C@_0CC@BFDLBKLP@failed?5to?5resume?5file?3?1?1?5transfe@ 0045cd88     libcurl:file.obj
 0002:00005db0       _Curl_handler_dict         0045cdb0     libcurl:dict.obj
 0002:00005dfc       ??_C@_04NOLJEKBF@DICT?$AA@ 0045cdfc     libcurl:dict.obj
 0002:00005e04       ??_C@_07EEEBABMF@?1MATCH?3?$AA@ 0045ce04     libcurl:dict.obj
 0002:00005e0c       ??_C@_03HLABFPGB@?1M?3?$AA@ 0045ce0c     libcurl:dict.obj
 0002:00005e10       ??_C@_06POHFGONG@?1FIND?3?$AA@ 0045ce10     libcurl:dict.obj
 0002:00005e18       ??_C@_0BI@HCFEFF@lookup?5word?5is?5missing?6?$AA@ 0045ce18     libcurl:dict.obj
 0002:00005e30       ??_C@_07DLHCIBDH@default?$AA@ 0045ce30     libcurl:dict.obj
 0002:00005e38       ??_C@_01DCLJPIOD@?$CB?$AA@ 0045ce38     libcurl:dict.obj
 0002:00005e3c       ??_C@_0CO@LOIPPG@CLIENT?5libcurl?57?476?41?$AN?6MATCH?5?$CFs?5@ 0045ce3c     libcurl:dict.obj
 0002:00005e6c       ??_C@_0BM@NMDEPLOC@Failed?5sending?5DICT?5request?$AA@ 0045ce6c     libcurl:dict.obj
 0002:00005e88       ??_C@_08FLILFNPP@?1DEFINE?3?$AA@ 0045ce88     libcurl:dict.obj
 0002:00005e94       ??_C@_03HENAGEOO@?1D?3?$AA@ 0045ce94     libcurl:dict.obj
 0002:00005e98       ??_C@_08OMCEKKKJ@?1LOOKUP?3?$AA@ 0045ce98     libcurl:dict.obj
 0002:00005ea4       ??_C@_0CM@LFFEFHLL@CLIENT?5libcurl?57?476?41?$AN?6DEFINE?5?$CFs@ 0045cea4     libcurl:dict.obj
 0002:00005ed0       ??_C@_0CC@MBNAKKIG@CLIENT?5libcurl?57?476?41?$AN?6?$CFs?$AN?6QUIT?$AN@ 0045ced0     libcurl:dict.obj
 0002:00005ef4       ??_C@_0BH@HDMBNBNK@Width?3?5?$CFd?5?$DL?5Height?3?5?$CFd?$AA@ 0045cef4     libcurl:telnet.obj
 0002:00005f0c       ??_C@_03JAFEDHAF@?5IS?$AA@ 0045cf0c     libcurl:telnet.obj
 0002:00005f10       ??_C@_05HEPJGMLF@?5SEND?$AA@ 0045cf10     libcurl:telnet.obj
 0002:00005f18       ??_C@_0M@NNAMPCHG@?5INFO?1REPLY?$AA@ 0045cf18     libcurl:telnet.obj
 0002:00005f24       ??_C@_05HILGCHMJ@?5NAME?$AA@ 0045cf24     libcurl:telnet.obj
 0002:00005f2c       ??_C@_05JEHJOICL@?5?$CC?$CFs?$CC?$AA@ 0045cf2c     libcurl:telnet.obj
 0002:00005f34       ??_C@_03MHLONNLM@?5?$DN?5?$AA@ 0045cf34     libcurl:telnet.obj
 0002:00005f38       ??_C@_02HAOIJKIC@?$CFc?$AA@ 0045cf38     libcurl:telnet.obj
 0002:00005f3c       ??_C@_05MAFEOBBD@?5?$CF?42x?$AA@ 0045cf3c     libcurl:telnet.obj
 0002:00005f44       ??_C@_07FIBAJHNC@USER?0?$CFs?$AA@ 0045cf44     libcurl:telnet.obj
 0002:00005f4c       ??_C@_0BF@FKHAOHNG@?$CF127?$FL?$FO?$DN?5?$FN?$CF?$CK?$FL?5?$DN?$FN?$CF255s?$AA@ 0045cf4c     libcurl:telnet.obj
 0002:00005f64       ??_C@_05EDAGKIGO@TTYPE?$AA@ 0045cf64     libcurl:telnet.obj
 0002:00005f6c       ??_C@_07CBBODINF@NEW_ENV?$AA@ 0045cf6c     libcurl:telnet.obj
 0002:00005f74       ??_C@_02PINLBAEP@WS?$AA@   0045cf74     libcurl:telnet.obj
 0002:00005f78       ??_C@_0N@DFKPNNGO@?$CFhu?$CF?$CK?$FLxX?$FN?$CFhu?$AA@ 0045cf78     libcurl:telnet.obj
 0002:00005f88       ??_C@_0CC@NJCHGDLJ@Syntax?5error?5in?5telnet?5option?3?5?$CF@ 0045cf88     libcurl:telnet.obj
 0002:00005fac       ??_C@_0BJ@EPEDNNHH@Unknown?5telnet?5option?5?$CFs?$AA@ 0045cfac     libcurl:telnet.obj
 0002:00005fc8       ??_C@_0P@IJIBEBBB@?$CFc?$CFc?$CFc?$CFc?$CFs?$CFc?$CFc?$AA@ 0045cfc8     libcurl:telnet.obj
 0002:00005fd8       ??_C@_08MMPFKENM@?$CFc?$CFc?$CFc?$CFc?$AA@ 0045cfd8     libcurl:telnet.obj
 0002:00005fe4       ??_C@_0P@EIKOJKEK@?$CF127?$FL?$FO?0?$FN?0?$CF127s?$AA@ 0045cfe4     libcurl:telnet.obj
 0002:00005ff4       ??_C@_08IFOBLEBG@?$CFc?$CFs?$CFc?$CFs?$AA@ 0045cff4     libcurl:telnet.obj
 0002:00006000       ??_C@_04GJDJEMBE@?$CFc?$CFc?$AA@ 0045d000     libcurl:telnet.obj
 0002:00006008       _Curl_handler_telnet       0045d008     libcurl:telnet.obj
 0002:00006148       ??_C@_0BO@FGKIEAKL@In?5SUBOPTION?5processing?0?5RCVD?$AA@ 0045d148     libcurl:telnet.obj
 0002:00006168       ??_C@_06FJHKNKMG@BINARY?$AA@ 0045d168     libcurl:telnet.obj
 0002:00006170       ??_C@_04CJAHKHLK@ECHO?$AA@ 0045d170     libcurl:telnet.obj
 0002:00006178       ??_C@_03HHNIIJAH@RCP?$AA@  0045d178     libcurl:telnet.obj
 0002:0000617c       ??_C@_0BC@PNOFGINB@SUPPRESS?5GO?5AHEAD?$AA@ 0045d17c     libcurl:telnet.obj
 0002:00006190       ??_C@_04IPKHEEB@NAME?$AA@  0045d190     libcurl:telnet.obj
 0002:00006198       ??_C@_06DNKMJCIK@STATUS?$AA@ 0045d198     libcurl:telnet.obj
 0002:000061a0       ??_C@_0M@EKEOBHGL@TIMING?5MARK?$AA@ 0045d1a0     libcurl:telnet.obj
 0002:000061ac       ??_C@_04BEBEFOLG@RCTE?$AA@ 0045d1ac     libcurl:telnet.obj
 0002:000061b4       ??_C@_04NKLMBLGG@NAOL?$AA@ 0045d1b4     libcurl:telnet.obj
 0002:000061bc       ??_C@_04DMMLEGDL@NAOP?$AA@ 0045d1bc     libcurl:telnet.obj
 0002:000061c4       ??_C@_06BKIMLPPI@NAOCRD?$AA@ 0045d1c4     libcurl:telnet.obj
 0002:000061cc       ??_C@_06MMIDMANN@NAOHTS?$AA@ 0045d1cc     libcurl:telnet.obj
 0002:000061d4       ??_C@_06MJAAEEEL@NAOHTD?$AA@ 0045d1d4     libcurl:telnet.obj
 0002:000061dc       ??_C@_06DGHNEEGG@NAOFFD?$AA@ 0045d1dc     libcurl:telnet.obj
 0002:000061e4       ??_C@_06HMEFOAHB@NAOVTS?$AA@ 0045d1e4     libcurl:telnet.obj
 0002:000061ec       ??_C@_06HJMGGEOH@NAOVTD?$AA@ 0045d1ec     libcurl:telnet.obj
 0002:000061f4       ??_C@_06FJMAKEAC@NAOLFD?$AA@ 0045d1f4     libcurl:telnet.obj
 0002:000061fc       ??_C@_0BL@IAGBODFB@WSACreateEvent?5failed?5?$CI?$CFd?$CJ?$AA@ 0045d1fc     libcurl:telnet.obj
 0002:00006218       ??_C@_0N@MCHGCBGJ@EXTEND?5ASCII?$AA@ 0045d218     libcurl:telnet.obj
 0002:00006228       ??_C@_0L@JJAOJAFM@BYTE?5MACRO?$AA@ 0045d228     libcurl:telnet.obj
 0002:00006234       ??_C@_0M@BFPOMMHF@DE?5TERMINAL?$AA@ 0045d234     libcurl:telnet.obj
 0002:00006240       ??_C@_06NAEEPLEB@SUPDUP?$AA@ 0045d240     libcurl:telnet.obj
 0002:00006248       ??_C@_0O@LDEGDMCH@SUPDUP?5OUTPUT?$AA@ 0045d248     libcurl:telnet.obj
 0002:00006258       ??_C@_0O@GCFNAHCA@SEND?5LOCATION?$AA@ 0045d258     libcurl:telnet.obj
 0002:00006268       ??_C@_09JHNIKOBE@TERM?5TYPE?$AA@ 0045d268     libcurl:telnet.obj
 0002:00006274       ??_C@_0O@OOFFLMHN@END?5OF?5RECORD?$AA@ 0045d274     libcurl:telnet.obj
 0002:00006284       ??_C@_0L@GPKIIPN@TACACS?5UID?$AA@ 0045d284     libcurl:telnet.obj
 0002:00006290       ??_C@_0P@MGPJDEPO@OUTPUT?5MARKING?$AA@ 0045d290     libcurl:telnet.obj
 0002:000062a0       ??_C@_06GGEFDLMA@TTYLOC?$AA@ 0045d2a0     libcurl:telnet.obj
 0002:000062a8       ??_C@_0M@NIKPEBAA@3270?5REGIME?$AA@ 0045d2a8     libcurl:telnet.obj
 0002:000062b4       ??_C@_06BPMGLPAC@X3?5PAD?$AA@ 0045d2b4     libcurl:telnet.obj
 0002:000062bc       ??_C@_04FNDOHDA@NAWS?$AA@  0045d2bc     libcurl:telnet.obj
 0002:000062c4       ??_C@_0L@PJIKHDLG@TERM?5SPEED?$AA@ 0045d2c4     libcurl:telnet.obj
 0002:000062d0       ??_C@_05LOOKNPEJ@LFLOW?$AA@ 0045d2d0     libcurl:telnet.obj
 0002:000062d8       ??_C@_08MFKKBNLA@LINEMODE?$AA@ 0045d2d8     libcurl:telnet.obj
 0002:000062e4       ??_C@_08GPGBHAKO@XDISPLOC?$AA@ 0045d2e4     libcurl:telnet.obj
 0002:000062f0       ??_C@_0M@HACFCEDH@OLD?9ENVIRON?$AA@ 0045d2f0     libcurl:telnet.obj
 0002:000062fc       ??_C@_0P@LGIMEOHB@AUTHENTICATION?$AA@ 0045d2fc     libcurl:telnet.obj
 0002:0000630c       ??_C@_0CB@LGFLAPBC@WSAEnumNetworkEvents?5failed?5?$CI?$CFd?$CJ@ 0045d30c     libcurl:telnet.obj
 0002:00006330       ??_C@_07CAOFPAJK@ENCRYPT?$AA@ 0045d330     libcurl:telnet.obj
 0002:00006338       ??_C@_0M@FMFEGMDG@NEW?9ENVIRON?$AA@ 0045d338     libcurl:telnet.obj
 0002:00006344       ??_C@_03KPJEKKJC@EOF?$AA@  0045d344     libcurl:telnet.obj
 0002:00006348       ??_C@_04GOPMIPNE@SUSP?$AA@ 0045d348     libcurl:telnet.obj
 0002:00006350       ??_C@_05NKJCKGFJ@ABORT?$AA@ 0045d350     libcurl:telnet.obj
 0002:00006358       ??_C@_03IBDKHNMH@EOR?$AA@  0045d358     libcurl:telnet.obj
 0002:0000635c       ??_C@_02ODEKANEE@SE?$AA@   0045d35c     libcurl:telnet.obj
 0002:00006360       ??_C@_03GEANJIEE@NOP?$AA@  0045d360     libcurl:telnet.obj
 0002:00006364       ??_C@_05CFIKNJJG@DMARK?$AA@ 0045d364     libcurl:telnet.obj
 0002:0000636c       ??_C@_03JDBDNMEF@BRK?$AA@  0045d36c     libcurl:telnet.obj
 0002:00006370       ??_C@_02MFEOMNPG@IP?$AA@   0045d370     libcurl:telnet.obj
 0002:00006374       ??_C@_08IMJOJNO@Time?9out?$AA@ 0045d374     libcurl:telnet.obj
 0002:00006380       ??_C@_02GAHJCNA@AO?$AA@    0045d380     libcurl:telnet.obj
 0002:00006384       ??_C@_03EAKJJCNE@AYT?$AA@  0045d384     libcurl:telnet.obj
 0002:00006388       ??_C@_0BK@CECPJKBH@WSACloseEvent?5failed?5?$CI?$CFd?$CJ?$AA@ 0045d388     libcurl:telnet.obj
 0002:000063a4       ??_C@_02KNLLHFAA@EC?$AA@   0045d3a4     libcurl:telnet.obj
 0002:000063a8       ??_C@_02CKCDGJMP@EL?$AA@   0045d3a8     libcurl:telnet.obj
 0002:000063ac       ??_C@_02JMAJMDOM@GA?$AA@   0045d3ac     libcurl:telnet.obj
 0002:000063b0       ??_C@_02KMALJLID@SB?$AA@   0045d3b0     libcurl:telnet.obj
 0002:000063b4       ??_C@_04HALOHICD@WILL?$AA@ 0045d3b4     libcurl:telnet.obj
 0002:000063bc       ??_C@_04NEEKGLMI@WONT?$AA@ 0045d3bc     libcurl:telnet.obj
 0002:000063c4       ??_C@_02MMFADL@DO?$AA@     0045d3c4     libcurl:telnet.obj
 0002:000063c8       ??_C@_04PDAKIGJK@DONT?$AA@ 0045d3c8     libcurl:telnet.obj
 0002:000063d0       ??_C@_03JCKLMMGF@IAC?$AA@  0045d3d0     libcurl:telnet.obj
 0002:000063d4       ??_C@_06KENCDLMH@TELNET?$AA@ 0045d3d4     libcurl:telnet.obj
 0002:000063dc       ??_C@_0L@FLCLEAPM@?$CFs?5IAC?5?$CFs?6?$AA@ 0045d3dc     libcurl:telnet.obj
 0002:000063e8       ??_C@_0L@ECECPFAJ@?$CFs?5IAC?5?$CFd?6?$AA@ 0045d3e8     libcurl:telnet.obj
 0002:000063f4       ??_C@_05OKMMCHFL@EXOPL?$AA@ 0045d3f4     libcurl:telnet.obj
 0002:000063fc       ??_C@_09GPBPOFIE@?$CFs?5?$CFs?5?$CFs?6?$AA@ 0045d3fc     libcurl:telnet.obj
 0002:00006408       ??_C@_09HGHGFAHB@?$CFs?5?$CFs?5?$CFd?6?$AA@ 0045d408     libcurl:telnet.obj
 0002:00006414       ??_C@_09GIKFGCFC@?$CFs?5?$CFd?5?$CFd?6?$AA@ 0045d414     libcurl:telnet.obj
 0002:00006420       ??_C@_0BJ@GCKINNGG@Sending?5data?5failed?5?$CI?$CFd?$CJ?$AA@ 0045d420     libcurl:telnet.obj
 0002:0000643c       ??_C@_04EOHHCNGM@SENT?$AA@ 0045d43c     libcurl:telnet.obj
 0002:00006444       ??_C@_04OILLLJJ@RCVD?$AA@  0045d444     libcurl:telnet.obj
 0002:0000644c       ??_C@_0L@FPLNPMDD@?$CFs?5IAC?5SB?5?$AA@ 0045d44c     libcurl:telnet.obj
 0002:00006458       ??_C@_0BA@MMHHHFDG@?$CIterminated?5by?5?$AA@ 0045d458     libcurl:telnet.obj
 0002:00006468       ??_C@_03IOOJPBPG@?$CFu?5?$AA@ 0045d468     libcurl:telnet.obj
 0002:0000646c       ??_C@_0BA@IHPPDJFF@?0?5not?5IAC?5SE?$CB?$CJ?5?$AA@ 0045d46c     libcurl:telnet.obj
 0002:0000647c       ??_C@_0BD@CLPAOCOB@?$CIEmpty?5suboption?$DP?$CJ?$AA@ 0045d47c     libcurl:telnet.obj
 0002:00006490       ??_C@_0BB@BBIGPKKK@?$CFs?5?$CIunsupported?$CJ?$AA@ 0045d490     libcurl:telnet.obj
 0002:000064a4       ??_C@_0N@IAAHJJEB@?$CFd?5?$CIunknown?$CJ?$AA@ 0045d4a4     libcurl:telnet.obj
 0002:000064b4       ??_C@_0CL@NOIDGMJA@Received?5last?5DATA?5packet?5block?5@ 0045d4b4     libcurl:tftp.obj
 0002:000064e0       ??_C@_0DO@LHJHEMEL@Received?5unexpected?5DATA?5packet?5@ 0045d4e0     libcurl:tftp.obj
 0002:00006520       ??_C@_0DB@CJGPFEOC@Timeout?5waiting?5for?5block?5?$CFd?5ACK@ 0045d520     libcurl:tftp.obj
 0002:00006554       ??_C@_0BI@BHFNNNHL@tftp_rx?3?5internal?5error?$AA@ 0045d554     libcurl:tftp.obj
 0002:0000656c       ??_C@_0CJ@LBPPEMJL@Received?5ACK?5for?5block?5?$CFd?0?5expec@ 0045d56c     libcurl:tftp.obj
 0002:00006598       ??_C@_0CM@BNMFOENM@tftp_tx?3?5giving?5up?5waiting?5for?5b@ 0045d598     libcurl:tftp.obj
 0002:000065c4       ??_C@_0CD@DGDGOEOE@tftp_tx?3?5internal?5error?0?5event?3?5@ 0045d5c4     libcurl:tftp.obj
 0002:000065e8       ??_C@_0O@BONHPLEA@TFTP?5finished?$AA@ 0045d5e8     libcurl:tftp.obj
 0002:000065f8       ??_C@_0BN@LMNCOGNC@Internal?5state?5machine?5error?$AA@ 0045d5f8     libcurl:tftp.obj
 0002:00006618       _Curl_handler_tftp         0045d618     libcurl:tftp.obj
 0002:00006664       ??_C@_0BC@JMLCPALC@bind?$CI?$CJ?5failed?$DL?5?$CFs?$AA@ 0045d664     libcurl:tftp.obj
 0002:00006678       ??_C@_0BK@KEKALNLH@Received?5too?5short?5packet?$AA@ 0045d678     libcurl:tftp.obj
 0002:00006694       ??_C@_0BA@OIPDKKBA@TFTP?5error?3?5?$CFs?6?$AA@ 0045d694     libcurl:tftp.obj
 0002:000066a4       ??_C@_0CC@GGFBEDBJ@Internal?5error?3?5Unexpected?5packe@ 0045d6a4     libcurl:tftp.obj
 0002:000066c8       ??_C@_0BG@GPKMDEIC@TFTP?5response?5timeout?$AA@ 0045d6c8     libcurl:tftp.obj
 0002:000066e0       ??_C@_06PHEPAMBA@?$DLmode?$DN?$AA@ 0045d6e0     libcurl:tftp.obj
 0002:000066e8       ??_C@_04JLDPLNDA@TFTP?$AA@ 0045d6e8     libcurl:tftp.obj
 0002:000066f0       ??_C@_0DN@DDJEILNF@set?5timeouts?5for?5state?5?$CFd?$DL?5Total@ 0045d6f0     libcurl:tftp.obj
 0002:00006730       ??_C@_0CA@PGCHPLAI@Malformed?5ACK?5packet?0?5rejecting?$AA@ 0045d730     libcurl:tftp.obj
 0002:00006750       ??_C@_0BM@GELOOIAH@got?5option?$DN?$CI?$CFs?$CJ?5value?$DN?$CI?$CFs?$CJ?6?$AA@ 0045d750     libcurl:tftp.obj
 0002:0000676c       ??_C@_07JPIGAOKK@blksize?$AA@ 0045d76c     libcurl:tftp.obj
 0002:00006774       ??_C@_0CH@GOMNMHP@invalid?5blocksize?5value?5in?5OACK?5@ 0045d774     libcurl:tftp.obj
 0002:0000679c       ??_C@_0CF@EKACJECO@blksize?5is?5larger?5than?5max?5suppo@ 0045d79c     libcurl:tftp.obj
 0002:000067c4       ??_C@_07JMKCEEPK@?$CFs?5?$CI?$CFd?$CJ?$AA@ 0045d7c4     libcurl:tftp.obj
 0002:000067cc       ??_C@_0CG@BNJFBJFK@blksize?5is?5smaller?5than?5min?5supp@ 0045d7cc     libcurl:tftp.obj
 0002:000067f4       ??_C@_0CP@HBGJMNNA@server?5requested?5blksize?5larger?5@ 0045d7f4     libcurl:tftp.obj
 0002:00006824       ??_C@_08KEEEBANB@?$CFs?5?$CI?$CFld?$CJ?$AA@ 0045d824     libcurl:tftp.obj
 0002:00006830       ??_C@_09GLAMPMBA@requested?$AA@ 0045d830     libcurl:tftp.obj
 0002:0000683c       ??_C@_0BJ@PECOFDN@blksize?5parsed?5from?5OACK?$AA@ 0045d83c     libcurl:tftp.obj
 0002:00006858       ??_C@_0BB@OFCPCICB@?$CFs?5?$CI?$CFd?$CJ?5?$CFs?5?$CI?$CFd?$CJ?6?$AA@ 0045d858     libcurl:tftp.obj
 0002:0000686c       ??_C@_05GHDOEBHJ@tsize?$AA@ 0045d86c     libcurl:tftp.obj
 0002:00006874       ??_C@_0BH@BLDLMHGE@tsize?5parsed?5from?5OACK?$AA@ 0045d874     libcurl:tftp.obj
 0002:0000688c       ??_C@_09LJPEONI@?$CFs?5?$CI?$CFld?$CJ?6?$AA@ 0045d88c     libcurl:tftp.obj
 0002:00006898       ??_C@_0CK@LPILMKIM@invalid?5tsize?5?9?3?$CFs?3?9?5value?5in?5OA@ 0045d898     libcurl:tftp.obj
 0002:000068c4       ??_C@_0BH@NFEFKEBL@Connected?5for?5transmit?$AA@ 0045d8c4     libcurl:tftp.obj
 0002:000068dc       ??_C@_0BG@KPOBMFLM@Connected?5for?5receive?$AA@ 0045d8dc     libcurl:tftp.obj
 0002:000068f4       ??_C@_05IIBPGMLM@octet?$AA@ 0045d8f4     libcurl:tftp.obj
 0002:000068fc       ??_C@_08KKALNFMM@netascii?$AA@ 0045d8fc     libcurl:tftp.obj
 0002:00006908       ??_C@_0BI@BPHCFCIJ@TFTP?5file?5name?5too?5long?$AA@ 0045d908     libcurl:tftp.obj
 0002:00006920       ??_C@_08OAFHMCGI@?$CFs?$CFc?$CFs?$CFc?$AA@ 0045d920     libcurl:tftp.obj
 0002:0000692c       ??_C@_07DDHNKDGP@timeout?$AA@ 0045d92c     libcurl:tftp.obj
 0002:00006934       ??_C@_0CC@KFGMHGKB@TFTP?5buffer?5too?5small?5for?5option@ 0045d934     libcurl:tftp.obj
 0002:00006958       ??_C@_0CA@EOCLEEDH@tftp_send_first?3?5internal?5error?$AA@ 0045d958     libcurl:tftp.obj
 0002:00006978       _Curl_handler_ldap         0045d978     libcurl:ldap.obj
 0002:000069c8       _Curl_handler_ldaps        0045d9c8     libcurl:ldap.obj
 0002:00006a14       ??_C@_04HLELMIGD@LDAP?$AA@ 0045da14     libcurl:ldap.obj
 0002:00006a1c       ??_C@_05EFFGHFLN@LDAPS?$AA@ 0045da1c     libcurl:ldap.obj
 0002:00006a24       ??_C@_0BH@BDPOFBOA@Microsoft?5Corporation?4?$AA@ 0045da24     libcurl:ldap.obj
 0002:00006a3c       ??_C@_0DC@DDHGKLDE@LDAP?5local?3?5LDAP?5Vendor?5?$DN?5?$CFs?5?$DL?5L@ 0045da3c     libcurl:ldap.obj
 0002:00006a70       ??_C@_0BA@HJNHPBP@LDAP?5local?3?5?$CFs?6?$AA@ 0045da70     libcurl:ldap.obj
 0002:00006a80       ??_C@_0P@BAGOOPBK@LDAP?5local?3?5?$CFs?$AA@ 0045da80     libcurl:ldap.obj
 0002:00006a90       ??_C@_09OEKGEILE@encrypted?$AA@ 0045da90     libcurl:ldap.obj
 0002:00006a9c       ??_C@_09HOMJNLCK@cleartext?$AA@ 0045da9c     libcurl:ldap.obj
 0002:00006aa8       ??_C@_0CP@FAIPPKFC@LDAP?5local?3?5trying?5to?5establish?5@ 0045daa8     libcurl:ldap.obj
 0002:00006ad8       ??_C@_0CF@JGNKKLCE@LDAP?5local?3?5Cannot?5connect?5to?5?$CFs@ 0045dad8     libcurl:ldap.obj
 0002:00006b00       ??_C@_0CG@CNFHGIPC@LDAP?5local?3?5bind?5via?5ldap_win_bi@ 0045db00     libcurl:ldap.obj
 0002:00006b28       ??_C@_0BA@BDNMEOJM@LDAP?5remote?3?5?$CFs?$AA@ 0045db28     libcurl:ldap.obj
 0002:00006b38       ??_C@_04FDBNJNIB@DN?3?5?$AA@ 0045db38     libcurl:ldap.obj
 0002:00006b40       ??_C@_02LMMGGCAJ@?3?5?$AA@ 0045db40     libcurl:ldap.obj
 0002:00006b44       ??_C@_07HNLIELCI@?$DLbinary?$AA@ 0045db44     libcurl:ldap.obj
 0002:00006b4c       ??_C@_0CA@LPADKPML@There?5are?5more?5than?5?$CFd?5entries?6?$AA@ 0045db4c     libcurl:ldap.obj
 0002:00006b6c       ??_C@_03OHDNLOHO@one?$AA@  0045db6c     libcurl:ldap.obj
 0002:00006b70       ??_C@_07ILFEIDOB@onetree?$AA@ 0045db70     libcurl:ldap.obj
 0002:00006b78       ??_C@_04BHIIPFEC@base?$AA@ 0045db78     libcurl:ldap.obj
 0002:00006b80       ??_C@_03KCMAIMAP@sub?$AA@  0045db80     libcurl:ldap.obj
 0002:00006b84       ??_C@_07NIJMFPAJ@subtree?$AA@ 0045db84     libcurl:ldap.obj
 0002:00006b8c       ??_C@_01IHBHIGKO@?0?$AA@   0045db8c     libcurl:ldap.obj
 0002:00006b90       ??_C@_0BI@PJGIPNBN@Failed?5writing?5RTP?5data?$AA@ 0045db90     libcurl:rtsp.obj
 0002:00006ba8       ??_C@_04OLCAMBAB@RTSP?$AA@ 0045dba8     libcurl:rtsp.obj
 0002:00006bb0       ??_C@_0DM@GEFBOCAL@The?5CSeq?5of?5this?5request?5?$CFld?5did@ 0045dbb0     libcurl:rtsp.obj
 0002:00006bec       ??_C@_0CH@PLNGLCEI@Got?5an?5RTP?5Receive?5with?5a?5CSeq?5o@ 0045dbec     libcurl:rtsp.obj
 0002:00006c18       _Curl_handler_rtsp         0045dc18     libcurl:rtsp.obj
 0002:00006c64       ??_C@_0BJ@IIOCCFNL@Got?5invalid?5RTSP?5request?$AA@ 0045dc64     libcurl:rtsp.obj
 0002:00006c80       ??_C@_07KDKMIPIP@OPTIONS?$AA@ 0045dc80     libcurl:rtsp.obj
 0002:00006c88       ??_C@_08DKNLJHMJ@DESCRIBE?$AA@ 0045dc88     libcurl:rtsp.obj
 0002:00006c94       ??_C@_08HCNIHNDL@ANNOUNCE?$AA@ 0045dc94     libcurl:rtsp.obj
 0002:00006ca0       ??_C@_05MAJHNKMG@SETUP?$AA@ 0045dca0     libcurl:rtsp.obj
 0002:00006ca8       ??_C@_04MKCNCBEG@PLAY?$AA@ 0045dca8     libcurl:rtsp.obj
 0002:00006cb0       ??_C@_05DIAHPDGL@PAUSE?$AA@ 0045dcb0     libcurl:rtsp.obj
 0002:00006cb8       ??_C@_08JNACAMMP@TEARDOWN?$AA@ 0045dcb8     libcurl:rtsp.obj
 0002:00006cc4       ??_C@_0O@GCENIMNJ@GET_PARAMETER?$AA@ 0045dcc4     libcurl:rtsp.obj
 0002:00006cd4       ??_C@_0O@BNFDDPKO@SET_PARAMETER?$AA@ 0045dcd4     libcurl:rtsp.obj
 0002:00006ce4       ??_C@_06KOEFFJON@RECORD?$AA@ 0045dce4     libcurl:rtsp.obj
 0002:00006cec       ??_C@_0CH@PJHKLBD@Got?5invalid?5RTSP?5request?3?5RTSPRE@ 0045dcec     libcurl:rtsp.obj
 0002:00006d14       ??_C@_0DN@HHEKACHB@Refusing?5to?5issue?5an?5RTSP?5reques@ 0045dd14     libcurl:rtsp.obj
 0002:00006d54       ??_C@_09LOBALFEM@Transport?$AA@ 0045dd54     libcurl:rtsp.obj
 0002:00006d60       ??_C@_0BA@LGEHOCAD@Transport?3?5?$CFs?$AN?6?$AA@ 0045dd60     libcurl:rtsp.obj
 0002:00006d70       ??_C@_0DN@KLGPNCLM@Refusing?5to?5issue?5an?5RTSP?5SETUP?5@ 0045dd70     libcurl:rtsp.obj
 0002:00006db0       ??_C@_0BK@PJBJHPJP@Accept?3?5application?1sdp?$AN?6?$AA@ 0045ddb0     libcurl:rtsp.obj
 0002:00006dcc       ??_C@_0M@CDDEOJHP@Range?3?5?$CFs?$AN?6?$AA@ 0045ddcc     libcurl:rtsp.obj
 0002:00006dd8       ??_C@_04IHAOMLEL@CSeq?$AA@ 0045ddd8     libcurl:rtsp.obj
 0002:00006de0       ??_C@_0CH@ONHNBNNP@CSeq?5cannot?5be?5set?5as?5a?5custom?5h@ 0045dde0     libcurl:rtsp.obj
 0002:00006e08       ??_C@_07FFOFCADM@Session?$AA@ 0045de08     libcurl:rtsp.obj
 0002:00006e10       ??_C@_0CN@HJLGEJGN@Session?5ID?5cannot?5be?5set?5as?5a?5cu@ 0045de10     libcurl:rtsp.obj
 0002:00006e40       ??_C@_0BM@GGGCCKFL@?$CFs?5?$CFs?5RTSP?11?40?$AN?6CSeq?3?5?$CFld?$AN?6?$AA@ 0045de40     libcurl:rtsp.obj
 0002:00006e5c       ??_C@_0O@LAIMJOHG@Session?3?5?$CFs?$AN?6?$AA@ 0045de5c     libcurl:rtsp.obj
 0002:00006e6c       ??_C@_0BB@JAHKEOEL@?$CFs?$CFs?$CFs?$CFs?$CFs?$CFs?$CFs?$CFs?$AA@ 0045de6c     libcurl:rtsp.obj
 0002:00006e80       ??_C@_0CA@DANBHCCB@Content?9Type?3?5text?1parameters?$AN?6?$AA@ 0045de80     libcurl:rtsp.obj
 0002:00006ea0       ??_C@_0CA@NAIPKPJL@Content?9Type?3?5application?1sdp?$AN?6?$AA@ 0045dea0     libcurl:rtsp.obj
 0002:00006ec0       ??_C@_0BM@PNHMAKEG@Failed?5sending?5RTSP?5request?$AA@ 0045dec0     libcurl:rtsp.obj
 0002:00006edc       ??_C@_0CD@OOIHJNBP@Got?5an?5error?5writing?5an?5RTP?5pack@ 0045dedc     libcurl:rtsp.obj
 0002:00006f00       ??_C@_0CC@GKOAKHDG@Cannot?5write?5a?50?5size?5RTP?5packet@ 0045df00     libcurl:rtsp.obj
 0002:00006f24       ??_C@_0BB@GCCOHJON@Cannot?5pause?5RTP?$AA@ 0045df24     libcurl:rtsp.obj
 0002:00006f38       ??_C@_05MECAEIKK@CSeq?3?$AA@ 0045df38     libcurl:rtsp.obj
 0002:00006f40       ??_C@_05PNKNJGHI@?3?5?$CFld?$AA@ 0045df40     libcurl:rtsp.obj
 0002:00006f48       ??_C@_0CF@LBAGGOHD@Unable?5to?5read?5the?5CSeq?5header?3?5@ 0045df48     libcurl:rtsp.obj
 0002:00006f70       ??_C@_08KJDEHNO@Session?3?$AA@ 0045df70     libcurl:rtsp.obj
 0002:00006f7c       ??_C@_0BH@GCDEOPPG@Got?5a?5blank?5Session?5ID?$AA@ 0045df7c     libcurl:rtsp.obj
 0002:00006f94       ??_C@_0DC@HDNNNEDB@Got?5RTSP?5Session?5ID?5Line?5?$FL?$CFs?$FN?0?5b@ 0045df94     libcurl:rtsp.obj
 0002:00006fc8       ??_C@_03LNAOLDLL@SMB?$AA@  0045dfc8     libcurl:smb.obj
 0002:00006fcc       ??_C@_0P@CNIFBIKC@?$AA?$AM?$AA?$ACNT?5LM?50?412?$AA@ 0045dfcc     libcurl:smb.obj
 0002:00006fdc       ??_C@_0O@EMCJKFGJ@i386?9pc?9win32?$AA@ 0045dfdc     libcurl:smb.obj
 0002:00006fec       ??_C@_04CFJDMNEE@curl?$AA@ 0045dfec     libcurl:smb.obj
 0002:00006ff4       ??_C@_02HDBGODGB@?2?2?$AA@ 0045dff4     libcurl:smb.obj
 0002:00006ff8       ??_C@_01KICIPPFI@?2?$AA@   0045dff8     libcurl:smb.obj
 0002:00006ffc       ??_C@_05EHMBKEBF@?$DP?$DP?$DP?$DP?$DP?$AA@ 0045dffc     libcurl:smb.obj
 0002:00007004       ??_C@_0BF@MGOADBKP@Invalid?5input?5packet?$AA@ 0045e004     libcurl:smb.obj
 0002:00007020       _Curl_handler_smb          0045e020     libcurl:smb.obj
 0002:0000706c       ??_C@_04FPGNOCOB@MQTT?$AA@ 0045e06c     libcurl:mqtt.obj
 0002:00007074       ??_C@_0BG@MNJJKFG@Using?5client?5id?5?8?$CFs?8?6?$AA@ 0045e074     libcurl:mqtt.obj
 0002:0000708c       ??_C@_02KJFMPGEN@?$OA?$AA?$AA@ 0045e08c     libcurl:mqtt.obj
 0002:00007090       ??_C@_0CD@NLBEEENO@Expected?5?$CF02x?$CF02x?5but?5got?5?$CF02x?$CF0@ 0045e090     libcurl:mqtt.obj
 0002:000070b4       ??_C@_0BL@DNONOMHF@Error?3?5No?5topic?5specified?4?$AA@ 0045e0b4     libcurl:mqtt.obj
 0002:000070d0       ??_C@_0BA@OEKHBJOJ@Got?5DISCONNECT?6?$AA@ 0045e0d0     libcurl:mqtt.obj
 0002:000070e0       ??_C@_0BN@MGHEPCAC@Remaining?5length?3?5?$CFzd?5bytes?6?$AA@ 0045e0e0     libcurl:mqtt.obj
 0002:00007100       ??_C@_0P@DEFHBOED@EEEE?5AAAAGAIN?6?$AA@ 0045e100     libcurl:mqtt.obj
 0002:00007110       ??_C@_0BF@GACMGODJ@server?5disconnected?6?$AA@ 0045e110     libcurl:mqtt.obj
 0002:00007128       ??_C@_0CD@OJHBBMOE@Error?5?$CFd?5sending?5MQTT?5CONN?5reque@ 0045e128     libcurl:mqtt.obj
 0002:00007150       _Curl_handler_mqtt         0045e150     libcurl:mqtt.obj
 0002:0000719c       ??_C@_0BI@BABCFLCJ@mqtt_doing?3?5state?5?$FL?$CFd?$FN?6?$AA@ 0045e19c     libcurl:mqtt.obj
 0002:000071b4       ??_C@_0BG@OAAPNLCI@State?5not?5handled?5yet?$AA@ 0045e1b4     libcurl:mqtt.obj
 0002:000071f0       ??_C@_02CBLDBPFN@?1?1?$AA@ 0045e1f0     libcurl:urlapi.obj
 0002:000071f4       ??_C@_06JBHEDIOK@?$CF?$CF?$CF02x?$AA@ 0045e1f4     libcurl:urlapi.obj
 0002:000071fc       ??_C@_0CE@LAJONJKD@?$FL?$CF?$CK45?$FL0123456789abcdefABCDEF?3?4?$FN?$CF@ 0045e1fc     libcurl:urlapi.obj
 0002:00007220       ??_C@_0L@JMDPGJCF@?$CF?$CK?$FL?$FO?$FN?$FN?$CFc?$CFn?$AA@ 0045e220     libcurl:urlapi.obj
 0002:0000722c       ??_C@_0BJ@GCDIHJFL@0123456789abcdefABCDEF?3?4?$AA@ 0045e22c     libcurl:urlapi.obj
 0002:00007248       ??_C@_02IFGANFKF@25?$AA@   0045e248     libcurl:urlapi.obj
 0002:0000724c       ??_C@_0L@BMEILEPM@localhost?1?$AA@ 0045e24c     libcurl:urlapi.obj
 0002:00007258       ??_C@_0L@PEIKEDOA@127?40?40?41?1?$AA@ 0045e258     libcurl:urlapi.obj
 0002:00007264       ??_C@_04JEAENMLI@ftp?4?$AA@ 0045e264     libcurl:urlapi.obj
 0002:0000726c       ??_C@_05DIBGJHGB@dict?4?$AA@ 0045e26c     libcurl:urlapi.obj
 0002:00007274       ??_C@_04BCIDKIGN@dict?$AA@ 0045e274     libcurl:urlapi.obj
 0002:0000727c       ??_C@_05IBNFLBOK@ldap?4?$AA@ 0045e27c     libcurl:urlapi.obj
 0002:00007284       ??_C@_04LHHBCKBL@ldap?$AA@ 0045e284     libcurl:urlapi.obj
 0002:0000728c       ??_C@_05NMAIECCI@imap?4?$AA@ 0045e28c     libcurl:urlapi.obj
 0002:00007294       ??_C@_05BJICMEHI@smtp?4?$AA@ 0045e294     libcurl:urlapi.obj
 0002:0000729c       ??_C@_05BIGIEBHI@pop3?4?$AA@ 0045e29c     libcurl:urlapi.obj
 0002:000072a4       ??_C@_04DNAACBI@pop3?$AA@  0045e2a4     libcurl:urlapi.obj
 0002:000072ac       ??_C@_01IPJKGB@?$CD?$AA@   0045e2ac     libcurl:urlapi.obj
 0002:000072b0       ??_C@_0O@IHCFMOPH@file?3?1?1?$CFs?$CFs?$CFs?$AA@ 0045e2b0     libcurl:urlapi.obj
 0002:000072c0       ??_C@_07FIPDGBND@?$CF?$CF25?$CFs?$FN?$AA@ 0045e2c0     libcurl:urlapi.obj
 0002:000072c8       ??_C@_01OGPIMHDM@?$DP?$AA@ 0045e2c8     libcurl:urlapi.obj
 0002:000072cc       ??_C@_01ICJEACDI@?$DL?$AA@ 0045e2cc     libcurl:urlapi.obj
 0002:000072d0       ??_C@_0CE@OBDBGLCL@?$CFs?3?1?1?$CFs?$CFs?$CFs?$CFs?$CFs?$CFs?$CFs?$CFs?$CFs?$CFs?$CFs?$CFs?$CFs?$CF@ 0045e2d0     libcurl:urlapi.obj
 0002:00007378       ??_C@_03ILLHFMNI@?5?7?6?$AA@ 0045e378     libcurl:netrc.obj
 0002:0000737c       ??_C@_07MHDNFCJE@machine?$AA@ 0045e37c     libcurl:netrc.obj
 0002:00007384       ??_C@_05DAOAAINN@login?$AA@ 0045e384     libcurl:netrc.obj
 0002:0000738c       ??_C@_08NLHBPEGP@password?$AA@ 0045e38c     libcurl:netrc.obj
 0002:00007398       ??_C@_04GHGFPGNC@HOME?$AA@ 0045e398     libcurl:netrc.obj
 0002:000073a0       ??_C@_0L@JFCCGFMF@?$CFs?$CFs?4netrc?$AA@ 0045e3a0     libcurl:netrc.obj
 0002:000073ac       ??_C@_0L@NPDNLOFK@?$CFs?$CFs_netrc?$AA@ 0045e3ac     libcurl:netrc.obj
 0002:000073b8       ??_C@_0BF@HLLGBJGK@NTLM?5auth?5restarted?6?$AA@ 0045e3b8     libcurl:http_ntlm.obj
 0002:000073d0       ??_C@_0BJ@HCCPNMOH@NTLM?5handshake?5rejected?6?$AA@ 0045e3d0     libcurl:http_ntlm.obj
 0002:000073ec       ??_C@_0CJ@MLNEPBAC@NTLM?5handshake?5failure?5?$CIinternal@ 0045e3ec     libcurl:http_ntlm.obj
 0002:00007418       ??_C@_0BL@EBFLOACM@?$CFsAuthorization?3?5NTLM?5?$CFs?$AN?6?$AA@ 0045e418     libcurl:http_ntlm.obj
 0002:00007434       ??_C@_08INEPGKHH@No?5error?$AA@ 0045e434     libcurl:strerror.obj
 0002:00007440       ??_C@_0BF@MEALNKLO@Unsupported?5protocol?$AA@ 0045e440     libcurl:strerror.obj
 0002:00007458       ??_C@_0BG@JPNCGCLF@Failed?5initialization?$AA@ 0045e458     libcurl:strerror.obj
 0002:00007470       ??_C@_0CM@JDMFNFNN@URL?5using?5bad?1illegal?5format?5or?5@ 0045e470     libcurl:strerror.obj
 0002:000074a0       ??_C@_0GN@KLBPDHPC@A?5requested?5feature?0?5protocol?5or@ 0045e4a0     libcurl:strerror.obj
 0002:00007510       ??_C@_0BM@JKHJDDPC@Couldn?8t?5resolve?5proxy?5name?$AA@ 0045e510     libcurl:strerror.obj
 0002:0000752c       ??_C@_0BL@CLPICHFB@Couldn?8t?5resolve?5host?5name?$AA@ 0045e52c     libcurl:strerror.obj
 0002:00007548       ??_C@_0BL@BDHAOFN@Couldn?8t?5connect?5to?5server?$AA@ 0045e548     libcurl:strerror.obj
 0002:00007564       ??_C@_0BD@GDNMKEAK@Weird?5server?5reply?$AA@ 0045e564     libcurl:strerror.obj
 0002:00007578       ??_C@_0CB@NKJGLEPP@Access?5denied?5to?5remote?5resource@ 0045e578     libcurl:strerror.obj
 0002:0000759c       ??_C@_0CP@GDKINGFF@FTP?3?5The?5server?5failed?5to?5connec@ 0045e59c     libcurl:strerror.obj
 0002:000075cc       ??_C@_0CM@JHMKLKFK@FTP?3?5Accepting?5server?5connect?5ha@ 0045e5cc     libcurl:strerror.obj
 0002:000075f8       ??_C@_0DB@DKHIAOH@FTP?3?5The?5server?5did?5not?5accept?5t@ 0045e5f8     libcurl:strerror.obj
 0002:0000762c       ??_C@_0BI@CNGAPMMH@FTP?3?5unknown?5PASS?5reply?$AA@ 0045e62c     libcurl:strerror.obj
 0002:00007644       ??_C@_0BI@GFIAPCKD@FTP?3?5unknown?5PASV?5reply?$AA@ 0045e644     libcurl:strerror.obj
 0002:0000765c       ??_C@_0CB@PEGAMKPE@FTP?3?5unknown?5227?5response?5format@ 0045e65c     libcurl:strerror.obj
 0002:00007680       ??_C@_0DE@KGBALKDA@FTP?3?5can?8t?5figure?5out?5the?5host?5i@ 0045e680     libcurl:strerror.obj
 0002:000076b4       ??_C@_0CB@HOOHONND@Error?5in?5the?5HTTP2?5framing?5layer@ 0045e6b4     libcurl:strerror.obj
 0002:000076d8       ??_C@_0BM@OGPMHHJ@FTP?3?5couldn?8t?5set?5file?5type?$AA@ 0045e6d8     libcurl:strerror.obj
 0002:000076f4       ??_C@_0BL@ODNPPPLA@Transferred?5a?5partial?5file?$AA@ 0045e6f4     libcurl:strerror.obj
 0002:00007710       ??_C@_0DI@LLJCFNFF@FTP?3?5couldn?8t?5retrieve?5?$CIRETR?5fai@ 0045e710     libcurl:strerror.obj
 0002:00007748       ??_C@_0BN@GGHOIADB@Quote?5command?5returned?5error?$AA@ 0045e748     libcurl:strerror.obj
 0002:00007768       ??_C@_0BO@BCKEJEKM@HTTP?5response?5code?5said?5error?$AA@ 0045e768     libcurl:strerror.obj
 0002:00007788       ??_C@_0DB@IMNDCIAA@Failed?5writing?5received?5data?5to?5@ 0045e788     libcurl:strerror.obj
 0002:000077bc       ??_C@_0CM@GACCEIFL@Upload?5failed?5?$CIat?5start?1before?5i@ 0045e7bc     libcurl:strerror.obj
 0002:000077e8       ??_C@_0DF@NBDLHGLH@Failed?5to?5open?1read?5local?5data?5f@ 0045e7e8     libcurl:strerror.obj
 0002:00007820       ??_C@_0O@NALGGDJF@Out?5of?5memory?$AA@ 0045e820     libcurl:strerror.obj
 0002:00007830       ??_C@_0BE@EKAJAHAD@Timeout?5was?5reached?$AA@ 0045e830     libcurl:strerror.obj
 0002:00007844       ??_C@_0BJ@IDOBBECI@FTP?3?5command?5PORT?5failed?$AA@ 0045e844     libcurl:strerror.obj
 0002:00007860       ??_C@_0BJ@GCLHLJAN@FTP?3?5command?5REST?5failed?$AA@ 0045e860     libcurl:strerror.obj
 0002:0000787c       ??_C@_0DA@JICMAFCG@Requested?5range?5was?5not?5delivere@ 0045e87c     libcurl:strerror.obj
 0002:000078ac       ??_C@_0CF@HBEMJAO@Internal?5problem?5setting?5up?5the?5@ 0045e8ac     libcurl:strerror.obj
 0002:000078d4       ??_C@_0BC@BFLONMCD@SSL?5connect?5error?$AA@ 0045e8d4     libcurl:strerror.obj
 0002:000078e8       ??_C@_0BJ@PKKEKELC@Couldn?8t?5resume?5download?$AA@ 0045e8e8     libcurl:strerror.obj
 0002:00007904       ??_C@_0BN@LDKECGHJ@Couldn?8t?5read?5a?5file?3?1?1?5file?$AA@ 0045e904     libcurl:strerror.obj
 0002:00007924       ??_C@_0BC@LBJDCDKB@LDAP?3?5cannot?5bind?$AA@ 0045e924     libcurl:strerror.obj
 0002:00007938       ??_C@_0BE@BFMFHGMM@LDAP?3?5search?5failed?$AA@ 0045e938     libcurl:strerror.obj
 0002:0000794c       ??_C@_0DB@KKNDLNIK@A?5required?5function?5in?5the?5libra@ 0045e94c     libcurl:strerror.obj
 0002:00007980       ??_C@_0DB@KJJLMJOB@Operation?5was?5aborted?5by?5an?5appl@ 0045e980     libcurl:strerror.obj
 0002:000079b4       ??_C@_0CM@GEPFAHDP@A?5libcurl?5function?5was?5given?5a?5b@ 0045e9b4     libcurl:strerror.obj
 0002:000079e0       ??_C@_0CE@NLIKOML@Failed?5binding?5local?5connection?5@ 0045e9e0     libcurl:strerror.obj
 0002:00007a04       ??_C@_0CH@DFMKCAJO@Number?5of?5redirects?5hit?5maximum?5@ 0045ea04     libcurl:strerror.obj
 0002:00007a2c       ??_C@_0CL@GBAGOIGJ@An?5unknown?5option?5was?5passed?5in?5@ 0045ea2c     libcurl:strerror.obj
 0002:00007a58       ??_C@_0BI@GPIPAJAH@Malformed?5telnet?5option?$AA@ 0045ea58     libcurl:strerror.obj
 0002:00007a70       ??_C@_0CO@JJKEOCN@Server?5returned?5nothing?5?$CIno?5head@ 0045ea70     libcurl:strerror.obj
 0002:00007aa0       ??_C@_0BM@GLLPPMBF@SSL?5crypto?5engine?5not?5found?$AA@ 0045eaa0     libcurl:strerror.obj
 0002:00007abc       ??_C@_0CJ@HENCHBOB@Can?5not?5set?5SSL?5crypto?5engine?5as@ 0045eabc     libcurl:strerror.obj
 0002:00007ae8       ??_C@_0CH@DINFHAAN@Failed?5to?5initialise?5SSL?5crypto?5@ 0045eae8     libcurl:strerror.obj
 0002:00007b10       ??_C@_0CA@CBOACNIE@Failed?5sending?5data?5to?5the?5peer?$AA@ 0045eb10     libcurl:strerror.obj
 0002:00007b30       ??_C@_0CK@JABNOBEN@Failure?5when?5receiving?5data?5from@ 0045eb30     libcurl:strerror.obj
 0002:00007b5c       ??_C@_0CH@IGBGAMEJ@Problem?5with?5the?5local?5SSL?5certi@ 0045eb5c     libcurl:strerror.obj
 0002:00007b84       ??_C@_0CC@IOEMABMM@Couldn?8t?5use?5specified?5SSL?5ciphe@ 0045eb84     libcurl:strerror.obj
 0002:00007ba8       ??_C@_0DC@MAPCLGNF@SSL?5peer?5certificate?5or?5SSH?5remo@ 0045eba8     libcurl:strerror.obj
 0002:00007bdc       ??_C@_0DE@DEFDNJHO@Problem?5with?5the?5SSL?5CA?5cert?5?$CIpa@ 0045ebdc     libcurl:strerror.obj
 0002:00007c10       ??_C@_0DG@BCBHMDOA@Unrecognized?5or?5bad?5HTTP?5Content@ 0045ec10     libcurl:strerror.obj
 0002:00007c48       ??_C@_0BB@NNNAEHGN@Invalid?5LDAP?5URL?$AA@ 0045ec48     libcurl:strerror.obj
 0002:00007c5c       ??_C@_0BL@CJHAPGCI@Requested?5SSL?5level?5failed?$AA@ 0045ec5c     libcurl:strerror.obj
 0002:00007c78       ??_C@_0CH@HOHNDJFI@Failed?5to?5shut?5down?5the?5SSL?5conn@ 0045ec78     libcurl:strerror.obj
 0002:00007ca0       ??_C@_0DI@OEDDMGMA@Failed?5to?5load?5CRL?5file?5?$CIpath?$DP?5a@ 0045eca0     libcurl:strerror.obj
 0002:00007cd8       ??_C@_0CN@PNDCIOI@Issuer?5check?5against?5peer?5certif@ 0045ecd8     libcurl:strerror.obj
 0002:00007d08       ??_C@_0DG@HNNLFELE@Send?5failed?5since?5rewinding?5of?5t@ 0045ed08     libcurl:strerror.obj
 0002:00007d40       ??_C@_0N@LMNBNGOH@Login?5denied?$AA@ 0045ed40     libcurl:strerror.obj
 0002:00007d50       ??_C@_0BF@MMMLEDNM@TFTP?3?5File?5Not?5Found?$AA@ 0045ed50     libcurl:strerror.obj
 0002:00007d68       ??_C@_0BH@CPEHAKGC@TFTP?3?5Access?5Violation?$AA@ 0045ed68     libcurl:strerror.obj
 0002:00007d80       ??_C@_0CB@HICDEKOD@Disk?5full?5or?5allocation?5exceeded@ 0045ed80     libcurl:strerror.obj
 0002:00007da4       ??_C@_0BI@FHLDKMPM@TFTP?3?5Illegal?5operation?$AA@ 0045eda4     libcurl:strerror.obj
 0002:00007dbc       ??_C@_0BK@FHGNFCEK@TFTP?3?5Unknown?5transfer?5ID?$AA@ 0045edbc     libcurl:strerror.obj
 0002:00007dd8       ??_C@_0BL@LCPLBBDI@Remote?5file?5already?5exists?$AA@ 0045edd8     libcurl:strerror.obj
 0002:00007df4       ??_C@_0BD@HHOJBMKC@TFTP?3?5No?5such?5user?$AA@ 0045edf4     libcurl:strerror.obj
 0002:00007e08       ??_C@_0BC@CGNMGHHJ@Conversion?5failed?$AA@ 0045ee08     libcurl:strerror.obj
 0002:00007e1c       ??_C@_0DE@HIBGAHH@Caller?5must?5register?5CURLOPT_CON@ 0045ee1c     libcurl:strerror.obj
 0002:00007e50       ??_C@_0BG@IGAJKGEI@Remote?5file?5not?5found?$AA@ 0045ee50     libcurl:strerror.obj
 0002:00007e68       ??_C@_0BH@LIBGKEPA@Error?5in?5the?5SSH?5layer?$AA@ 0045ee68     libcurl:strerror.obj
 0002:00007e80       ??_C@_0BP@PKAGPAKC@Socket?5not?5ready?5for?5send?1recv?$AA@ 0045ee80     libcurl:strerror.obj
 0002:00007ea0       ??_C@_0CD@KOGOJFPD@RTSP?5CSeq?5mismatch?5or?5invalid?5CS@ 0045eea0     libcurl:strerror.obj
 0002:00007ec4       ??_C@_0BD@JIDDONAN@RTSP?5session?5error?$AA@ 0045eec4     libcurl:strerror.obj
 0002:00007ed8       ??_C@_0BO@DHDGALJN@Unable?5to?5parse?5FTP?5file?5list?$AA@ 0045eed8     libcurl:strerror.obj
 0002:00007ef8       ??_C@_0BG@NNCCNDKN@Chunk?5callback?5failed?$AA@ 0045eef8     libcurl:strerror.obj
 0002:00007f10       ??_C@_0CE@LHGEKMEA@The?5max?5connection?5limit?5is?5reac@ 0045ef10     libcurl:strerror.obj
 0002:00007f34       ??_C@_0DA@PMPKPBFL@SSL?5public?5key?5does?5not?5match?5pi@ 0045ef34     libcurl:strerror.obj
 0002:00007f64       ??_C@_0DC@PMBIKFPE@SSL?5server?5certificate?5status?5ve@ 0045ef64     libcurl:strerror.obj
 0002:00007f98       ??_C@_0CJ@PHNFPMLB@Stream?5error?5in?5the?5HTTP?12?5frami@ 0045ef98     libcurl:strerror.obj
 0002:00007fc4       ??_C@_0CJ@IFPPFNBC@API?5function?5called?5from?5within?5@ 0045efc4     libcurl:strerror.obj
 0002:00007ff0       ??_C@_0CN@PKGNGNMF@An?5authentication?5function?5retur@ 0045eff0     libcurl:strerror.obj
 0002:00008020       ??_C@_0N@IECDEAGO@HTTP?13?5error?$AA@ 0045f020     libcurl:strerror.obj
 0002:00008030       ??_C@_0BG@PCGCKLBM@QUIC?5connection?5error?$AA@ 0045f030     libcurl:strerror.obj
 0002:00008048       ??_C@_0BG@DPKHLLKF@proxy?5handshake?5error?$AA@ 0045f048     libcurl:strerror.obj
 0002:00008060       ??_C@_0O@NIPGCINC@Unknown?5error?$AA@ 0045f060     libcurl:strerror.obj
 0002:00008070       ??_C@_0BB@HPBICEIN@Call?5interrupted?$AA@ 0045f070     libcurl:strerror.obj
 0002:00008084       ??_C@_08IEJNJKPH@Bad?5file?$AA@ 0045f084     libcurl:strerror.obj
 0002:00008090       ??_C@_0L@PPOOPPLI@Bad?5access?$AA@ 0045f090     libcurl:strerror.obj
 0002:0000809c       ??_C@_0N@OFCOFIJG@Bad?5argument?$AA@ 0045f09c     libcurl:strerror.obj
 0002:000080ac       ??_C@_0BC@PALKPJEA@Invalid?5arguments?$AA@ 0045f0ac     libcurl:strerror.obj
 0002:000080c0       ??_C@_0BI@OFCJJGOL@Out?5of?5file?5descriptors?$AA@ 0045f0c0     libcurl:strerror.obj
 0002:000080d8       ??_C@_0BB@KJIOCALL@Call?5would?5block?$AA@ 0045f0d8     libcurl:strerror.obj
 0002:000080ec       ??_C@_0BK@LAFJNHKK@Blocking?5call?5in?5progress?$AA@ 0045f0ec     libcurl:strerror.obj
 0002:00008108       ??_C@_0BL@BCCPNPNK@Descriptor?5is?5not?5a?5socket?$AA@ 0045f108     libcurl:strerror.obj
 0002:00008124       ??_C@_0BJ@PJJDHGPA@Need?5destination?5address?$AA@ 0045f124     libcurl:strerror.obj
 0002:00008140       ??_C@_0BB@FIFBBOKN@Bad?5message?5size?$AA@ 0045f140     libcurl:strerror.obj
 0002:00008154       ??_C@_0N@HKFEGNLE@Bad?5protocol?$AA@ 0045f154     libcurl:strerror.obj
 0002:00008164       ??_C@_0BP@CMLHIFII@Protocol?5option?5is?5unsupported?$AA@ 0045f164     libcurl:strerror.obj
 0002:00008184       ??_C@_0BI@KIGPDANH@Protocol?5is?5unsupported?$AA@ 0045f184     libcurl:strerror.obj
 0002:0000819c       ??_C@_0BG@PJCKEJGL@Socket?5is?5unsupported?$AA@ 0045f19c     libcurl:strerror.obj
 0002:000081b4       ??_C@_0BI@EDJAHLMH@Operation?5not?5supported?$AA@ 0045f1b4     libcurl:strerror.obj
 0002:000081cc       ??_C@_0BN@GMEBDOHK@Address?5family?5not?5supported?$AA@ 0045f1cc     libcurl:strerror.obj
 0002:000081ec       ??_C@_0BO@EBCCBLCJ@Protocol?5family?5not?5supported?$AA@ 0045f1ec     libcurl:strerror.obj
 0002:0000820c       ??_C@_0BH@LOKACPE@Address?5already?5in?5use?$AA@ 0045f20c     libcurl:strerror.obj
 0002:00008224       ??_C@_0BG@LPGNEDFC@Address?5not?5available?$AA@ 0045f224     libcurl:strerror.obj
 0002:0000823c       ??_C@_0N@BLPKELHL@Network?5down?$AA@ 0045f23c     libcurl:strerror.obj
 0002:0000824c       ??_C@_0BE@BCKBHKGP@Network?5unreachable?$AA@ 0045f24c     libcurl:strerror.obj
 0002:00008260       ??_C@_0BH@IGDKJAJA@Network?5has?5been?5reset?$AA@ 0045f260     libcurl:strerror.obj
 0002:00008278       ??_C@_0BH@CAGNAMLD@Connection?5was?5aborted?$AA@ 0045f278     libcurl:strerror.obj
 0002:00008290       ??_C@_0BF@ONIPBLIH@Connection?5was?5reset?$AA@ 0045f290     libcurl:strerror.obj
 0002:000082a8       ??_C@_0BA@OCGNHFCH@No?5buffer?5space?$AA@ 0045f2a8     libcurl:strerror.obj
 0002:000082b8       ??_C@_0BM@CCONNCKE@Socket?5is?5already?5connected?$AA@ 0045f2b8     libcurl:strerror.obj
 0002:000082d4       ??_C@_0BI@ILAOGBJJ@Socket?5is?5not?5connected?$AA@ 0045f2d4     libcurl:strerror.obj
 0002:000082ec       ??_C@_0BK@KFOKKGHA@Socket?5has?5been?5shut?5down?$AA@ 0045f2ec     libcurl:strerror.obj
 0002:00008308       ??_C@_0BE@JFIGGPOD@Too?5many?5references?$AA@ 0045f308     libcurl:strerror.obj
 0002:0000831c       ??_C@_09OGKCMDDI@Timed?5out?$AA@ 0045f31c     libcurl:strerror.obj
 0002:00008328       ??_C@_0BD@NPDMPPFP@Connection?5refused?$AA@ 0045f328     libcurl:strerror.obj
 0002:0000833c       ??_C@_06BPCOEKJC@Loop?$DP?$DP?$AA@ 0045f33c     libcurl:strerror.obj
 0002:00008344       ??_C@_0O@CGIEAMHJ@Name?5too?5long?$AA@ 0045f344     libcurl:strerror.obj
 0002:00008354       ??_C@_09IKKBPHPB@Host?5down?$AA@ 0045f354     libcurl:strerror.obj
 0002:00008360       ??_C@_0BB@BJPAGEMG@Host?5unreachable?$AA@ 0045f360     libcurl:strerror.obj
 0002:00008374       ??_C@_09HNKMHKD@Not?5empty?$AA@ 0045f374     libcurl:strerror.obj
 0002:00008380       ??_C@_0BG@HNPEDFFM@Process?5limit?5reached?$AA@ 0045f380     libcurl:strerror.obj
 0002:00008398       ??_C@_0P@DAFGFIDC@Too?5many?5users?$AA@ 0045f398     libcurl:strerror.obj
 0002:000083a8       ??_C@_09OLCJIOMK@Bad?5quota?$AA@ 0045f3a8     libcurl:strerror.obj
 0002:000083b4       ??_C@_0BD@OAJEPCAF@Something?5is?5stale?$AA@ 0045f3b4     libcurl:strerror.obj
 0002:000083c8       ??_C@_0N@CMGGHDDP@Remote?5error?$AA@ 0045f3c8     libcurl:strerror.obj
 0002:000083d8       ??_C@_0N@NFBNFHML@Disconnected?$AA@ 0045f3d8     libcurl:strerror.obj
 0002:000083e8       ??_C@_0BN@NBHIJNDO@Winsock?5library?5is?5not?5ready?$AA@ 0045f3e8     libcurl:strerror.obj
 0002:00008408       ??_C@_0CA@GOKMBGKE@Winsock?5library?5not?5initialised?$AA@ 0045f408     libcurl:strerror.obj
 0002:00008428       ??_C@_0BO@CMBHKIGC@Winsock?5version?5not?5supported?$AA@ 0045f428     libcurl:strerror.obj
 0002:00008448       ??_C@_0P@CAFMJNJH@Host?5not?5found?$AA@ 0045f448     libcurl:strerror.obj
 0002:00008458       ??_C@_0BK@LIMDACMA@Host?5not?5found?0?5try?5again?$AA@ 0045f458     libcurl:strerror.obj
 0002:00008474       ??_C@_0CK@PHGIEDKM@Unrecoverable?5error?5in?5call?5to?5n@ 0045f474     libcurl:strerror.obj
 0002:000084a0       ??_C@_0CB@PAPDILAI@No?5data?5record?5of?5requested?5type@ 0045f4a0     libcurl:strerror.obj
 0002:000084c4       ??_C@_0BH@LLHLFDOA@Unknown?5error?5?$CFd?5?$CI?$CF?$CDx?$CJ?$AA@ 0045f4c4     libcurl:strerror.obj
 0002:000084dc       ??_C@_0M@PCENNPGA@?$CFd?4?$CFd?4?$CFd?4?$CFd?$AA@ 0045f4dc     libcurl:inet_ntop.obj
 0002:000084e8       ??_C@_03OPHMLOFF@?$CFlx?$AA@ 0045f4e8     libcurl:inet_ntop.obj
 0002:000084ec       ??_C@_04DPLCCHJC@auth?$AA@ 0045f4ec     libcurl:digest.obj
 0002:000084f4       ??_C@_08DMLLJBKJ@auth?9int?$AA@ 0045f4f4     libcurl:digest.obj
 0002:00008500       ??_C@_09HPCMDFJO@auth?9conf?$AA@ 0045f500     libcurl:digest.obj
 0002:0000850c       ??_C@_07EJNHPKHG@nonce?$DN?$CC?$AA@ 0045f50c     libcurl:digest.obj
 0002:00008514       ??_C@_07HAABIMLH@realm?$DN?$CC?$AA@ 0045f514     libcurl:digest.obj
 0002:0000851c       ??_C@_0L@HDBLKLNB@algorithm?$DN?$AA@ 0045f51c     libcurl:digest.obj
 0002:00008528       ??_C@_05HFBPPANL@qop?$DN?$CC?$AA@ 0045f528     libcurl:digest.obj
 0002:00008530       ??_C@_08KNCPHIAE@00000001?$AA@ 0045f530     libcurl:digest.obj
 0002:0000853c       ??_C@_0N@PMNNBFMH@AUTHENTICATE?$AA@ 0045f53c     libcurl:digest.obj
 0002:0000854c       ??_C@_08EBDNNOOM@md5?9sess?$AA@ 0045f54c     libcurl:digest.obj
 0002:00008558       ??_C@_0FL@LNDBMOBB@username?$DN?$CC?$CFs?$CC?0realm?$DN?$CC?$CFs?$CC?0nonce?$DN?$CC@ 0045f558     libcurl:digest.obj
 0002:000085b4       ??_C@_05OOEDLKEB@nonce?$AA@ 0045f5b4     libcurl:digest.obj
 0002:000085bc       ??_C@_05BFAEFKPM@stale?$AA@ 0045f5bc     libcurl:digest.obj
 0002:000085c4       ??_C@_04LOAJBDKD@true?$AA@ 0045f5c4     libcurl:digest.obj
 0002:000085cc       ??_C@_05ELABLNGD@realm?$AA@ 0045f5cc     libcurl:digest.obj
 0002:000085d4       ??_C@_06CJCOLNBB@opaque?$AA@ 0045f5d4     libcurl:digest.obj
 0002:000085dc       ??_C@_03GBIMBCPB@qop?$AA@  0045f5dc     libcurl:digest.obj
 0002:000085e0       ??_C@_09JPNFBOJG@algorithm?$AA@ 0045f5e0     libcurl:digest.obj
 0002:000085ec       ??_C@_08DKLKDOBJ@MD5?9sess?$AA@ 0045f5ec     libcurl:digest.obj
 0002:000085f8       ??_C@_03GCGHEHKJ@MD5?$AA@  0045f5f8     libcurl:digest.obj
 0002:000085fc       ??_C@_07DKFLFLPF@SHA?9256?$AA@ 0045f5fc     libcurl:digest.obj
 0002:00008604       ??_C@_0N@EOLPNNCE@SHA?9256?9SESS?$AA@ 0045f604     libcurl:digest.obj
 0002:00008614       ??_C@_0M@ODMGHIGE@SHA?9512?9256?$AA@ 0045f614     libcurl:digest.obj
 0002:00008620       ??_C@_0BB@LFGPIGKB@SHA?9512?9256?9SESS?$AA@ 0045f620     libcurl:digest.obj
 0002:00008634       ??_C@_08MPDCKPHM@userhash?$AA@ 0045f634     libcurl:digest.obj
 0002:00008640       ??_C@_08LDENPILD@?$CFs?3?$CFs?3?$CFs?$AA@ 0045f640     libcurl:digest.obj
 0002:0000864c       ??_C@_0BE@DBLPOOMB@?$CFs?3?$CFs?3?$CF08x?3?$CFs?3?$CFs?3?$CFs?$AA@ 0045f64c     libcurl:digest.obj
 0002:00008660       ??_C@_0FN@LPOMOJKE@username?$DN?$CC?$CFs?$CC?0?5realm?$DN?$CC?$CFs?$CC?0?5nonce@ 0045f660     libcurl:digest.obj
 0002:000086c0       ??_C@_0DP@IEBMKLAD@username?$DN?$CC?$CFs?$CC?0?5realm?$DN?$CC?$CFs?$CC?0?5nonce@ 0045f6c0     libcurl:digest.obj
 0002:00008700       ??_C@_0BA@BIMHECMC@?$CFs?0?5opaque?$DN?$CC?$CFs?$CC?$AA@ 0045f700     libcurl:digest.obj
 0002:00008710       ??_C@_0BB@JNPNCBL@?$CFs?0?5algorithm?$DN?$CFs?$AA@ 0045f710     libcurl:digest.obj
 0002:00008724       ??_C@_0BC@HNHNJNFB@?$CFs?0?5userhash?$DNtrue?$AA@ 0045f724     libcurl:digest.obj
 0002:00008738       ??_C@_0BM@ILAEFAML@Too?5long?5hexadecimal?5number?$AA@ 0045f738     libcurl:http_chunks.obj
 0002:00008754       ??_C@_0CI@EPIPCBEA@Illegal?5or?5missing?5hexadecimal?5s@ 0045f754     libcurl:http_chunks.obj
 0002:0000877c       ??_C@_0BJ@JKKKEMNN@Malformed?5encoding?5found?$AA@ 0045f77c     libcurl:http_chunks.obj
 0002:00008798       ??_C@_0BL@NBOBMEI@Bad?5content?9encoding?5found?$AA@ 0045f798     libcurl:http_chunks.obj
 0002:000087ec       ??_C@_09JLCBMBBK@Bad?5label?$AA@ 0045f7ec     libcurl:doh.obj
 0002:000087f8       ??_C@_0N@OBIJMHDD@Out?5of?5range?$AA@ 0045f7f8     libcurl:doh.obj
 0002:00008808       ??_C@_0L@IEBIAGNN@Label?5loop?$AA@ 0045f808     libcurl:doh.obj
 0002:00008814       ??_C@_09OCNDOFP@Too?5small?$AA@ 0045f814     libcurl:doh.obj
 0002:00008820       ??_C@_0N@FHJOLNAK@RDATA?5length?$AA@ 0045f820     libcurl:doh.obj
 0002:00008830       ??_C@_09OCLBHOEO@Malformat?$AA@ 0045f830     libcurl:doh.obj
 0002:0000883c       ??_C@_09DBMBBPHM@Bad?5RCODE?$AA@ 0045f83c     libcurl:doh.obj
 0002:00008848       ??_C@_0BA@OKMFLAL@Unexpected?5TYPE?$AA@ 0045f848     libcurl:doh.obj
 0002:00008858       ??_C@_0BB@EAJHLOKN@Unexpected?5CLASS?$AA@ 0045f858     libcurl:doh.obj
 0002:0000886c       ??_C@_0L@KKIPEPDM@No?5content?$AA@ 0045f86c     libcurl:doh.obj
 0002:00008878       ??_C@_06FFHBNKND@Bad?5ID?$AA@ 0045f878     libcurl:doh.obj
 0002:00008880       ??_C@_0P@JHEEOJHM@bad?5error?5code?$AA@ 0045f880     libcurl:doh.obj
 0002:00008890       ??_C@_0CG@CKDPOMBN@a?5DOH?5request?5is?5completed?0?5?$CFu?5t@ 0045f890     libcurl:doh.obj
 0002:000088b8       ??_C@_0BA@NDOGDMBN@DOH?5request?5?$CFs?6?$AA@ 0045f8b8     libcurl:doh.obj
 0002:000088c8       ??_C@_0CB@KOMHFCDO@Failed?5to?5encode?5DOH?5packet?5?$FL?$CFd?$FN@ 0045f8c8     libcurl:doh.obj
 0002:000088ec       ??_C@_09OLGCPDFN@?$CFs?$DPdns?$DN?$CFs?$AA@ 0045f8ec     libcurl:doh.obj
 0002:000088f8       ??_C@_0CG@KIGAOFHM@Content?9Type?3?5application?1dns?9me@ 0045f8f8     libcurl:doh.obj
 0002:00008920       ??_C@_0BB@DKILCKOO@TTL?3?5?$CFu?5seconds?6?$AA@ 0045f920     libcurl:doh.obj
 0002:00008934       ??_C@_0BE@FOEBOIJB@DOH?5A?3?5?$CFu?4?$CFu?4?$CFu?4?$CFu?6?$AA@ 0045f934     libcurl:doh.obj
 0002:00008948       ??_C@_0L@NNFPBGFL@DOH?5AAAA?3?5?$AA@ 0045f948     libcurl:doh.obj
 0002:00008954       ??_C@_0L@NCOIGGIO@?$CFs?$CF02x?$CF02x?$AA@ 0045f954     libcurl:doh.obj
 0002:00008960       ??_C@_0L@GJHHPGAI@CNAME?3?5?$CFs?6?$AA@ 0045f960     libcurl:doh.obj
 0002:0000896c       ??_C@_01FHEEJDEE@A?$AA@    0045f96c     libcurl:doh.obj
 0002:00008970       ??_C@_04OHNMNPPA@AAAA?$AA@ 0045f970     libcurl:doh.obj
 0002:00008978       ??_C@_0BK@IFADNFO@Could?5not?5DOH?9resolve?3?5?$CFs?$AA@ 0045f978     libcurl:doh.obj
 0002:00008994       ??_C@_0BI@CENMKCHB@DOH?3?5?$CFs?5type?5?$CFs?5for?5?$CFs?6?$AA@ 0045f994     libcurl:doh.obj
 0002:000089ac       ??_C@_0BD@FBBLOGDK@DOH?5Host?5name?3?5?$CFs?6?$AA@ 0045f9ac     libcurl:doh.obj
 0002:00008a4c       ??_C@_06BHJPINKK@?$CFc?$CFc?$DN?$DN?$AA@ 0045fa4c     libcurl:base64.obj
 0002:00008a54       ??_C@_07KPHDOBAP@?$CFc?$CFc?$CFc?$DN?$AA@ 0045fa54     libcurl:base64.obj
 0002:00008a60       ??_C@_0GC@KMDLLNFG@NTLM?5handshake?5failure?5?$CIbad?5type@ 0045fa60     libcurl:ntlm.obj
 0002:00008ac4       ??_C@_0CP@KIFOOILK@NTLM?5handshake?5failure?5?$CIempty?5ty@ 0045fac4     libcurl:ntlm.obj
 0002:00008af4       ??_C@_0CN@NILNEGOG@NTLM?5handshake?5failure?5?$CIbad?5type@ 0045faf4     libcurl:ntlm.obj
 0002:00008b24       ??_C@_0DN@EOPIHEDC@NTLMSSP?$CFc?$AB?$CFc?$CFc?$CFc?$CFc?$CFc?$CFc?$CFc?$CFc?$CFc?$CFc?$CFc@ 0045fb24     libcurl:ntlm.obj
 0002:00008b64       ??_C@_0CL@BCOKKCBO@gethostname?$CI?$CJ?5failed?0?5continuing@ 0045fb64     libcurl:ntlm.obj
 0002:00008b90       ??_C@_0HJ@CLKEMMBI@NTLMSSP?$CFc?$AD?$CFc?$CFc?$CFc?$CFc?$CFc?$CFc?$CFc?$CFc?$CFc?$CFc?$CFc@ 0045fb90     libcurl:ntlm.obj
 0002:00008c0c       ??_C@_0BO@JAAKONFE@incoming?5NTLM?5message?5too?5big?$AA@ 0045fc0c     libcurl:ntlm.obj
 0002:00008c2c       ??_C@_0CC@OKCALBLA@user?5?$CL?5domain?5?$CL?5host?5name?5too?5bi@ 0045fc2c     libcurl:ntlm.obj
 0002:00008c50       ??_C@_07NPDBOIDH@aws?3amz?$AA@ 0045fc50     libcurl:http_aws_sigv4.obj
 0002:00008c58       ??_C@_0BP@KLOELJLG@first?5provider?5can?8t?5be?5empty?6?$AA@ 0045fc58     libcurl:http_aws_sigv4.obj
 0002:00008c78       ??_C@_0CA@EAHCMJLP@second?5provider?5can?8t?5be?5empty?6?$AA@ 0045fc78     libcurl:http_aws_sigv4.obj
 0002:00008c98       ??_C@_0BH@GCAPKOHK@region?5can?8t?5be?5empty?6?$AA@ 0045fc98     libcurl:http_aws_sigv4.obj
 0002:00008cb0       ??_C@_0BI@DONEAKFM@service?5can?8t?5be?5empty?6?$AA@ 0045fcb0     libcurl:http_aws_sigv4.obj
 0002:00008cc8       ??_C@_0CL@KGLCCDEP@service?5missing?5in?5parameters?5or@ 0045fcc8     libcurl:http_aws_sigv4.obj
 0002:00008cf4       ??_C@_0CK@MPAFOPCI@region?5missing?5in?5parameters?5or?5@ 0045fcf4     libcurl:http_aws_sigv4.obj
 0002:00008d20       ??_C@_0P@IKNEGPFP@?$CFY?$CFm?$CFdT?$CFH?$CFM?$CFSZ?$AA@ 0045fd20     libcurl:http_aws_sigv4.obj
 0002:00008d30       ??_C@_0CG@LGOKAMLB@content?9type?3?$CFs?6host?3?$CFs?6x?9?$CFs?9dat@ 0045fd30     libcurl:http_aws_sigv4.obj
 0002:00008d58       ??_C@_0BM@KIONJGIN@content?9type?$DLhost?$DLx?9?$CFs?9date?$AA@ 0045fd58     libcurl:http_aws_sigv4.obj
 0002:00008d74       ??_C@_0BG@KFBJEMGA@host?3?$CFs?6x?9?$CFs?9date?3?$CFs?6?$AA@ 0045fd74     libcurl:http_aws_sigv4.obj
 0002:00008d8c       ??_C@_0P@LBLFCGEL@host?$DLx?9?$CFs?9date?$AA@ 0045fd8c     libcurl:http_aws_sigv4.obj
 0002:00008d9c       ??_C@_0BC@PHFFPANB@?$CFs?6?$CFs?6?$CFs?6?$CFs?6?$CFs?6?$CFs?$AA@ 0045fd9c     libcurl:http_aws_sigv4.obj
 0002:00008db0       ??_C@_0M@HICACENB@?$CFs4_request?$AA@ 0045fdb0     libcurl:http_aws_sigv4.obj
 0002:00008dbc       ??_C@_0M@CFLEPOPB@?$CFs?1?$CFs?1?$CFs?1?$CFs?$AA@ 0045fdbc     libcurl:http_aws_sigv4.obj
 0002:00008dc8       ??_C@_0BJ@CMHLPGHN@?$CFs4?9HMAC?9SHA256?6?$CFs?6?$CFs?6?$CFs?$AA@ 0045fdc8     libcurl:http_aws_sigv4.obj
 0002:00008de4       ??_C@_05OCPDJBAO@?$CFs4?$CFs?$AA@ 0045fde4     libcurl:http_aws_sigv4.obj
 0002:00008df0       ??_C@_0GB@FIOPLDOD@Authorization?3?5?$CFs4?9HMAC?9SHA256?5C@ 0045fdf0     libcurl:http_aws_sigv4.obj
 0002:00008e54       ??_C@_0BI@OMBEIMIN@server?5response?5timeout?$AA@ 0045fe54     libcurl:pingpong.obj
 0002:00008e6c       ??_C@_0BC@FLDALOLK@select?1poll?5error?$AA@ 0045fe6c     libcurl:pingpong.obj
 0002:00008e80       ??_C@_0CH@HOGDLIGJ@cached?5response?5data?5too?5big?5to?5@ 0045fe80     libcurl:pingpong.obj
 0002:00008ea8       ??_C@_0BI@KBMAOGBB@response?5reading?5failed?$AA@ 0045fea8     libcurl:pingpong.obj
 0002:00008ec0       ??_C@_0EG@IFEGJIDG@Excessive?5server?5response?5line?5l@ 0045fec0     libcurl:pingpong.obj
 0002:00008f98       ??_C@_05PLHGOPJD@LOGIN?$AA@ 0045ff98     libcurl:curl_sasl.obj
 0002:00008fa0       ??_C@_05ONKJAIHP@PLAIN?$AA@ 0045ffa0     libcurl:curl_sasl.obj
 0002:00008fa8       ??_C@_08DNNNMLKI@CRAM?9MD5?$AA@ 0045ffa8     libcurl:curl_sasl.obj
 0002:00008fb4       ??_C@_0L@ELGHJPGH@DIGEST?9MD5?$AA@ 0045ffb4     libcurl:curl_sasl.obj
 0002:00008fc0       ??_C@_06HIDJEBJA@GSSAPI?$AA@ 0045ffc0     libcurl:curl_sasl.obj
 0002:00008fc8       ??_C@_08JHLDEHEK@EXTERNAL?$AA@ 0045ffc8     libcurl:curl_sasl.obj
 0002:00008fd4       ??_C@_07ENDMEEPL@XOAUTH2?$AA@ 0045ffd4     libcurl:curl_sasl.obj
 0002:00008fdc       ??_C@_0M@CNKKGKLC@OAUTHBEARER?$AA@ 0045ffdc     libcurl:curl_sasl.obj
 0002:00008fe8       ??_C@_0M@NPGGIEFL@SCRAM?9SHA?91?$AA@ 0045ffe8     libcurl:curl_sasl.obj
 0002:00008ff4       ??_C@_0O@KJDAFCA@SCRAM?9SHA?9256?$AA@ 0045fff4     libcurl:curl_sasl.obj
 0002:00009004       ??_C@_04GJKECPKB@AQ?$DN?$DN?$AA@ 00460004     libcurl:curl_sasl.obj
 0002:0000900c       ??_C@_0CK@LABGPHKL@Unsupported?5SASL?5authentication?5@ 0046000c     libcurl:curl_sasl.obj
 0002:00009038       _Curl_DIGEST_MD5           00460038     libcurl:md5.obj
 0002:0000904c       _Curl_HMAC_MD5             0046004c     libcurl:md5.obj
 0002:00009064       ??_C@_04BBDFLMDN@?5?9?$DO?5?$AA@ 00460064     libcurl:ftplistparser.obj
 0002:0000906c       ??_C@_06NIJHKJLJ@total?5?$AA@ 0046006c     libcurl:ftplistparser.obj
 0002:00009074       ??_C@_08IKJPBGEL@rwx?9tTsS?$AA@ 00460074     libcurl:ftplistparser.obj
 0002:00009080       ??_C@_0M@GKMDGLA@0123456789?9?$AA@ 00460080     libcurl:ftplistparser.obj
 0002:0000908c       ??_C@_0P@BIDONHD@APM0123456789?3?$AA@ 0046008c     libcurl:ftplistparser.obj
 0002:0000909c       ??_C@_05FIBHJBBH@?$DMDIR?$DO?$AA@ 0046009c     libcurl:ftplistparser.obj
 0002:000090ac       ??_C@_0CB@NDKGBGMP@?$CFc?$CFc?$CFc?$CFc?$CFc?$CFc?$CFc?$CFc?$CFc?$CFc?$CFc?$CFc?$CFc?$CFc?$CFc?$CFc@ 004600ac     libcurl:curl_ntlm_core.obj
 0002:000090d0       ??_C@_02CAHBHFGK@?4?1?$AA@ 004600d0     libcurl:dotdot.obj
 0002:000090d4       ??_C@_03LOJJKLGJ@?4?4?1?$AA@ 004600d4     libcurl:dotdot.obj
 0002:000090d8       ??_C@_03GCFMMAM@?1?4?1?$AA@ 004600d8     libcurl:dotdot.obj
 0002:000090dc       ??_C@_02DIKICOBM@?1?4?$AA@ 004600dc     libcurl:dotdot.obj
 0002:000090e0       ??_C@_04BKGODLLN@?1?4?4?1?$AA@ 004600e0     libcurl:dotdot.obj
 0002:000090e8       ??_C@_03BPDOPNEN@?1?4?4?$AA@ 004600e8     libcurl:dotdot.obj
 0002:000090ec       ??_C@_02DJGKEECL@?4?4?$AA@ 004600ec     libcurl:dotdot.obj
 0002:000090f0       ??_C@_08ICCJALCC@?$CFs?1?$CFs?$EA?$CFs?$AA@ 004600f0     libcurl:vauth.obj
 0002:000090fc       ??_C@_05GFOLEBJA@?$CFs?1?$CFs?$AA@ 004600fc     libcurl:vauth.obj
 0002:00009104       ??_C@_05GKOKGMF@?$CFs?$EA?$CFs?$AA@ 00460104     libcurl:vauth.obj
 0002:0000910c       _Curl_HMAC_SHA256          0046010c     libcurl:sha256.obj
 0002:00009128       ??_C@_01NEMOKFLO@?$DN?$AA@ 00460128     libcurl:cleartext.obj
 0002:00009130       ??_C@_0EE@GBENNIBO@?$CFs?5?$CF02x?$CF02x?$CF02x?$CF02x?$CF02x?$CF02x?$CF02x?$CF@ 00460130     libcurl:cram.obj
 0002:00009174       ??_C@_0CB@GNAMIMBB@n?0a?$DN?$CFs?0?$ABhost?$DN?$CFs?$ABauth?$DNBearer?5?$CFs?$AB?$AB@ 00460174     libcurl:oauth2.obj
 0002:00009198       ??_C@_0CK@MLPCPAOG@n?0a?$DN?$CFs?0?$ABhost?$DN?$CFs?$ABport?$DN?$CFld?$ABauth?$DNBe@ 00460198     libcurl:oauth2.obj
 0002:000091c4       ??_C@_0BJ@HPFOJHGD@user?$DN?$CFs?$ABauth?$DNBearer?5?$CFs?$AB?$AB?$AA@ 004601c4     libcurl:oauth2.obj
 0002:000091e0       ??_C@_05ODNOIFML@digit?$AA@ 004601e0     libcurl:curl_fnmatch.obj
 0002:000091e8       ??_C@_05IIMHCHIO@alnum?$AA@ 004601e8     libcurl:curl_fnmatch.obj
 0002:000091f0       ??_C@_05IAEKHIAN@alpha?$AA@ 004601f0     libcurl:curl_fnmatch.obj
 0002:000091f8       ??_C@_06BAPHGFFK@xdigit?$AA@ 004601f8     libcurl:curl_fnmatch.obj
 0002:00009200       ??_C@_05IJDJACGD@print?$AA@ 00460200     libcurl:curl_fnmatch.obj
 0002:00009208       ??_C@_05KCJBMLII@graph?$AA@ 00460208     libcurl:curl_fnmatch.obj
 0002:00009210       ??_C@_05OLNILLAB@space?$AA@ 00460210     libcurl:curl_fnmatch.obj
 0002:00009218       ??_C@_05BABJKOGB@blank?$AA@ 00460218     libcurl:curl_fnmatch.obj
 0002:00009220       ??_C@_05NECKJAMC@upper?$AA@ 00460220     libcurl:curl_fnmatch.obj
 0002:00009228       ??_C@_05IPJEPLHL@lower?$AA@ 00460228     libcurl:curl_fnmatch.obj
 0002:00009248       ??_C@_0N@GIPHPLLM@Warcraft?5III@ 00460248     Main.obj
 0002:00009258       ??_C@_0EK@MNEKPPON@11070123112E8880181D0381091D038@ 00460258     Main.obj
 0002:000092a4       ??_C@_01NOFIACDB@w@        004602a4     Main.obj
 0002:000092a8       ??_C@_07GPDNMNG@CONOUT$@   004602a8     Main.obj
 0002:000092b0       ??_C@_05JLNEMJLN@dummy@    004602b0     Main.obj
 0002:000092b8       ??_C@_0BB@ICFLKOPM@SeDebugPrivilege@ 004602b8     Main.obj
 0002:000092cc       ??_C@_08EPCMHBKI@Game?4dll@ 004602cc     Main.obj
 0002:000092d8       ?key@@3PBDB                004602d8     Main.obj
 0002:000092dc       ??_C@_0BC@EOODALEL@Unknown?5exception@ 004602dc     protect.obj
 0002:000092f0       ??_C@_0BF@KINCDENJ@bad?5array?5new?5length@ 004602f0     protect.obj
 0002:00009308       ??_C@_0BA@JFNIOLAK@string?5too?5long@ 00460308     protect.obj
 0002:00009318       ??_C@_0BG@HGEDEDEC@invalid?5stoi?5argument@ 00460318     protect.obj
 0002:00009330       ??_C@_0BL@MFFNMGGC@stoi?5argument?5out?5of?5range@ 00460330     protect.obj
 0002:0000934b       ??_C@_00CNPNBAHC@@         0046034b     protect.obj
 0002:0000934c       ??_C@_04JHBMAIMM@?$CF01X@  0046034c     protect.obj
 0002:00009354       ??_C@_05NADPPHDM@Key?3?5@  00460354     protect.obj
 0002:0000935c       ??_C@_0DP@JMIKLEIH@http?3?1?1showcase?4api?4linx?4twenty@ 0046035c     protect.obj
 0002:0000939c       ??_C@_01JLIPDDHJ@?3@       0046039c     protect.obj
 0002:000093a0       ??_C@_01CLKCMJKC@?5@       004603a0     protect.obj
 0002:000093a4       ??_C@_01LFCBOECM@?4@       004603a4     protect.obj
 0002:000093a8       ??_C@_0BI@CFPLBAOH@invalid?5string?5position@ 004603a8     protect.obj
 0002:000093c0       ??_C@_0BH@KOGMOJCH@invalid?5stoll?5argument@ 004603c0     systeminfo.obj
 0002:000093d8       ??_C@_0BM@BPCBEBLO@stoll?5argument?5out?5of?5range@ 004603d8     systeminfo.obj
 0002:000093f4       ??_C@_08EPJLHIJG@bad?5cast@ 004603f4     systeminfo.obj
 0002:00009400       ??_C@_0FF@ODEOEJDF@wmic?5?1namespace?3?2?2root?2wmi?5PATH@ 00460400     systeminfo.obj
 0002:00009458       ??_C@_06PONDCDME@ERROR?3@  00460458     systeminfo.obj
 0002:00009460       ??_C@_0DN@ILJDKAAO@wmic?5cpu?5get?5?1format?3list?5?$HM?5fin@ 00460460     systeminfo.obj
 0002:000094a0       ??_C@_0BD@PGHEEDII@CurrentClockSpeed?$DN@ 004604a0     systeminfo.obj
 0002:000094b4       ??_C@_05DCIFAFBG@Name?$DN@ 004604b4     systeminfo.obj
 0002:000094bc       ??_C@_0P@BHLKPIPI@NumberOfCores?$DN@ 004604bc     systeminfo.obj
 0002:000094cc       ??_C@_0O@HNEOCNDC@Manufacturer?$DN@ 004604cc     systeminfo.obj
 0002:000094dc       ??_C@_0L@BAIIMEAH@DataWidth?$DN@ 004604dc     systeminfo.obj
 0002:000094e8       ??_C@_0N@NPABCCND@L2CacheSize?$DN@ 004604e8     systeminfo.obj
 0002:000094f8       ??_C@_0N@EEKEGOLM@L3CacheSize?$DN@ 004604f8     systeminfo.obj
 0002:00009508       ??_C@_02LODOGJEL@KB@       00460508     systeminfo.obj
 0002:0000950c       ??_C@_07NBCGADJA@Unknown@  0046050c     systeminfo.obj
 0002:00009514       ??_C@_03BMJMONAH@MHz@      00460514     systeminfo.obj
 0002:00009518       ??_C@_03NDFEINMN@x86@      00460518     systeminfo.obj
 0002:0000951c       ??_C@_06HDPOADAK@x86_64@   0046051c     systeminfo.obj
 0002:00009524       ??_C@_0BL@LFOFMABP@wmic?5cpu?5get?5?1format?3?5list@ 00460524     systeminfo.obj
 0002:00009540       ??_C@_09KGLINCJH@AssetTag?$DN@ 00460540     systeminfo.obj
 0002:0000954c       ??_C@_0N@JEAIMEKG@VoltageCaps?$DN@ 0046054c     systeminfo.obj
 0002:0000955c       ??_C@_01LIIJDEN@?$AN@      0046055c     systeminfo.obj
 0002:00009560       ??_C@_06HLMMPIBG@NVIDIA@   00460560     systeminfo.obj
 0002:00009568       ??_C@_05OPFLDEAH@INTEL@    00460568     systeminfo.obj
 0002:00009570       ??_C@_03BBEEILCJ@AMD@      00460570     systeminfo.obj
 0002:00009574       ??_C@_0BG@JEIDHDPM@AdapterCompatibility?$DN@ 00460574     systeminfo.obj
 0002:0000958c       ??_C@_0M@MFMICOBC@AdapterRAM?$DN@ 0046058c     systeminfo.obj
 0002:00009598       ??_C@_0BE@HFKIHEFN@CurrentRefreshRate?$DN@ 00460598     systeminfo.obj
 0002:000095ac       ??_C@_0P@ECEAHKCA@DriverVersion?$DN@ 004605ac     systeminfo.obj
 0002:000095bc       ??_C@_0BD@PJIEMGDB@VideoArchitecture?$DN@ 004605bc     systeminfo.obj
 0002:000095d0       ??_C@_0BA@COFLHODM@VideoMemoryType@ 004605d0     systeminfo.obj
 0002:000095e0       ??_C@_0BG@KAJCOKNL@VideoModeDescription?$DN@ 004605e0     systeminfo.obj
 0002:000095f8       ??_C@_0BA@IDIFCJOL@VideoProcessor?$DN@ 004605f8     systeminfo.obj
 0002:00009608       ??_C@_08EBLFLHLH@Caption?$DN@ 00460608     systeminfo.obj
 0002:00009614       ??_C@_07IOEJHCEF@?5Bytes?$CJ@ 00460614     systeminfo.obj
 0002:0000961c       ??_C@_04MNLDOMOG@MB?5?$CI@ 0046061c     systeminfo.obj
 0002:00009624       ??_C@_06LFCPCEPB@?5Bytes@  00460624     systeminfo.obj
 0002:0000962c       ??_C@_05BBOGGNLJ@Other@    0046062c     systeminfo.obj
 0002:00009634       ??_C@_03MLKNDCDB@CGA@      00460634     systeminfo.obj
 0002:00009638       ??_C@_03OOMGGNON@EGA@      00460638     systeminfo.obj
 0002:0000963c       ??_C@_03KMGKJFJM@VGA@      0046063c     systeminfo.obj
 0002:00009640       ??_C@_04DELPAIIG@SVGA@     00460640     systeminfo.obj
 0002:00009648       ??_C@_03CJDEPLFL@MDA@      00460648     systeminfo.obj
 0002:0000964c       ??_C@_03COJKNHLC@HGC@      0046064c     systeminfo.obj
 0002:00009650       ??_C@_04IMKIIGMI@MCGA@     00460650     systeminfo.obj
 0002:00009658       ??_C@_05ENECEAKG@8514A@    00460658     systeminfo.obj
 0002:00009660       ??_C@_03EMLFOCKP@XGA@      00460660     systeminfo.obj
 0002:00009664       ??_C@_0BE@HCJIGBPB@Linear?5Frame?5Buffer@ 00460664     systeminfo.obj
 0002:00009678       ??_C@_07BIPCJPON@PC?5?9?598@ 00460678     systeminfo.obj
 0002:00009680       ??_C@_04NLAFCDBP@VRAM@     00460680     systeminfo.obj
 0002:00009688       ??_C@_04MBCFOHPN@DRAM@     00460688     systeminfo.obj
 0002:00009690       ??_C@_04BDOFKMGP@SRAM@     00460690     systeminfo.obj
 0002:00009698       ??_C@_04OGGFAKKP@WRAM@     00460698     systeminfo.obj
 0002:000096a0       ??_C@_07FKCCEMEA@EDO_RAM@  004606a0     systeminfo.obj
 0002:000096a8       ??_C@_0BH@DEHCDIJM@Burst?5Synchronous?5DRAM@ 004606a8     systeminfo.obj
 0002:000096c0       ??_C@_0BF@IJELNNLE@Pipelined?5Burst?5SRAM@ 004606c0     systeminfo.obj
 0002:000096d8       ??_C@_05DPAJMJIB@CDRAM@    004606d8     systeminfo.obj
 0002:000096e0       ??_C@_05DECLMEEA@3DRAM@    004606e0     systeminfo.obj
 0002:000096e8       ??_C@_05DMNPMLBK@SDRAM@    004606e8     systeminfo.obj
 0002:000096f0       ??_C@_05HLHPLBMK@SGRAM@    004606f0     systeminfo.obj
 0002:000096f8       ??_C@_0DC@PMLGMCKE@wmic?5path?5Win32_VideoController@ 004606f8     systeminfo.obj
 0002:0000972c       ??_C@_0BF@MNNLIBBB@CurrentBitsPerPixel?$DN@ 0046072c     systeminfo.obj
 0002:00009748       ??_C@_0EF@JNOHMMK@wmic?5path?5Win32_PnPEntity?5get?5?1@ 00460748     systeminfo.obj
 0002:00009790       ??_C@_08EKPLPCOK@Product?$DN@ 00460790     systeminfo.obj
 0002:0000979c       ??_C@_0N@NCLCEBBL@Description?$DN@ 0046079c     systeminfo.obj
 0002:000097ac       ??_C@_07CPHKODAM@Chipset@  004607ac     systeminfo.obj
 0002:000097b4       ??_C@_0O@OFNCEPFA@SerialNumber?$DN@ 004607b4     systeminfo.obj
 0002:000097c4       ??_C@_08KJDCJPOC@Version?$DN@ 004607c4     systeminfo.obj
 0002:000097d0       ??_C@_0CB@BDBEEPBD@wmic?5baseboard?5get?5?1format?3?5lis@ 004607d0     systeminfo.obj
 0002:000097f4       ??_C@_0BH@BLPEBJGK@RequiresDaughterBoard?$DN@ 004607f4     systeminfo.obj
 0002:0000980c       ??_C@_06PNJJNEK@Width?$DN@ 0046080c     systeminfo.obj
 0002:00009814       ??_C@_0BA@HJFKPBCC@OSArchitecture?$DN@ 00460814     systeminfo.obj
 0002:00009824       ??_C@_0BA@INGADHEL@RegisteredUser?$DN@ 00460824     systeminfo.obj
 0002:00009834       ??_C@_0N@ODOKOKID@InstallDate?$DN@ 00460834     systeminfo.obj
 0002:00009844       ??_C@_0N@JEMEBDNJ@BuildNumber?$DN@ 00460844     systeminfo.obj
 0002:00009854       ??_C@_0BA@GCBFFF@LastBootUpTime?$DN@ 00460854     systeminfo.obj
 0002:00009864       ??_C@_0M@CGJKPCAI@BootDevice?$DN@ 00460864     systeminfo.obj
 0002:00009870       ??_C@_0BI@PMGAEKHL@TotalVirtualMemorySize?$DN@ 00460870     systeminfo.obj
 0002:00009888       ??_C@_0BI@HLKHBHBJ@TotalVisibleMemorySize?$DN@ 00460888     systeminfo.obj
 0002:000098a0       ??_C@_0P@GNHCPJKN@TotalSwapSize?$DN@ 004608a0     systeminfo.obj
 0002:000098b0       ??_C@_0BE@DEHHBEC@FreePhysicalMemory?$DN@ 004608b0     systeminfo.obj
 0002:000098c4       ??_C@_0DN@FMHPDIHB@wmic?5os?5get?5?1format?3list?5?$HM?5find@ 004608c4     systeminfo.obj
 0002:00009904       ??_C@_0BD@LBCHCOMB@FreeVirtualMemory?$DN@ 00460904     systeminfo.obj
 0002:00009918       ??_C@_0DM@IMOGBFPI@wmic?5os?5get?5?1format?3list?5?$HM?5find@ 00460918     systeminfo.obj
 0002:00009954       ??_C@_0BI@JAIEFCLJ@FreeSpaceInPagingFiles?$DN@ 00460954     systeminfo.obj
 0002:00009970       ??_C@_0EB@OBBKEDCH@wmic?5os?5get?5?1format?3list?5?$HM?5find@ 00460970     systeminfo.obj
 0002:000099b4       ??_C@_0BJ@FNCKOEAK@SizeStoredInPagingFiles?$DN@ 004609b4     systeminfo.obj
 0002:000099d0       ??_C@_0EC@EKOMMEFI@wmic?5os?5get?5?1format?3list?5?$HM?5find@ 004609d0     systeminfo.obj
 0002:00009a14       ??_C@_0P@OEDDHIDF@LocalDateTime?$DN@ 00460a14     systeminfo.obj
 0002:00009a24       ??_C@_0DI@PPLPAHM@wmic?5os?5get?5?1format?3list?5?$HM?5find@ 00460a24     systeminfo.obj
 0002:00009a5c       ??_C@_04IDFBDOJP@?5KB?$CJ@ 00460a5c     systeminfo.obj
 0002:00009a64       ??_C@_03MAAJMAHL@?5KB@     00460a64     systeminfo.obj
 0002:00009a68       ??_C@_0BJ@PEOICEGE@wmic?5os?5get?5?1format?3list@ 00460a68     systeminfo.obj
 0002:00009a84       ??_C@_0BJ@BADAMLNJ@PortableOperatingSystem?$DN@ 00460a84     systeminfo.obj
 0002:00009aa0       ??_C@_0BC@KMGAAGMI@WindowsDirectory?$DN@ 00460aa0     systeminfo.obj
 0002:00009ab4       ??_C@_0P@CLNGFENG@DeviceLocator?$DN@ 00460ab4     systeminfo.obj
 0002:00009ac4       ??_C@_09GMKGCMGO@Capacity?$DN@ 00460ac4     systeminfo.obj
 0002:00009ad0       ??_C@_0M@NJBBNODN@FormFactor?$DN@ 00460ad0     systeminfo.obj
 0002:00009adc       ??_C@_0M@JCECAJFD@PartNumber?$DN@ 00460adc     systeminfo.obj
 0002:00009ae8       ??_C@_0M@BHDFFOOC@MemoryType?$DN@ 00460ae8     systeminfo.obj
 0002:00009af4       ??_C@_0BG@HOKNLHKH@ConfiguredClockSpeed?$DN@ 00460af4     systeminfo.obj
 0002:00009b0c       ??_C@_06DJAAKCE@Speed?$DN@ 00460b0c     systeminfo.obj
 0002:00009b14       ??_C@_0BA@PHEJNBIO@Syncronous?5DRAM@ 00460b14     systeminfo.obj
 0002:00009b24       ??_C@_0L@KFMNNBLH@Cache?5DRAM@ 00460b24     systeminfo.obj
 0002:00009b30       ??_C@_03HCADPODK@EDO@      00460b30     systeminfo.obj
 0002:00009b34       ??_C@_05OJFACKJM@EDRAM@    00460b34     systeminfo.obj
 0002:00009b3c       ??_C@_03ILDADBHF@RAM@      00460b3c     systeminfo.obj
 0002:00009b40       ??_C@_03IBKOBMHP@ROM@      00460b40     systeminfo.obj
 0002:00009b44       ??_C@_05LDPHIKKB@Flash@    00460b44     systeminfo.obj
 0002:00009b4c       ??_C@_06EMDDBCNH@EEPROM@   00460b4c     systeminfo.obj
 0002:00009b54       ??_C@_06HNNLAIEK@FEPROM@   00460b54     systeminfo.obj
 0002:00009b5c       ??_C@_05HGKODGNE@EPROM@    00460b5c     systeminfo.obj
 0002:00009b64       ??_C@_05PHIDBILP@RDRAM@    00460b64     systeminfo.obj
 0002:00009b6c       ??_C@_04CJLNMEGN@DDR1@     00460b6c     systeminfo.obj
 0002:00009b74       ??_C@_04CJAJHKO@DDR2@      00460b74     systeminfo.obj
 0002:00009b7c       ??_C@_0O@HNAHBKBC@DDR2?5?9?5FBDIMM@ 00460b7c     systeminfo.obj
 0002:00009b8c       ??_C@_04BLILKGOP@DDR3@     00460b8c     systeminfo.obj
 0002:00009b94       ??_C@_04EFJAEENA@FBD2@     00460b94     systeminfo.obj
 0002:00009b9c       ??_C@_03MCPDGLLE@SIP@      00460b9c     systeminfo.obj
 0002:00009ba0       ??_C@_03PDNAEJC@DIP@       00460ba0     systeminfo.obj
 0002:00009ba4       ??_C@_03LPPLCEDO@ZIP@      00460ba4     systeminfo.obj
 0002:00009ba8       ??_C@_03HGFDONNN@SOJ@      00460ba8     systeminfo.obj
 0002:00009bac       ??_C@_0M@EAHCLNFM@Proprietary@ 00460bac     systeminfo.obj
 0002:00009bb8       ??_C@_04JNOHIFJF@SIMM@     00460bb8     systeminfo.obj
 0002:00009bc0       ??_C@_04EPCHMOAH@DIMM@     00460bc0     systeminfo.obj
 0002:00009bc8       ??_C@_04OMILFGAM@TSOP@     00460bc8     systeminfo.obj
 0002:00009bd0       ??_C@_03IJABMKEA@PGA@      00460bd0     systeminfo.obj
 0002:00009bd4       ??_C@_04KAIHKMCF@RIMM@     00460bd4     systeminfo.obj
 0002:00009bdc       ??_C@_06PIFKKNPH@SODIMM@   00460bdc     systeminfo.obj
 0002:00009be4       ??_C@_05FNHNIAMC@SRIMM@    00460be4     systeminfo.obj
 0002:00009bec       ??_C@_03OLFEBEDN@SMD@      00460bec     systeminfo.obj
 0002:00009bf0       ??_C@_04FNCPFOHC@SSMP@     00460bf0     systeminfo.obj
 0002:00009bf8       ??_C@_03ENAIDDFH@QFD@      00460bf8     systeminfo.obj
 0002:00009bfc       ??_C@_04EJFDKFAI@TQFP@     00460bfc     systeminfo.obj
 0002:00009c04       ??_C@_04CBAGFPBL@SOIC@     00460c04     systeminfo.obj
 0002:00009c0c       ??_C@_03KGPBOIDJ@LCC@      00460c0c     systeminfo.obj
 0002:00009c10       ??_C@_04HJIEAPPD@PLCC@     00460c10     systeminfo.obj
 0002:00009c18       ??_C@_03HDBBFFFE@BGA@      00460c18     systeminfo.obj
 0002:00009c1c       ??_C@_05CIFANFB@FPBGA@     00460c1c     systeminfo.obj
 0002:00009c24       ??_C@_03JDMOCCGH@LGA@      00460c24     systeminfo.obj
 0002:00009c28       ??_C@_0CC@FIPGLJJI@wmic?5memorychip?5get?5?1format?3?5li@ 00460c28     systeminfo.obj
 0002:00009c4c       ??_C@_04IFFFBHG@2?$DO?$CG1@ 00460c4c     systeminfo.obj
 0002:00009c54       ??_C@_01PPODPGHN@?$DO@     00460c54     systeminfo.obj
 0002:00009c58       ??_C@_02PCIJFNDE@?$AN?6@   00460c58     systeminfo.obj
 0002:00009c5c       ??_C@_02LIIHNNHG@?6?$AN@   00460c5c     systeminfo.obj
 0002:00009c60       ??_C@_01EEMJAFIK@?6@       00460c60     systeminfo.obj
 0002:00009c64       ??_C@_05HIBJACPO@?52?$DO?$CG1@ 00460c64     systeminfo.obj
 0002:00009c6c       ??_C@_01KDCPPGHE@r@        00460c6c     systeminfo.obj
 0002:00009c70       ??_C@_01BJJEKLCA@?$CC@     00460c70     systeminfo.obj
 0002:00009c74       ??_C@_0CD@LHOMMFEI@ERROR?3?5Failed?5to?5execute?5comman@ 00460c74     systeminfo.obj
 0002:00009c98       ??_C@_0BA@FOIKENOD@vector?5too?5long@ 00460c98     systeminfo.obj
 0002:00009cac       ??_7?$basic_filebuf@DU?$char_traits@D@std@@@std@@6B@ 00460cac     systeminfo.obj
 0002:00009ce8       ??_8?$basic_stringstream@DU?$char_traits@D@std@@V?$allocator@D@2@@std@@7B?$basic_ostream@DU?$char_traits@D@std@@@1@@ 00460ce8     systeminfo.obj
 0002:00009cf4       ??_7bad_cast@std@@6B@      00460cf4     systeminfo.obj
 0002:00009d00       ??_7?$basic_stringbuf@DU?$char_traits@D@std@@V?$allocator@D@2@@std@@6B@ 00460d00     systeminfo.obj
 0002:00009d5c       ??_7?$basic_stringstream@DU?$char_traits@D@std@@V?$allocator@D@2@@std@@6B@ 00460d5c     systeminfo.obj
 0002:00009d60       ??_8?$basic_ifstream@DU?$char_traits@D@std@@@std@@7B@ 00460d60     systeminfo.obj
 0002:00009d68       ??_8?$basic_stringstream@DU?$char_traits@D@std@@V?$allocator@D@2@@std@@7B?$basic_istream@DU?$char_traits@D@std@@@1@@ 00460d68     systeminfo.obj
 0002:00009d74       ??_7?$basic_ifstream@DU?$char_traits@D@std@@@std@@6B@ 00460d74     systeminfo.obj
 0002:00009d78       __real@3c23d70a            00460d78     Main.obj
 0002:00009d7c       __real@3f000000            00460d7c     Main.obj
 0002:00009d80       __real@3faccccd            00460d80     Main.obj
 0002:00009d84       __real@41a00000            00460d84     Main.obj
 0002:00009d88       __real@420a0000            00460d88     Main.obj
 0002:00009d8c       __real@42480000            00460d8c     Main.obj
 0002:00009d90       __real@42a00000            00460d90     Main.obj
 0002:00009dd0       __load_config_used         00460dd0     MSVCRT:loadcfg.obj
 0002:00009ec0       ??_R4type_info@@6B@        00460ec0     MSVCRT:std_type_info_static.obj
 0002:00009ed4       ??_R3type_info@@8          00460ed4     MSVCRT:std_type_info_static.obj
 0002:00009ee4       ??_R2type_info@@8          00460ee4     MSVCRT:std_type_info_static.obj
 0002:00009eec       ??_R1A@?0A@EA@type_info@@8 00460eec     MSVCRT:std_type_info_static.obj
 0002:00009f08       ??_R4exception@std@@6B@    00460f08     protect.obj
 0002:00009f1c       ??_R2bad_array_new_length@std@@8 00460f1c     protect.obj
 0002:00009f2c       ??_R2bad_alloc@std@@8      00460f2c     protect.obj
 0002:00009f38       ??_R1A@?0A@EA@exception@std@@8 00460f38     protect.obj
 0002:00009f54       ??_R1A@?0A@EA@bad_alloc@std@@8 00460f54     protect.obj
 0002:00009f70       ??_R2exception@std@@8      00460f70     protect.obj
 0002:00009f78       ??_R3exception@std@@8      00460f78     protect.obj
 0002:00009f88       ??_R4bad_alloc@std@@6B@    00460f88     protect.obj
 0002:00009f9c       ??_R3bad_array_new_length@std@@8 00460f9c     protect.obj
 0002:00009fac       ??_R3bad_alloc@std@@8      00460fac     protect.obj
 0002:00009fbc       ??_R4bad_array_new_length@std@@6B@ 00460fbc     protect.obj
 0002:00009fd0       ??_R1A@?0A@EA@bad_array_new_length@std@@8 00460fd0     protect.obj
 0002:00009fec       ??_R3?$_Func_base@V?$basic_string@DU?$char_traits@D@std@@V?$allocator@D@2@@std@@ABV12@@std@@8 00460fec     systeminfo.obj
 0002:00009ffc       ??_R3?$basic_istream@DU?$char_traits@D@std@@@std@@8 00460ffc     systeminfo.obj
 0002:0000a00c       ??_R3?$basic_iostream@DU?$char_traits@D@std@@@std@@8 0046100c     systeminfo.obj
 0002:0000a01c       ??_R1A@?0A@EA@?$basic_istream@DU?$char_traits@D@std@@@std@@8 0046101c     systeminfo.obj
 0002:0000a038       ??_R1A@?0A@EA@?$_Func_base@V?$basic_string@DU?$char_traits@D@std@@V?$allocator@D@2@@std@@ABV12@@std@@8 00461038     systeminfo.obj
 0002:0000a054       ??_R1A@?0A@EA@bad_cast@std@@8 00461054     systeminfo.obj
 0002:0000a070       ??_R3?$basic_ifstream@DU?$char_traits@D@std@@@std@@8 00461070     systeminfo.obj
 0002:0000a080       ??_R2?$basic_stringbuf@DU?$char_traits@D@std@@V?$allocator@D@2@@std@@8 00461080     systeminfo.obj
 0002:0000a08c       ??_R1A@?0A@EA@?$basic_ifstream@DU?$char_traits@D@std@@@std@@8 0046108c     systeminfo.obj
 0002:0000a0a8       ??_R17A@3EA@?$_Iosb@H@std@@8 004610a8     systeminfo.obj
 0002:0000a0c4       ??_R1A@?0A@EA@?$basic_stringstream@DU?$char_traits@D@std@@V?$allocator@D@2@@std@@8 004610c4     systeminfo.obj
 0002:0000a0e0       ??_R1A@?0A@EA@?$basic_streambuf@DU?$char_traits@D@std@@@std@@8 004610e0     systeminfo.obj
 0002:0000a0fc       ??_R2?$basic_istream@DU?$char_traits@D@std@@@std@@8 004610fc     systeminfo.obj
 0002:0000a110       ??_R3?$basic_stringbuf@DU?$char_traits@D@std@@V?$allocator@D@2@@std@@8 00461110     systeminfo.obj
 0002:0000a120       ??_R2bad_cast@std@@8       00461120     systeminfo.obj
 0002:0000a12c       ??_R2?$basic_ostream@DU?$char_traits@D@std@@@std@@8 0046112c     systeminfo.obj
 0002:0000a140       ??_R3?$basic_ios@DU?$char_traits@D@std@@@std@@8 00461140     systeminfo.obj
 0002:0000a160       ??_R1BA@?0A@EA@?$basic_ostream@DU?$char_traits@D@std@@@std@@8 00461160     systeminfo.obj
 0002:0000a17c       ??_R4?$basic_ifstream@DU?$char_traits@D@std@@@std@@6B@ 0046117c     systeminfo.obj
 0002:0000a190       ??_R1A@?0A@EA@ios_base@std@@8 00461190     systeminfo.obj
 0002:0000a1ac       ??_R1A@?0A@EA@?$basic_ostream@DU?$char_traits@D@std@@@std@@8 004611ac     systeminfo.obj
 0002:0000a1c8       ??_R4?$basic_filebuf@DU?$char_traits@D@std@@@std@@6B@ 004611c8     systeminfo.obj
 0002:0000a1dc       ??_R2?$basic_streambuf@DU?$char_traits@D@std@@@std@@8 004611dc     systeminfo.obj
 0002:0000a1e4       ??_R1A@?0A@EA@?$_Iosb@H@std@@8 004611e4     systeminfo.obj
 0002:0000a200       ??_R1A@?0A@EA@?$basic_stringbuf@DU?$char_traits@D@std@@V?$allocator@D@2@@std@@8 00461200     systeminfo.obj
 0002:0000a21c       ??_R2?$basic_iostream@DU?$char_traits@D@std@@@std@@8 0046121c     systeminfo.obj
 0002:0000a244       ??_R3bad_cast@std@@8       00461244     systeminfo.obj
 0002:0000a254       ??_R2?$basic_stringstream@DU?$char_traits@D@std@@V?$allocator@D@2@@std@@8 00461254     systeminfo.obj
 0002:0000a280       ??_R4bad_cast@std@@6B@     00461280     systeminfo.obj
 0002:0000a294       ??_R4?$basic_stringbuf@DU?$char_traits@D@std@@V?$allocator@D@2@@std@@6B@ 00461294     systeminfo.obj
 0002:0000a2a8       ??_R4?$basic_stringstream@DU?$char_traits@D@std@@V?$allocator@D@2@@std@@6B@ 004612a8     systeminfo.obj
 0002:0000a2bc       ??_R1A@?0A@EA@?$basic_filebuf@DU?$char_traits@D@std@@@std@@8 004612bc     systeminfo.obj
 0002:0000a2d8       ??_R1A@A@3FA@?$basic_ios@DU?$char_traits@D@std@@@std@@8 004612d8     systeminfo.obj
 0002:0000a2f4       ??_R3?$basic_filebuf@DU?$char_traits@D@std@@@std@@8 004612f4     systeminfo.obj
 0002:0000a304       ??_R2ios_base@std@@8       00461304     systeminfo.obj
 0002:0000a310       ??_R3?$basic_ostream@DU?$char_traits@D@std@@@std@@8 00461310     systeminfo.obj
 0002:0000a320       ??_R1A@?0A@EA@?$basic_iostream@DU?$char_traits@D@std@@@std@@8 00461320     systeminfo.obj
 0002:0000a350       ??_R3ios_base@std@@8       00461350     systeminfo.obj
 0002:0000a360       ??_R2?$basic_filebuf@DU?$char_traits@D@std@@@std@@8 00461360     systeminfo.obj
 0002:0000a36c       ??_R3?$basic_streambuf@DU?$char_traits@D@std@@@std@@8 0046136c     systeminfo.obj
 0002:0000a37c       ??_R3?$basic_stringstream@DU?$char_traits@D@std@@V?$allocator@D@2@@std@@8 0046137c     systeminfo.obj
 0002:0000a38c       ??_R2?$_Iosb@H@std@@8      0046138c     systeminfo.obj
 0002:0000a3a0       ??_R1A@A@3EA@ios_base@std@@8 004613a0     systeminfo.obj
 0002:0000a3bc       ??_R1A@?0A@EA@?$basic_ios@DU?$char_traits@D@std@@@std@@8 004613bc     systeminfo.obj
 0002:0000a3d8       ??_R2?$basic_ifstream@DU?$char_traits@D@std@@@std@@8 004613d8     systeminfo.obj
 0002:0000a3f0       ??_R3?$_Iosb@H@std@@8      004613f0     systeminfo.obj
 0002:0000a41c       ??_R17?0A@EA@?$_Iosb@H@std@@8 0046141c     systeminfo.obj
 0002:0000a438       ??_R2?$_Func_base@V?$basic_string@DU?$char_traits@D@std@@V?$allocator@D@2@@std@@ABV12@@std@@8 00461438     systeminfo.obj
 0002:0000a440       ??_R2?$basic_ios@DU?$char_traits@D@std@@@std@@8 00461440     systeminfo.obj
 0002:0000a450       ___safe_se_handler_table   00461450     <linker-defined>
 0002:0000a800       ___rtc_iaa                 00461800     MSVCRT:initsect.obj
 0002:0000a804       ___rtc_izz                 00461804     MSVCRT:initsect.obj
 0002:0000a808       ___rtc_taa                 00461808     MSVCRT:initsect.obj
 0002:0000a80c       ___rtc_tzz                 0046180c     MSVCRT:initsect.obj
 0002:0000ba74       __TI2?AVbad_alloc@std@@    00462a74     MSVCRT:throw_bad_alloc.obj
 0002:0000ba84       __CTA2?AVbad_alloc@std@@   00462a84     MSVCRT:throw_bad_alloc.obj
 0002:0000ba90       __CTA3?AVbad_array_new_length@std@@ 00462a90     protect.obj
 0002:0000baa0       __CT??_R0?AVbad_alloc@std@@@8??0bad_alloc@std@@QAE@ABV01@@Z12 00462aa0     protect.obj
 0002:0000babc       __CT??_R0?AVexception@std@@@8??0exception@std@@QAE@ABV01@@Z12 00462abc     protect.obj
 0002:0000bad8       __TI3?AVbad_array_new_length@std@@ 00462ad8     protect.obj
 0002:0000bae8       __CT??_R0?AVbad_array_new_length@std@@@8??0bad_array_new_length@std@@QAE@ABV01@@Z12 00462ae8     protect.obj
 0002:0000bb04       __CTA2?AVbad_cast@std@@    00462b04     systeminfo.obj
 0002:0000bb10       __CT??_R0?AVbad_cast@std@@@8??0bad_cast@std@@QAE@ABV01@@Z12 00462b10     systeminfo.obj
 0002:0000bb2c       __TI2?AVbad_cast@std@@     00462b2c     systeminfo.obj
 0002:0000bb3c       __IMPORT_DESCRIPTOR_KERNEL32 00462b3c     kernel32:KERNEL32.dll
 0002:0000bb50       __IMPORT_DESCRIPTOR_USER32 00462b50     user32:USER32.dll
 0002:0000bb64       __IMPORT_DESCRIPTOR_GDI32  00462b64     gdi32:GDI32.dll
 0002:0000bb78       __IMPORT_DESCRIPTOR_ADVAPI32 00462b78     advapi32:ADVAPI32.dll
 0002:0000bb8c       __IMPORT_DESCRIPTOR_MSVCP140 00462b8c     msvcprt:MSVCP140.dll
 0002:0000bba0       __IMPORT_DESCRIPTOR_d3d9   00462ba0     d3d9:d3d9.dll
 0002:0000bbb4       __IMPORT_DESCRIPTOR_d3dx9_43 00462bb4     d3dx9:d3dx9_43.dll
 0002:0000bbc8       __IMPORT_DESCRIPTOR_WS2_32 00462bc8     ws2_32:WS2_32.dll
 0002:0000bbdc       __IMPORT_DESCRIPTOR_WLDAP32 00462bdc     wldap32:WLDAP32.dll
 0002:0000bbf0       __IMPORT_DESCRIPTOR_VCRUNTIME140 00462bf0     vcruntime:VCRUNTIME140.dll
 0002:0000bc04       __IMPORT_DESCRIPTOR_api-ms-win-crt-stdio-l1-1-0 00462c04     ucrt:api-ms-win-crt-stdio-l1-1-0.dll
 0002:0000bc18       __IMPORT_DESCRIPTOR_api-ms-win-crt-runtime-l1-1-0 00462c18     ucrt:api-ms-win-crt-runtime-l1-1-0.dll
 0002:0000bc2c       __IMPORT_DESCRIPTOR_api-ms-win-crt-convert-l1-1-0 00462c2c     ucrt:api-ms-win-crt-convert-l1-1-0.dll
 0002:0000bc40       __IMPORT_DESCRIPTOR_api-ms-win-crt-time-l1-1-0 00462c40     ucrt:api-ms-win-crt-time-l1-1-0.dll
 0002:0000bc54       __IMPORT_DESCRIPTOR_api-ms-win-crt-filesystem-l1-1-0 00462c54     ucrt:api-ms-win-crt-filesystem-l1-1-0.dll
 0002:0000bc68       __IMPORT_DESCRIPTOR_api-ms-win-crt-heap-l1-1-0 00462c68     ucrt:api-ms-win-crt-heap-l1-1-0.dll
 0002:0000bc7c       __IMPORT_DESCRIPTOR_api-ms-win-crt-math-l1-1-0 00462c7c     ucrt:api-ms-win-crt-math-l1-1-0.dll
 0002:0000bc90       __IMPORT_DESCRIPTOR_api-ms-win-crt-locale-l1-1-0 00462c90     ucrt:api-ms-win-crt-locale-l1-1-0.dll
 0002:0000bca4       __IMPORT_DESCRIPTOR_api-ms-win-crt-string-l1-1-0 00462ca4     ucrt:api-ms-win-crt-string-l1-1-0.dll
 0002:0000bcb8       __IMPORT_DESCRIPTOR_api-ms-win-crt-utility-l1-1-0 00462cb8     ucrt:api-ms-win-crt-utility-l1-1-0.dll
 0002:0000bccc       __IMPORT_DESCRIPTOR_api-ms-win-crt-multibyte-l1-1-0 00462ccc     ucrt:api-ms-win-crt-multibyte-l1-1-0.dll
 0002:0000bce0       __NULL_IMPORT_DESCRIPTOR   00462ce0     kernel32:KERNEL32.dll
 0003:00000000       ___scrt_native_dllmain_reason 00465000     MSVCRT:utility.obj
 0003:00000004       ___security_cookie_complement 00465004     MSVCRT:gs_cookie.obj
 0003:00000008       ___security_cookie         00465008     MSVCRT:gs_cookie.obj
 0003:00000010       ___isa_enabled             00465010     MSVCRT:cpu_disp.obj
 0003:00000014       ___scrt_default_matherr    00465014     MSVCRT:matherr.obj
 0003:00000018       _Curl_cmalloc              00465018     libcurl:easy.obj
 0003:0000001c       _Curl_cfree                0046501c     libcurl:easy.obj
 0003:00000020       _Curl_crealloc             00465020     libcurl:easy.obj
 0003:00000024       _Curl_cstrdup              00465024     libcurl:easy.obj
 0003:00000028       _Curl_ccalloc              00465028     libcurl:easy.obj
 0003:00000040       __fltused                  00465040     MSVCRT:fltused.obj
 0003:00000050       ___scrt_ucrt_dll_is_in_use 00465050     MSVCRT:ucrt_stubs.obj
 0003:00000054       ?CLOCK_SPEED_IDENTIFIER_STRING@RAMInfo@@0V?$basic_string@DU?$char_traits@D@std@@V?$allocator@D@2@@std@@B 00465054     systeminfo.obj
 0003:0000006c       ?NUMBER_OF_CORES_IDENTIFIER_STRING@CPUInfo@@0V?$basic_string@DU?$char_traits@D@std@@V?$allocator@D@2@@std@@B 0046506c     systeminfo.obj
 0003:00000084       ?VERSION_IDENTIFIER_STRING@OSInfo@@0V?$basic_string@DU?$char_traits@D@std@@V?$allocator@D@2@@std@@B 00465084     systeminfo.obj
 0003:0000009c       ?TOTAL_VISIBLE_MEMORY_SIZE_IDENTIFIER_STRING@OSInfo@@0V?$basic_string@DU?$char_traits@D@std@@V?$allocator@D@2@@std@@B 0046509c     systeminfo.obj
 0003:000000b4       ?MOTHERBOARD_INFO_END_IDENTIFIER_STRING@MotherboardInfoDelegate@@0V?$basic_string@DU?$char_traits@D@std@@V?$allocator@D@2@@std@@B 004650b4     systeminfo.obj
 0003:000000cc       ?ADAPTER_RAM_IDENTIFIER_STRING@GPUInfo@@0V?$basic_string@DU?$char_traits@D@std@@V?$allocator@D@2@@std@@B 004650cc     systeminfo.obj
 0003:000000e4       ?CURRENT_DATE_TIME_QUERY_STRING@OSInfo@@0V?$basic_string@DU?$char_traits@D@std@@V?$allocator@D@2@@std@@B 004650e4     systeminfo.obj
 0003:000000fc       ?FORM_FACTOR_IDENTIFIER_STRING@RAMInfo@@0V?$basic_string@DU?$char_traits@D@std@@V?$allocator@D@2@@std@@B 004650fc     systeminfo.obj
 0003:00000114       ?RAM_INFO_END_IDENTIFIER_STRING@RAMInfoDelegate@@0V?$basic_string@DU?$char_traits@D@std@@V?$allocator@D@2@@std@@B 00465114     systeminfo.obj
 0003:0000012c       ?RAM_INSTANCE_QUERY_STRING@RAMInfoDelegate@@0V?$basic_string@DU?$char_traits@D@std@@V?$allocator@D@2@@std@@B 0046512c     systeminfo.obj
 0003:00000144       ?VIDEO_MODE_DESCRIPTION_IDENTIFIER_STRING@GPUInfo@@0V?$basic_string@DU?$char_traits@D@std@@V?$allocator@D@2@@std@@B 00465144     systeminfo.obj
 0003:0000015c       ?SERIAL_NUMBER_IDENTIFIER_STRING@RAMInfo@@0V?$basic_string@DU?$char_traits@D@std@@V?$allocator@D@2@@std@@B 0046515c     systeminfo.obj
 0003:00000174       ?USED_SPACE_IN_PAGING_FILE_QUERY_STRING@OSInfo@@0V?$basic_string@DU?$char_traits@D@std@@V?$allocator@D@2@@std@@B 00465174     systeminfo.obj
 0003:0000018c       ?FREE_PHYSICAL_MEMORY_QUERY_STRING@OSInfo@@0V?$basic_string@DU?$char_traits@D@std@@V?$allocator@D@2@@std@@B 0046518c     systeminfo.obj
 0003:000001a4       ?CAPTION_INDENTIFIER_STRING@OSInfo@@0V?$basic_string@DU?$char_traits@D@std@@V?$allocator@D@2@@std@@B 004651a4     systeminfo.obj
 0003:000001bc       ?CPU_INSTANCE_QUERY_STRING@CPUInfoDelegate@@0V?$basic_string@DU?$char_traits@D@std@@V?$allocator@D@2@@std@@B 004651bc     systeminfo.obj
 0003:000001d4       ?LAST_BOOT_UP_TIME_IDENTIFIER_STRING@OSInfo@@0V?$basic_string@DU?$char_traits@D@std@@V?$allocator@D@2@@std@@B 004651d4     systeminfo.obj
 0003:000001ec       ?L2_CACHE_SIZE_IDENTIFIER_STRING@CPUInfo@@0V?$basic_string@DU?$char_traits@D@std@@V?$allocator@D@2@@std@@B 004651ec     systeminfo.obj
 0003:00000204       ?CPU_INFO_QUERY_STRING@CPUInfoDelegate@@0V?$basic_string@DU?$char_traits@D@std@@V?$allocator@D@2@@std@@B 00465204     systeminfo.obj
 0003:0000021c       ?FREE_SPACE_IN_PAGING_FILES_IDENTIFIER_STRING@OSInfo@@0V?$basic_string@DU?$char_traits@D@std@@V?$allocator@D@2@@std@@B 0046521c     systeminfo.obj
 0003:00000234       ?MANUFACTURER_IDENTIFIER_STRING@MotherboardInfo@@0V?$basic_string@DU?$char_traits@D@std@@V?$allocator@D@2@@std@@B 00465234     systeminfo.obj
 0003:0000024c       ?MANUFACTURER_IDENTIFIER_STRING@RAMInfo@@0V?$basic_string@DU?$char_traits@D@std@@V?$allocator@D@2@@std@@B 0046524c     systeminfo.obj
 0003:00000264       ?CHIPSET_QUERY_STRING@MotherboardInfo@@0V?$basic_string@DU?$char_traits@D@std@@V?$allocator@D@2@@std@@B 00465264     systeminfo.obj
 0003:0000027c       ?FREE_VIRTUAL_MEMORY_IDENTIFIER_STRING@OSInfo@@0V?$basic_string@DU?$char_traits@D@std@@V?$allocator@D@2@@std@@B 0046527c     systeminfo.obj
 0003:00000294       ?FREE_SPACE_IN_PAGING_FILES_QUERY_STRING@OSInfo@@0V?$basic_string@DU?$char_traits@D@std@@V?$allocator@D@2@@std@@B 00465294     systeminfo.obj
 0003:000002ac       ?TEMPERATURE_QUERY_STRING@CPUInfo@@0V?$basic_string@DU?$char_traits@D@std@@V?$allocator@D@2@@std@@B 004652ac     systeminfo.obj
 0003:000002c4       ?VIDEO_MEMORY_TYPE_IDENTIFIER_STRING@GPUInfo@@0V?$basic_string@DU?$char_traits@D@std@@V?$allocator@D@2@@std@@B 004652c4     systeminfo.obj
 0003:000002dc       ?CHIPSET_END_IDENTIFIER_STRING@MotherboardInfo@@0V?$basic_string@DU?$char_traits@D@std@@V?$allocator@D@2@@std@@B 004652dc     systeminfo.obj
 0003:000002f4       ?BACKUP_CLOCK_SPEED_IDENTIFIER_STRING@RAMInfo@@0V?$basic_string@DU?$char_traits@D@std@@V?$allocator@D@2@@std@@B 004652f4     systeminfo.obj
 0003:0000030c       ?ARCHITECTURE_IDENTIFIER_STRING@CPUInfo@@0V?$basic_string@DU?$char_traits@D@std@@V?$allocator@D@2@@std@@B 0046530c     systeminfo.obj
 0003:00000324       ?USED_SPACE_IN_PAGING_FILE_IDENTIFIER_STRING@OSInfo@@0V?$basic_string@DU?$char_traits@D@std@@V?$allocator@D@2@@std@@B 00465324     systeminfo.obj
 0003:0000033c       ?SERIAL_NUMBER_IDENTIFIER_STRING@OSInfo@@0V?$basic_string@DU?$char_traits@D@std@@V?$allocator@D@2@@std@@B 0046533c     systeminfo.obj
 0003:00000354       ?MOTHERBOARD_INSTANCE_QUERY_STRING@MotherboardInfoDelegate@@0V?$basic_string@DU?$char_traits@D@std@@V?$allocator@D@2@@std@@B 00465354     systeminfo.obj
 0003:0000036c       ?NAME_IDENTIFIER_STRING@GPUInfo@@0V?$basic_string@DU?$char_traits@D@std@@V?$allocator@D@2@@std@@B 0046536c     systeminfo.obj
 0003:00000384       ?MANUFACTURER_IDENTIFIER_STRING@GPUInfo@@0V?$basic_string@DU?$char_traits@D@std@@V?$allocator@D@2@@std@@B 00465384     systeminfo.obj
 0003:0000039c       ?MEMORY_TYPE_IDENTIFIER_STRING@RAMInfo@@0V?$basic_string@DU?$char_traits@D@std@@V?$allocator@D@2@@std@@B 0046539c     systeminfo.obj
 0003:000003b4       ?CAPACITY_IDENTIFIER_STRING@RAMInfo@@0V?$basic_string@DU?$char_traits@D@std@@V?$allocator@D@2@@std@@B 004653b4     systeminfo.obj
 0003:000003cc       ?BOOT_DEVICE_IDENTIFIER_STRING@OSInfo@@0V?$basic_string@DU?$char_traits@D@std@@V?$allocator@D@2@@std@@B 004653cc     systeminfo.obj
 0003:000003e4       ?ARCHITECTURE_IDENTIFIER_STRING@OSInfo@@0V?$basic_string@DU?$char_traits@D@std@@V?$allocator@D@2@@std@@B 004653e4     systeminfo.obj
 0003:000003fc       ?INSTALL_DATE_IDENTIFIER_STRING@OSInfo@@0V?$basic_string@DU?$char_traits@D@std@@V?$allocator@D@2@@std@@B 004653fc     systeminfo.obj
 0003:00000414       ?AMD_IDENTIFIER_STRING@GPUInfo@@0V?$basic_string@DU?$char_traits@D@std@@V?$allocator@D@2@@std@@B 00465414     systeminfo.obj
 0003:0000042c       ?NVIDIA_IDENTIFIER_STRING@GPUInfo@@0V?$basic_string@DU?$char_traits@D@std@@V?$allocator@D@2@@std@@B 0046542c     systeminfo.obj
 0003:00000444       ?VIDEO_PROCESSOR_IDENTIFIER_STRING@GPUInfo@@0V?$basic_string@DU?$char_traits@D@std@@V?$allocator@D@2@@std@@B 00465444     systeminfo.obj
 0003:0000045c       ?NAME_IDENTIFIER_STRING@MotherboardInfo@@0V?$basic_string@DU?$char_traits@D@std@@V?$allocator@D@2@@std@@B 0046545c     systeminfo.obj
 0003:00000474       ?RAM_INFO_QUERY_STRING@RAMInfoDelegate@@0V?$basic_string@DU?$char_traits@D@std@@V?$allocator@D@2@@std@@B 00465474     systeminfo.obj
 0003:0000048c       ?MANUFACTURER_IDENTIFIER_STRING@OSInfo@@0V?$basic_string@DU?$char_traits@D@std@@V?$allocator@D@2@@std@@B 0046548c     systeminfo.obj
 0003:000004a4       ?PART_NUMBER_IDENTIFIER_STRING@RAMInfo@@0V?$basic_string@DU?$char_traits@D@std@@V?$allocator@D@2@@std@@B 004654a4     systeminfo.obj
 0003:000004bc       ?GPU_INFO_END_IDENTIFIER_STRING@GPUInfoDelegate@@0V?$basic_string@DU?$char_traits@D@std@@V?$allocator@D@2@@std@@B 004654bc     systeminfo.obj
 0003:000004d4       ?VERSION_IDENTIFIER_STRING@MotherboardInfo@@0V?$basic_string@DU?$char_traits@D@std@@V?$allocator@D@2@@std@@B 004654d4     systeminfo.obj
 0003:000004ec       ?NAME_IDENTIFIER_STRING@CPUInfo@@0V?$basic_string@DU?$char_traits@D@std@@V?$allocator@D@2@@std@@B 004654ec     systeminfo.obj
 0003:00000504       ?CURRENT_USER_IDENTIFIER_STRING@OSInfo@@0V?$basic_string@DU?$char_traits@D@std@@V?$allocator@D@2@@std@@B 00465504     systeminfo.obj
 0003:0000051c       ?OS_INSTANCE_QUERY_STRING@OSInfoDelegate@@0V?$basic_string@DU?$char_traits@D@std@@V?$allocator@D@2@@std@@B 0046551c     systeminfo.obj
 0003:00000534       ?MANUFACTURER_IDENTIFIER_STRING@CPUInfo@@0V?$basic_string@DU?$char_traits@D@std@@V?$allocator@D@2@@std@@B 00465534     systeminfo.obj
 0003:0000054c       ?FREE_PHYSICAL_MEMORY_IDENTIFIER_STRING@OSInfo@@0V?$basic_string@DU?$char_traits@D@std@@V?$allocator@D@2@@std@@B 0046554c     systeminfo.obj
 0003:00000564       ?CLOCK_SPEED_QUERY_STRING@CPUInfo@@0V?$basic_string@DU?$char_traits@D@std@@V?$allocator@D@2@@std@@B 00465564     systeminfo.obj
 0003:0000057c       ?TEMPERATURE_ERROR_IDENTIFIER_STRING@CPUInfo@@0V?$basic_string@DU?$char_traits@D@std@@V?$allocator@D@2@@std@@B 0046557c     systeminfo.obj
 0003:00000594       ?REFRESH_RATE_IDENTIFIER_STRING@GPUInfo@@0V?$basic_string@DU?$char_traits@D@std@@V?$allocator@D@2@@std@@B 00465594     systeminfo.obj
 0003:000005ac       ?TOTAL_SWAP_SIZE_IDENTIFIER_STRING@OSInfo@@0V?$basic_string@DU?$char_traits@D@std@@V?$allocator@D@2@@std@@B 004655ac     systeminfo.obj
 0003:000005c4       ?CHIPSET_IDENTIFIER_STRING@MotherboardInfo@@0V?$basic_string@DU?$char_traits@D@std@@V?$allocator@D@2@@std@@B 004655c4     systeminfo.obj
 0003:000005dc       ?CAPTION_IDENTIFIER_STRING@GPUInfo@@0V?$basic_string@DU?$char_traits@D@std@@V?$allocator@D@2@@std@@B 004655dc     systeminfo.obj
 0003:000005f4       ?BUILD_NUMBER_IDENTIFIER_STRING@OSInfo@@0V?$basic_string@DU?$char_traits@D@std@@V?$allocator@D@2@@std@@B 004655f4     systeminfo.obj
 0003:0000060c       ?VIDEO_ARCHITECTURE_IDENTIFIER_STRING@GPUInfo@@0V?$basic_string@DU?$char_traits@D@std@@V?$allocator@D@2@@std@@B 0046560c     systeminfo.obj
 0003:00000624       ?CPU_INFO_END_IDENTIFIER_STRING@CPUInfoDelegate@@0V?$basic_string@DU?$char_traits@D@std@@V?$allocator@D@2@@std@@B 00465624     systeminfo.obj
 0003:0000063c       ?GPU_INFO_QUERY_STRING@GPUInfoDelegate@@0V?$basic_string@DU?$char_traits@D@std@@V?$allocator@D@2@@std@@B 0046563c     systeminfo.obj
 0003:00000654       ?TOTAL_VIRTUAL_MEMORY_SIZE_IDENTIFIER_STRING@OSInfo@@0V?$basic_string@DU?$char_traits@D@std@@V?$allocator@D@2@@std@@B 00465654     systeminfo.obj
 0003:0000066c       ?NAME_IDENTIFIER_STRING@OSInfo@@0V?$basic_string@DU?$char_traits@D@std@@V?$allocator@D@2@@std@@B 0046566c     systeminfo.obj
 0003:00000684       ?OS_INFO_END_IDENTIFIER_STRING@OSInfoDelegate@@0V?$basic_string@DU?$char_traits@D@std@@V?$allocator@D@2@@std@@B 00465684     systeminfo.obj
 0003:0000069c       ?FREE_VIRTUAL_MEMORY_QUERY_STRING@OSInfo@@0V?$basic_string@DU?$char_traits@D@std@@V?$allocator@D@2@@std@@B 0046569c     systeminfo.obj
 0003:000006b4       ?INTEL_IDENTIFIER_STRING@GPUInfo@@0V?$basic_string@DU?$char_traits@D@std@@V?$allocator@D@2@@std@@B 004656b4     systeminfo.obj
 0003:000006cc       ?DRIVER_VERSION_IDENTIFIER_STRING@GPUInfo@@0V?$basic_string@DU?$char_traits@D@std@@V?$allocator@D@2@@std@@B 004656cc     systeminfo.obj
 0003:000006e4       ?CURRENT_CLOCK_SPEED_IDENTIFIER_STRING@CPUInfo@@0V?$basic_string@DU?$char_traits@D@std@@V?$allocator@D@2@@std@@B 004656e4     systeminfo.obj
 0003:000006fc       ?OS_INFO_QUERY_STRING@OSInfoDelegate@@0V?$basic_string@DU?$char_traits@D@std@@V?$allocator@D@2@@std@@B 004656fc     systeminfo.obj
 0003:00000714       ?MOTHERBOARD_INFO_QUERY_STRING@MotherboardInfoDelegate@@0V?$basic_string@DU?$char_traits@D@std@@V?$allocator@D@2@@std@@B 00465714     systeminfo.obj
 0003:0000072c       ?SERIAL_NUMBER_IDENTIFIER_STRING@MotherboardInfo@@0V?$basic_string@DU?$char_traits@D@std@@V?$allocator@D@2@@std@@B 0046572c     systeminfo.obj
 0003:00000744       ?NAME_IDENTIFIER_STRING@RAMInfo@@0V?$basic_string@DU?$char_traits@D@std@@V?$allocator@D@2@@std@@B 00465744     systeminfo.obj
 0003:0000075c       ?GPU_INSTANCE_QUERY_STRING@GPUInfoDelegate@@0V?$basic_string@DU?$char_traits@D@std@@V?$allocator@D@2@@std@@B 0046575c     systeminfo.obj
 0003:00000774       ?CURRENT_DATE_TIME_IDENTIFIER_STRING@OSInfo@@0V?$basic_string@DU?$char_traits@D@std@@V?$allocator@D@2@@std@@B 00465774     systeminfo.obj
 0003:0000078c       ?L3_CACHE_SIZE_IDENTIFIER_STRING@CPUInfo@@0V?$basic_string@DU?$char_traits@D@std@@V?$allocator@D@2@@std@@B 0046578c     systeminfo.obj
 0003:000007a4       ??_R0?AVbad_alloc@std@@@8  004657a4     protect.obj
 0003:000007c0       ??_R0?AVexception@std@@@8  004657c0     protect.obj
 0003:000007dc       ??_R0?AVbad_array_new_length@std@@@8 004657dc     protect.obj
 0003:00000804       ??_R0?AVbad_cast@std@@@8   00465804     systeminfo.obj
 0003:00000858       ??_R0?AVtype_info@@@8      00465858     MSVCRT:std_type_info_static.obj
 0003:00000870       ??_R0?AV?$basic_stringstream@DU?$char_traits@D@std@@V?$allocator@D@2@@std@@@8 00465870     systeminfo.obj
 0003:000008c0       ??_R0?AV?$basic_filebuf@DU?$char_traits@D@std@@@std@@@8 004658c0     systeminfo.obj
 0003:000008fc       ??_R0?AV?$basic_ifstream@DU?$char_traits@D@std@@@std@@@8 004658fc     systeminfo.obj
 0003:00000938       ??_R0?AV?$basic_stringbuf@DU?$char_traits@D@std@@V?$allocator@D@2@@std@@@8 00465938     systeminfo.obj
 0003:00000988       ??_R0?AVios_base@std@@@8   00465988     systeminfo.obj
 0003:000009a4       ??_R0?AV?$basic_iostream@DU?$char_traits@D@std@@@std@@@8 004659a4     systeminfo.obj
 0003:000009e0       ??_R0?AV?$_Func_base@V?$basic_string@DU?$char_traits@D@std@@V?$allocator@D@2@@std@@ABV12@@std@@@8 004659e0     systeminfo.obj
 0003:00000ae4       ??_R0?AV?$_Iosb@H@std@@@8  00465ae4     systeminfo.obj
 0003:00000b00       ??_R0?AV?$basic_streambuf@DU?$char_traits@D@std@@@std@@@8 00465b00     systeminfo.obj
 0003:00000b3c       ??_R0?AV?$basic_istream@DU?$char_traits@D@std@@@std@@@8 00465b3c     systeminfo.obj
 0003:00000b78       ??_R0?AV?$basic_ios@DU?$char_traits@D@std@@@std@@@8 00465b78     systeminfo.obj
 0003:00000bb0       ??_R0?AV?$basic_ostream@DU?$char_traits@D@std@@@std@@@8 00465bb0     systeminfo.obj
 0003:00000bf8       ___scrt_current_native_startup_state 00465bf8     MSVCRT:utility.obj
 0003:00000bfc       ___scrt_native_startup_lock 00465bfc     MSVCRT:utility.obj
 0003:00000c1c       ___castguard_check_failure_os_handled_fptr 00465c1c     MSVCRT:guard_support.obj
 0003:00000f3c       ___isa_available           00465f3c     MSVCRT:cpu_disp.obj
 0003:00000f40       ___favor                   00465f40     MSVCRT:cpu_disp.obj
 0003:00000f44       ___scrt_debugger_hook_flag 00465f44     MSVCRT:utility_desktop.obj
 0003:00000f48       ?__type_info_root_node@@3U__type_info_node@@A 00465f48     MSVCRT:tncleanup.obj
 0003:00000f50       ?_OptionsStorage@?1??__local_stdio_scanf_options@@9@4_KA 00465f50     MSVCRT:default_local_stdio_options.obj
 0003:00000f74       _Curl_if_nametoindex       00465f74     libcurl:system_win32.obj
 0003:00000fa0       ?Form@@3UtagRECT@@A        00465fa0     Main.obj
 0003:00000fb0       ?g_hWnd@@3PAUHWND__@@A     00465fb0     Main.obj
 0003:00000fb4       ?g_d3dpp@@3U_D3DPRESENT_PARAMETERS_@@A 00465fb4     Main.obj
 0003:00000fec       ?g_pd3dDevice@@3PAUIDirect3DDevice9@@A 00465fec     Main.obj
 0003:00000ff0       ?g_line@@3PAUID3DXLine@@A  00465ff0     Main.obj
 0003:00000ff4       ?g_pd3d@@3PAUIDirect3D9@@A 00465ff4     Main.obj
 0003:00000ff8       ?g_hProcess@@3PAXA         00465ff8     Main.obj
 0003:00000ffc       ?screen_height@@3MA        00465ffc     Main.obj
 0003:00001000       ?screen_width@@3MA         00466000     Main.obj
 0003:00001004       ?g_game_dll_base@@3KA      00466004     Main.obj
 0003:00001008       ?g_hWarcraftWnd@@3PAUHWND__@@A 00466008     Main.obj
 0003:00001010       ?view_matrix@@3U_D3DXMATRIXA16@@A 00466010     Main.obj
 0003:00001050       ?view_matrix_temp@@3U_D3DXMATRIXA16@@A 00466050     Main.obj
 0003:00001090       ?_OptionsStorage@?1??__local_stdio_printf_options@@9@4_KA 00466090     protect.obj
 0003:00001098       ?_Psave@?$_Facetptr@V?$ctype@D@std@@@std@@2PBVfacet@locale@2@B 00466098     systeminfo.obj
 0003:0000109c       ?_Psave@?$_Facetptr@V?$codecvt@DDU_Mbstatet@@@std@@@std@@2PBVfacet@locale@2@B 0046609c     systeminfo.obj
 0003:000010a0       ?_Stinit@?1??_Init@?$basic_filebuf@DU?$char_traits@D@std@@@std@@IAEXPAU_iobuf@@W4_Initfl@23@@Z@4U_Mbstatet@@A 004660a0     systeminfo.obj
 0003:000010a8       ___dyn_tls_dtor_callback   004660a8     <common>
 0003:000010ac       ___dyn_tls_init_callback   004660ac     <common>
 0003:000010b0       _Curl_isVistaOrGreater     004660b0     <common>
 0003:000010b8       _Curl_freq                 004660b8     <common>

 entry point at        0001:000131fe

 Static symbols

 0001:00000000       ??__Eg_hWarcraftWnd@@YAXXZ 00401000 f   Main.obj
 0001:00000020       ??__E?TEMPERATURE_QUERY_STRING@CPUInfo@@0V?$basic_string@DU?$char_traits@D@std@@V?$allocator@D@2@@std@@B@@YAXXZ 00401020 f   systeminfo.obj
 0001:00000040       ??__E?TEMPERATURE_ERROR_IDENTIFIER_STRING@CPUInfo@@0V?$basic_string@DU?$char_traits@D@std@@V?$allocator@D@2@@std@@B@@YAXXZ 00401040 f   systeminfo.obj
 0001:00000060       ??__E?CLOCK_SPEED_QUERY_STRING@CPUInfo@@0V?$basic_string@DU?$char_traits@D@std@@V?$allocator@D@2@@std@@B@@YAXXZ 00401060 f   systeminfo.obj
 0001:00000080       ??__E?CURRENT_CLOCK_SPEED_IDENTIFIER_STRING@CPUInfo@@0V?$basic_string@DU?$char_traits@D@std@@V?$allocator@D@2@@std@@B@@YAXXZ 00401080 f   systeminfo.obj
 0001:000000a0       ??__E?NAME_IDENTIFIER_STRING@CPUInfo@@0V?$basic_string@DU?$char_traits@D@std@@V?$allocator@D@2@@std@@B@@YAXXZ 004010a0 f   systeminfo.obj
 0001:000000c0       ??__E?NUMBER_OF_CORES_IDENTIFIER_STRING@CPUInfo@@0V?$basic_string@DU?$char_traits@D@std@@V?$allocator@D@2@@std@@B@@YAXXZ 004010c0 f   systeminfo.obj
 0001:000000e0       ??__E?MANUFACTURER_IDENTIFIER_STRING@CPUInfo@@0V?$basic_string@DU?$char_traits@D@std@@V?$allocator@D@2@@std@@B@@YAXXZ 004010e0 f   systeminfo.obj
 0001:00000100       ??__E?ARCHITECTURE_IDENTIFIER_STRING@CPUInfo@@0V?$basic_string@DU?$char_traits@D@std@@V?$allocator@D@2@@std@@B@@YAXXZ 00401100 f   systeminfo.obj
 0001:00000120       ??__E?L2_CACHE_SIZE_IDENTIFIER_STRING@CPUInfo@@0V?$basic_string@DU?$char_traits@D@std@@V?$allocator@D@2@@std@@B@@YAXXZ 00401120 f   systeminfo.obj
 0001:00000140       ??__E?L3_CACHE_SIZE_IDENTIFIER_STRING@CPUInfo@@0V?$basic_string@DU?$char_traits@D@std@@V?$allocator@D@2@@std@@B@@YAXXZ 00401140 f   systeminfo.obj
 0001:00000160       ??__E?CPU_INFO_QUERY_STRING@CPUInfoDelegate@@0V?$basic_string@DU?$char_traits@D@std@@V?$allocator@D@2@@std@@B@@YAXXZ 00401160 f   systeminfo.obj
 0001:00000180       ??__E?CPU_INSTANCE_QUERY_STRING@CPUInfoDelegate@@0V?$basic_string@DU?$char_traits@D@std@@V?$allocator@D@2@@std@@B@@YAXXZ 00401180 f   systeminfo.obj
 0001:000001a0       ??__E?CPU_INFO_END_IDENTIFIER_STRING@CPUInfoDelegate@@0V?$basic_string@DU?$char_traits@D@std@@V?$allocator@D@2@@std@@B@@YAXXZ 004011a0 f   systeminfo.obj
 0001:000001c0       ??__E?NVIDIA_IDENTIFIER_STRING@GPUInfo@@0V?$basic_string@DU?$char_traits@D@std@@V?$allocator@D@2@@std@@B@@YAXXZ 004011c0 f   systeminfo.obj
 0001:000001e0       ??__E?INTEL_IDENTIFIER_STRING@GPUInfo@@0V?$basic_string@DU?$char_traits@D@std@@V?$allocator@D@2@@std@@B@@YAXXZ 004011e0 f   systeminfo.obj
 0001:00000200       ??__E?AMD_IDENTIFIER_STRING@GPUInfo@@0V?$basic_string@DU?$char_traits@D@std@@V?$allocator@D@2@@std@@B@@YAXXZ 00401200 f   systeminfo.obj
 0001:00000220       ??__E?NAME_IDENTIFIER_STRING@GPUInfo@@0V?$basic_string@DU?$char_traits@D@std@@V?$allocator@D@2@@std@@B@@YAXXZ 00401220 f   systeminfo.obj
 0001:00000240       ??__E?MANUFACTURER_IDENTIFIER_STRING@GPUInfo@@0V?$basic_string@DU?$char_traits@D@std@@V?$allocator@D@2@@std@@B@@YAXXZ 00401240 f   systeminfo.obj
 0001:00000260       ??__E?ADAPTER_RAM_IDENTIFIER_STRING@GPUInfo@@0V?$basic_string@DU?$char_traits@D@std@@V?$allocator@D@2@@std@@B@@YAXXZ 00401260 f   systeminfo.obj
 0001:00000280       ??__E?REFRESH_RATE_IDENTIFIER_STRING@GPUInfo@@0V?$basic_string@DU?$char_traits@D@std@@V?$allocator@D@2@@std@@B@@YAXXZ 00401280 f   systeminfo.obj
 0001:000002a0       ??__E?DRIVER_VERSION_IDENTIFIER_STRING@GPUInfo@@0V?$basic_string@DU?$char_traits@D@std@@V?$allocator@D@2@@std@@B@@YAXXZ 004012a0 f   systeminfo.obj
 0001:000002c0       ??__E?VIDEO_ARCHITECTURE_IDENTIFIER_STRING@GPUInfo@@0V?$basic_string@DU?$char_traits@D@std@@V?$allocator@D@2@@std@@B@@YAXXZ 004012c0 f   systeminfo.obj
 0001:000002e0       ??__E?VIDEO_MEMORY_TYPE_IDENTIFIER_STRING@GPUInfo@@0V?$basic_string@DU?$char_traits@D@std@@V?$allocator@D@2@@std@@B@@YAXXZ 004012e0 f   systeminfo.obj
 0001:00000300       ??__E?VIDEO_MODE_DESCRIPTION_IDENTIFIER_STRING@GPUInfo@@0V?$basic_string@DU?$char_traits@D@std@@V?$allocator@D@2@@std@@B@@YAXXZ 00401300 f   systeminfo.obj
 0001:00000320       ??__E?VIDEO_PROCESSOR_IDENTIFIER_STRING@GPUInfo@@0V?$basic_string@DU?$char_traits@D@std@@V?$allocator@D@2@@std@@B@@YAXXZ 00401320 f   systeminfo.obj
 0001:00000340       ??__E?CAPTION_IDENTIFIER_STRING@GPUInfo@@0V?$basic_string@DU?$char_traits@D@std@@V?$allocator@D@2@@std@@B@@YAXXZ 00401340 f   systeminfo.obj
 0001:00000360       ??__E?GPU_INFO_QUERY_STRING@GPUInfoDelegate@@0V?$basic_string@DU?$char_traits@D@std@@V?$allocator@D@2@@std@@B@@YAXXZ 00401360 f   systeminfo.obj
 0001:00000380       ??__E?GPU_INSTANCE_QUERY_STRING@GPUInfoDelegate@@0V?$basic_string@DU?$char_traits@D@std@@V?$allocator@D@2@@std@@B@@YAXXZ 00401380 f   systeminfo.obj
 0001:000003a0       ??__E?GPU_INFO_END_IDENTIFIER_STRING@GPUInfoDelegate@@0V?$basic_string@DU?$char_traits@D@std@@V?$allocator@D@2@@std@@B@@YAXXZ 004013a0 f   systeminfo.obj
 0001:000003c0       ??__E?CHIPSET_QUERY_STRING@MotherboardInfo@@0V?$basic_string@DU?$char_traits@D@std@@V?$allocator@D@2@@std@@B@@YAXXZ 004013c0 f   systeminfo.obj
 0001:000003e0       ??__E?NAME_IDENTIFIER_STRING@MotherboardInfo@@0V?$basic_string@DU?$char_traits@D@std@@V?$allocator@D@2@@std@@B@@YAXXZ 004013e0 f   systeminfo.obj
 0001:00000400       ??__E?MANUFACTURER_IDENTIFIER_STRING@MotherboardInfo@@0V?$basic_string@DU?$char_traits@D@std@@V?$allocator@D@2@@std@@B@@YAXXZ 00401400 f   systeminfo.obj
 0001:00000420       ??__E?CHIPSET_IDENTIFIER_STRING@MotherboardInfo@@0V?$basic_string@DU?$char_traits@D@std@@V?$allocator@D@2@@std@@B@@YAXXZ 00401420 f   systeminfo.obj
 0001:00000440       ??__E?CHIPSET_END_IDENTIFIER_STRING@MotherboardInfo@@0V?$basic_string@DU?$char_traits@D@std@@V?$allocator@D@2@@std@@B@@YAXXZ 00401440 f   systeminfo.obj
 0001:00000460       ??__E?SERIAL_NUMBER_IDENTIFIER_STRING@MotherboardInfo@@0V?$basic_string@DU?$char_traits@D@std@@V?$allocator@D@2@@std@@B@@YAXXZ 00401460 f   systeminfo.obj
 0001:00000480       ??__E?VERSION_IDENTIFIER_STRING@MotherboardInfo@@0V?$basic_string@DU?$char_traits@D@std@@V?$allocator@D@2@@std@@B@@YAXXZ 00401480 f   systeminfo.obj
 0001:000004a0       ??__E?MOTHERBOARD_INFO_QUERY_STRING@MotherboardInfoDelegate@@0V?$basic_string@DU?$char_traits@D@std@@V?$allocator@D@2@@std@@B@@YAXXZ 004014a0 f   systeminfo.obj
 0001:000004c0       ??__E?MOTHERBOARD_INSTANCE_QUERY_STRING@MotherboardInfoDelegate@@0V?$basic_string@DU?$char_traits@D@std@@V?$allocator@D@2@@std@@B@@YAXXZ 004014c0 f   systeminfo.obj
 0001:000004e0       ??__E?MOTHERBOARD_INFO_END_IDENTIFIER_STRING@MotherboardInfoDelegate@@0V?$basic_string@DU?$char_traits@D@std@@V?$allocator@D@2@@std@@B@@YAXXZ 004014e0 f   systeminfo.obj
 0001:00000500       ??__E?ARCHITECTURE_IDENTIFIER_STRING@OSInfo@@0V?$basic_string@DU?$char_traits@D@std@@V?$allocator@D@2@@std@@B@@YAXXZ 00401500 f   systeminfo.obj
 0001:00000520       ??__E?CAPTION_INDENTIFIER_STRING@OSInfo@@0V?$basic_string@DU?$char_traits@D@std@@V?$allocator@D@2@@std@@B@@YAXXZ 00401520 f   systeminfo.obj
 0001:00000540       ??__E?NAME_IDENTIFIER_STRING@OSInfo@@0V?$basic_string@DU?$char_traits@D@std@@V?$allocator@D@2@@std@@B@@YAXXZ 00401540 f   systeminfo.obj
 0001:00000560       ??__E?MANUFACTURER_IDENTIFIER_STRING@OSInfo@@0V?$basic_string@DU?$char_traits@D@std@@V?$allocator@D@2@@std@@B@@YAXXZ 00401560 f   systeminfo.obj
 0001:00000580       ??__E?VERSION_IDENTIFIER_STRING@OSInfo@@0V?$basic_string@DU?$char_traits@D@std@@V?$allocator@D@2@@std@@B@@YAXXZ 00401580 f   systeminfo.obj
 0001:000005a0       ??__E?CURRENT_USER_IDENTIFIER_STRING@OSInfo@@0V?$basic_string@DU?$char_traits@D@std@@V?$allocator@D@2@@std@@B@@YAXXZ 004015a0 f   systeminfo.obj
 0001:000005c0       ??__E?INSTALL_DATE_IDENTIFIER_STRING@OSInfo@@0V?$basic_string@DU?$char_traits@D@std@@V?$allocator@D@2@@std@@B@@YAXXZ 004015c0 f   systeminfo.obj
 0001:000005e0       ??__E?BUILD_NUMBER_IDENTIFIER_STRING@OSInfo@@0V?$basic_string@DU?$char_traits@D@std@@V?$allocator@D@2@@std@@B@@YAXXZ 004015e0 f   systeminfo.obj
 0001:00000600       ??__E?LAST_BOOT_UP_TIME_IDENTIFIER_STRING@OSInfo@@0V?$basic_string@DU?$char_traits@D@std@@V?$allocator@D@2@@std@@B@@YAXXZ 00401600 f   systeminfo.obj
 0001:00000620       ??__E?BOOT_DEVICE_IDENTIFIER_STRING@OSInfo@@0V?$basic_string@DU?$char_traits@D@std@@V?$allocator@D@2@@std@@B@@YAXXZ 00401620 f   systeminfo.obj
 0001:00000640       ??__E?SERIAL_NUMBER_IDENTIFIER_STRING@OSInfo@@0V?$basic_string@DU?$char_traits@D@std@@V?$allocator@D@2@@std@@B@@YAXXZ 00401640 f   systeminfo.obj
 0001:00000660       ??__E?TOTAL_VIRTUAL_MEMORY_SIZE_IDENTIFIER_STRING@OSInfo@@0V?$basic_string@DU?$char_traits@D@std@@V?$allocator@D@2@@std@@B@@YAXXZ 00401660 f   systeminfo.obj
 0001:00000680       ??__E?TOTAL_VISIBLE_MEMORY_SIZE_IDENTIFIER_STRING@OSInfo@@0V?$basic_string@DU?$char_traits@D@std@@V?$allocator@D@2@@std@@B@@YAXXZ 00401680 f   systeminfo.obj
 0001:000006a0       ??__E?TOTAL_SWAP_SIZE_IDENTIFIER_STRING@OSInfo@@0V?$basic_string@DU?$char_traits@D@std@@V?$allocator@D@2@@std@@B@@YAXXZ 004016a0 f   systeminfo.obj
 0001:000006c0       ??__E?FREE_PHYSICAL_MEMORY_IDENTIFIER_STRING@OSInfo@@0V?$basic_string@DU?$char_traits@D@std@@V?$allocator@D@2@@std@@B@@YAXXZ 004016c0 f   systeminfo.obj
 0001:000006e0       ??__E?FREE_PHYSICAL_MEMORY_QUERY_STRING@OSInfo@@0V?$basic_string@DU?$char_traits@D@std@@V?$allocator@D@2@@std@@B@@YAXXZ 004016e0 f   systeminfo.obj
 0001:00000700       ??__E?FREE_VIRTUAL_MEMORY_IDENTIFIER_STRING@OSInfo@@0V?$basic_string@DU?$char_traits@D@std@@V?$allocator@D@2@@std@@B@@YAXXZ 00401700 f   systeminfo.obj
 0001:00000720       ??__E?FREE_VIRTUAL_MEMORY_QUERY_STRING@OSInfo@@0V?$basic_string@DU?$char_traits@D@std@@V?$allocator@D@2@@std@@B@@YAXXZ 00401720 f   systeminfo.obj
 0001:00000740       ??__E?FREE_SPACE_IN_PAGING_FILES_IDENTIFIER_STRING@OSInfo@@0V?$basic_string@DU?$char_traits@D@std@@V?$allocator@D@2@@std@@B@@YAXXZ 00401740 f   systeminfo.obj
 0001:00000760       ??__E?FREE_SPACE_IN_PAGING_FILES_QUERY_STRING@OSInfo@@0V?$basic_string@DU?$char_traits@D@std@@V?$allocator@D@2@@std@@B@@YAXXZ 00401760 f   systeminfo.obj
 0001:00000780       ??__E?USED_SPACE_IN_PAGING_FILE_IDENTIFIER_STRING@OSInfo@@0V?$basic_string@DU?$char_traits@D@std@@V?$allocator@D@2@@std@@B@@YAXXZ 00401780 f   systeminfo.obj
 0001:000007a0       ??__E?USED_SPACE_IN_PAGING_FILE_QUERY_STRING@OSInfo@@0V?$basic_string@DU?$char_traits@D@std@@V?$allocator@D@2@@std@@B@@YAXXZ 004017a0 f   systeminfo.obj
 0001:000007c0       ??__E?CURRENT_DATE_TIME_IDENTIFIER_STRING@OSInfo@@0V?$basic_string@DU?$char_traits@D@std@@V?$allocator@D@2@@std@@B@@YAXXZ 004017c0 f   systeminfo.obj
 0001:000007e0       ??__E?CURRENT_DATE_TIME_QUERY_STRING@OSInfo@@0V?$basic_string@DU?$char_traits@D@std@@V?$allocator@D@2@@std@@B@@YAXXZ 004017e0 f   systeminfo.obj
 0001:00000800       ??__E?OS_INFO_QUERY_STRING@OSInfoDelegate@@0V?$basic_string@DU?$char_traits@D@std@@V?$allocator@D@2@@std@@B@@YAXXZ 00401800 f   systeminfo.obj
 0001:00000820       ??__E?OS_INSTANCE_QUERY_STRING@OSInfoDelegate@@0V?$basic_string@DU?$char_traits@D@std@@V?$allocator@D@2@@std@@B@@YAXXZ 00401820 f   systeminfo.obj
 0001:00000840       ??__E?OS_INFO_END_IDENTIFIER_STRING@OSInfoDelegate@@0V?$basic_string@DU?$char_traits@D@std@@V?$allocator@D@2@@std@@B@@YAXXZ 00401840 f   systeminfo.obj
 0001:00000860       ??__E?NAME_IDENTIFIER_STRING@RAMInfo@@0V?$basic_string@DU?$char_traits@D@std@@V?$allocator@D@2@@std@@B@@YAXXZ 00401860 f   systeminfo.obj
 0001:00000880       ??__E?MANUFACTURER_IDENTIFIER_STRING@RAMInfo@@0V?$basic_string@DU?$char_traits@D@std@@V?$allocator@D@2@@std@@B@@YAXXZ 00401880 f   systeminfo.obj
 0001:000008a0       ??__E?CAPACITY_IDENTIFIER_STRING@RAMInfo@@0V?$basic_string@DU?$char_traits@D@std@@V?$allocator@D@2@@std@@B@@YAXXZ 004018a0 f   systeminfo.obj
 0001:000008c0       ??__E?SERIAL_NUMBER_IDENTIFIER_STRING@RAMInfo@@0V?$basic_string@DU?$char_traits@D@std@@V?$allocator@D@2@@std@@B@@YAXXZ 004018c0 f   systeminfo.obj
 0001:000008e0       ??__E?FORM_FACTOR_IDENTIFIER_STRING@RAMInfo@@0V?$basic_string@DU?$char_traits@D@std@@V?$allocator@D@2@@std@@B@@YAXXZ 004018e0 f   systeminfo.obj
 0001:00000900       ??__E?PART_NUMBER_IDENTIFIER_STRING@RAMInfo@@0V?$basic_string@DU?$char_traits@D@std@@V?$allocator@D@2@@std@@B@@YAXXZ 00401900 f   systeminfo.obj
 0001:00000920       ??__E?MEMORY_TYPE_IDENTIFIER_STRING@RAMInfo@@0V?$basic_string@DU?$char_traits@D@std@@V?$allocator@D@2@@std@@B@@YAXXZ 00401920 f   systeminfo.obj
 0001:00000940       ??__E?CLOCK_SPEED_IDENTIFIER_STRING@RAMInfo@@0V?$basic_string@DU?$char_traits@D@std@@V?$allocator@D@2@@std@@B@@YAXXZ 00401940 f   systeminfo.obj
 0001:00000960       ??__E?BACKUP_CLOCK_SPEED_IDENTIFIER_STRING@RAMInfo@@0V?$basic_string@DU?$char_traits@D@std@@V?$allocator@D@2@@std@@B@@YAXXZ 00401960 f   systeminfo.obj
 0001:00000980       ??__E?RAM_INFO_QUERY_STRING@RAMInfoDelegate@@0V?$basic_string@DU?$char_traits@D@std@@V?$allocator@D@2@@std@@B@@YAXXZ 00401980 f   systeminfo.obj
 0001:000009a0       ??__E?RAM_INSTANCE_QUERY_STRING@RAMInfoDelegate@@0V?$basic_string@DU?$char_traits@D@std@@V?$allocator@D@2@@std@@B@@YAXXZ 004019a0 f   systeminfo.obj
 0001:000009c0       ??__E?RAM_INFO_END_IDENTIFIER_STRING@RAMInfoDelegate@@0V?$basic_string@DU?$char_traits@D@std@@V?$allocator@D@2@@std@@B@@YAXXZ 004019c0 f   systeminfo.obj
 0001:000009dd       ??__F_Fac_tidy_reg@std@@YAXXZ 004019dd f   msvcprt:locale0_implib.obj
 0001:00005ea5       __catch$??$?6U?$char_traits@D@std@@@std@@YAAAV?$basic_ostream@DU?$char_traits@D@std@@@0@AAV10@PBD@Z$0 00406ea5 f i protect.obj
 0001:00007861       __catch$?getArchitecture@CPUInfo@@ABE?AV?$basic_string@DU?$char_traits@D@std@@V?$allocator@D@2@@std@@AAV23@@Z$0 00408861 f   systeminfo.obj
 0001:00008333       __catch$??0GPUInfo@@QAE@ABV?$vector@V?$basic_string@DU?$char_traits@D@std@@V?$allocator@D@2@@std@@V?$allocator@V?$basic_string@DU?$char_traits@D@std@@V?$allocator@D@2@@std@@@2@@std@@H@Z$0 00409333 f   systeminfo.obj
 0001:00008c58       __catch$?getVideoArchitecture@GPUInfo@@ABE?AV?$basic_string@DU?$char_traits@D@std@@V?$allocator@D@2@@std@@ABV23@@Z$0 00409c58 f   systeminfo.obj
 0001:00008ca8       $LN239                     00409ca8     systeminfo.obj
 0001:00008ce0       $LN238                     00409ce0     systeminfo.obj
 0001:00008e9f       __catch$?getVideoMemoryType@GPUInfo@@ABE?AV?$basic_string@DU?$char_traits@D@std@@V?$allocator@D@2@@std@@ABV23@@Z$0 00409e9f f   systeminfo.obj
 0001:00008ef0       $LN238                     00409ef0     systeminfo.obj
 0001:0000aa3b       __catch$??0OSInfo@@QAE@ABV?$vector@V?$basic_string@DU?$char_traits@D@std@@V?$allocator@D@2@@std@@V?$allocator@V?$basic_string@DU?$char_traits@D@std@@V?$allocator@D@2@@std@@@2@@std@@H@Z$0 0040ba3b f   systeminfo.obj
 0001:0000aef0       __catch$??0OSInfo@@QAE@ABV?$vector@V?$basic_string@DU?$char_traits@D@std@@V?$allocator@D@2@@std@@V?$allocator@V?$basic_string@DU?$char_traits@D@std@@V?$allocator@D@2@@std@@@2@@std@@H@Z$2 0040bef0 f   systeminfo.obj
 0001:0000b39f       __catch$??0OSInfo@@QAE@ABV?$vector@V?$basic_string@DU?$char_traits@D@std@@V?$allocator@D@2@@std@@V?$allocator@V?$basic_string@DU?$char_traits@D@std@@V?$allocator@D@2@@std@@@2@@std@@H@Z$4 0040c39f f   systeminfo.obj
 0001:0000c0f6       __catch$??0RAMInfo@@QAE@ABV?$vector@V?$basic_string@DU?$char_traits@D@std@@V?$allocator@D@2@@std@@V?$allocator@V?$basic_string@DU?$char_traits@D@std@@V?$allocator@D@2@@std@@@2@@std@@H@Z$0 0040d0f6 f   systeminfo.obj
 0001:0000cc1e       __catch$?getMemoryType@RAMInfo@@ABE?AV?$basic_string@DU?$char_traits@D@std@@V?$allocator@D@2@@std@@ABV23@@Z$0 0040dc1e f   systeminfo.obj
 0001:0000cc70       $LN433                     0040dc70     systeminfo.obj
 0001:0000ce72       __catch$?getFormFactor@RAMInfo@@ABE?AV?$basic_string@DU?$char_traits@D@std@@V?$allocator@D@2@@std@@ABV23@@Z$0 0040de72 f   systeminfo.obj
 0001:0000cec4       $LN403                     0040dec4     systeminfo.obj
 0001:0000dd10       ??R<lambda_b5565d269da327e336800d80f472b553>@@QBE?AV?$basic_string@DU?$char_traits@D@std@@V?$allocator@D@2@@std@@ABV12@@Z 0040ed10 f   systeminfo.obj
 0001:00010563       __catch$??$_Emplace_reallocate@AAV?$vector@V?$basic_string@DU?$char_traits@D@std@@V?$allocator@D@2@@std@@V?$allocator@V?$basic_string@DU?$char_traits@D@std@@V?$allocator@D@2@@std@@@2@@std@@AAH@?$vector@VCPUInfo@@V?$allocator@VCPUInfo@@@std@@@std@@QAEPAVCPUInfo@@QAV2@AAV?$vector@V?$basic_string@DU?$char_traits@D@std@@V?$allocator@D@2@@std@@V?$allocator@V?$basic_string@DU?$char_traits@D@std@@V?$allocator@D@2@@std@@@2@@1@AAH@Z$0 00411563 f i systeminfo.obj
 0001:00010951       __catch$??$_Emplace_reallocate@AAV?$vector@V?$basic_string@DU?$char_traits@D@std@@V?$allocator@D@2@@std@@V?$allocator@V?$basic_string@DU?$char_traits@D@std@@V?$allocator@D@2@@std@@@2@@std@@AAH@?$vector@VGPUInfo@@V?$allocator@VGPUInfo@@@std@@@std@@QAEPAVGPUInfo@@QAV2@AAV?$vector@V?$basic_string@DU?$char_traits@D@std@@V?$allocator@D@2@@std@@V?$allocator@V?$basic_string@DU?$char_traits@D@std@@V?$allocator@D@2@@std@@@2@@1@AAH@Z$0 00411951 f i systeminfo.obj
 0001:00010b7a       __catch$??$_Emplace_reallocate@AAV?$vector@V?$basic_string@DU?$char_traits@D@std@@V?$allocator@D@2@@std@@V?$allocator@V?$basic_string@DU?$char_traits@D@std@@V?$allocator@D@2@@std@@@2@@std@@AAH@?$vector@VMotherboardInfo@@V?$allocator@VMotherboardInfo@@@std@@@std@@QAEPAVMotherboardInfo@@QAV2@AAV?$vector@V?$basic_string@DU?$char_traits@D@std@@V?$allocator@D@2@@std@@V?$allocator@V?$basic_string@DU?$char_traits@D@std@@V?$allocator@D@2@@std@@@2@@1@AAH@Z$0 00411b7a f i systeminfo.obj
 0001:00010e21       __catch$??$_Emplace_reallocate@AAV?$vector@V?$basic_string@DU?$char_traits@D@std@@V?$allocator@D@2@@std@@V?$allocator@V?$basic_string@DU?$char_traits@D@std@@V?$allocator@D@2@@std@@@2@@std@@AAH@?$vector@VOSInfo@@V?$allocator@VOSInfo@@@std@@@std@@QAEPAVOSInfo@@QAV2@AAV?$vector@V?$basic_string@DU?$char_traits@D@std@@V?$allocator@D@2@@std@@V?$allocator@V?$basic_string@DU?$char_traits@D@std@@V?$allocator@D@2@@std@@@2@@1@AAH@Z$0 00411e21 f i systeminfo.obj
 0001:00011071       __catch$??$_Emplace_reallocate@AAV?$vector@V?$basic_string@DU?$char_traits@D@std@@V?$allocator@D@2@@std@@V?$allocator@V?$basic_string@DU?$char_traits@D@std@@V?$allocator@D@2@@std@@@2@@std@@AAH@?$vector@VRAMInfo@@V?$allocator@VRAMInfo@@@std@@@std@@QAEPAVRAMInfo@@QAV2@AAV?$vector@V?$basic_string@DU?$char_traits@D@std@@V?$allocator@D@2@@std@@V?$allocator@V?$basic_string@DU?$char_traits@D@std@@V?$allocator@D@2@@std@@@2@@1@AAH@Z$0 00412071 f i systeminfo.obj
 0001:000113c4       __catch$??$_Emplace_reallocate@ABV?$basic_string@DU?$char_traits@D@std@@V?$allocator@D@2@@std@@@?$vector@V?$basic_string@DU?$char_traits@D@std@@V?$allocator@D@2@@std@@V?$allocator@V?$basic_string@DU?$char_traits@D@std@@V?$allocator@D@2@@std@@@2@@std@@QAEPAV?$basic_string@DU?$char_traits@D@std@@V?$allocator@D@2@@1@QAV21@ABV21@@Z$0 004123c4 f i systeminfo.obj
 0001:00011916       __catch$??$_Insert_string@DU?$char_traits@D@std@@I@std@@YAAAV?$basic_ostream@DU?$char_traits@D@std@@@0@AAV10@QBDI@Z$0 00412916 f i systeminfo.obj
 0001:00012490       ?_Delete_this@?$_Func_impl_no_alloc@V<lambda_b5565d269da327e336800d80f472b553>@@V?$basic_string@DU?$char_traits@D@std@@V?$allocator@D@2@@std@@ABV23@@std@@EAEX_N@Z 00413490 f   systeminfo.obj
 0001:000124b0       ?_Get@?$_Func_impl_no_alloc@V<lambda_b5565d269da327e336800d80f472b553>@@V?$basic_string@DU?$char_traits@D@std@@V?$allocator@D@2@@std@@ABV23@@std@@EBEPBXXZ 004134b0 f   systeminfo.obj
 0001:000124c0       ?_Target_type@?$_Func_impl_no_alloc@V<lambda_b5565d269da327e336800d80f472b553>@@V?$basic_string@DU?$char_traits@D@std@@V?$allocator@D@2@@std@@ABV23@@std@@EBEABVtype_info@@XZ 004134c0 f   systeminfo.obj
 0001:000124d0       ?_Do_call@?$_Func_impl_no_alloc@V<lambda_b5565d269da327e336800d80f472b553>@@V?$basic_string@DU?$char_traits@D@std@@V?$allocator@D@2@@std@@ABV23@@std@@EAE?AV?$basic_string@DU?$char_traits@D@std@@V?$allocator@D@2@@2@ABV32@@Z 004134d0 f   systeminfo.obj
 0001:000124f0       ?_Copy@?$_Func_impl_no_alloc@V<lambda_b5565d269da327e336800d80f472b553>@@V?$basic_string@DU?$char_traits@D@std@@V?$allocator@D@2@@std@@ABV23@@std@@EBEPAV?$_Func_base@V?$basic_string@DU?$char_traits@D@std@@V?$allocator@D@2@@std@@ABV12@@2@PAX@Z 004134f0 f   systeminfo.obj
 0001:000124f0       ?_Move@?$_Func_impl_no_alloc@V<lambda_b5565d269da327e336800d80f472b553>@@V?$basic_string@DU?$char_traits@D@std@@V?$allocator@D@2@@std@@ABV23@@std@@EAEPAV?$_Func_base@V?$basic_string@DU?$char_traits@D@std@@V?$allocator@D@2@@std@@ABV12@@2@PAX@Z 004134f0 f   systeminfo.obj
 0001:00012670       __catch$??$?5DU?$char_traits@D@std@@V?$allocator@D@1@@std@@YAAAV?$basic_istream@DU?$char_traits@D@std@@@0@$$QAV10@AAV?$basic_string@DU?$char_traits@D@std@@V?$allocator@D@2@@0@@Z$0 00413670 f i systeminfo.obj
 0001:00012d6c       ?find_pe_section@@YAPAU_IMAGE_SECTION_HEADER@@QAEI@Z 00413d6c f   MSVCRT:utility.obj
 0001:00012fbd       ?pre_c_initialization@@YAHXZ 00413fbd f   MSVCRT:exe_winmain.obj
 0001:00013068       ?post_pgo_initialization@@YAHXZ 00414068 f   MSVCRT:exe_winmain.obj
 0001:00013070       ?pre_cpp_initialization@@YAXXZ 00414070 f   MSVCRT:exe_winmain.obj
 0001:00013082       ?__scrt_common_main_seh@@YAHXZ 00414082 f   MSVCRT:exe_winmain.obj
 0001:00013450       $$000000                   00414450     MSVCRT:sehprolg4.obj
 0001:00013800       _pop3_dophase_done         00414800 f   libcurl:pop3.obj
 0001:000138b0       ___get_entropy             004148b0 f   MSVCRT:gs_support.obj
 0001:00013ac0       _easy_perform              00414ac0 f   libcurl:easy.obj
 0001:00013bb0       _easy_transfer             00414bb0 f   libcurl:easy.obj
 0001:00013c30       _global_init               00414c30 f   libcurl:easy.obj
 0001:000162ec       $LN516                     004172ec     libcurl:setopt.obj
 0001:00016430       $LN483                     00417430     libcurl:setopt.obj
 0001:00016500       $LN517                     00417500     libcurl:setopt.obj
 0001:0001652c       $LN518                     0041752c     libcurl:setopt.obj
 0001:000165ac       $LN486                     004175ac     libcurl:setopt.obj
 0001:00016610       $LN519                     00417610     libcurl:setopt.obj
 0001:00016734       $LN487                     00417734     libcurl:setopt.obj
 0001:00016814       $LN520                     00417814     libcurl:setopt.obj
 0001:00016884       $LN492                     00417884     libcurl:setopt.obj
 0001:000168d0       $LN521                     004178d0     libcurl:setopt.obj
 0001:0001691c       $LN493                     0041791c     libcurl:setopt.obj
 0001:000169ec       $LN522                     004179ec     libcurl:setopt.obj
 0001:00016a04       $LN495                     00417a04     libcurl:setopt.obj
 0001:00016a24       $LN523                     00417a24     libcurl:setopt.obj
 0001:00016a70       _setstropt_userpwd         00417a70 f   libcurl:setopt.obj
 0001:00016bf0       _slist_get_last            00417bf0 f   libcurl:slist.obj
 0001:000171f0       _add_next_timeout          004181f0 f   libcurl:multi.obj
 0001:000172c0       _before_perform            004182c0 f   libcurl:multi.obj
 0001:000172f0       _close_connect_only        004182f0 f   libcurl:multi.obj
 0001:00017ae0       _doing_getsock             00418ae0 f   libcurl:multi.obj
 0001:00017b10       _domore_getsock            00418b10 f   libcurl:multi.obj
 0001:00017b40       _fd_key_compare            00418b40 f   libcurl:multi.obj
 0001:00017b40       _trhash_compare            00418b40 f   libcurl:multi.obj
 0001:00017b60       _hash_fd                   00418b60 f   libcurl:multi.obj
 0001:00017b60       _trhash                    00418b60 f   libcurl:multi.obj
 0001:00017b80       _init_completed            00418b80 f   libcurl:multi.obj
 0001:00017ba0       _mstate                    00418ba0 f   libcurl:multi.obj
 0001:00017bd0       _multi_addmsg              00418bd0 f   libcurl:multi.obj
 0001:00017bf0       _multi_addtimeout          00418bf0 f   libcurl:multi.obj
 0001:00017c80       _multi_deltimeout          00418c80 f   libcurl:multi.obj
 0001:00017cc0       _multi_do                  00418cc0 f   libcurl:multi.obj
 0001:00017ce0       _multi_do_more             00418ce0 f   libcurl:multi.obj
 0001:00017d10       _multi_done                00418d10 f   libcurl:multi.obj
 0001:00018000       _multi_getsock             00419000 f   libcurl:multi.obj
 0001:0001807c       $LN17                      0041907c     libcurl:multi.obj
 0001:000180b0       _multi_ischanged           004190b0 f   libcurl:multi.obj
 0001:000180d0       _multi_runsingle           004190d0 f   libcurl:multi.obj
 0001:00018e8c       $LN247                     00419e8c     libcurl:multi.obj
 0001:00018ed0       _multi_timeout             00419ed0 f   libcurl:multi.obj
 0001:00018fd0       _multi_wait                00419fd0 f   libcurl:multi.obj
 0001:00019470       _process_pending_handles   0041a470 f   libcurl:multi.obj
 0001:000194b0       _protocol_connect          0041a4b0 f   libcurl:multi.obj
 0001:00019570       _protocol_connecting       0041a570 f   libcurl:multi.obj
 0001:000195b0       _protocol_doing            0041a5b0 f   libcurl:multi.obj
 0001:000195f0       _protocol_getsock          0041a5f0 f   libcurl:multi.obj
 0001:00019620       _sh_addentry               0041a620 f   libcurl:multi.obj
 0001:000196b0       _sh_delentry               0041a6b0 f   libcurl:multi.obj
 0001:000196d0       _sh_freeentry              0041a6d0 f   libcurl:multi.obj
 0001:000196e0       _sh_getentry               0041a6e0 f   libcurl:multi.obj
 0001:00019700       _sh_init                   0041a700 f   libcurl:multi.obj
 0001:00019730       _singlesocket              0041a730 f   libcurl:multi.obj
 0001:00019a10       _client_close_writer       0041aa10 f   libcurl:content_encoding.obj
 0001:00019a10       _error_close_writer        0041aa10 f   libcurl:content_encoding.obj
 0001:00019a10       _identity_close_writer     0041aa10 f   libcurl:content_encoding.obj
 0001:00019a10       _trhash_dtor               0041aa10 f   libcurl:multi.obj
 0001:00019a20       _waitconnect_getsock       0041aa20 f   libcurl:multi.obj
 0001:00019a80       _waitproxyconnect_getsock  0041aa80 f   libcurl:multi.obj
 0001:0001a7bc       $LN309                     0041b7bc     libcurl:cookie.obj
 0001:0001adc0       _bad_domain                0041bdc0 f   libcurl:cookie.obj
 0001:0001ae00       _cookie_hash_domain        0041be00 f   libcurl:cookie.obj
 0001:0001ae70       _cookie_output             0041be70 f   libcurl:cookie.obj
 0001:0001b0d0       _cookie_sort               0041c0d0 f   libcurl:cookie.obj
 0001:0001b1b0       _cookie_sort_ct            0041c1b0 f   libcurl:cookie.obj
 0001:0001b1e0       _cookiehash                0041c1e0 f   libcurl:cookie.obj
 0001:0001b220       _dup_cookie                0041c220 f   libcurl:cookie.obj
 0001:0001b350       _freecookie                0041c350 f   libcurl:cookie.obj
 0001:0001b3b0       _get_netscape_format       0041c3b0 f   libcurl:cookie.obj
 0001:0001b460       _get_top_domain            0041c460 f   libcurl:cookie.obj
 0001:0001b4c0       _isip                      0041c4c0 f   libcurl:cookie.obj
 0001:0001b520       _pathmatch                 0041c520 f   libcurl:cookie.obj
 0001:0001b620       _remove_expired            0041c620 f   libcurl:cookie.obj
 0001:0001b6b0       _sanitize_cookie_path      0041c6b0 f   libcurl:cookie.obj
 0001:0001b770       _strstore                  0041c770 f   libcurl:cookie.obj
 0001:0001b790       _tailmatch                 0041c790 f   libcurl:cookie.obj
 0001:0001bb50       _conn_thread_sync_data     0041cb50 f   libcurl:asyn-thread.obj
 0001:0001bb70       _destroy_async_data        0041cb70 f   libcurl:asyn-thread.obj
 0001:0001bc20       _destroy_thread_sync_data  0041cc20 f   libcurl:asyn-thread.obj
 0001:0001bc80       _getaddrinfo_complete      0041cc80 f   libcurl:asyn-thread.obj
 0001:0001bcb0       _getaddrinfo_thread@4      0041ccb0 f   libcurl:asyn-thread.obj
 0001:0001bd90       _init_resolve_thread       0041cd90 f   libcurl:asyn-thread.obj
 0001:0001be80       _init_thread_sync_data     0041ce80 f   libcurl:asyn-thread.obj
 0001:0001bf30       _thread_wait_resolv        0041cf30 f   libcurl:asyn-thread.obj
 0001:0001c0e0       _dyn_nappend               0041d0e0 f   libcurl:dynbuf.obj
 0001:0001c1b0       _encoder_nop_read          0041d1b0 f   libcurl:mime.obj
 0001:0001c200       _encoder_nop_size          0041d200 f   libcurl:mime.obj
 0001:0001c210       _encoder_7bit_read         0041d210 f   libcurl:mime.obj
 0001:0001c270       _encoder_base64_read       0041d270 f   libcurl:mime.obj
 0001:0001c400       _encoder_base64_size       0041d400 f   libcurl:mime.obj
 0001:0001c470       _encoder_qp_read           0041d470 f   libcurl:mime.obj
 0001:0001c610       _encoder_qp_size           0041d610 f   libcurl:mime.obj
 0001:0001c640       _Curl_basename             0041d640 f   libcurl:mime.obj
 0001:0001ccd0       _add_content_type          0041dcd0 f   libcurl:mime.obj
 0001:0001cd10       _cleanup_encoder_state     0041dd10 f   libcurl:mime.obj
 0001:0001cd30       _cleanup_part_content      0041dd30 f   libcurl:mime.obj
 0001:0001cdb0       _content_type_match        0041ddb0 f   libcurl:mime.obj
 0001:0001ce04       $LN10                      0041de04     libcurl:mime.obj
 0001:0001ce0c       $LN8                       0041de0c     libcurl:mime.obj
 0001:0001d2f0       _escape_string             0041e2f0 f   libcurl:mime.obj
 0001:0001d360       _match_header              0041e360 f   libcurl:mime.obj
 0001:0001d3a0       _mime_file_free            0041e3a0 f   libcurl:mime.obj
 0001:0001d3e0       _mime_file_read            0041e3e0 f   libcurl:mime.obj
 0001:0001d420       _mime_file_seek            0041e420 f   libcurl:mime.obj
 0001:0001d470       _mime_mem_free             0041e470 f   libcurl:mime.obj
 0001:0001d490       _mime_mem_read             0041e490 f   libcurl:mime.obj
 0001:0001d4f0       _mime_mem_seek             0041e4f0 f   libcurl:mime.obj
 0001:0001d550       _mime_open_file            0041e550 f   libcurl:mime.obj
 0001:0001d580       _mime_part_rewind          0041e580 f   libcurl:mime.obj
 0001:0001d620       _mime_subparts_free        0041e620 f   libcurl:mime.obj
 0001:0001d650       _mime_subparts_read        0041e650 f   libcurl:mime.obj
 0001:0001d7bc       $LN35                      0041e7bc     libcurl:mime.obj
 0001:0001d7e0       _mime_subparts_seek        0041e7e0 f   libcurl:mime.obj
 0001:0001d850       _mime_subparts_unbind      0041e850 f   libcurl:mime.obj
 0001:0001d880       _mimesetstate              0041e880 f   libcurl:mime.obj
 0001:0001d8b0       _multipart_size            0041e8b0 f   libcurl:mime.obj
 0001:0001d930       _qp_lookahead_eol          0041e930 f   libcurl:mime.obj
 0001:0001d990       _read_encoded_part_content 0041e990 f   libcurl:mime.obj
 0001:0001da90       _read_part_content         0041ea90 f   libcurl:mime.obj
 0001:0001dba0       _readback_bytes            0041eba0 f   libcurl:mime.obj
 0001:0001dc20       _readback_part             0041ec20 f   libcurl:mime.obj
 0001:0001de04       $LN42                      0041ee04     libcurl:mime.obj
 0001:0001de30       _search_header             0041ee30 f   libcurl:mime.obj
 0001:0001de70       _slist_size                0041ee70 f   libcurl:mime.obj
 0001:0001def0       _strippath                 0041eef0 f   libcurl:mime.obj
 0001:0001e610       _bundle_add_conn           0041f610 f   libcurl:conncache.obj
 0001:0001e640       _bundle_create             0041f640 f   libcurl:conncache.obj
 0001:0001e690       _bundle_destroy            0041f690 f   libcurl:conncache.obj
 0001:0001e6c0       _bundle_remove_conn        0041f6c0 f   libcurl:conncache.obj
 0001:0001e710       _conn_llist_dtor           0041f710 f   libcurl:conncache.obj
 0001:0001e730       _conncache_add_bundle      0041f730 f   libcurl:conncache.obj
 0001:0001e770       _conncache_find_first_connection 0041f770 f   libcurl:conncache.obj
 0001:0001e7c0       _conncache_remove_bundle   0041f7c0 f   libcurl:conncache.obj
 0001:0001e830       _free_bundle_hash_entry    0041f830 f   libcurl:conncache.obj
 0001:0001e840       _hashkey                   0041f840 f   libcurl:conncache.obj
 0001:0001e8b0       _ConnectionExists          0041f8b0 f   libcurl:url.obj
 0001:0001ff20       _IsMultiplexingPossible    00420f20 f   libcurl:url.obj
 0001:0001ff70       _SocketIsDead              00420f70 f   libcurl:url.obj
 0001:0001ffa0       _allocate_conn             00420fa0 f   libcurl:url.obj
 0001:00020230       _call_extract_if_dead      00421230 f   libcurl:url.obj
 0001:00020260       _check_noproxy             00421260 f   libcurl:url.obj
 0001:000203e0       _conn_free                 004213e0 f   libcurl:url.obj
 0001:00020590       _conn_maxage               00421590 f   libcurl:url.obj
 0001:00020600       _conn_reset_all_postponed_data 00421600 f   libcurl:url.obj
 0001:00020620       _conn_reset_postponed_data 00421620 f   libcurl:url.obj
 0001:00020660       _conn_shutdown             00421660 f   libcurl:url.obj
 0001:000206e0       _create_conn               004216e0 f   libcurl:url.obj
 0001:00020ec0       _create_conn_helper_init_proxy 00421ec0 f   libcurl:url.obj
 0001:000211c0       _detect_proxy              004221c0 f   libcurl:url.obj
 0001:000212e0       _extract_if_dead           004222e0 f   libcurl:url.obj
 0001:00021390       _findprotocol              00422390 f   libcurl:url.obj
 0001:000213f0       _get_protocol_family       004223f0 f   libcurl:url.obj
 0001:00021400       _override_login            00422400 f   libcurl:url.obj
 0001:000215e0       _parse_connect_to_host_port 004225e0 f   libcurl:url.obj
 0001:00021790       _parse_connect_to_slist    00422790 f   libcurl:url.obj
 0001:00021980       _parse_connect_to_string   00422980 f   libcurl:url.obj
 0001:00021a90       _parse_proxy               00422a90 f   libcurl:url.obj
 0001:00021e30       _parse_proxy_auth          00422e30 f   libcurl:url.obj
 0001:00021ed0       _parse_remote_port         00422ed0 f   libcurl:url.obj
 0001:00021f60       _parseurlandfillconn       00422f60 f   libcurl:url.obj
 0001:000223a0       _proxy_info_matches        004233a0 f   libcurl:url.obj
 0001:000223e0       _prune_dead_connections    004233e0 f   libcurl:url.obj
 0001:00022500       _resolve_server            00423500 f   libcurl:url.obj
 0001:00022760       _reuse_conn                00423760 f   libcurl:url.obj
 0001:00022a80       _set_login                 00423a80 f   libcurl:url.obj
 0001:00022b00       _setup_connection_internals 00423b00 f   libcurl:url.obj
 0001:00022b40       _setup_range               00423b40 f   libcurl:url.obj
 0001:00022c00       _socks_proxy_info_matches  00423c00 f   libcurl:url.obj
 0001:00022cd0       _strip_trailing_dot        00423cd0 f   libcurl:url.obj
 0001:00022d00       _up_free                   00423d00 f   libcurl:url.obj
 0001:00022de0       _zonefrom_url              00423de0 f   libcurl:url.obj
 0001:00023670       _chop_write                00424670 f   libcurl:sendf.obj
 0001:00023820       _get_pre_recved            00424820 f   libcurl:sendf.obj
 0001:000238a0       _pausewrite                004248a0 f   libcurl:sendf.obj
 0001:00023930       _pre_receive_plain         00424930 f   libcurl:sendf.obj
 0001:00024910       _ainext                    00425910 f   libcurl:connect.obj
 0001:00024950       _bindlocal                 00425950 f   libcurl:connect.obj
 0001:00024ef0       _connect_SOCKS             00425ef0 f   libcurl:connect.obj
 0001:00024ff0       $LN27                      00425ff0     libcurl:connect.obj
 0001:00025000       _post_SOCKS                00426000 f   libcurl:connect.obj
 0001:00025060       _singleipconnect           00426060 f   libcurl:connect.obj
 0001:00025400       _tcpkeepalive              00426400 f   libcurl:connect.obj
 0001:000254e0       _tcpnodelay                004264e0 f   libcurl:connect.obj
 0001:00025560       _trynextip                 00426560 f   libcurl:connect.obj
 0001:000255e0       _verifyconnect             004265e0 f   libcurl:connect.obj
 0001:000262c0       _alpn2alpnid               004272c0 f   libcurl:altsvc.obj
 0001:00026320       _altsvc_add                00427320 f   libcurl:altsvc.obj
 0001:00026420       _altsvc_create             00427420 f   libcurl:altsvc.obj
 0001:00026460       _altsvc_createid           00427460 f   libcurl:altsvc.obj
 0001:000264e0       _altsvc_flush              004274e0 f   libcurl:altsvc.obj
 0001:00026540       _altsvc_free               00427540 f   libcurl:altsvc.obj
 0001:00026570       _altsvc_load               00427570 f   libcurl:altsvc.obj
 0001:00026660       _altsvc_out                00427660 f   libcurl:altsvc.obj
 0001:00026700       _getalnum                  00427700 f   libcurl:altsvc.obj
 0001:00026970       _raw_tolower               00427970 f   libcurl:strcase.obj
 0001:00026990       _error_init_writer         00427990 f   libcurl:content_encoding.obj
 0001:00026990       _identity_init_writer      00427990 f   libcurl:content_encoding.obj
 0001:000269b0       _identity_unencode_write   004279b0 f   libcurl:content_encoding.obj
 0001:000269d0       _client_init_writer        004279d0 f   libcurl:content_encoding.obj
 0001:000269f0       _client_unencode_write     004279f0 f   libcurl:content_encoding.obj
 0001:00026a20       _error_unencode_write      00427a20 f   libcurl:content_encoding.obj
 0001:00026cd0       _find_encoding             00427cd0 f   libcurl:content_encoding.obj
 0001:00026d40       _new_unencoding_writer     00427d40 f   libcurl:content_encoding.obj
 0001:00027570       _hash_element_dtor         00428570 f   libcurl:hash.obj
 0001:000275b0       _mk_hash_element           004285b0 f   libcurl:hash.obj
 0001:00028180       _Curl_shuffle_addr         00429180 f   libcurl:hostip.obj
 0001:000282f0       _create_hostcache_id       004292f0 f   libcurl:hostip.obj
 0001:00028350       _fetch_addr                00429350 f   libcurl:hostip.obj
 0001:00028490       _freednsentry              00429490 f   libcurl:hostip.obj
 0001:000284c0       _hostcache_prune           004294c0 f   libcurl:hostip.obj
 0001:00028510       _hostcache_timestamp_remove 00429510 f   libcurl:hostip.obj
 0001:00028980       _http_getsock_do           00429980 f   libcurl:http.obj
 0001:00028980       _rtsp_getsock_do           00429980 f   libcurl:rtsp.obj
 0001:000289a0       _http_setup_conn           004299a0 f   libcurl:http.obj
 0001:0002a574       $LN106                     0042b574     libcurl:http.obj
 0001:0002b424       $LN18                      0042c424     libcurl:http.obj
 0001:0002c4b0       _add_haproxy_protocol_header 0042d4b0 f   libcurl:http.obj
 0001:0002c580       _checkhttpprefix           0042d580 f   libcurl:http.obj
 0001:0002c5f0       _checkprefixmax            0042d5f0 f   libcurl:http.obj
 0001:0002c640       _checkprotoprefix          0042d640 f   libcurl:http.obj
 0001:0002c680       _checkrtspprefix           0042d680 f   libcurl:http.obj
 0001:0002c6b0       _expect100                 0042d6b0 f   libcurl:http.obj
 0001:0002c740       _get_http_string           0042d740 f   libcurl:http.obj
 0001:0002c770       _http_output_basic         0042d770 f   libcurl:http.obj
 0001:0002c880       _http_output_bearer        0042d880 f   libcurl:http.obj
 0001:0002c8c0       _http_perhapsrewind        0042d8c0 f   libcurl:http.obj
 0001:0002ca5c       $LN34                      0042da5c     libcurl:http.obj
 0001:0002ca70       _http_should_fail          0042da70 f   libcurl:http.obj
 0001:0002caf0       _output_auth_headers       0042daf0 f   libcurl:http.obj
 0001:0002cc80       _pickoneauth               0042dc80 f   libcurl:http.obj
 0001:0002cd50       _readmoredata              0042dd50 f   libcurl:http.obj
 0001:0002ce60       _use_http_1_1plus          0042de60 f   libcurl:http.obj
 0001:0002cf50       _fileinfo_dtor             0042df50 f   libcurl:wildcard.obj
 0001:0002e500       _data_pending              0042f500 f   libcurl:transfer.obj
 0001:0002e520       _readwrite_data            0042f520 f   libcurl:transfer.obj
 0001:0002eb70       _readwrite_upload          0042fb70 f   libcurl:transfer.obj
 0001:0002ef30       _trailers_left             0042ff30 f   libcurl:transfer.obj
 0001:0002ef50       _trailers_read             0042ff50 f   libcurl:transfer.obj
 0001:0002efb0       _win_update_buffer_size    0042ffb0 f   libcurl:transfer.obj
 0001:0002f43c       $LN22                      0043043c     libcurl:progress.obj
 0001:0002f6d0       _max5data                  004306d0 f   libcurl:progress.obj
 0001:0002f8c0       _progress_calc             004308c0 f   libcurl:progress.obj
 0001:0002fbe0       _progress_meter            00430be0 f   libcurl:progress.obj
 0001:00030090       _time2str                  00431090 f   libcurl:progress.obj
 0001:00030610       _our_select                00431610 f   libcurl:select.obj
 0001:00030860       _CONNECT                   00431860 f   libcurl:http_proxy.obj
 0001:00031120       _CONNECT_host              00432120 f   libcurl:http_proxy.obj
 0001:000313d0       _connect_done              004323d0 f   libcurl:http_proxy.obj
 0001:00031400       _connect_init              00432400 f   libcurl:http_proxy.obj
 0001:00031490       _https_proxy_connect       00432490 f   libcurl:http_proxy.obj
 0001:00031490       _imap_perform_upgrade_tls  00432490 f   libcurl:imap.obj
 0001:00031490       _pop3_perform_upgrade_tls  00432490 f   libcurl:pop3.obj
 0001:00031490       _smtp_perform_upgrade_tls  00432490 f   libcurl:smtp.obj
 0001:00031adc       $LN67                      00432adc     libcurl:socks.obj
 0001:00031af8       $LN58                      00432af8     libcurl:socks.obj
 0001:00031b08       $LN68                      00432b08     libcurl:socks.obj
 0001:000326b0       $LN152                     004336b0     libcurl:socks.obj
 0001:0003272c       $LN9                       0043372c     libcurl:socks.obj
 0001:00032734       $LN7                       00433734     libcurl:socks.obj
 0001:00032750       _socksstate                00433750 f   libcurl:socks.obj
 0001:000327c0       _addbyter                  004337c0 f   libcurl:mprintf.obj
 0001:000327f0       _alloc_addbyter            004337f0 f   libcurl:mprintf.obj
 0001:00032970       _dprintf_DollarString      00433970 f   libcurl:mprintf.obj
 0001:000329e0       _dprintf_IsQualifierNoDollar 004339e0 f   libcurl:mprintf.obj
 0001:00032a34       $LN11                      00433a34     libcurl:mprintf.obj
 0001:00032a3c       $LN9                       00433a3c     libcurl:mprintf.obj
 0001:00032aa0       _dprintf_Pass1             00433aa0 f   libcurl:mprintf.obj
 0001:0003300c       $LN115                     0043400c     libcurl:mprintf.obj
 0001:00033048       $LN109                     00434048     libcurl:mprintf.obj
 0001:000330c4       $LN116                     004340c4     libcurl:mprintf.obj
 0001:00033104       $LN110                     00434104     libcurl:mprintf.obj
 0001:00033138       $LN117                     00434138     libcurl:mprintf.obj
 0001:00033160       _dprintf_formatf           00434160 f   libcurl:mprintf.obj
 0001:00033cd4       $LN368                     00434cd4     libcurl:mprintf.obj
 0001:00033f80       _inet_pton4                00434f80 f   libcurl:inet_pton.obj
 0001:00034040       _inet_pton6                00435040 f   libcurl:inet_pton.obj
 0001:000342f0       _checkday                  004352f0 f   libcurl:parsedate.obj
 0001:00034350       _checkmonth                00435350 f   libcurl:parsedate.obj
 0001:000343b0       _checktz                   004353b0 f   libcurl:parsedate.obj
 0001:000343f0       _parsedate                 004353f0 f   libcurl:parsedate.obj
 0001:00034870       _skip                      00435870 f   libcurl:parsedate.obj
 0001:000348a0       _time2epoch                004358a0 f   libcurl:parsedate.obj
 0001:00034a80       _randit                    00435a80 f   libcurl:rand.obj
 0001:00035210       _gopher_do                 00436210 f   libcurl:gopher.obj
 0001:00035420       _imap_perform_authenticate 00436420 f   libcurl:imap.obj
 0001:00035460       _imap_continue_authenticate 00436460 f   libcurl:imap.obj
 0001:00035460       _pop3_continue_auth        00436460 f   libcurl:pop3.obj
 0001:00035460       _smtp_continue_auth        00436460 f   libcurl:smtp.obj
 0001:00035490       _imap_get_message          00436490 f   libcurl:imap.obj
 0001:00035490       _pop3_get_message          00436490 f   libcurl:pop3.obj
 0001:00035510       _imap_do                   00436510 f   libcurl:imap.obj
 0001:00035550       _imap_done                 00436550 f   libcurl:imap.obj
 0001:000356a0       _imap_connect              004366a0 f   libcurl:imap.obj
 0001:00035740       _imap_disconnect           00436740 f   libcurl:imap.obj
 0001:000357d0       _imap_multi_statemach      004367d0 f   libcurl:imap.obj
 0001:000357d0       _pop3_multi_statemach      004367d0 f   libcurl:pop3.obj
 0001:000357d0       _smtp_multi_statemach      004367d0 f   libcurl:smtp.obj
 0001:00035820       _ftp_getsock               00436820 f   libcurl:ftp.obj
 0001:00035820       _imap_getsock              00436820 f   libcurl:imap.obj
 0001:00035820       _pop3_getsock              00436820 f   libcurl:pop3.obj
 0001:00035820       _smtp_getsock              00436820 f   libcurl:smtp.obj
 0001:00035830       _imap_doing                00436830 f   libcurl:imap.obj
 0001:00035830       _smtp_doing                00436830 f   libcurl:smtp.obj
 0001:00035860       _imap_setup_connection     00436860 f   libcurl:imap.obj
 0001:00035880       _imap_atom                 00436880 f   libcurl:imap.obj
 0001:000359e0       _imap_block_statemach      004369e0 f   libcurl:imap.obj
 0001:000359e0       _pop3_block_statemach      004369e0 f   libcurl:pop3.obj
 0001:000359e0       _smtp_block_statemach      004369e0 f   libcurl:smtp.obj
 0001:00035a30       _imap_dophase_done         00436a30 f   libcurl:imap.obj
 0001:00035a30       _smtp_dophase_done         00436a30 f   libcurl:smtp.obj
 0001:00035a60       _imap_endofresp            00436a60 f   libcurl:imap.obj
 0001:00035da0       $LN41                      00436da0     libcurl:imap.obj
 0001:00035db8       $LN37                      00436db8     libcurl:imap.obj
 0001:00035dd0       _imap_init                 00436dd0 f   libcurl:imap.obj
 0001:00035e00       _imap_is_bchar             00436e00 f   libcurl:imap.obj
 0001:00035e28       $LN9                       00436e28     libcurl:imap.obj
 0001:00035e30       $LN7                       00436e30     libcurl:imap.obj
 0001:00035e90       _imap_matchresp            00436e90 f   libcurl:imap.obj
 0001:00035f20       _imap_parse_custom_request 00436f20 f   libcurl:imap.obj
 0001:00035fa0       _imap_parse_url_options    00436fa0 f   libcurl:imap.obj
 0001:00036070       _imap_parse_url_path       00437070 f   libcurl:imap.obj
 0001:00036340       _imap_perform              00437340 f   libcurl:imap.obj
 0001:00036470       _imap_perform_append       00437470 f   libcurl:imap.obj
 0001:000365d0       _imap_perform_authentication 004375d0 f   libcurl:imap.obj
 0001:00036690       _imap_perform_capability   00437690 f   libcurl:imap.obj
 0001:000366e0       _imap_perform_fetch        004376e0 f   libcurl:imap.obj
 0001:000367b0       _imap_perform_list         004377b0 f   libcurl:imap.obj
 0001:00036850       _imap_perform_login        00437850 f   libcurl:imap.obj
 0001:000368f0       _imap_perform_logout       004378f0 f   libcurl:imap.obj
 0001:00036920       _imap_perform_search       00437920 f   libcurl:imap.obj
 0001:00036980       _imap_perform_select       00437980 f   libcurl:imap.obj
 0001:00036a30       _imap_perform_starttls     00437a30 f   libcurl:imap.obj
 0001:00036a60       _imap_regular_transfer     00437a60 f   libcurl:imap.obj
 0001:00036ae0       _imap_sendf                00437ae0 f   libcurl:imap.obj
 0001:00036b80       _imap_state_append_final_resp 00437b80 f   libcurl:imap.obj
 0001:00036bb0       _imap_state_append_resp    00437bb0 f   libcurl:imap.obj
 0001:00036c00       _imap_state_auth_resp      00437c00 f   libcurl:imap.obj
 0001:00036c80       _imap_state_capability_resp 00437c80 f   libcurl:imap.obj
 0001:00036e20       _imap_state_fetch_final_resp 00437e20 f   libcurl:imap.obj
 0001:00036e50       _imap_state_fetch_resp     00437e50 f   libcurl:imap.obj
 0001:00037070       _imap_state_listsearch_resp 00438070 f   libcurl:imap.obj
 0001:000370d0       _imap_state_login_resp     004380d0 f   libcurl:imap.obj
 0001:00037110       _imap_state_select_resp    00438110 f   libcurl:imap.obj
 0001:00037270       _imap_state_servergreet_resp 00438270 f   libcurl:imap.obj
 0001:000372d0       _imap_state_starttls_resp  004382d0 f   libcurl:imap.obj
 0001:00037320       _imap_statemachine         00438320 f   libcurl:imap.obj
 0001:00037484       $LN44                      00438484     libcurl:imap.obj
 0001:000374c0       _state                     004384c0 f   libcurl:imap.obj
 0001:000374c0       _state                     004384c0 f   libcurl:pop3.obj
 0001:000374c0       _state                     004384c0 f   libcurl:smtp.obj
 0001:000374e0       _pop3_do                   004384e0 f   libcurl:pop3.obj
 0001:00037520       _pop3_done                 00438520 f   libcurl:pop3.obj
 0001:00037580       _pop3_connect              00438580 f   libcurl:pop3.obj
 0001:00037610       _pop3_disconnect           00438610 f   libcurl:pop3.obj
 0001:00037680       _pop3_doing                00438680 f   libcurl:pop3.obj
 0001:000376b0       _pop3_setup_connection     004386b0 f   libcurl:pop3.obj
 0001:000376d0       _pop3_perform_auth         004386d0 f   libcurl:pop3.obj
 0001:000376d0       _smtp_perform_auth         004386d0 f   libcurl:smtp.obj
 0001:00037890       _pop3_endofresp            00438890 f   libcurl:pop3.obj
 0001:00037920       _pop3_init                 00438920 f   libcurl:pop3.obj
 0001:00037950       _pop3_parse_custom_request 00438950 f   libcurl:pop3.obj
 0001:00037980       _pop3_parse_url_options    00438980 f   libcurl:pop3.obj
 0001:00037aa0       _pop3_parse_url_path       00438aa0 f   libcurl:pop3.obj
 0001:00037ad0       _pop3_perform              00438ad0 f   libcurl:pop3.obj
 0001:00037b20       _pop3_perform_apop         00438b20 f   libcurl:pop3.obj
 0001:00037c60       _pop3_perform_authentication 00438c60 f   libcurl:pop3.obj
 0001:00037d30       _pop3_perform_capa         00438d30 f   libcurl:pop3.obj
 0001:00037d80       _pop3_perform_command      00438d80 f   libcurl:pop3.obj
 0001:00037e20       _pop3_perform_quit         00438e20 f   libcurl:pop3.obj
 0001:00037e60       _pop3_perform_starttls     00438e60 f   libcurl:pop3.obj
 0001:00037ea0       _pop3_perform_user         00438ea0 f   libcurl:pop3.obj
 0001:00037f00       _pop3_regular_transfer     00438f00 f   libcurl:pop3.obj
 0001:00037f80       _pop3_state_apop_resp      00438f80 f   libcurl:pop3.obj
 0001:00037fc0       _pop3_state_auth_resp      00438fc0 f   libcurl:pop3.obj
 0001:00038050       _pop3_state_capa_resp      00439050 f   libcurl:pop3.obj
 0001:000381c0       _pop3_state_command_resp   004391c0 f   libcurl:pop3.obj
 0001:00038270       _pop3_state_pass_resp      00439270 f   libcurl:pop3.obj
 0001:000382b0       _pop3_state_servergreet_resp 004392b0 f   libcurl:pop3.obj
 0001:000383d0       _pop3_state_starttls_resp  004393d0 f   libcurl:pop3.obj
 0001:00038420       _pop3_state_user_resp      00439420 f   libcurl:pop3.obj
 0001:00038490       _pop3_statemachine         00439490 f   libcurl:pop3.obj
 0001:000385b0       $LN39                      004395b0     libcurl:pop3.obj
 0001:000385e0       _smtp_get_message          004395e0 f   libcurl:smtp.obj
 0001:00038660       _smtp_do                   00439660 f   libcurl:smtp.obj
 0001:00038690       _smtp_done                 00439690 f   libcurl:smtp.obj
 0001:00038810       _smtp_connect              00439810 f   libcurl:smtp.obj
 0001:000388a0       _smtp_disconnect           004398a0 f   libcurl:smtp.obj
 0001:00038910       _smtp_setup_connection     00439910 f   libcurl:smtp.obj
 0001:00038b10       _smtp_endofresp            00439b10 f   libcurl:smtp.obj
 0001:00038c30       _smtp_init                 00439c30 f   libcurl:smtp.obj
 0001:00038c60       _smtp_parse_address        00439c60 f   libcurl:smtp.obj
 0001:00038ce0       _smtp_parse_custom_request 00439ce0 f   libcurl:smtp.obj
 0001:00038d10       _smtp_parse_url_options    00439d10 f   libcurl:smtp.obj
 0001:00038db0       _smtp_parse_url_path       00439db0 f   libcurl:smtp.obj
 0001:00038e30       _smtp_perform              00439e30 f   libcurl:smtp.obj
 0001:00038ec0       _smtp_perform_authentication 00439ec0 f   libcurl:smtp.obj
 0001:00038f50       _smtp_perform_command      00439f50 f   libcurl:smtp.obj
 0001:000390e0       _smtp_perform_ehlo         0043a0e0 f   libcurl:smtp.obj
 0001:00039130       _smtp_perform_helo         0043a130 f   libcurl:smtp.obj
 0001:00039170       _smtp_perform_mail         0043a170 f   libcurl:smtp.obj
 0001:00039590       _smtp_perform_quit         0043a590 f   libcurl:smtp.obj
 0001:000395d0       _smtp_perform_rcpt_to      0043a5d0 f   libcurl:smtp.obj
 0001:00039680       _smtp_perform_starttls     0043a680 f   libcurl:smtp.obj
 0001:000396c0       _smtp_regular_transfer     0043a6c0 f   libcurl:smtp.obj
 0001:00039740       _smtp_state_auth_resp      0043a740 f   libcurl:smtp.obj
 0001:000397a0       _smtp_state_command_resp   0043a7a0 f   libcurl:smtp.obj
 0001:00039890       _smtp_state_data_resp      0043a890 f   libcurl:smtp.obj
 0001:000398f0       _smtp_state_ehlo_resp      0043a8f0 f   libcurl:smtp.obj
 0001:00039b00       _smtp_state_helo_resp      0043ab00 f   libcurl:smtp.obj
 0001:00039b40       _smtp_state_mail_resp      0043ab40 f   libcurl:smtp.obj
 0001:00039b80       _smtp_state_postdata_resp  0043ab80 f   libcurl:smtp.obj
 0001:00039bb0       _smtp_state_rcpt_resp      0043abb0 f   libcurl:smtp.obj
 0001:00039c80       _smtp_state_servergreet_resp 0043ac80 f   libcurl:smtp.obj
 0001:00039cc0       _smtp_state_starttls_resp  0043acc0 f   libcurl:smtp.obj
 0001:00039d10       _smtp_statemachine         0043ad10 f   libcurl:smtp.obj
 0001:00039e5c       $LN42                      0043ae5c     libcurl:smtp.obj
 0001:00039e90       _ftp_do                    0043ae90 f   libcurl:ftp.obj
 0001:00039f00       _ftp_done                  0043af00 f   libcurl:ftp.obj
 0001:0003a3d8       $LN94                      0043b3d8     libcurl:ftp.obj
 0001:0003a3e0       $LN60                      0043b3e0     libcurl:ftp.obj
 0001:0003a430       _ftp_connect               0043b430 f   libcurl:ftp.obj
 0001:0003a4b0       _ftp_disconnect            0043b4b0 f   libcurl:ftp.obj
 0001:0003a540       _ftp_do_more               0043b540 f   libcurl:ftp.obj
 0001:0003a7a0       _ftp_multi_statemach       0043b7a0 f   libcurl:ftp.obj
 0001:0003a7d0       _ftp_domore_getsock        0043b7d0 f   libcurl:ftp.obj
 0001:0003a880       _ftp_doing                 0043b880 f   libcurl:ftp.obj
 0001:0003a8b0       _ftp_setup_connection      0043b8b0 f   libcurl:ftp.obj
 0001:0003a970       _AcceptServerConnect       0043b970 f   libcurl:ftp.obj
 0001:0003aab0       _AllowServerConnect        0043bab0 f   libcurl:ftp.obj
 0001:0003acd0       _InitiateTransfer          0043bcd0 f   libcurl:ftp.obj
 0001:0003ad70       _ReceivedServerConnect     0043bd70 f   libcurl:ftp.obj
 0001:0003aec0       __state                    0043bec0 f   libcurl:ftp.obj
 0001:0003aee0       _close_secondarysocket     0043bee0 f   libcurl:ftp.obj
 0001:0003af20       _control_address           0043bf20 f   libcurl:ftp.obj
 0001:0003af50       _freedirs                  0043bf50 f   libcurl:ftp.obj
 0001:0003afd0       _ftp_block_statemach       0043bfd0 f   libcurl:ftp.obj
 0001:0003b020       _ftp_dophase_done          0043c020 f   libcurl:ftp.obj
 0001:0003b0b0       _ftp_endofresp             0043c0b0 f   libcurl:ftp.obj
 0001:0003b120       _ftp_epsv_disable          0043c120 f   libcurl:ftp.obj
 0001:0003b1b0       _ftp_nb_type               0043c1b0 f   libcurl:ftp.obj
 0001:0003b230       _ftp_need_type             0043c230 f   libcurl:ftp.obj
 0001:0003b260       _ftp_parse_url_path        0043c260 f   libcurl:ftp.obj
 0001:0003b570       _ftp_pasv_verbose          0043c570 f   libcurl:ftp.obj
 0001:0003b5d0       _ftp_perform               0043c5d0 f   libcurl:ftp.obj
 0001:0003b640       _ftp_quit                  0043c640 f   libcurl:ftp.obj
 0001:0003b6c0       _ftp_readresp              0043c6c0 f   libcurl:ftp.obj
 0001:0003b720       _ftp_regular_transfer      0043c720 f   libcurl:ftp.obj
 0001:0003b7d0       _ftp_sendquote             0043c7d0 f   libcurl:ftp.obj
 0001:0003b890       _ftp_state_acct_resp       0043c890 f   libcurl:ftp.obj
 0001:0003b8d0       _ftp_state_cwd             0043c8d0 f   libcurl:ftp.obj
 0001:0003b980       _ftp_state_get_resp        0043c980 f   libcurl:ftp.obj
 0001:0003bba0       _ftp_state_list            0043cba0 f   libcurl:ftp.obj
 0001:0003bcb0       _ftp_state_loggedin        0043ccb0 f   libcurl:ftp.obj
 0001:0003bd00       _ftp_state_mdtm            0043cd00 f   libcurl:ftp.obj
 0001:0003bd60       _ftp_state_mdtm_resp       0043cd60 f   libcurl:ftp.obj
 0001:0003c010       _ftp_state_pasv_resp       0043d010 f   libcurl:ftp.obj
 0001:0003c4d0       _ftp_state_port_resp       0043d4d0 f   libcurl:ftp.obj
 0001:0003c560       _ftp_state_prepare_transfer 0043d560 f   libcurl:ftp.obj
 0001:0003c630       _ftp_state_pwd             0043d630 f   libcurl:ftp.obj
 0001:0003c670       _ftp_state_quote           0043d670 f   libcurl:ftp.obj
 0001:0003c830       _ftp_state_rest            0043d830 f   libcurl:ftp.obj
 0001:0003c890       _ftp_state_rest_resp       0043d890 f   libcurl:ftp.obj
 0001:0003c980       _ftp_state_retr            0043d980 f   libcurl:ftp.obj
 0001:0003cb50       _ftp_state_retr_prequote   0043db50 f   libcurl:ftp.obj
 0001:0003cb70       _ftp_state_size            0043db70 f   libcurl:ftp.obj
 0001:0003cbd0       _ftp_state_size_resp       0043dbd0 f   libcurl:ftp.obj
 0001:0003cdb0       _ftp_state_stor_prequote   0043ddb0 f   libcurl:ftp.obj
 0001:0003cdd0       _ftp_state_stor_resp       0043ddd0 f   libcurl:ftp.obj
 0001:0003ce60       _ftp_state_type            0043de60 f   libcurl:ftp.obj
 0001:0003ced0       _ftp_state_type_resp       0043ded0 f   libcurl:ftp.obj
 0001:0003cf80       _ftp_state_ul_setup        0043df80 f   libcurl:ftp.obj
 0001:0003d1e0       _ftp_state_use_pasv        0043e1e0 f   libcurl:ftp.obj
 0001:0003d260       _ftp_state_use_port        0043e260 f   libcurl:ftp.obj
 0001:0003dba0       _ftp_state_user            0043eba0 f   libcurl:ftp.obj
 0001:0003dbf0       _ftp_state_user_resp       0043ebf0 f   libcurl:ftp.obj
 0001:0003dd10       _ftp_statemachine          0043ed10 f   libcurl:ftp.obj
 0001:0003e51c       $LN150                     0043f51c     libcurl:ftp.obj
 0001:0003e5a0       _ftp_timeleft_accept       0043f5a0 f   libcurl:ftp.obj
 0001:0003e660       _init_wc_data              0043f660 f   libcurl:ftp.obj
 0001:0003e7e0       _wc_data_dtor              0043f7e0 f   libcurl:ftp.obj
 0001:0003e810       _wc_statemach              0043f810 f   libcurl:ftp.obj
 0001:0003eaa8       $LN38                      0043faa8     libcurl:ftp.obj
 0001:0003ead0       _file_do                   0043fad0 f   libcurl:file.obj
 0001:0003ef90       _file_done                 0043ff90 f   libcurl:file.obj
 0001:0003efe0       _file_connect              0043ffe0 f   libcurl:file.obj
 0001:0003f0e0       _file_disconnect           004400e0 f   libcurl:file.obj
 0001:0003f100       _file_setup_connection     00440100 f   libcurl:file.obj
 0001:0003f130       _file_upload               00440130 f   libcurl:file.obj
 0001:0003f3a0       _dict_do                   004403a0 f   libcurl:dict.obj
 0001:0003f640       _sendf                     00440640 f   libcurl:dict.obj
 0001:0003f6f0       _unescape_word             004406f0 f   libcurl:dict.obj
 0001:0003f790       _telnet_do                 00440790 f   libcurl:telnet.obj
 0001:0003fb40       _telnet_done               00440b40 f   libcurl:telnet.obj
 0001:0003fb90       _check_telnet_options      00440b90 f   libcurl:telnet.obj
 0001:0003fea0       _init_telnet               00440ea0 f   libcurl:telnet.obj
 0001:0003ff20       _negotiate                 00440f20 f   libcurl:telnet.obj
 0001:0003ff70       _printoption               00440f70 f   libcurl:telnet.obj
 0001:00040070       _printsub                  00441070 f   libcurl:telnet.obj
 0001:00040338       $LN73                      00441338     libcurl:telnet.obj
 0001:00040340       $LN60                      00441340     libcurl:telnet.obj
 0001:00040350       $LN74                      00441350     libcurl:telnet.obj
 0001:00040360       _rec_do                    00441360 f   libcurl:telnet.obj
 0001:00040460       _rec_dont                  00441460 f   libcurl:telnet.obj
 0001:00040500       _rec_will                  00441500 f   libcurl:telnet.obj
 0001:000405d0       _rec_wont                  004415d0 f   libcurl:telnet.obj
 0001:00040680       _send_negotiation          00441680 f   libcurl:telnet.obj
 0001:000406e0       _send_telnet_data          004416e0 f   libcurl:telnet.obj
 0001:00040800       _sendsuboption             00441800 f   libcurl:telnet.obj
 0001:00040970       _set_local_option          00441970 f   libcurl:telnet.obj
 0001:00040a10       _set_remote_option         00441a10 f   libcurl:telnet.obj
 0001:00040ac0       _suboption                 00441ac0 f   libcurl:telnet.obj
 0001:00040d50       _telrcv                    00441d50 f   libcurl:telnet.obj
 0001:000410bc       $LN88                      004420bc     libcurl:telnet.obj
 0001:000410e0       $LN89                      004420e0     libcurl:telnet.obj
 0001:00041100       _tftp_connect              00442100 f   libcurl:tftp.obj
 0001:000412e0       _tftp_disconnect           004422e0 f   libcurl:tftp.obj
 0001:00041330       _tftp_do                   00442330 f   libcurl:tftp.obj
 0001:00041390       _tftp_done                 00442390 f   libcurl:tftp.obj
 0001:000413d0       _tftp_setup_connection     004423d0 f   libcurl:tftp.obj
 0001:00041450       _tftp_multi_statemach      00442450 f   libcurl:tftp.obj
 0001:00041560       _tftp_doing                00442560 f   libcurl:tftp.obj
 0001:000415c0       _mqtt_getsock              004425c0 f   libcurl:mqtt.obj
 0001:000415c0       _tftp_getsock              004425c0 f   libcurl:tftp.obj
 0001:000415e0       _getrpacketblock           004425e0 f   libcurl:tftp.obj
 0001:00041600       _getrpacketevent           00442600 f   libcurl:tftp.obj
 0001:00041620       _setpacketblock            00442620 f   libcurl:tftp.obj
 0001:00041640       _setpacketevent            00442640 f   libcurl:tftp.obj
 0001:00041660       _tftp_connect_for_rx       00442660 f   libcurl:tftp.obj
 0001:000416a0       _tftp_connect_for_tx       004426a0 f   libcurl:tftp.obj
 0001:000416e0       _tftp_option_add           004426e0 f   libcurl:tftp.obj
 0001:00041750       _tftp_option_get           00442750 f   libcurl:tftp.obj
 0001:000417c0       _tftp_parse_option_ack     004427c0 f   libcurl:tftp.obj
 0001:000419d0       _tftp_perform              004429d0 f   libcurl:tftp.obj
 0001:00041a10       _tftp_receive_packet       00442a10 f   libcurl:tftp.obj
 0001:00041c2c       $LN20                      00442c2c     libcurl:tftp.obj
 0001:00041c40       _tftp_rx                   00442c40 f   libcurl:tftp.obj
 0001:00041efc       $LN28                      00442efc     libcurl:tftp.obj
 0001:00041f10       _tftp_send_first           00442f10 f   libcurl:tftp.obj
 0001:0004232c       $LN40                      0044332c     libcurl:tftp.obj
 0001:00042350       _tftp_set_timeouts         00443350 f   libcurl:tftp.obj
 0001:00042450       _tftp_state_machine        00443450 f   libcurl:tftp.obj
 0001:000424b4       $LN25                      004434b4     libcurl:tftp.obj
 0001:000424d0       _tftp_state_timeout        004434d0 f   libcurl:tftp.obj
 0001:00042580       _tftp_strnlen              00443580 f   libcurl:tftp.obj
 0001:000425b0       _tftp_translate_code       004435b0 f   libcurl:tftp.obj
 0001:0004261c       $LN19                      0044361c     libcurl:tftp.obj
 0001:00042644       $LN17                      00443644     libcurl:tftp.obj
 0001:000426b0       _tftp_tx                   004436b0 f   libcurl:tftp.obj
 0001:00042a28       $LN37                      00443a28     libcurl:tftp.obj
 0001:00042a40       _ldap_do                   00443a40 f   libcurl:ldap.obj
 0001:000430e0       __ldap_free_urldesc        004440e0 f   libcurl:ldap.obj
 0001:00043140       __ldap_url_parse           00444140 f   libcurl:ldap.obj
 0001:000431a0       __ldap_url_parse2          004441a0 f   libcurl:ldap.obj
 0001:00043450       _ldap_win_bind             00444450 f   libcurl:ldap.obj
 0001:000434d0       _split_str                 004444d0 f   libcurl:ldap.obj
 0001:00043570       _str2scope                 00444570 f   libcurl:ldap.obj
 0001:000435f0       _rtsp_do                   004445f0 f   libcurl:rtsp.obj
 0001:00043d54       $LN115                     00444d54     libcurl:rtsp.obj
 0001:00043d90       _rtsp_done                 00444d90 f   libcurl:rtsp.obj
 0001:00043e30       _rtsp_connect              00444e30 f   libcurl:rtsp.obj
 0001:00043e80       _rtsp_disconnect           00444e80 f   libcurl:rtsp.obj
 0001:00043eb0       _rtsp_rtp_readwrite        00444eb0 f   libcurl:rtsp.obj
 0001:00044080       _rtsp_setup_connection     00445080 f   libcurl:rtsp.obj
 0001:000440b0       _rtsp_conncheck            004450b0 f   libcurl:rtsp.obj
 0001:00044280       _rtp_client_write          00445280 f   libcurl:rtsp.obj
 0001:00044330       _rtsp_connisdead           00445330 f   libcurl:rtsp.obj
 0001:00044380       _smb_setup_connection      00445380 f   libcurl:smb.obj
 0001:000443b0       _smb_connect               004453b0 f   libcurl:smb.obj
 0001:00044490       _smb_connection_state      00445490 f   libcurl:smb.obj
 0001:000445d0       _smb_do                    004455d0 f   libcurl:smb.obj
 0001:00044600       _smb_request_state         00445600 f   libcurl:smb.obj
 0001:00044a1c       $LN55                      00445a1c     libcurl:smb.obj
 0001:00044a34       $LN56                      00445a34     libcurl:smb.obj
 0001:00044a50       _smb_done                  00445a50 f   libcurl:smb.obj
 0001:00044a80       _smb_disconnect            00445a80 f   libcurl:smb.obj
 0001:00044ae0       _smb_getsock               00445ae0 f   libcurl:smb.obj
 0001:00044b00       _conn_state                00445b00 f   libcurl:smb.obj
 0001:00044b20       _get_posix_time            00445b20 f   libcurl:smb.obj
 0001:00044b50       _request_state             00445b50 f   libcurl:smb.obj
 0001:00044b70       _smb_flush                 00445b70 f   libcurl:smb.obj
 0001:00044bd0       _smb_format_message        00445bd0 f   libcurl:smb.obj
 0001:00044c50       _smb_parse_url_path        00445c50 f   libcurl:smb.obj
 0001:00044d30       _smb_pop_message           00445d30 f   libcurl:smb.obj
 0001:00044d50       _smb_recv_message          00445d50 f   libcurl:smb.obj
 0001:00044e00       _smb_send                  00445e00 f   libcurl:smb.obj
 0001:00044e50       _smb_send_and_recv         00445e50 f   libcurl:smb.obj
 0001:00044f00       _smb_send_close            00445f00 f   libcurl:smb.obj
 0001:00044f40       _smb_send_message          00445f40 f   libcurl:smb.obj
 0001:00044f90       _smb_send_negotiate        00445f90 f   libcurl:smb.obj
 0001:00044fb0       _smb_send_open             00445fb0 f   libcurl:smb.obj
 0001:000450c0       _smb_send_read             004460c0 f   libcurl:smb.obj
 0001:00045130       _smb_send_setup            00446130 f   libcurl:smb.obj
 0001:00045330       _smb_send_tree_connect     00446330 f   libcurl:smb.obj
 0001:00045490       _smb_send_tree_disconnect  00446490 f   libcurl:smb.obj
 0001:000454c0       _smb_send_write            004464c0 f   libcurl:smb.obj
 0001:00045590       _mqtt_do                   00446590 f   libcurl:mqtt.obj
 0001:000455e0       _mqtt_doing                004465e0 f   libcurl:mqtt.obj
 0001:00045830       $LN44                      00446830     libcurl:mqtt.obj
 0001:00045850       _mqtt_setup_conn           00446850 f   libcurl:mqtt.obj
 0001:00045880       _mqstate                   00446880 f   libcurl:mqtt.obj
 0001:000458b0       _mqtt_connect              004468b0 f   libcurl:mqtt.obj
 0001:00045970       _mqtt_decode_len           00446970 f   libcurl:mqtt.obj
 0001:000459c0       _mqtt_disconnect           004469c0 f   libcurl:mqtt.obj
 0001:000459e0       _mqtt_encode_len           004469e0 f   libcurl:mqtt.obj
 0001:00045a10       _mqtt_get_topic            00446a10 f   libcurl:mqtt.obj
 0001:00045a70       _mqtt_publish              00446a70 f   libcurl:mqtt.obj
 0001:00045b80       _mqtt_read_publish         00446b80 f   libcurl:mqtt.obj
 0001:00045d48       $LN28                      00446d48     libcurl:mqtt.obj
 0001:00045d60       _mqtt_send                 00446d60 f   libcurl:mqtt.obj
 0001:00045de0       _mqtt_subscribe            00446de0 f   libcurl:mqtt.obj
 0001:00045ee0       _mqtt_verify_connack       00446ee0 f   libcurl:mqtt.obj
 0001:00045f60       _mqtt_verify_suback        00446f60 f   libcurl:mqtt.obj
 0001:00045fd0       _GetEnv                    00446fd0 f   libcurl:getenv.obj
 0001:00046130       _Curl_parse_port           00447130 f   libcurl:urlapi.obj
 0001:000462b0       _concat_url                004472b0 f   libcurl:urlapi.obj
 0001:00046aa8       $LN87                      00447aa8     libcurl:urlapi.obj
 0001:00047000       $LN123                     00448000     libcurl:urlapi.obj
 0001:0004702c       $LN124                     0044802c     libcurl:urlapi.obj
 0001:00047060       _find_host_sep             00448060 f   libcurl:urlapi.obj
 0001:000470d0       _free_urlhandle            004480d0 f   libcurl:urlapi.obj
 0001:00047150       _hostname_check            00448150 f   libcurl:urlapi.obj
 0001:000472d0       _junkscan                  004482d0 f   libcurl:urlapi.obj
 0001:00047310       _mv_urlhandle              00448310 f   libcurl:urlapi.obj
 0001:00047350       _parse_hostname_login      00448350 f   libcurl:urlapi.obj
 0001:00047430       _parseurl                  00448430 f   libcurl:urlapi.obj
 0001:00047470       _seturl                    00448470 f   libcurl:urlapi.obj
 0001:00047a80       _strcpy_url                00448a80 f   libcurl:urlapi.obj
 0001:00047b30       _strlen_url                00448b30 f   libcurl:urlapi.obj
 0001:00047bb0       _urlchar_needs_escaping    00448bb0 f   libcurl:urlapi.obj
 0001:00047e20       _parsenetrc                00448e20 f   libcurl:netrc.obj
 0001:00048600       _blobcmp                   00449600 f   libcurl:vtls.obj
 0001:000486a0       _blobdup                   004496a0 f   libcurl:vtls.obj
 0001:00048728       $LN9                       00449728     libcurl:escape.obj
 0001:00048730       $LN7                       00449730     libcurl:escape.obj
 0001:00048f88       $LN95                      00449f88     libcurl:strerror.obj
 0001:00049110       _get_winapi_error          0044a110 f   libcurl:strerror.obj
 0001:000491c0       _get_winsock_error         0044a1c0 f   libcurl:strerror.obj
 0001:000493f8       $LN61                      0044a3f8     libcurl:strerror.obj
 0001:000494b4       $LN58                      0044a4b4     libcurl:strerror.obj
 0001:00049610       _inet_ntop4                0044a610 f   libcurl:inet_ntop.obj
 0001:000496b0       _inet_ntop6                0044a6b0 f   libcurl:inet_ntop.obj
 0001:00049a3c       $LN18                      0044aa3c     libcurl:version_win32.obj
 0001:00049aa4       $LN10                      0044aaa4     libcurl:digest.obj
 0001:0004a614       $LN33                      0044b614     libcurl:digest.obj
 0001:0004a628       $LN28                      0044b628     libcurl:digest.obj
 0001:0004a680       _auth_create_digest_http_message 0044b680 f   libcurl:digest.obj
 0001:0004ab20       _auth_decode_digest_md5_message 0044bb20 f   libcurl:digest.obj
 0001:0004ac10       _auth_digest_get_key_value 0044bc10 f   libcurl:digest.obj
 0001:0004ac80       _auth_digest_get_qop_values 0044bc80 f   libcurl:digest.obj
 0001:0004ad40       _auth_digest_md5_to_ascii  0044bd40 f   libcurl:digest.obj
 0001:0004ad80       _auth_digest_sha256_to_ascii 0044bd80 f   libcurl:digest.obj
 0001:0004adc0       _auth_digest_string_quoted 0044bdc0 f   libcurl:digest.obj
 0001:0004ae74       $LN16                      0044be74     libcurl:http_chunks.obj
 0001:0004b230       $LN74                      0044c230     libcurl:http_chunks.obj
 0001:0004b650       _de_cleanup                0044c650 f   libcurl:doh.obj
 0001:0004b680       _de_init                   0044c680 f   libcurl:doh.obj
 0001:0004b6d0       _doh2ai                    0044c6d0 f   libcurl:doh.obj
 0001:0004b820       _doh_decode                0044c820 f   libcurl:doh.obj
 0001:0004bb20       _doh_done                  0044cb20 f   libcurl:doh.obj
 0001:0004bba0       _doh_encode                0044cba0 f   libcurl:doh.obj
 0001:0004bca0       _doh_strerror              0044cca0 f   libcurl:doh.obj
 0001:0004bcc0       _doh_write_cb              0044ccc0 f   libcurl:doh.obj
 0001:0004bcf0       _dohprobe                  0044ccf0 f   libcurl:doh.obj
 0001:0004c330       _get16bit                  0044d330 f   libcurl:doh.obj
 0001:0004c350       _get32bit                  0044d350 f   libcurl:doh.obj
 0001:0004c380       _rdata                     0044d380 f   libcurl:doh.obj
 0001:0004c400       _showdoh                   0044d400 f   libcurl:doh.obj
 0001:0004c590       _skipqname                 0044d590 f   libcurl:doh.obj
 0001:0004c600       _store_a                   0044d600 f   libcurl:doh.obj
 0001:0004c640       _store_aaaa                0044d640 f   libcurl:doh.obj
 0001:0004c680       _store_cname               0044d680 f   libcurl:doh.obj
 0001:0004c7a0       _type2name                 0044d7a0 f   libcurl:doh.obj
 0001:0004ca80       _setname                   0044da80 f   libcurl:formdata.obj
 0001:0004cc50       _base64_encode             0044dc50 f   libcurl:base64.obj
 0001:0004ce10       _decodeQuantum             0044de10 f   libcurl:base64.obj
 0001:0004d680       _ntlm_decode_type2_target  0044e680 f   libcurl:ntlm.obj
 0001:0004d730       _ascii_to_unicode_le       0044e730 f   libcurl:curl_ntlm_core.obj
 0001:0004d730       _unicodecpy                0044e730 f   libcurl:ntlm.obj
 0001:0004e130       _sha256_to_hex             0044f130 f   libcurl:http_aws_sigv4.obj
 0001:0004eddc       $LN56                      0044fddc     libcurl:curl_sasl.obj
 0001:0004f3a0       _state                     004503a0 f   libcurl:curl_sasl.obj
 0001:0004f3b0       _MD5_Init                  004503b0 f   libcurl:md5.obj
 0001:0004f3f0       _MD4_Update                004503f0 f   libcurl:md4.obj
 0001:0004f3f0       _MD5_Update                004503f0 f   libcurl:md5.obj
 0001:0004f3f0       _SHA256_Update             004503f0 f   libcurl:sha256.obj
 0001:0004f410       _MD4_Final                 00450410 f   libcurl:md4.obj
 0001:0004f410       _MD5_Final                 00450410 f   libcurl:md5.obj
 0001:00050050       $LN287                     00451050     libcurl:ftplistparser.obj
 0001:00050060       $LN288                     00451060     libcurl:ftplistparser.obj
 0001:00050088       $LN289                     00451088     libcurl:ftplistparser.obj
 0001:000500ac       $LN266                     004510ac     libcurl:ftplistparser.obj
 0001:000500f4       $LN290                     004510f4     libcurl:ftplistparser.obj
 0001:0005010c       $LN291                     0045110c     libcurl:ftplistparser.obj
 0001:00050170       _ftp_pl_get_permission     00451170 f   libcurl:ftplistparser.obj
 0001:000502a0       _ftp_pl_insert_finfo       004512a0 f   libcurl:ftplistparser.obj
 0001:00050910       _ascii_uppercase_to_unicode_le 00451910 f   libcurl:curl_ntlm_core.obj
 0001:00050950       _encrypt_des               00451950 f   libcurl:curl_ntlm_core.obj
 0001:00050a50       _extend_key_56_to_64       00451a50 f   libcurl:curl_ntlm_core.obj
 0001:00050ae0       _time2filetime             00451ae0 f   libcurl:curl_ntlm_core.obj
 0001:00050e60       _SHA256_Init               00451e60 f   libcurl:sha256.obj
 0001:00050ea0       _SHA256_Final              00451ea0 f   libcurl:sha256.obj
 0001:00051530       _charclass                 00452530 f   libcurl:curl_fnmatch.obj
 0001:00051580       _loop                      00452580 f   libcurl:curl_fnmatch.obj
 0001:00051794       $LN84                      00452794     libcurl:curl_fnmatch.obj
 0001:000517ac       $LN79                      004527ac     libcurl:curl_fnmatch.obj
 0001:00051810       _parsekeyword              00452810 f   libcurl:curl_fnmatch.obj
 0001:00051bf0       _setcharorrange            00452bf0 f   libcurl:curl_fnmatch.obj
 0001:00051ca0       _setcharset                00452ca0 f   libcurl:curl_fnmatch.obj
 0001:00051eb0       _MD4_Init                  00452eb0 f   libcurl:md4.obj
 0001:00051fe0       $$000000                   00452fe0     MSVCRT:lldiv.obj
 0001:00052001       L1                         00453001     MSVCRT:lldiv.obj
 0001:0005201d       L2                         0045301d     MSVCRT:lldiv.obj
 0001:00052039       L3                         00453039     MSVCRT:lldiv.obj
 0001:00052047       L5                         00453047     MSVCRT:lldiv.obj
 0001:00052075       L6                         00453075     MSVCRT:lldiv.obj
 0001:00052076       L7                         00453076     MSVCRT:lldiv.obj
 0001:0005207a       L4                         0045307a     MSVCRT:lldiv.obj
 0001:00052084       L8                         00453084     MSVCRT:lldiv.obj
 0001:00052090       $$000000                   00453090     MSVCRT:chkstk.obj
 0001:000520a4       cs10                       004530a4     MSVCRT:chkstk.obj
 0001:000520b4       cs20                       004530b4     MSVCRT:chkstk.obj
 0001:000520c0       $$000000                   004530c0     MSVCRT:ftol3.obj
 0001:000520de       _dtol3_default             004530de     MSVCRT:ftol3.obj
 0001:00052108       _dtol3_getbits             00453108     MSVCRT:ftol3.obj
 0001:00052131       _dtol3_trunc               00453131     MSVCRT:ftol3.obj
 0001:00052138       _dtol3_lshift              00453138     MSVCRT:ftol3.obj
 0001:0005213e       _dtol3_notsafe             0045313e     MSVCRT:ftol3.obj
 0001:00052157       _dtol3_large               00453157     MSVCRT:ftol3.obj
 0001:0005215f       _dtol3_NaN                 0045315f     MSVCRT:ftol3.obj
 0001:00052167       _dtol3_retmin              00453167     MSVCRT:ftol3.obj
 0001:00052170       $$000000                   00453170     MSVCRT:ftol3.obj
 0001:0005218a       _ltod3_default             0045318a     MSVCRT:ftol3.obj
 0001:000521c0       $$000000                   004531c0     MSVCRT:lldvrm.obj
 0001:000521e4       L1                         004531e4     MSVCRT:lldvrm.obj
 0001:00052200       L2                         00453200     MSVCRT:lldvrm.obj
 0001:0005222c       L3                         0045322c     MSVCRT:lldvrm.obj
 0001:0005223a       L5                         0045323a     MSVCRT:lldvrm.obj
 0001:00052268       L6                         00453268     MSVCRT:lldvrm.obj
 0001:00052271       L7                         00453271     MSVCRT:lldvrm.obj
 0001:00052273       L4                         00453273     MSVCRT:lldvrm.obj
 0001:00052285       L9                         00453285     MSVCRT:lldvrm.obj
 0001:00052299       L8                         00453299     MSVCRT:lldvrm.obj
 0001:000522a0       $$000000                   004532a0     MSVCRT:llmul.obj
 0001:000522b9       hard                       004532b9     MSVCRT:llmul.obj
 0001:000522e0       $$000000                   004532e0     MSVCRT:llrem.obj
 0001:00052300       L1                         00453300     MSVCRT:llrem.obj
 0001:0005231b       L2                         0045331b     MSVCRT:llrem.obj
 0001:0005233a       L3                         0045333a     MSVCRT:llrem.obj
 0001:00052348       L5                         00453348     MSVCRT:llrem.obj
 0001:00052373       L6                         00453373     MSVCRT:llrem.obj
 0001:0005237b       L7                         0045337b     MSVCRT:llrem.obj
 0001:00052386       L4                         00453386     MSVCRT:llrem.obj
 0001:0005238d       L8                         0045338d     MSVCRT:llrem.obj
 0001:000523a0       $$000000                   004533a0     MSVCRT:ulldvrm.obj
 0001:000523d1       L1                         004533d1     MSVCRT:ulldvrm.obj
 0001:000523df       L3                         004533df     MSVCRT:ulldvrm.obj
 0001:0005240d       L4                         0045340d     MSVCRT:ulldvrm.obj
 0001:00052416       L5                         00453416     MSVCRT:ulldvrm.obj
 0001:00052418       L2                         00453418     MSVCRT:ulldvrm.obj
 0001:000524c0       __unwindfunclet$?KEY@@YA?AV?$basic_string@DU?$char_traits@D@std@@V?$allocator@D@2@@std@@XZ$54 004534c0 f   protect.obj
 0001:000524d2       __unwindfunclet$?KEY@@YA?AV?$basic_string@DU?$char_traits@D@std@@V?$allocator@D@2@@std@@XZ$1 004534d2 f   protect.obj
 0001:000524dd       __unwindfunclet$?KEY@@YA?AV?$basic_string@DU?$char_traits@D@std@@V?$allocator@D@2@@std@@XZ$2 004534dd f   protect.obj
 0001:000524e8       __unwindfunclet$?KEY@@YA?AV?$basic_string@DU?$char_traits@D@std@@V?$allocator@D@2@@std@@XZ$3 004534e8 f   protect.obj
 0001:0005250a       __unwindfunclet$?KEY@@YA?AV?$basic_string@DU?$char_traits@D@std@@V?$allocator@D@2@@std@@XZ$74 0045350a f   protect.obj
 0001:0005251c       __unwindfunclet$?KEY@@YA?AV?$basic_string@DU?$char_traits@D@std@@V?$allocator@D@2@@std@@XZ$11 0045351c f   protect.obj
 0001:00052527       __unwindfunclet$?KEY@@YA?AV?$basic_string@DU?$char_traits@D@std@@V?$allocator@D@2@@std@@XZ$12 00453527 f   protect.obj
 0001:00052532       __unwindfunclet$?KEY@@YA?AV?$basic_string@DU?$char_traits@D@std@@V?$allocator@D@2@@std@@XZ$90 00453532 f   protect.obj
 0001:00052544       __unwindfunclet$?KEY@@YA?AV?$basic_string@DU?$char_traits@D@std@@V?$allocator@D@2@@std@@XZ$19 00453544 f   protect.obj
 0001:0005254f       __unwindfunclet$?KEY@@YA?AV?$basic_string@DU?$char_traits@D@std@@V?$allocator@D@2@@std@@XZ$20 0045354f f   protect.obj
 0001:0005255a       __unwindfunclet$?KEY@@YA?AV?$basic_string@DU?$char_traits@D@std@@V?$allocator@D@2@@std@@XZ$110 0045355a f   protect.obj
 0001:0005256c       __unwindfunclet$?KEY@@YA?AV?$basic_string@DU?$char_traits@D@std@@V?$allocator@D@2@@std@@XZ$29 0045356c f   protect.obj
 0001:00052577       __unwindfunclet$?KEY@@YA?AV?$basic_string@DU?$char_traits@D@std@@V?$allocator@D@2@@std@@XZ$30 00453577 f   protect.obj
 0001:00052582       __unwindfunclet$?KEY@@YA?AV?$basic_string@DU?$char_traits@D@std@@V?$allocator@D@2@@std@@XZ$132 00453582 f   protect.obj
 0001:00052594       __unwindfunclet$?KEY@@YA?AV?$basic_string@DU?$char_traits@D@std@@V?$allocator@D@2@@std@@XZ$40 00453594 f   protect.obj
 0001:0005259f       __unwindfunclet$?KEY@@YA?AV?$basic_string@DU?$char_traits@D@std@@V?$allocator@D@2@@std@@XZ$138 0045359f f   protect.obj
 0001:000525aa       __unwindfunclet$?KEY@@YA?AV?$basic_string@DU?$char_traits@D@std@@V?$allocator@D@2@@std@@XZ$41 004535aa f   protect.obj
 0001:000525ba       __ehhandler$?KEY@@YA?AV?$basic_string@DU?$char_traits@D@std@@V?$allocator@D@2@@std@@XZ 004535ba f   protect.obj
 0001:000525f0       __unwindfunclet$?write_to_string@@YAIPAXII0@Z$0 004535f0 f   protect.obj
 0001:000525fd       __ehhandler$?write_to_string@@YAIPAXII0@Z 004535fd f   protect.obj
 0001:00052620       __unwindfunclet$?IsValidTime@@YA_NHHH@Z$0 00453620 f   protect.obj
 0001:00052628       __unwindfunclet$?IsValidTime@@YA_NHHH@Z$1 00453628 f   protect.obj
 0001:00052635       __ehhandler$?IsValidTime@@YA_NHHH@Z 00453635 f   protect.obj
 0001:00052660       __ehhandler$??1sentry@?$basic_ostream@DU?$char_traits@D@std@@@std@@QAE@XZ 00453660 f   protect.obj
 0001:00052680       __ehhandler$??1_Sentry_base@?$basic_ostream@DU?$char_traits@D@std@@@std@@QAE@XZ 00453680 f   protect.obj
 0001:00052680       __ehhandler$??1_Sentry_base@?$basic_istream@DU?$char_traits@D@std@@@std@@QAE@XZ 00453680 f   systeminfo.obj
 0001:000526a0       __unwindfunclet$??$?6U?$char_traits@D@std@@@std@@YAAAV?$basic_ostream@DU?$char_traits@D@std@@@0@AAV10@PBD@Z$3 004536a0 f   protect.obj
 0001:000526a8       __unwindfunclet$??$?6U?$char_traits@D@std@@@std@@YAAAV?$basic_ostream@DU?$char_traits@D@std@@@0@AAV10@PBD@Z$2 004536a8 f   protect.obj
 0001:000526b5       __ehhandler$??$?6U?$char_traits@D@std@@@std@@YAAAV?$basic_ostream@DU?$char_traits@D@std@@@0@AAV10@PBD@Z 004536b5 f   protect.obj
 0001:000526e0       __unwindfunclet$??0CPUInfo@@QAE@ABV?$vector@V?$basic_string@DU?$char_traits@D@std@@V?$allocator@D@2@@std@@V?$allocator@V?$basic_string@DU?$char_traits@D@std@@V?$allocator@D@2@@std@@@2@@std@@H@Z$0 004536e0 f   systeminfo.obj
 0001:000526e8       __unwindfunclet$??0CPUInfo@@QAE@ABV?$vector@V?$basic_string@DU?$char_traits@D@std@@V?$allocator@D@2@@std@@V?$allocator@V?$basic_string@DU?$char_traits@D@std@@V?$allocator@D@2@@std@@@2@@std@@H@Z$1 004536e8 f   systeminfo.obj
 0001:000526f3       __unwindfunclet$??0CPUInfo@@QAE@ABV?$vector@V?$basic_string@DU?$char_traits@D@std@@V?$allocator@D@2@@std@@V?$allocator@V?$basic_string@DU?$char_traits@D@std@@V?$allocator@D@2@@std@@@2@@std@@H@Z$2 004536f3 f   systeminfo.obj
 0001:000526fe       __unwindfunclet$??0CPUInfo@@QAE@ABV?$vector@V?$basic_string@DU?$char_traits@D@std@@V?$allocator@D@2@@std@@V?$allocator@V?$basic_string@DU?$char_traits@D@std@@V?$allocator@D@2@@std@@@2@@std@@H@Z$3 004536fe f   systeminfo.obj
 0001:00052709       __unwindfunclet$??0CPUInfo@@QAE@ABV?$vector@V?$basic_string@DU?$char_traits@D@std@@V?$allocator@D@2@@std@@V?$allocator@V?$basic_string@DU?$char_traits@D@std@@V?$allocator@D@2@@std@@@2@@std@@H@Z$4 00453709 f   systeminfo.obj
 0001:00052714       __unwindfunclet$??0CPUInfo@@QAE@ABV?$vector@V?$basic_string@DU?$char_traits@D@std@@V?$allocator@D@2@@std@@V?$allocator@V?$basic_string@DU?$char_traits@D@std@@V?$allocator@D@2@@std@@@2@@std@@H@Z$5 00453714 f   systeminfo.obj
 0001:0005271f       __unwindfunclet$??0CPUInfo@@QAE@ABV?$vector@V?$basic_string@DU?$char_traits@D@std@@V?$allocator@D@2@@std@@V?$allocator@V?$basic_string@DU?$char_traits@D@std@@V?$allocator@D@2@@std@@@2@@std@@H@Z$9 0045371f f   systeminfo.obj
 0001:00052727       __unwindfunclet$??0CPUInfo@@QAE@ABV?$vector@V?$basic_string@DU?$char_traits@D@std@@V?$allocator@D@2@@std@@V?$allocator@V?$basic_string@DU?$char_traits@D@std@@V?$allocator@D@2@@std@@@2@@std@@H@Z$11 00453727 f   systeminfo.obj
 0001:0005272f       __unwindfunclet$??0CPUInfo@@QAE@ABV?$vector@V?$basic_string@DU?$char_traits@D@std@@V?$allocator@D@2@@std@@V?$allocator@V?$basic_string@DU?$char_traits@D@std@@V?$allocator@D@2@@std@@@2@@std@@H@Z$13 0045372f f   systeminfo.obj
 0001:0005273c       __ehhandler$??0CPUInfo@@QAE@ABV?$vector@V?$basic_string@DU?$char_traits@D@std@@V?$allocator@D@2@@std@@V?$allocator@V?$basic_string@DU?$char_traits@D@std@@V?$allocator@D@2@@std@@@2@@std@@H@Z 0045373c f   systeminfo.obj
 0001:00052770       __ehhandler$?getArchitecture@CPUInfo@@ABE?AV?$basic_string@DU?$char_traits@D@std@@V?$allocator@D@2@@std@@AAV23@@Z 00453770 f   systeminfo.obj
 0001:000527a0       __unwindfunclet$??0CPUInfoDelegate@@QAE@XZ$0 004537a0 f   systeminfo.obj
 0001:000527ab       __unwindfunclet$??0CPUInfoDelegate@@QAE@XZ$2 004537ab f   systeminfo.obj
 0001:000527be       __unwindfunclet$??0CPUInfoDelegate@@QAE@XZ$7 004537be f   systeminfo.obj
 0001:000527c9       __unwindfunclet$??0CPUInfoDelegate@@QAE@XZ$3 004537c9 f   systeminfo.obj
 0001:000527d4       __unwindfunclet$??0CPUInfoDelegate@@QAE@XZ$4 004537d4 f   systeminfo.obj
 0001:000527dc       __unwindfunclet$??0CPUInfoDelegate@@QAE@XZ$5 004537dc f   systeminfo.obj
 0001:000527e4       __unwindfunclet$??0CPUInfoDelegate@@QAE@XZ$6 004537e4 f   systeminfo.obj
 0001:000527f1       __ehhandler$??0CPUInfoDelegate@@QAE@XZ 004537f1 f   systeminfo.obj
 0001:00052820       __unwindfunclet$??0GPUInfo@@QAE@ABV?$vector@V?$basic_string@DU?$char_traits@D@std@@V?$allocator@D@2@@std@@V?$allocator@V?$basic_string@DU?$char_traits@D@std@@V?$allocator@D@2@@std@@@2@@std@@H@Z$2 00453820 f   systeminfo.obj
 0001:00052828       __unwindfunclet$??0GPUInfo@@QAE@ABV?$vector@V?$basic_string@DU?$char_traits@D@std@@V?$allocator@D@2@@std@@V?$allocator@V?$basic_string@DU?$char_traits@D@std@@V?$allocator@D@2@@std@@@2@@std@@H@Z$3 00453828 f   systeminfo.obj
 0001:00052833       __unwindfunclet$??0GPUInfo@@QAE@ABV?$vector@V?$basic_string@DU?$char_traits@D@std@@V?$allocator@D@2@@std@@V?$allocator@V?$basic_string@DU?$char_traits@D@std@@V?$allocator@D@2@@std@@@2@@std@@H@Z$4 00453833 f   systeminfo.obj
 0001:0005283e       __unwindfunclet$??0GPUInfo@@QAE@ABV?$vector@V?$basic_string@DU?$char_traits@D@std@@V?$allocator@D@2@@std@@V?$allocator@V?$basic_string@DU?$char_traits@D@std@@V?$allocator@D@2@@std@@@2@@std@@H@Z$5 0045383e f   systeminfo.obj
 0001:00052849       __unwindfunclet$??0GPUInfo@@QAE@ABV?$vector@V?$basic_string@DU?$char_traits@D@std@@V?$allocator@D@2@@std@@V?$allocator@V?$basic_string@DU?$char_traits@D@std@@V?$allocator@D@2@@std@@@2@@std@@H@Z$6 00453849 f   systeminfo.obj
 0001:00052854       __unwindfunclet$??0GPUInfo@@QAE@ABV?$vector@V?$basic_string@DU?$char_traits@D@std@@V?$allocator@D@2@@std@@V?$allocator@V?$basic_string@DU?$char_traits@D@std@@V?$allocator@D@2@@std@@@2@@std@@H@Z$7 00453854 f   systeminfo.obj
 0001:0005285f       __unwindfunclet$??0GPUInfo@@QAE@ABV?$vector@V?$basic_string@DU?$char_traits@D@std@@V?$allocator@D@2@@std@@V?$allocator@V?$basic_string@DU?$char_traits@D@std@@V?$allocator@D@2@@std@@@2@@std@@H@Z$8 0045385f f   systeminfo.obj
 0001:0005286d       __unwindfunclet$??0GPUInfo@@QAE@ABV?$vector@V?$basic_string@DU?$char_traits@D@std@@V?$allocator@D@2@@std@@V?$allocator@V?$basic_string@DU?$char_traits@D@std@@V?$allocator@D@2@@std@@@2@@std@@H@Z$9 0045386d f   systeminfo.obj
 0001:0005287b       __unwindfunclet$??0GPUInfo@@QAE@ABV?$vector@V?$basic_string@DU?$char_traits@D@std@@V?$allocator@D@2@@std@@V?$allocator@V?$basic_string@DU?$char_traits@D@std@@V?$allocator@D@2@@std@@@2@@std@@H@Z$10 0045387b f   systeminfo.obj
 0001:00052889       __unwindfunclet$??0GPUInfo@@QAE@ABV?$vector@V?$basic_string@DU?$char_traits@D@std@@V?$allocator@D@2@@std@@V?$allocator@V?$basic_string@DU?$char_traits@D@std@@V?$allocator@D@2@@std@@@2@@std@@H@Z$11 00453889 f   systeminfo.obj
 0001:00052897       __unwindfunclet$??0GPUInfo@@QAE@ABV?$vector@V?$basic_string@DU?$char_traits@D@std@@V?$allocator@D@2@@std@@V?$allocator@V?$basic_string@DU?$char_traits@D@std@@V?$allocator@D@2@@std@@@2@@std@@H@Z$15 00453897 f   systeminfo.obj
 0001:0005289f       __unwindfunclet$??0GPUInfo@@QAE@ABV?$vector@V?$basic_string@DU?$char_traits@D@std@@V?$allocator@D@2@@std@@V?$allocator@V?$basic_string@DU?$char_traits@D@std@@V?$allocator@D@2@@std@@@2@@std@@H@Z$16 0045389f f   systeminfo.obj
 0001:000528aa       __unwindfunclet$??0GPUInfo@@QAE@ABV?$vector@V?$basic_string@DU?$char_traits@D@std@@V?$allocator@D@2@@std@@V?$allocator@V?$basic_string@DU?$char_traits@D@std@@V?$allocator@D@2@@std@@@2@@std@@H@Z$17 004538aa f   systeminfo.obj
 0001:000528b5       __unwindfunclet$??0GPUInfo@@QAE@ABV?$vector@V?$basic_string@DU?$char_traits@D@std@@V?$allocator@D@2@@std@@V?$allocator@V?$basic_string@DU?$char_traits@D@std@@V?$allocator@D@2@@std@@@2@@std@@H@Z$18 004538b5 f   systeminfo.obj
 0001:000528c0       __unwindfunclet$??0GPUInfo@@QAE@ABV?$vector@V?$basic_string@DU?$char_traits@D@std@@V?$allocator@D@2@@std@@V?$allocator@V?$basic_string@DU?$char_traits@D@std@@V?$allocator@D@2@@std@@@2@@std@@H@Z$19 004538c0 f   systeminfo.obj
 0001:000528c8       __unwindfunclet$??0GPUInfo@@QAE@ABV?$vector@V?$basic_string@DU?$char_traits@D@std@@V?$allocator@D@2@@std@@V?$allocator@V?$basic_string@DU?$char_traits@D@std@@V?$allocator@D@2@@std@@@2@@std@@H@Z$22 004538c8 f   systeminfo.obj
 0001:000528d0       __unwindfunclet$??0GPUInfo@@QAE@ABV?$vector@V?$basic_string@DU?$char_traits@D@std@@V?$allocator@D@2@@std@@V?$allocator@V?$basic_string@DU?$char_traits@D@std@@V?$allocator@D@2@@std@@@2@@std@@H@Z$25 004538d0 f   systeminfo.obj
 0001:000528d8       __unwindfunclet$??0GPUInfo@@QAE@ABV?$vector@V?$basic_string@DU?$char_traits@D@std@@V?$allocator@D@2@@std@@V?$allocator@V?$basic_string@DU?$char_traits@D@std@@V?$allocator@D@2@@std@@@2@@std@@H@Z$27 004538d8 f   systeminfo.obj
 0001:000528e5       __ehhandler$??0GPUInfo@@QAE@ABV?$vector@V?$basic_string@DU?$char_traits@D@std@@V?$allocator@D@2@@std@@V?$allocator@V?$basic_string@DU?$char_traits@D@std@@V?$allocator@D@2@@std@@@2@@std@@H@Z 004538e5 f   systeminfo.obj
 0001:00052910       __ehhandler$?getVideoArchitecture@GPUInfo@@ABE?AV?$basic_string@DU?$char_traits@D@std@@V?$allocator@D@2@@std@@ABV23@@Z 00453910 f   systeminfo.obj
 0001:00052940       __ehhandler$?getVideoMemoryType@GPUInfo@@ABE?AV?$basic_string@DU?$char_traits@D@std@@V?$allocator@D@2@@std@@ABV23@@Z 00453940 f   systeminfo.obj
 0001:00052970       __unwindfunclet$??0GPUInfoDelegate@@QAE@XZ$0 00453970 f   systeminfo.obj
 0001:0005297b       __unwindfunclet$??0GPUInfoDelegate@@QAE@XZ$2 0045397b f   systeminfo.obj
 0001:0005298e       __unwindfunclet$??0GPUInfoDelegate@@QAE@XZ$7 0045398e f   systeminfo.obj
 0001:00052999       __unwindfunclet$??0GPUInfoDelegate@@QAE@XZ$3 00453999 f   systeminfo.obj
 0001:000529a4       __unwindfunclet$??0GPUInfoDelegate@@QAE@XZ$4 004539a4 f   systeminfo.obj
 0001:000529ac       __unwindfunclet$??0GPUInfoDelegate@@QAE@XZ$5 004539ac f   systeminfo.obj
 0001:000529b4       __unwindfunclet$??0GPUInfoDelegate@@QAE@XZ$6 004539b4 f   systeminfo.obj
 0001:000529c1       __ehhandler$??0GPUInfoDelegate@@QAE@XZ 004539c1 f   systeminfo.obj
 0001:000529f0       __unwindfunclet$??0MotherboardInfo@@QAE@ABV?$vector@V?$basic_string@DU?$char_traits@D@std@@V?$allocator@D@2@@std@@V?$allocator@V?$basic_string@DU?$char_traits@D@std@@V?$allocator@D@2@@std@@@2@@std@@H@Z$0 004539f0 f   systeminfo.obj
 0001:000529f8       __unwindfunclet$??0MotherboardInfo@@QAE@ABV?$vector@V?$basic_string@DU?$char_traits@D@std@@V?$allocator@D@2@@std@@V?$allocator@V?$basic_string@DU?$char_traits@D@std@@V?$allocator@D@2@@std@@@2@@std@@H@Z$1 004539f8 f   systeminfo.obj
 0001:00052a03       __unwindfunclet$??0MotherboardInfo@@QAE@ABV?$vector@V?$basic_string@DU?$char_traits@D@std@@V?$allocator@D@2@@std@@V?$allocator@V?$basic_string@DU?$char_traits@D@std@@V?$allocator@D@2@@std@@@2@@std@@H@Z$2 00453a03 f   systeminfo.obj
 0001:00052a0e       __unwindfunclet$??0MotherboardInfo@@QAE@ABV?$vector@V?$basic_string@DU?$char_traits@D@std@@V?$allocator@D@2@@std@@V?$allocator@V?$basic_string@DU?$char_traits@D@std@@V?$allocator@D@2@@std@@@2@@std@@H@Z$3 00453a0e f   systeminfo.obj
 0001:00052a19       __unwindfunclet$??0MotherboardInfo@@QAE@ABV?$vector@V?$basic_string@DU?$char_traits@D@std@@V?$allocator@D@2@@std@@V?$allocator@V?$basic_string@DU?$char_traits@D@std@@V?$allocator@D@2@@std@@@2@@std@@H@Z$4 00453a19 f   systeminfo.obj
 0001:00052a29       __ehhandler$??0MotherboardInfo@@QAE@ABV?$vector@V?$basic_string@DU?$char_traits@D@std@@V?$allocator@D@2@@std@@V?$allocator@V?$basic_string@DU?$char_traits@D@std@@V?$allocator@D@2@@std@@@2@@std@@H@Z 00453a29 f   systeminfo.obj
 0001:00052a50       __unwindfunclet$?determineChipset@MotherboardInfo@@AAEXXZ$1 00453a50 f   systeminfo.obj
 0001:00052a66       __unwindfunclet$?determineChipset@MotherboardInfo@@AAEXXZ$5 00453a66 f   systeminfo.obj
 0001:00052a71       __unwindfunclet$?determineChipset@MotherboardInfo@@AAEXXZ$2 00453a71 f   systeminfo.obj
 0001:00052a7c       __unwindfunclet$?determineChipset@MotherboardInfo@@AAEXXZ$3 00453a7c f   systeminfo.obj
 0001:00052a89       __ehhandler$?determineChipset@MotherboardInfo@@AAEXXZ 00453a89 f   systeminfo.obj
 0001:00052ac0       __unwindfunclet$??0MotherboardInfoDelegate@@QAE@XZ$0 00453ac0 f   systeminfo.obj
 0001:00052acb       __unwindfunclet$??0MotherboardInfoDelegate@@QAE@XZ$2 00453acb f   systeminfo.obj
 0001:00052ade       __unwindfunclet$??0MotherboardInfoDelegate@@QAE@XZ$7 00453ade f   systeminfo.obj
 0001:00052ae9       __unwindfunclet$??0MotherboardInfoDelegate@@QAE@XZ$3 00453ae9 f   systeminfo.obj
 0001:00052af4       __unwindfunclet$??0MotherboardInfoDelegate@@QAE@XZ$4 00453af4 f   systeminfo.obj
 0001:00052afc       __unwindfunclet$??0MotherboardInfoDelegate@@QAE@XZ$5 00453afc f   systeminfo.obj
 0001:00052b04       __unwindfunclet$??0MotherboardInfoDelegate@@QAE@XZ$6 00453b04 f   systeminfo.obj
 0001:00052b11       __ehhandler$??0MotherboardInfoDelegate@@QAE@XZ 00453b11 f   systeminfo.obj
 0001:00052b40       __unwindfunclet$??0OSInfo@@QAE@ABV?$vector@V?$basic_string@DU?$char_traits@D@std@@V?$allocator@D@2@@std@@V?$allocator@V?$basic_string@DU?$char_traits@D@std@@V?$allocator@D@2@@std@@@2@@std@@H@Z$6 00453b40 f   systeminfo.obj
 0001:00052b48       __unwindfunclet$??0OSInfo@@QAE@ABV?$vector@V?$basic_string@DU?$char_traits@D@std@@V?$allocator@D@2@@std@@V?$allocator@V?$basic_string@DU?$char_traits@D@std@@V?$allocator@D@2@@std@@@2@@std@@H@Z$7 00453b48 f   systeminfo.obj
 0001:00052b53       __unwindfunclet$??0OSInfo@@QAE@ABV?$vector@V?$basic_string@DU?$char_traits@D@std@@V?$allocator@D@2@@std@@V?$allocator@V?$basic_string@DU?$char_traits@D@std@@V?$allocator@D@2@@std@@@2@@std@@H@Z$8 00453b53 f   systeminfo.obj
 0001:00052b5e       __unwindfunclet$??0OSInfo@@QAE@ABV?$vector@V?$basic_string@DU?$char_traits@D@std@@V?$allocator@D@2@@std@@V?$allocator@V?$basic_string@DU?$char_traits@D@std@@V?$allocator@D@2@@std@@@2@@std@@H@Z$9 00453b5e f   systeminfo.obj
 0001:00052b69       __unwindfunclet$??0OSInfo@@QAE@ABV?$vector@V?$basic_string@DU?$char_traits@D@std@@V?$allocator@D@2@@std@@V?$allocator@V?$basic_string@DU?$char_traits@D@std@@V?$allocator@D@2@@std@@@2@@std@@H@Z$10 00453b69 f   systeminfo.obj
 0001:00052b74       __unwindfunclet$??0OSInfo@@QAE@ABV?$vector@V?$basic_string@DU?$char_traits@D@std@@V?$allocator@D@2@@std@@V?$allocator@V?$basic_string@DU?$char_traits@D@std@@V?$allocator@D@2@@std@@@2@@std@@H@Z$11 00453b74 f   systeminfo.obj
 0001:00052b7f       __unwindfunclet$??0OSInfo@@QAE@ABV?$vector@V?$basic_string@DU?$char_traits@D@std@@V?$allocator@D@2@@std@@V?$allocator@V?$basic_string@DU?$char_traits@D@std@@V?$allocator@D@2@@std@@@2@@std@@H@Z$12 00453b7f f   systeminfo.obj
 0001:00052b8d       __unwindfunclet$??0OSInfo@@QAE@ABV?$vector@V?$basic_string@DU?$char_traits@D@std@@V?$allocator@D@2@@std@@V?$allocator@V?$basic_string@DU?$char_traits@D@std@@V?$allocator@D@2@@std@@@2@@std@@H@Z$13 00453b8d f   systeminfo.obj
 0001:00052b9b       __unwindfunclet$??0OSInfo@@QAE@ABV?$vector@V?$basic_string@DU?$char_traits@D@std@@V?$allocator@D@2@@std@@V?$allocator@V?$basic_string@DU?$char_traits@D@std@@V?$allocator@D@2@@std@@@2@@std@@H@Z$14 00453b9b f   systeminfo.obj
 0001:00052ba9       __unwindfunclet$??0OSInfo@@QAE@ABV?$vector@V?$basic_string@DU?$char_traits@D@std@@V?$allocator@D@2@@std@@V?$allocator@V?$basic_string@DU?$char_traits@D@std@@V?$allocator@D@2@@std@@@2@@std@@H@Z$15 00453ba9 f   systeminfo.obj
 0001:00052bb7       __unwindfunclet$??0OSInfo@@QAE@ABV?$vector@V?$basic_string@DU?$char_traits@D@std@@V?$allocator@D@2@@std@@V?$allocator@V?$basic_string@DU?$char_traits@D@std@@V?$allocator@D@2@@std@@@2@@std@@H@Z$16 00453bb7 f   systeminfo.obj
 0001:00052bc5       __unwindfunclet$??0OSInfo@@QAE@ABV?$vector@V?$basic_string@DU?$char_traits@D@std@@V?$allocator@D@2@@std@@V?$allocator@V?$basic_string@DU?$char_traits@D@std@@V?$allocator@D@2@@std@@@2@@std@@H@Z$17 00453bc5 f   systeminfo.obj
 0001:00052bd3       __unwindfunclet$??0OSInfo@@QAE@ABV?$vector@V?$basic_string@DU?$char_traits@D@std@@V?$allocator@D@2@@std@@V?$allocator@V?$basic_string@DU?$char_traits@D@std@@V?$allocator@D@2@@std@@@2@@std@@H@Z$18 00453bd3 f   systeminfo.obj
 0001:00052be1       __unwindfunclet$??0OSInfo@@QAE@ABV?$vector@V?$basic_string@DU?$char_traits@D@std@@V?$allocator@D@2@@std@@V?$allocator@V?$basic_string@DU?$char_traits@D@std@@V?$allocator@D@2@@std@@@2@@std@@H@Z$19 00453be1 f   systeminfo.obj
 0001:00052bef       __unwindfunclet$??0OSInfo@@QAE@ABV?$vector@V?$basic_string@DU?$char_traits@D@std@@V?$allocator@D@2@@std@@V?$allocator@V?$basic_string@DU?$char_traits@D@std@@V?$allocator@D@2@@std@@@2@@std@@H@Z$31 00453bef f   systeminfo.obj
 0001:00052bf7       __unwindfunclet$??0OSInfo@@QAE@ABV?$vector@V?$basic_string@DU?$char_traits@D@std@@V?$allocator@D@2@@std@@V?$allocator@V?$basic_string@DU?$char_traits@D@std@@V?$allocator@D@2@@std@@@2@@std@@H@Z$32 00453bf7 f   systeminfo.obj
 0001:00052c02       __unwindfunclet$??0OSInfo@@QAE@ABV?$vector@V?$basic_string@DU?$char_traits@D@std@@V?$allocator@D@2@@std@@V?$allocator@V?$basic_string@DU?$char_traits@D@std@@V?$allocator@D@2@@std@@@2@@std@@H@Z$33 00453c02 f   systeminfo.obj
 0001:00052c0d       __unwindfunclet$??0OSInfo@@QAE@ABV?$vector@V?$basic_string@DU?$char_traits@D@std@@V?$allocator@D@2@@std@@V?$allocator@V?$basic_string@DU?$char_traits@D@std@@V?$allocator@D@2@@std@@@2@@std@@H@Z$34 00453c0d f   systeminfo.obj
 0001:00052c18       __unwindfunclet$??0OSInfo@@QAE@ABV?$vector@V?$basic_string@DU?$char_traits@D@std@@V?$allocator@D@2@@std@@V?$allocator@V?$basic_string@DU?$char_traits@D@std@@V?$allocator@D@2@@std@@@2@@std@@H@Z$35 00453c18 f   systeminfo.obj
 0001:00052c20       __unwindfunclet$??0OSInfo@@QAE@ABV?$vector@V?$basic_string@DU?$char_traits@D@std@@V?$allocator@D@2@@std@@V?$allocator@V?$basic_string@DU?$char_traits@D@std@@V?$allocator@D@2@@std@@@2@@std@@H@Z$38 00453c20 f   systeminfo.obj
 0001:00052c28       __unwindfunclet$??0OSInfo@@QAE@ABV?$vector@V?$basic_string@DU?$char_traits@D@std@@V?$allocator@D@2@@std@@V?$allocator@V?$basic_string@DU?$char_traits@D@std@@V?$allocator@D@2@@std@@@2@@std@@H@Z$39 00453c28 f   systeminfo.obj
 0001:00052c33       __unwindfunclet$??0OSInfo@@QAE@ABV?$vector@V?$basic_string@DU?$char_traits@D@std@@V?$allocator@D@2@@std@@V?$allocator@V?$basic_string@DU?$char_traits@D@std@@V?$allocator@D@2@@std@@@2@@std@@H@Z$40 00453c33 f   systeminfo.obj
 0001:00052c3e       __unwindfunclet$??0OSInfo@@QAE@ABV?$vector@V?$basic_string@DU?$char_traits@D@std@@V?$allocator@D@2@@std@@V?$allocator@V?$basic_string@DU?$char_traits@D@std@@V?$allocator@D@2@@std@@@2@@std@@H@Z$41 00453c3e f   systeminfo.obj
 0001:00052c49       __unwindfunclet$??0OSInfo@@QAE@ABV?$vector@V?$basic_string@DU?$char_traits@D@std@@V?$allocator@D@2@@std@@V?$allocator@V?$basic_string@DU?$char_traits@D@std@@V?$allocator@D@2@@std@@@2@@std@@H@Z$42 00453c49 f   systeminfo.obj
 0001:00052c51       __unwindfunclet$??0OSInfo@@QAE@ABV?$vector@V?$basic_string@DU?$char_traits@D@std@@V?$allocator@D@2@@std@@V?$allocator@V?$basic_string@DU?$char_traits@D@std@@V?$allocator@D@2@@std@@@2@@std@@H@Z$45 00453c51 f   systeminfo.obj
 0001:00052c59       __unwindfunclet$??0OSInfo@@QAE@ABV?$vector@V?$basic_string@DU?$char_traits@D@std@@V?$allocator@D@2@@std@@V?$allocator@V?$basic_string@DU?$char_traits@D@std@@V?$allocator@D@2@@std@@@2@@std@@H@Z$46 00453c59 f   systeminfo.obj
 0001:00052c64       __unwindfunclet$??0OSInfo@@QAE@ABV?$vector@V?$basic_string@DU?$char_traits@D@std@@V?$allocator@D@2@@std@@V?$allocator@V?$basic_string@DU?$char_traits@D@std@@V?$allocator@D@2@@std@@@2@@std@@H@Z$47 00453c64 f   systeminfo.obj
 0001:00052c6f       __unwindfunclet$??0OSInfo@@QAE@ABV?$vector@V?$basic_string@DU?$char_traits@D@std@@V?$allocator@D@2@@std@@V?$allocator@V?$basic_string@DU?$char_traits@D@std@@V?$allocator@D@2@@std@@@2@@std@@H@Z$48 00453c6f f   systeminfo.obj
 0001:00052c7a       __unwindfunclet$??0OSInfo@@QAE@ABV?$vector@V?$basic_string@DU?$char_traits@D@std@@V?$allocator@D@2@@std@@V?$allocator@V?$basic_string@DU?$char_traits@D@std@@V?$allocator@D@2@@std@@@2@@std@@H@Z$49 00453c7a f   systeminfo.obj
 0001:00052c87       __ehhandler$??0OSInfo@@QAE@ABV?$vector@V?$basic_string@DU?$char_traits@D@std@@V?$allocator@D@2@@std@@V?$allocator@V?$basic_string@DU?$char_traits@D@std@@V?$allocator@D@2@@std@@@2@@std@@H@Z 00453c87 f   systeminfo.obj
 0001:00052cc0       __unwindfunclet$??0OSInfoDelegate@@QAE@XZ$0 00453cc0 f   systeminfo.obj
 0001:00052ccb       __unwindfunclet$??0OSInfoDelegate@@QAE@XZ$2 00453ccb f   systeminfo.obj
 0001:00052cde       __unwindfunclet$??0OSInfoDelegate@@QAE@XZ$7 00453cde f   systeminfo.obj
 0001:00052ce9       __unwindfunclet$??0OSInfoDelegate@@QAE@XZ$3 00453ce9 f   systeminfo.obj
 0001:00052cf4       __unwindfunclet$??0OSInfoDelegate@@QAE@XZ$4 00453cf4 f   systeminfo.obj
 0001:00052cfc       __unwindfunclet$??0OSInfoDelegate@@QAE@XZ$5 00453cfc f   systeminfo.obj
 0001:00052d04       __unwindfunclet$??0OSInfoDelegate@@QAE@XZ$6 00453d04 f   systeminfo.obj
 0001:00052d11       __ehhandler$??0OSInfoDelegate@@QAE@XZ 00453d11 f   systeminfo.obj
 0001:00052d40       __unwindfunclet$??0RAMInfo@@QAE@ABV?$vector@V?$basic_string@DU?$char_traits@D@std@@V?$allocator@D@2@@std@@V?$allocator@V?$basic_string@DU?$char_traits@D@std@@V?$allocator@D@2@@std@@@2@@std@@H@Z$2 00453d40 f   systeminfo.obj
 0001:00052d4b       __unwindfunclet$??0RAMInfo@@QAE@ABV?$vector@V?$basic_string@DU?$char_traits@D@std@@V?$allocator@D@2@@std@@V?$allocator@V?$basic_string@DU?$char_traits@D@std@@V?$allocator@D@2@@std@@@2@@std@@H@Z$3 00453d4b f   systeminfo.obj
 0001:00052d59       __unwindfunclet$??0RAMInfo@@QAE@ABV?$vector@V?$basic_string@DU?$char_traits@D@std@@V?$allocator@D@2@@std@@V?$allocator@V?$basic_string@DU?$char_traits@D@std@@V?$allocator@D@2@@std@@@2@@std@@H@Z$4 00453d59 f   systeminfo.obj
 0001:00052d67       __unwindfunclet$??0RAMInfo@@QAE@ABV?$vector@V?$basic_string@DU?$char_traits@D@std@@V?$allocator@D@2@@std@@V?$allocator@V?$basic_string@DU?$char_traits@D@std@@V?$allocator@D@2@@std@@@2@@std@@H@Z$5 00453d67 f   systeminfo.obj
 0001:00052d75       __unwindfunclet$??0RAMInfo@@QAE@ABV?$vector@V?$basic_string@DU?$char_traits@D@std@@V?$allocator@D@2@@std@@V?$allocator@V?$basic_string@DU?$char_traits@D@std@@V?$allocator@D@2@@std@@@2@@std@@H@Z$6 00453d75 f   systeminfo.obj
 0001:00052d83       __unwindfunclet$??0RAMInfo@@QAE@ABV?$vector@V?$basic_string@DU?$char_traits@D@std@@V?$allocator@D@2@@std@@V?$allocator@V?$basic_string@DU?$char_traits@D@std@@V?$allocator@D@2@@std@@@2@@std@@H@Z$7 00453d83 f   systeminfo.obj
 0001:00052d91       __unwindfunclet$??0RAMInfo@@QAE@ABV?$vector@V?$basic_string@DU?$char_traits@D@std@@V?$allocator@D@2@@std@@V?$allocator@V?$basic_string@DU?$char_traits@D@std@@V?$allocator@D@2@@std@@@2@@std@@H@Z$8 00453d91 f   systeminfo.obj
 0001:00052da2       __unwindfunclet$??0RAMInfo@@QAE@ABV?$vector@V?$basic_string@DU?$char_traits@D@std@@V?$allocator@D@2@@std@@V?$allocator@V?$basic_string@DU?$char_traits@D@std@@V?$allocator@D@2@@std@@@2@@std@@H@Z$9 00453da2 f   systeminfo.obj
 0001:00052db3       __unwindfunclet$??0RAMInfo@@QAE@ABV?$vector@V?$basic_string@DU?$char_traits@D@std@@V?$allocator@D@2@@std@@V?$allocator@V?$basic_string@DU?$char_traits@D@std@@V?$allocator@D@2@@std@@@2@@std@@H@Z$10 00453db3 f   systeminfo.obj
 0001:00052dbb       __unwindfunclet$??0RAMInfo@@QAE@ABV?$vector@V?$basic_string@DU?$char_traits@D@std@@V?$allocator@D@2@@std@@V?$allocator@V?$basic_string@DU?$char_traits@D@std@@V?$allocator@D@2@@std@@@2@@std@@H@Z$13 00453dbb f   systeminfo.obj
 0001:00052dc3       __unwindfunclet$??0RAMInfo@@QAE@ABV?$vector@V?$basic_string@DU?$char_traits@D@std@@V?$allocator@D@2@@std@@V?$allocator@V?$basic_string@DU?$char_traits@D@std@@V?$allocator@D@2@@std@@@2@@std@@H@Z$14 00453dc3 f   systeminfo.obj
 0001:00052dce       __unwindfunclet$??0RAMInfo@@QAE@ABV?$vector@V?$basic_string@DU?$char_traits@D@std@@V?$allocator@D@2@@std@@V?$allocator@V?$basic_string@DU?$char_traits@D@std@@V?$allocator@D@2@@std@@@2@@std@@H@Z$15 00453dce f   systeminfo.obj
 0001:00052dd9       __unwindfunclet$??0RAMInfo@@QAE@ABV?$vector@V?$basic_string@DU?$char_traits@D@std@@V?$allocator@D@2@@std@@V?$allocator@V?$basic_string@DU?$char_traits@D@std@@V?$allocator@D@2@@std@@@2@@std@@H@Z$16 00453dd9 f   systeminfo.obj
 0001:00052de4       __unwindfunclet$??0RAMInfo@@QAE@ABV?$vector@V?$basic_string@DU?$char_traits@D@std@@V?$allocator@D@2@@std@@V?$allocator@V?$basic_string@DU?$char_traits@D@std@@V?$allocator@D@2@@std@@@2@@std@@H@Z$17 00453de4 f   systeminfo.obj
 0001:00052dec       __unwindfunclet$??0RAMInfo@@QAE@ABV?$vector@V?$basic_string@DU?$char_traits@D@std@@V?$allocator@D@2@@std@@V?$allocator@V?$basic_string@DU?$char_traits@D@std@@V?$allocator@D@2@@std@@@2@@std@@H@Z$21 00453dec f   systeminfo.obj
 0001:00052df4       __unwindfunclet$??0RAMInfo@@QAE@ABV?$vector@V?$basic_string@DU?$char_traits@D@std@@V?$allocator@D@2@@std@@V?$allocator@V?$basic_string@DU?$char_traits@D@std@@V?$allocator@D@2@@std@@@2@@std@@H@Z$24 00453df4 f   systeminfo.obj
 0001:00052dfc       __unwindfunclet$??0RAMInfo@@QAE@ABV?$vector@V?$basic_string@DU?$char_traits@D@std@@V?$allocator@D@2@@std@@V?$allocator@V?$basic_string@DU?$char_traits@D@std@@V?$allocator@D@2@@std@@@2@@std@@H@Z$26 00453dfc f   systeminfo.obj
 0001:00052e04       __unwindfunclet$??0RAMInfo@@QAE@ABV?$vector@V?$basic_string@DU?$char_traits@D@std@@V?$allocator@D@2@@std@@V?$allocator@V?$basic_string@DU?$char_traits@D@std@@V?$allocator@D@2@@std@@@2@@std@@H@Z$28 00453e04 f   systeminfo.obj
 0001:00052e11       __ehhandler$??0RAMInfo@@QAE@ABV?$vector@V?$basic_string@DU?$char_traits@D@std@@V?$allocator@D@2@@std@@V?$allocator@V?$basic_string@DU?$char_traits@D@std@@V?$allocator@D@2@@std@@@2@@std@@H@Z 00453e11 f   systeminfo.obj
 0001:00052e40       __ehhandler$?getMemoryType@RAMInfo@@ABE?AV?$basic_string@DU?$char_traits@D@std@@V?$allocator@D@2@@std@@ABV23@@Z 00453e40 f   systeminfo.obj
 0001:00052e70       __ehhandler$?getFormFactor@RAMInfo@@ABE?AV?$basic_string@DU?$char_traits@D@std@@V?$allocator@D@2@@std@@ABV23@@Z 00453e70 f   systeminfo.obj
 0001:00052ea0       __unwindfunclet$??0RAMInfoDelegate@@QAE@XZ$0 00453ea0 f   systeminfo.obj
 0001:00052eab       __unwindfunclet$??0RAMInfoDelegate@@QAE@XZ$2 00453eab f   systeminfo.obj
 0001:00052ebe       __unwindfunclet$??0RAMInfoDelegate@@QAE@XZ$7 00453ebe f   systeminfo.obj
 0001:00052ec9       __unwindfunclet$??0RAMInfoDelegate@@QAE@XZ$3 00453ec9 f   systeminfo.obj
 0001:00052ed4       __unwindfunclet$??0RAMInfoDelegate@@QAE@XZ$4 00453ed4 f   systeminfo.obj
 0001:00052edc       __unwindfunclet$??0RAMInfoDelegate@@QAE@XZ$5 00453edc f   systeminfo.obj
 0001:00052ee4       __unwindfunclet$??0RAMInfoDelegate@@QAE@XZ$6 00453ee4 f   systeminfo.obj
 0001:00052ef1       __ehhandler$??0RAMInfoDelegate@@QAE@XZ 00453ef1 f   systeminfo.obj
 0001:00052f20       __unwindfunclet$?stripAllFromString@SystemCommand@@AAE?AV?$basic_string@DU?$char_traits@D@std@@V?$allocator@D@2@@std@@ABV23@0@Z$0 00453f20 f   systeminfo.obj
 0001:00052f2d       __ehhandler$?stripAllFromString@SystemCommand@@AAE?AV?$basic_string@DU?$char_traits@D@std@@V?$allocator@D@2@@std@@ABV23@0@Z 00453f2d f   systeminfo.obj
 0001:00052f60       __unwindfunclet$?stripFromString@SystemCommand@@AAE?AV?$basic_string@DU?$char_traits@D@std@@V?$allocator@D@2@@std@@ABV23@0@Z$0 00453f60 f   systeminfo.obj
 0001:00052f68       __unwindfunclet$?stripFromString@SystemCommand@@AAE?AV?$basic_string@DU?$char_traits@D@std@@V?$allocator@D@2@@std@@ABV23@0@Z$4 00453f68 f   systeminfo.obj
 0001:00052f70       __unwindfunclet$?stripFromString@SystemCommand@@AAE?AV?$basic_string@DU?$char_traits@D@std@@V?$allocator@D@2@@std@@ABV23@0@Z$5 00453f70 f   systeminfo.obj
 0001:00052f7d       __ehhandler$?stripFromString@SystemCommand@@AAE?AV?$basic_string@DU?$char_traits@D@std@@V?$allocator@D@2@@std@@ABV23@0@Z 00453f7d f   systeminfo.obj
 0001:00052fb0       __unwindfunclet$?stripPipeFromCommand@SystemCommand@@AAEXXZ$0 00453fb0 f   systeminfo.obj
 0001:00052fb8       __unwindfunclet$?stripPipeFromCommand@SystemCommand@@AAEXXZ$2 00453fb8 f   systeminfo.obj
 0001:00052fc5       __ehhandler$?stripPipeFromCommand@SystemCommand@@AAEXXZ 00453fc5 f   systeminfo.obj
 0001:00052ff0       __unwindfunclet$?systemCommandLaunch@SystemCommand@@AAEX_N@Z$0 00453ff0 f   systeminfo.obj
 0001:00052ffb       __unwindfunclet$?systemCommandLaunch@SystemCommand@@AAEX_N@Z$2 00453ffb f   systeminfo.obj
 0001:00053006       __unwindfunclet$?systemCommandLaunch@SystemCommand@@AAEX_N@Z$3 00454006 f   systeminfo.obj
 0001:00053011       __unwindfunclet$?systemCommandLaunch@SystemCommand@@AAEX_N@Z$12 00454011 f   systeminfo.obj
 0001:00053021       __ehhandler$?systemCommandLaunch@SystemCommand@@AAEX_N@Z 00454021 f   systeminfo.obj
 0001:00053050       __unwindfunclet$??R<lambda_b5565d269da327e336800d80f472b553>@@QBE?AV?$basic_string@DU?$char_traits@D@std@@V?$allocator@D@2@@std@@ABV12@@Z$0 00454050 f   systeminfo.obj
 0001:00053069       __unwindfunclet$??R<lambda_b5565d269da327e336800d80f472b553>@@QBE?AV?$basic_string@DU?$char_traits@D@std@@V?$allocator@D@2@@std@@ABV12@@Z$1 00454069 f   systeminfo.obj
 0001:00053074       __unwindfunclet$??R<lambda_b5565d269da327e336800d80f472b553>@@QBE?AV?$basic_string@DU?$char_traits@D@std@@V?$allocator@D@2@@std@@ABV12@@Z$2 00454074 f   systeminfo.obj
 0001:0005307c       __unwindfunclet$??R<lambda_b5565d269da327e336800d80f472b553>@@QBE?AV?$basic_string@DU?$char_traits@D@std@@V?$allocator@D@2@@std@@ABV12@@Z$4 0045407c f   systeminfo.obj
 0001:00053092       __unwindfunclet$??R<lambda_b5565d269da327e336800d80f472b553>@@QBE?AV?$basic_string@DU?$char_traits@D@std@@V?$allocator@D@2@@std@@ABV12@@Z$13 00454092 f   systeminfo.obj
 0001:0005309a       __unwindfunclet$??R<lambda_b5565d269da327e336800d80f472b553>@@QBE?AV?$basic_string@DU?$char_traits@D@std@@V?$allocator@D@2@@std@@ABV12@@Z$14 0045409a f   systeminfo.obj
 0001:000530a2       __unwindfunclet$??R<lambda_b5565d269da327e336800d80f472b553>@@QBE?AV?$basic_string@DU?$char_traits@D@std@@V?$allocator@D@2@@std@@ABV12@@Z$5 004540a2 f   systeminfo.obj
 0001:000530af       __ehhandler$??R<lambda_b5565d269da327e336800d80f472b553>@@QBE?AV?$basic_string@DU?$char_traits@D@std@@V?$allocator@D@2@@std@@ABV12@@Z 004540af f   systeminfo.obj
 0001:000530e0       __unwindfunclet$??0?$vector@VRAMInfo@@V?$allocator@VRAMInfo@@@std@@@std@@QAE@ABV01@@Z$0 004540e0 f   systeminfo.obj
 0001:000530e8       __unwindfunclet$??0?$vector@VRAMInfo@@V?$allocator@VRAMInfo@@@std@@@std@@QAE@ABV01@@Z$1 004540e8 f   systeminfo.obj
 0001:000530f0       __unwindfunclet$??0?$vector@VRAMInfo@@V?$allocator@VRAMInfo@@@std@@@std@@QAE@ABV01@@Z$2 004540f0 f   systeminfo.obj
 0001:000530f8       __unwindfunclet$??0?$vector@VRAMInfo@@V?$allocator@VRAMInfo@@@std@@@std@@QAE@ABV01@@Z$3 004540f8 f   systeminfo.obj
 0001:00053103       __unwindfunclet$??0?$vector@VRAMInfo@@V?$allocator@VRAMInfo@@@std@@@std@@QAE@ABV01@@Z$4 00454103 f   systeminfo.obj
 0001:0005310e       __unwindfunclet$??0?$vector@VRAMInfo@@V?$allocator@VRAMInfo@@@std@@@std@@QAE@ABV01@@Z$5 0045410e f   systeminfo.obj
 0001:00053119       __unwindfunclet$??0?$vector@VRAMInfo@@V?$allocator@VRAMInfo@@@std@@@std@@QAE@ABV01@@Z$6 00454119 f   systeminfo.obj
 0001:00053124       __unwindfunclet$??0?$vector@VRAMInfo@@V?$allocator@VRAMInfo@@@std@@@std@@QAE@ABV01@@Z$7 00454124 f   systeminfo.obj
 0001:0005312f       __unwindfunclet$??0?$vector@VRAMInfo@@V?$allocator@VRAMInfo@@@std@@@std@@QAE@ABV01@@Z$8 0045412f f   systeminfo.obj
 0001:00053142       __ehhandler$??0?$vector@VRAMInfo@@V?$allocator@VRAMInfo@@@std@@@std@@QAE@ABV01@@Z 00454142 f   systeminfo.obj
 0001:00053170       __unwindfunclet$??0?$vector@VMotherboardInfo@@V?$allocator@VMotherboardInfo@@@std@@@std@@QAE@ABV01@@Z$0 00454170 f   systeminfo.obj
 0001:00053178       __unwindfunclet$??0?$vector@VMotherboardInfo@@V?$allocator@VMotherboardInfo@@@std@@@std@@QAE@ABV01@@Z$1 00454178 f   systeminfo.obj
 0001:00053180       __unwindfunclet$??0?$vector@VMotherboardInfo@@V?$allocator@VMotherboardInfo@@@std@@@std@@QAE@ABV01@@Z$2 00454180 f   systeminfo.obj
 0001:00053188       __unwindfunclet$??0?$vector@VMotherboardInfo@@V?$allocator@VMotherboardInfo@@@std@@@std@@QAE@ABV01@@Z$3 00454188 f   systeminfo.obj
 0001:00053193       __unwindfunclet$??0?$vector@VMotherboardInfo@@V?$allocator@VMotherboardInfo@@@std@@@std@@QAE@ABV01@@Z$4 00454193 f   systeminfo.obj
 0001:0005319e       __unwindfunclet$??0?$vector@VMotherboardInfo@@V?$allocator@VMotherboardInfo@@@std@@@std@@QAE@ABV01@@Z$5 0045419e f   systeminfo.obj
 0001:000531ae       __ehhandler$??0?$vector@VMotherboardInfo@@V?$allocator@VMotherboardInfo@@@std@@@std@@QAE@ABV01@@Z 004541ae f   systeminfo.obj
 0001:000531e0       __unwindfunclet$??0?$vector@VGPUInfo@@V?$allocator@VGPUInfo@@@std@@@std@@QAE@ABV01@@Z$0 004541e0 f   systeminfo.obj
 0001:000531e8       __unwindfunclet$??0?$vector@VGPUInfo@@V?$allocator@VGPUInfo@@@std@@@std@@QAE@ABV01@@Z$1 004541e8 f   systeminfo.obj
 0001:000531f0       __unwindfunclet$??0?$vector@VGPUInfo@@V?$allocator@VGPUInfo@@@std@@@std@@QAE@ABV01@@Z$2 004541f0 f   systeminfo.obj
 0001:000531f8       __unwindfunclet$??0?$vector@VGPUInfo@@V?$allocator@VGPUInfo@@@std@@@std@@QAE@ABV01@@Z$3 004541f8 f   systeminfo.obj
 0001:00053203       __unwindfunclet$??0?$vector@VGPUInfo@@V?$allocator@VGPUInfo@@@std@@@std@@QAE@ABV01@@Z$4 00454203 f   systeminfo.obj
 0001:0005320e       __unwindfunclet$??0?$vector@VGPUInfo@@V?$allocator@VGPUInfo@@@std@@@std@@QAE@ABV01@@Z$5 0045420e f   systeminfo.obj
 0001:00053219       __unwindfunclet$??0?$vector@VGPUInfo@@V?$allocator@VGPUInfo@@@std@@@std@@QAE@ABV01@@Z$6 00454219 f   systeminfo.obj
 0001:00053224       __unwindfunclet$??0?$vector@VGPUInfo@@V?$allocator@VGPUInfo@@@std@@@std@@QAE@ABV01@@Z$7 00454224 f   systeminfo.obj
 0001:0005322f       __unwindfunclet$??0?$vector@VGPUInfo@@V?$allocator@VGPUInfo@@@std@@@std@@QAE@ABV01@@Z$8 0045422f f   systeminfo.obj
 0001:0005323d       __unwindfunclet$??0?$vector@VGPUInfo@@V?$allocator@VGPUInfo@@@std@@@std@@QAE@ABV01@@Z$9 0045423d f   systeminfo.obj
 0001:0005324b       __unwindfunclet$??0?$vector@VGPUInfo@@V?$allocator@VGPUInfo@@@std@@@std@@QAE@ABV01@@Z$10 0045424b f   systeminfo.obj
 0001:0005325e       __ehhandler$??0?$vector@VGPUInfo@@V?$allocator@VGPUInfo@@@std@@@std@@QAE@ABV01@@Z 0045425e f   systeminfo.obj
 0001:00053290       __unwindfunclet$??0?$vector@VCPUInfo@@V?$allocator@VCPUInfo@@@std@@@std@@QAE@ABV01@@Z$0 00454290 f   systeminfo.obj
 0001:00053298       __unwindfunclet$??0?$vector@VCPUInfo@@V?$allocator@VCPUInfo@@@std@@@std@@QAE@ABV01@@Z$1 00454298 f   systeminfo.obj
 0001:000532a0       __unwindfunclet$??0?$vector@VCPUInfo@@V?$allocator@VCPUInfo@@@std@@@std@@QAE@ABV01@@Z$2 004542a0 f   systeminfo.obj
 0001:000532a8       __unwindfunclet$??0?$vector@VCPUInfo@@V?$allocator@VCPUInfo@@@std@@@std@@QAE@ABV01@@Z$3 004542a8 f   systeminfo.obj
 0001:000532b3       __unwindfunclet$??0?$vector@VCPUInfo@@V?$allocator@VCPUInfo@@@std@@@std@@QAE@ABV01@@Z$4 004542b3 f   systeminfo.obj
 0001:000532be       __unwindfunclet$??0?$vector@VCPUInfo@@V?$allocator@VCPUInfo@@@std@@@std@@QAE@ABV01@@Z$5 004542be f   systeminfo.obj
 0001:000532c9       __unwindfunclet$??0?$vector@VCPUInfo@@V?$allocator@VCPUInfo@@@std@@@std@@QAE@ABV01@@Z$6 004542c9 f   systeminfo.obj
 0001:000532d9       __ehhandler$??0?$vector@VCPUInfo@@V?$allocator@VCPUInfo@@@std@@@std@@QAE@ABV01@@Z 004542d9 f   systeminfo.obj
 0001:00053300       __unwindfunclet$??0?$vector@V?$basic_string@DU?$char_traits@D@std@@V?$allocator@D@2@@std@@V?$allocator@V?$basic_string@DU?$char_traits@D@std@@V?$allocator@D@2@@std@@@2@@std@@QAE@ABV01@@Z$0 00454300 f   systeminfo.obj
 0001:00053308       __unwindfunclet$??0?$vector@V?$basic_string@DU?$char_traits@D@std@@V?$allocator@D@2@@std@@V?$allocator@V?$basic_string@DU?$char_traits@D@std@@V?$allocator@D@2@@std@@@2@@std@@QAE@ABV01@@Z$1 00454308 f   systeminfo.obj
 0001:00053315       __ehhandler$??0?$vector@V?$basic_string@DU?$char_traits@D@std@@V?$allocator@D@2@@std@@V?$allocator@V?$basic_string@DU?$char_traits@D@std@@V?$allocator@D@2@@std@@@2@@std@@QAE@ABV01@@Z 00454315 f   systeminfo.obj
 0001:00053340       __unwindfunclet$?imbue@?$basic_filebuf@DU?$char_traits@D@std@@@std@@MAEXABVlocale@2@@Z$0 00454340 f   systeminfo.obj
 0001:00053349       __unwindfunclet$?imbue@?$basic_filebuf@DU?$char_traits@D@std@@@std@@MAEXABVlocale@2@@Z$1 00454349 f   systeminfo.obj
 0001:00053356       __ehhandler$?imbue@?$basic_filebuf@DU?$char_traits@D@std@@@std@@MAEXABVlocale@2@@Z 00454356 f   systeminfo.obj
 0001:00053380       __unwindfunclet$?uflow@?$basic_filebuf@DU?$char_traits@D@std@@@std@@MAEHXZ$0 00454380 f   systeminfo.obj
 0001:0005338d       __ehhandler$?uflow@?$basic_filebuf@DU?$char_traits@D@std@@@std@@MAEHXZ 0045438d f   systeminfo.obj
 0001:000533c0       __ehhandler$??1?$basic_filebuf@DU?$char_traits@D@std@@@std@@UAE@XZ 004543c0 f   systeminfo.obj
 0001:000533e0       __unwindfunclet$??0?$basic_ifstream@DU?$char_traits@D@std@@@std@@QAE@XZ$0 004543e0 f   systeminfo.obj
 0001:000533fd       __unwindfunclet$??0?$basic_ifstream@DU?$char_traits@D@std@@@std@@QAE@XZ$1 004543fd f   systeminfo.obj
 0001:00053409       __unwindfunclet$??0?$basic_ifstream@DU?$char_traits@D@std@@@std@@QAE@XZ$3 00454409 f   systeminfo.obj
 0001:00053417       __ehhandler$??0?$basic_ifstream@DU?$char_traits@D@std@@@std@@QAE@XZ 00454417 f   systeminfo.obj
 0001:00053440       __unwindfunclet$??$use_facet@V?$ctype@D@std@@@std@@YAABV?$ctype@D@0@ABVlocale@0@@Z$0 00454440 f   systeminfo.obj
 0001:00053449       __unwindfunclet$??$use_facet@V?$ctype@D@std@@@std@@YAABV?$ctype@D@0@ABVlocale@0@@Z$1 00454449 f   systeminfo.obj
 0001:00053456       __ehhandler$??$use_facet@V?$ctype@D@std@@@std@@YAABV?$ctype@D@0@ABVlocale@0@@Z 00454456 f   systeminfo.obj
 0001:00053480       __ehhandler$??$_Emplace_reallocate@AAV?$vector@V?$basic_string@DU?$char_traits@D@std@@V?$allocator@D@2@@std@@V?$allocator@V?$basic_string@DU?$char_traits@D@std@@V?$allocator@D@2@@std@@@2@@std@@AAH@?$vector@VCPUInfo@@V?$allocator@VCPUInfo@@@std@@@std@@QAEPAVCPUInfo@@QAV2@AAV?$vector@V?$basic_string@DU?$char_traits@D@std@@V?$allocator@D@2@@std@@V?$allocator@V?$basic_string@DU?$char_traits@D@std@@V?$allocator@D@2@@std@@@2@@1@AAH@Z 00454480 f   systeminfo.obj
 0001:000534a0       __unwindfunclet$??$toString@_J@GPUInfo@@ABE?AV?$basic_string@DU?$char_traits@D@std@@V?$allocator@D@2@@std@@AB_J@Z$2 004544a0 f   systeminfo.obj
 0001:000534a0       __unwindfunclet$??$toString@_J@OSInfo@@ABE?AV?$basic_string@DU?$char_traits@D@std@@V?$allocator@D@2@@std@@AB_J@Z$2 004544a0 f   systeminfo.obj
 0001:000534a0       __unwindfunclet$??$toString@_J@RAMInfo@@ABE?AV?$basic_string@DU?$char_traits@D@std@@V?$allocator@D@2@@std@@AB_J@Z$2 004544a0 f   systeminfo.obj
 0001:000534c0       __unwindfunclet$??$toString@_J@GPUInfo@@ABE?AV?$basic_string@DU?$char_traits@D@std@@V?$allocator@D@2@@std@@AB_J@Z$3 004544c0 f   systeminfo.obj
 0001:000534c0       __unwindfunclet$??$toString@_J@OSInfo@@ABE?AV?$basic_string@DU?$char_traits@D@std@@V?$allocator@D@2@@std@@AB_J@Z$3 004544c0 f   systeminfo.obj
 0001:000534c0       __unwindfunclet$??$toString@_J@RAMInfo@@ABE?AV?$basic_string@DU?$char_traits@D@std@@V?$allocator@D@2@@std@@AB_J@Z$3 004544c0 f   systeminfo.obj
 0001:000534cc       __unwindfunclet$??$toString@_J@GPUInfo@@ABE?AV?$basic_string@DU?$char_traits@D@std@@V?$allocator@D@2@@std@@AB_J@Z$0 004544cc f   systeminfo.obj
 0001:000534cc       __unwindfunclet$??$toString@_J@OSInfo@@ABE?AV?$basic_string@DU?$char_traits@D@std@@V?$allocator@D@2@@std@@AB_J@Z$0 004544cc f   systeminfo.obj
 0001:000534cc       __unwindfunclet$??$toString@_J@RAMInfo@@ABE?AV?$basic_string@DU?$char_traits@D@std@@V?$allocator@D@2@@std@@AB_J@Z$0 004544cc f   systeminfo.obj
 0001:000534d7       __unwindfunclet$??$toString@_J@GPUInfo@@ABE?AV?$basic_string@DU?$char_traits@D@std@@V?$allocator@D@2@@std@@AB_J@Z$1 004544d7 f   systeminfo.obj
 0001:000534d7       __unwindfunclet$??$toString@_J@OSInfo@@ABE?AV?$basic_string@DU?$char_traits@D@std@@V?$allocator@D@2@@std@@AB_J@Z$1 004544d7 f   systeminfo.obj
 0001:000534d7       __unwindfunclet$??$toString@_J@RAMInfo@@ABE?AV?$basic_string@DU?$char_traits@D@std@@V?$allocator@D@2@@std@@AB_J@Z$1 004544d7 f   systeminfo.obj
 0001:000534fe       __ehhandler$??$toString@_J@GPUInfo@@ABE?AV?$basic_string@DU?$char_traits@D@std@@V?$allocator@D@2@@std@@AB_J@Z 004544fe f   systeminfo.obj
 0001:000534fe       __ehhandler$??$toString@_J@OSInfo@@ABE?AV?$basic_string@DU?$char_traits@D@std@@V?$allocator@D@2@@std@@AB_J@Z 004544fe f   systeminfo.obj
 0001:000534fe       __ehhandler$??$toString@_J@RAMInfo@@ABE?AV?$basic_string@DU?$char_traits@D@std@@V?$allocator@D@2@@std@@AB_J@Z 004544fe f   systeminfo.obj
 0001:00053530       __ehhandler$??$_Emplace_reallocate@AAV?$vector@V?$basic_string@DU?$char_traits@D@std@@V?$allocator@D@2@@std@@V?$allocator@V?$basic_string@DU?$char_traits@D@std@@V?$allocator@D@2@@std@@@2@@std@@AAH@?$vector@VGPUInfo@@V?$allocator@VGPUInfo@@@std@@@std@@QAEPAVGPUInfo@@QAV2@AAV?$vector@V?$basic_string@DU?$char_traits@D@std@@V?$allocator@D@2@@std@@V?$allocator@V?$basic_string@DU?$char_traits@D@std@@V?$allocator@D@2@@std@@@2@@1@AAH@Z 00454530 f   systeminfo.obj
 0001:00053550       __ehhandler$??$_Emplace_reallocate@AAV?$vector@V?$basic_string@DU?$char_traits@D@std@@V?$allocator@D@2@@std@@V?$allocator@V?$basic_string@DU?$char_traits@D@std@@V?$allocator@D@2@@std@@@2@@std@@AAH@?$vector@VMotherboardInfo@@V?$allocator@VMotherboardInfo@@@std@@@std@@QAEPAVMotherboardInfo@@QAV2@AAV?$vector@V?$basic_string@DU?$char_traits@D@std@@V?$allocator@D@2@@std@@V?$allocator@V?$basic_string@DU?$char_traits@D@std@@V?$allocator@D@2@@std@@@2@@1@AAH@Z 00454550 f   systeminfo.obj
 0001:00053570       __ehhandler$??$_Emplace_reallocate@AAV?$vector@V?$basic_string@DU?$char_traits@D@std@@V?$allocator@D@2@@std@@V?$allocator@V?$basic_string@DU?$char_traits@D@std@@V?$allocator@D@2@@std@@@2@@std@@AAH@?$vector@VOSInfo@@V?$allocator@VOSInfo@@@std@@@std@@QAEPAVOSInfo@@QAV2@AAV?$vector@V?$basic_string@DU?$char_traits@D@std@@V?$allocator@D@2@@std@@V?$allocator@V?$basic_string@DU?$char_traits@D@std@@V?$allocator@D@2@@std@@@2@@1@AAH@Z 00454570 f   systeminfo.obj
 0001:00053590       __ehhandler$??$_Emplace_reallocate@AAV?$vector@V?$basic_string@DU?$char_traits@D@std@@V?$allocator@D@2@@std@@V?$allocator@V?$basic_string@DU?$char_traits@D@std@@V?$allocator@D@2@@std@@@2@@std@@AAH@?$vector@VRAMInfo@@V?$allocator@VRAMInfo@@@std@@@std@@QAEPAVRAMInfo@@QAV2@AAV?$vector@V?$basic_string@DU?$char_traits@D@std@@V?$allocator@D@2@@std@@V?$allocator@V?$basic_string@DU?$char_traits@D@std@@V?$allocator@D@2@@std@@@2@@1@AAH@Z 00454590 f   systeminfo.obj
 0001:000535b0       __ehhandler$??$_Emplace_reallocate@ABV?$basic_string@DU?$char_traits@D@std@@V?$allocator@D@2@@std@@@?$vector@V?$basic_string@DU?$char_traits@D@std@@V?$allocator@D@2@@std@@V?$allocator@V?$basic_string@DU?$char_traits@D@std@@V?$allocator@D@2@@std@@@2@@std@@QAEPAV?$basic_string@DU?$char_traits@D@std@@V?$allocator@D@2@@1@QAV21@ABV21@@Z 004545b0 f   systeminfo.obj
 0001:000535d0       __unwindfunclet$??$_Insert_string@DU?$char_traits@D@std@@I@std@@YAAAV?$basic_ostream@DU?$char_traits@D@std@@@0@AAV10@QBDI@Z$3 004545d0 f   systeminfo.obj
 0001:000535d8       __unwindfunclet$??$_Insert_string@DU?$char_traits@D@std@@I@std@@YAAAV?$basic_ostream@DU?$char_traits@D@std@@@0@AAV10@QBDI@Z$2 004545d8 f   systeminfo.obj
 0001:000535e5       __ehhandler$??$_Insert_string@DU?$char_traits@D@std@@I@std@@YAAAV?$basic_ostream@DU?$char_traits@D@std@@@0@AAV10@QBDI@Z 004545e5 f   systeminfo.obj
 0001:00053610       __unwindfunclet$??$_Uninitialized_copy@PAVOSInfo@@V?$allocator@VOSInfo@@@std@@@std@@YAPAVOSInfo@@QAV1@0PAV1@AAV?$allocator@VOSInfo@@@0@@Z$0 00454610 f   systeminfo.obj
 0001:00053618       __unwindfunclet$??$_Uninitialized_copy@PAVOSInfo@@V?$allocator@VOSInfo@@@std@@@std@@YAPAVOSInfo@@QAV1@0PAV1@AAV?$allocator@VOSInfo@@@0@@Z$1 00454618 f   systeminfo.obj
 0001:00053620       __unwindfunclet$??$_Uninitialized_copy@PAVOSInfo@@V?$allocator@VOSInfo@@@std@@@std@@YAPAVOSInfo@@QAV1@0PAV1@AAV?$allocator@VOSInfo@@@0@@Z$2 00454620 f   systeminfo.obj
 0001:0005362b       __unwindfunclet$??$_Uninitialized_copy@PAVOSInfo@@V?$allocator@VOSInfo@@@std@@@std@@YAPAVOSInfo@@QAV1@0PAV1@AAV?$allocator@VOSInfo@@@0@@Z$3 0045462b f   systeminfo.obj
 0001:00053636       __unwindfunclet$??$_Uninitialized_copy@PAVOSInfo@@V?$allocator@VOSInfo@@@std@@@std@@YAPAVOSInfo@@QAV1@0PAV1@AAV?$allocator@VOSInfo@@@0@@Z$4 00454636 f   systeminfo.obj
 0001:00053641       __unwindfunclet$??$_Uninitialized_copy@PAVOSInfo@@V?$allocator@VOSInfo@@@std@@@std@@YAPAVOSInfo@@QAV1@0PAV1@AAV?$allocator@VOSInfo@@@0@@Z$5 00454641 f   systeminfo.obj
 0001:0005364c       __unwindfunclet$??$_Uninitialized_copy@PAVOSInfo@@V?$allocator@VOSInfo@@@std@@@std@@YAPAVOSInfo@@QAV1@0PAV1@AAV?$allocator@VOSInfo@@@0@@Z$6 0045464c f   systeminfo.obj
 0001:00053657       __unwindfunclet$??$_Uninitialized_copy@PAVOSInfo@@V?$allocator@VOSInfo@@@std@@@std@@YAPAVOSInfo@@QAV1@0PAV1@AAV?$allocator@VOSInfo@@@0@@Z$7 00454657 f   systeminfo.obj
 0001:00053665       __unwindfunclet$??$_Uninitialized_copy@PAVOSInfo@@V?$allocator@VOSInfo@@@std@@@std@@YAPAVOSInfo@@QAV1@0PAV1@AAV?$allocator@VOSInfo@@@0@@Z$8 00454665 f   systeminfo.obj
 0001:00053673       __unwindfunclet$??$_Uninitialized_copy@PAVOSInfo@@V?$allocator@VOSInfo@@@std@@@std@@YAPAVOSInfo@@QAV1@0PAV1@AAV?$allocator@VOSInfo@@@0@@Z$9 00454673 f   systeminfo.obj
 0001:00053681       __unwindfunclet$??$_Uninitialized_copy@PAVOSInfo@@V?$allocator@VOSInfo@@@std@@@std@@YAPAVOSInfo@@QAV1@0PAV1@AAV?$allocator@VOSInfo@@@0@@Z$10 00454681 f   systeminfo.obj
 0001:0005368f       __unwindfunclet$??$_Uninitialized_copy@PAVOSInfo@@V?$allocator@VOSInfo@@@std@@@std@@YAPAVOSInfo@@QAV1@0PAV1@AAV?$allocator@VOSInfo@@@0@@Z$11 0045468f f   systeminfo.obj
 0001:0005369d       __unwindfunclet$??$_Uninitialized_copy@PAVOSInfo@@V?$allocator@VOSInfo@@@std@@@std@@YAPAVOSInfo@@QAV1@0PAV1@AAV?$allocator@VOSInfo@@@0@@Z$12 0045469d f   systeminfo.obj
 0001:000536ab       __unwindfunclet$??$_Uninitialized_copy@PAVOSInfo@@V?$allocator@VOSInfo@@@std@@@std@@YAPAVOSInfo@@QAV1@0PAV1@AAV?$allocator@VOSInfo@@@0@@Z$13 004546ab f   systeminfo.obj
 0001:000536be       __ehhandler$??$_Uninitialized_copy@PAVOSInfo@@V?$allocator@VOSInfo@@@std@@@std@@YAPAVOSInfo@@QAV1@0PAV1@AAV?$allocator@VOSInfo@@@0@@Z 004546be f   systeminfo.obj
 0001:000536f0       __unwindfunclet$??$?5DU?$char_traits@D@std@@V?$allocator@D@1@@std@@YAAAV?$basic_istream@DU?$char_traits@D@std@@@0@$$QAV10@AAV?$basic_string@DU?$char_traits@D@std@@V?$allocator@D@2@@0@@Z$4 004546f0 f   systeminfo.obj
 0001:000536f8       __unwindfunclet$??$?5DU?$char_traits@D@std@@V?$allocator@D@1@@std@@YAAAV?$basic_istream@DU?$char_traits@D@std@@@0@$$QAV10@AAV?$basic_string@DU?$char_traits@D@std@@V?$allocator@D@2@@0@@Z$2 004546f8 f   systeminfo.obj
 0001:00053700       __unwindfunclet$??$?5DU?$char_traits@D@std@@V?$allocator@D@1@@std@@YAAAV?$basic_istream@DU?$char_traits@D@std@@@0@$$QAV10@AAV?$basic_string@DU?$char_traits@D@std@@V?$allocator@D@2@@0@@Z$3 00454700 f   systeminfo.obj
 0001:0005370d       __ehhandler$??$?5DU?$char_traits@D@std@@V?$allocator@D@1@@std@@YAAAV?$basic_istream@DU?$char_traits@D@std@@@0@$$QAV10@AAV?$basic_string@DU?$char_traits@D@std@@V?$allocator@D@2@@0@@Z 0045470d f   systeminfo.obj
 0001:00053730       __ehhandler$??1sentry@?$basic_istream@DU?$char_traits@D@std@@@std@@QAE@XZ 00454730 f   systeminfo.obj
 0001:00053750       ??__F?TEMPERATURE_QUERY_STRING@CPUInfo@@0V?$basic_string@DU?$char_traits@D@std@@V?$allocator@D@2@@std@@B@@YAXXZ 00454750 f   systeminfo.obj
 0001:000537b0       ??__F?TEMPERATURE_ERROR_IDENTIFIER_STRING@CPUInfo@@0V?$basic_string@DU?$char_traits@D@std@@V?$allocator@D@2@@std@@B@@YAXXZ 004547b0 f   systeminfo.obj
 0001:00053810       ??__F?CLOCK_SPEED_QUERY_STRING@CPUInfo@@0V?$basic_string@DU?$char_traits@D@std@@V?$allocator@D@2@@std@@B@@YAXXZ 00454810 f   systeminfo.obj
 0001:00053870       ??__F?CURRENT_CLOCK_SPEED_IDENTIFIER_STRING@CPUInfo@@0V?$basic_string@DU?$char_traits@D@std@@V?$allocator@D@2@@std@@B@@YAXXZ 00454870 f   systeminfo.obj
 0001:000538d0       ??__F?NAME_IDENTIFIER_STRING@CPUInfo@@0V?$basic_string@DU?$char_traits@D@std@@V?$allocator@D@2@@std@@B@@YAXXZ 004548d0 f   systeminfo.obj
 0001:00053930       ??__F?NUMBER_OF_CORES_IDENTIFIER_STRING@CPUInfo@@0V?$basic_string@DU?$char_traits@D@std@@V?$allocator@D@2@@std@@B@@YAXXZ 00454930 f   systeminfo.obj
 0001:00053990       ??__F?MANUFACTURER_IDENTIFIER_STRING@CPUInfo@@0V?$basic_string@DU?$char_traits@D@std@@V?$allocator@D@2@@std@@B@@YAXXZ 00454990 f   systeminfo.obj
 0001:000539f0       ??__F?ARCHITECTURE_IDENTIFIER_STRING@CPUInfo@@0V?$basic_string@DU?$char_traits@D@std@@V?$allocator@D@2@@std@@B@@YAXXZ 004549f0 f   systeminfo.obj
 0001:00053a50       ??__F?L2_CACHE_SIZE_IDENTIFIER_STRING@CPUInfo@@0V?$basic_string@DU?$char_traits@D@std@@V?$allocator@D@2@@std@@B@@YAXXZ 00454a50 f   systeminfo.obj
 0001:00053ab0       ??__F?L3_CACHE_SIZE_IDENTIFIER_STRING@CPUInfo@@0V?$basic_string@DU?$char_traits@D@std@@V?$allocator@D@2@@std@@B@@YAXXZ 00454ab0 f   systeminfo.obj
 0001:00053b10       ??__F?CPU_INFO_QUERY_STRING@CPUInfoDelegate@@0V?$basic_string@DU?$char_traits@D@std@@V?$allocator@D@2@@std@@B@@YAXXZ 00454b10 f   systeminfo.obj
 0001:00053b70       ??__F?CPU_INSTANCE_QUERY_STRING@CPUInfoDelegate@@0V?$basic_string@DU?$char_traits@D@std@@V?$allocator@D@2@@std@@B@@YAXXZ 00454b70 f   systeminfo.obj
 0001:00053bd0       ??__F?CPU_INFO_END_IDENTIFIER_STRING@CPUInfoDelegate@@0V?$basic_string@DU?$char_traits@D@std@@V?$allocator@D@2@@std@@B@@YAXXZ 00454bd0 f   systeminfo.obj
 0001:00053c30       ??__F?NVIDIA_IDENTIFIER_STRING@GPUInfo@@0V?$basic_string@DU?$char_traits@D@std@@V?$allocator@D@2@@std@@B@@YAXXZ 00454c30 f   systeminfo.obj
 0001:00053c90       ??__F?INTEL_IDENTIFIER_STRING@GPUInfo@@0V?$basic_string@DU?$char_traits@D@std@@V?$allocator@D@2@@std@@B@@YAXXZ 00454c90 f   systeminfo.obj
 0001:00053cf0       ??__F?AMD_IDENTIFIER_STRING@GPUInfo@@0V?$basic_string@DU?$char_traits@D@std@@V?$allocator@D@2@@std@@B@@YAXXZ 00454cf0 f   systeminfo.obj
 0001:00053d50       ??__F?NAME_IDENTIFIER_STRING@GPUInfo@@0V?$basic_string@DU?$char_traits@D@std@@V?$allocator@D@2@@std@@B@@YAXXZ 00454d50 f   systeminfo.obj
 0001:00053db0       ??__F?MANUFACTURER_IDENTIFIER_STRING@GPUInfo@@0V?$basic_string@DU?$char_traits@D@std@@V?$allocator@D@2@@std@@B@@YAXXZ 00454db0 f   systeminfo.obj
 0001:00053e10       ??__F?ADAPTER_RAM_IDENTIFIER_STRING@GPUInfo@@0V?$basic_string@DU?$char_traits@D@std@@V?$allocator@D@2@@std@@B@@YAXXZ 00454e10 f   systeminfo.obj
 0001:00053e70       ??__F?REFRESH_RATE_IDENTIFIER_STRING@GPUInfo@@0V?$basic_string@DU?$char_traits@D@std@@V?$allocator@D@2@@std@@B@@YAXXZ 00454e70 f   systeminfo.obj
 0001:00053ed0       ??__F?DRIVER_VERSION_IDENTIFIER_STRING@GPUInfo@@0V?$basic_string@DU?$char_traits@D@std@@V?$allocator@D@2@@std@@B@@YAXXZ 00454ed0 f   systeminfo.obj
 0001:00053f30       ??__F?VIDEO_ARCHITECTURE_IDENTIFIER_STRING@GPUInfo@@0V?$basic_string@DU?$char_traits@D@std@@V?$allocator@D@2@@std@@B@@YAXXZ 00454f30 f   systeminfo.obj
 0001:00053f90       ??__F?VIDEO_MEMORY_TYPE_IDENTIFIER_STRING@GPUInfo@@0V?$basic_string@DU?$char_traits@D@std@@V?$allocator@D@2@@std@@B@@YAXXZ 00454f90 f   systeminfo.obj
 0001:00053ff0       ??__F?VIDEO_MODE_DESCRIPTION_IDENTIFIER_STRING@GPUInfo@@0V?$basic_string@DU?$char_traits@D@std@@V?$allocator@D@2@@std@@B@@YAXXZ 00454ff0 f   systeminfo.obj
 0001:00054050       ??__F?VIDEO_PROCESSOR_IDENTIFIER_STRING@GPUInfo@@0V?$basic_string@DU?$char_traits@D@std@@V?$allocator@D@2@@std@@B@@YAXXZ 00455050 f   systeminfo.obj
 0001:000540b0       ??__F?CAPTION_IDENTIFIER_STRING@GPUInfo@@0V?$basic_string@DU?$char_traits@D@std@@V?$allocator@D@2@@std@@B@@YAXXZ 004550b0 f   systeminfo.obj
 0001:00054110       ??__F?GPU_INFO_QUERY_STRING@GPUInfoDelegate@@0V?$basic_string@DU?$char_traits@D@std@@V?$allocator@D@2@@std@@B@@YAXXZ 00455110 f   systeminfo.obj
 0001:00054170       ??__F?GPU_INSTANCE_QUERY_STRING@GPUInfoDelegate@@0V?$basic_string@DU?$char_traits@D@std@@V?$allocator@D@2@@std@@B@@YAXXZ 00455170 f   systeminfo.obj
 0001:000541d0       ??__F?GPU_INFO_END_IDENTIFIER_STRING@GPUInfoDelegate@@0V?$basic_string@DU?$char_traits@D@std@@V?$allocator@D@2@@std@@B@@YAXXZ 004551d0 f   systeminfo.obj
 0001:00054230       ??__F?CHIPSET_QUERY_STRING@MotherboardInfo@@0V?$basic_string@DU?$char_traits@D@std@@V?$allocator@D@2@@std@@B@@YAXXZ 00455230 f   systeminfo.obj
 0001:00054290       ??__F?NAME_IDENTIFIER_STRING@MotherboardInfo@@0V?$basic_string@DU?$char_traits@D@std@@V?$allocator@D@2@@std@@B@@YAXXZ 00455290 f   systeminfo.obj
 0001:000542f0       ??__F?MANUFACTURER_IDENTIFIER_STRING@MotherboardInfo@@0V?$basic_string@DU?$char_traits@D@std@@V?$allocator@D@2@@std@@B@@YAXXZ 004552f0 f   systeminfo.obj
 0001:00054350       ??__F?CHIPSET_IDENTIFIER_STRING@MotherboardInfo@@0V?$basic_string@DU?$char_traits@D@std@@V?$allocator@D@2@@std@@B@@YAXXZ 00455350 f   systeminfo.obj
 0001:000543b0       ??__F?CHIPSET_END_IDENTIFIER_STRING@MotherboardInfo@@0V?$basic_string@DU?$char_traits@D@std@@V?$allocator@D@2@@std@@B@@YAXXZ 004553b0 f   systeminfo.obj
 0001:00054410       ??__F?SERIAL_NUMBER_IDENTIFIER_STRING@MotherboardInfo@@0V?$basic_string@DU?$char_traits@D@std@@V?$allocator@D@2@@std@@B@@YAXXZ 00455410 f   systeminfo.obj
 0001:00054470       ??__F?VERSION_IDENTIFIER_STRING@MotherboardInfo@@0V?$basic_string@DU?$char_traits@D@std@@V?$allocator@D@2@@std@@B@@YAXXZ 00455470 f   systeminfo.obj
 0001:000544d0       ??__F?MOTHERBOARD_INFO_QUERY_STRING@MotherboardInfoDelegate@@0V?$basic_string@DU?$char_traits@D@std@@V?$allocator@D@2@@std@@B@@YAXXZ 004554d0 f   systeminfo.obj
 0001:00054530       ??__F?MOTHERBOARD_INSTANCE_QUERY_STRING@MotherboardInfoDelegate@@0V?$basic_string@DU?$char_traits@D@std@@V?$allocator@D@2@@std@@B@@YAXXZ 00455530 f   systeminfo.obj
 0001:00054590       ??__F?MOTHERBOARD_INFO_END_IDENTIFIER_STRING@MotherboardInfoDelegate@@0V?$basic_string@DU?$char_traits@D@std@@V?$allocator@D@2@@std@@B@@YAXXZ 00455590 f   systeminfo.obj
 0001:000545f0       ??__F?ARCHITECTURE_IDENTIFIER_STRING@OSInfo@@0V?$basic_string@DU?$char_traits@D@std@@V?$allocator@D@2@@std@@B@@YAXXZ 004555f0 f   systeminfo.obj
 0001:00054650       ??__F?CAPTION_INDENTIFIER_STRING@OSInfo@@0V?$basic_string@DU?$char_traits@D@std@@V?$allocator@D@2@@std@@B@@YAXXZ 00455650 f   systeminfo.obj
 0001:000546b0       ??__F?NAME_IDENTIFIER_STRING@OSInfo@@0V?$basic_string@DU?$char_traits@D@std@@V?$allocator@D@2@@std@@B@@YAXXZ 004556b0 f   systeminfo.obj
 0001:00054710       ??__F?MANUFACTURER_IDENTIFIER_STRING@OSInfo@@0V?$basic_string@DU?$char_traits@D@std@@V?$allocator@D@2@@std@@B@@YAXXZ 00455710 f   systeminfo.obj
 0001:00054770       ??__F?VERSION_IDENTIFIER_STRING@OSInfo@@0V?$basic_string@DU?$char_traits@D@std@@V?$allocator@D@2@@std@@B@@YAXXZ 00455770 f   systeminfo.obj
 0001:000547d0       ??__F?CURRENT_USER_IDENTIFIER_STRING@OSInfo@@0V?$basic_string@DU?$char_traits@D@std@@V?$allocator@D@2@@std@@B@@YAXXZ 004557d0 f   systeminfo.obj
 0001:00054830       ??__F?INSTALL_DATE_IDENTIFIER_STRING@OSInfo@@0V?$basic_string@DU?$char_traits@D@std@@V?$allocator@D@2@@std@@B@@YAXXZ 00455830 f   systeminfo.obj
 0001:00054890       ??__F?BUILD_NUMBER_IDENTIFIER_STRING@OSInfo@@0V?$basic_string@DU?$char_traits@D@std@@V?$allocator@D@2@@std@@B@@YAXXZ 00455890 f   systeminfo.obj
 0001:000548f0       ??__F?LAST_BOOT_UP_TIME_IDENTIFIER_STRING@OSInfo@@0V?$basic_string@DU?$char_traits@D@std@@V?$allocator@D@2@@std@@B@@YAXXZ 004558f0 f   systeminfo.obj
 0001:00054950       ??__F?BOOT_DEVICE_IDENTIFIER_STRING@OSInfo@@0V?$basic_string@DU?$char_traits@D@std@@V?$allocator@D@2@@std@@B@@YAXXZ 00455950 f   systeminfo.obj
 0001:000549b0       ??__F?SERIAL_NUMBER_IDENTIFIER_STRING@OSInfo@@0V?$basic_string@DU?$char_traits@D@std@@V?$allocator@D@2@@std@@B@@YAXXZ 004559b0 f   systeminfo.obj
 0001:00054a10       ??__F?TOTAL_VIRTUAL_MEMORY_SIZE_IDENTIFIER_STRING@OSInfo@@0V?$basic_string@DU?$char_traits@D@std@@V?$allocator@D@2@@std@@B@@YAXXZ 00455a10 f   systeminfo.obj
 0001:00054a70       ??__F?TOTAL_VISIBLE_MEMORY_SIZE_IDENTIFIER_STRING@OSInfo@@0V?$basic_string@DU?$char_traits@D@std@@V?$allocator@D@2@@std@@B@@YAXXZ 00455a70 f   systeminfo.obj
 0001:00054ad0       ??__F?TOTAL_SWAP_SIZE_IDENTIFIER_STRING@OSInfo@@0V?$basic_string@DU?$char_traits@D@std@@V?$allocator@D@2@@std@@B@@YAXXZ 00455ad0 f   systeminfo.obj
 0001:00054b30       ??__F?FREE_PHYSICAL_MEMORY_IDENTIFIER_STRING@OSInfo@@0V?$basic_string@DU?$char_traits@D@std@@V?$allocator@D@2@@std@@B@@YAXXZ 00455b30 f   systeminfo.obj
 0001:00054b90       ??__F?FREE_PHYSICAL_MEMORY_QUERY_STRING@OSInfo@@0V?$basic_string@DU?$char_traits@D@std@@V?$allocator@D@2@@std@@B@@YAXXZ 00455b90 f   systeminfo.obj
 0001:00054bf0       ??__F?FREE_VIRTUAL_MEMORY_IDENTIFIER_STRING@OSInfo@@0V?$basic_string@DU?$char_traits@D@std@@V?$allocator@D@2@@std@@B@@YAXXZ 00455bf0 f   systeminfo.obj
 0001:00054c50       ??__F?FREE_VIRTUAL_MEMORY_QUERY_STRING@OSInfo@@0V?$basic_string@DU?$char_traits@D@std@@V?$allocator@D@2@@std@@B@@YAXXZ 00455c50 f   systeminfo.obj
 0001:00054cb0       ??__F?FREE_SPACE_IN_PAGING_FILES_IDENTIFIER_STRING@OSInfo@@0V?$basic_string@DU?$char_traits@D@std@@V?$allocator@D@2@@std@@B@@YAXXZ 00455cb0 f   systeminfo.obj
 0001:00054d10       ??__F?FREE_SPACE_IN_PAGING_FILES_QUERY_STRING@OSInfo@@0V?$basic_string@DU?$char_traits@D@std@@V?$allocator@D@2@@std@@B@@YAXXZ 00455d10 f   systeminfo.obj
 0001:00054d70       ??__F?USED_SPACE_IN_PAGING_FILE_IDENTIFIER_STRING@OSInfo@@0V?$basic_string@DU?$char_traits@D@std@@V?$allocator@D@2@@std@@B@@YAXXZ 00455d70 f   systeminfo.obj
 0001:00054dd0       ??__F?USED_SPACE_IN_PAGING_FILE_QUERY_STRING@OSInfo@@0V?$basic_string@DU?$char_traits@D@std@@V?$allocator@D@2@@std@@B@@YAXXZ 00455dd0 f   systeminfo.obj
 0001:00054e30       ??__F?CURRENT_DATE_TIME_IDENTIFIER_STRING@OSInfo@@0V?$basic_string@DU?$char_traits@D@std@@V?$allocator@D@2@@std@@B@@YAXXZ 00455e30 f   systeminfo.obj
 0001:00054e90       ??__F?CURRENT_DATE_TIME_QUERY_STRING@OSInfo@@0V?$basic_string@DU?$char_traits@D@std@@V?$allocator@D@2@@std@@B@@YAXXZ 00455e90 f   systeminfo.obj
 0001:00054ef0       ??__F?OS_INFO_QUERY_STRING@OSInfoDelegate@@0V?$basic_string@DU?$char_traits@D@std@@V?$allocator@D@2@@std@@B@@YAXXZ 00455ef0 f   systeminfo.obj
 0001:00054f50       ??__F?OS_INSTANCE_QUERY_STRING@OSInfoDelegate@@0V?$basic_string@DU?$char_traits@D@std@@V?$allocator@D@2@@std@@B@@YAXXZ 00455f50 f   systeminfo.obj
 0001:00054fb0       ??__F?OS_INFO_END_IDENTIFIER_STRING@OSInfoDelegate@@0V?$basic_string@DU?$char_traits@D@std@@V?$allocator@D@2@@std@@B@@YAXXZ 00455fb0 f   systeminfo.obj
 0001:00055010       ??__F?NAME_IDENTIFIER_STRING@RAMInfo@@0V?$basic_string@DU?$char_traits@D@std@@V?$allocator@D@2@@std@@B@@YAXXZ 00456010 f   systeminfo.obj
 0001:00055070       ??__F?MANUFACTURER_IDENTIFIER_STRING@RAMInfo@@0V?$basic_string@DU?$char_traits@D@std@@V?$allocator@D@2@@std@@B@@YAXXZ 00456070 f   systeminfo.obj
 0001:000550d0       ??__F?CAPACITY_IDENTIFIER_STRING@RAMInfo@@0V?$basic_string@DU?$char_traits@D@std@@V?$allocator@D@2@@std@@B@@YAXXZ 004560d0 f   systeminfo.obj
 0001:00055130       ??__F?SERIAL_NUMBER_IDENTIFIER_STRING@RAMInfo@@0V?$basic_string@DU?$char_traits@D@std@@V?$allocator@D@2@@std@@B@@YAXXZ 00456130 f   systeminfo.obj
 0001:00055190       ??__F?FORM_FACTOR_IDENTIFIER_STRING@RAMInfo@@0V?$basic_string@DU?$char_traits@D@std@@V?$allocator@D@2@@std@@B@@YAXXZ 00456190 f   systeminfo.obj
 0001:000551f0       ??__F?PART_NUMBER_IDENTIFIER_STRING@RAMInfo@@0V?$basic_string@DU?$char_traits@D@std@@V?$allocator@D@2@@std@@B@@YAXXZ 004561f0 f   systeminfo.obj
 0001:00055250       ??__F?MEMORY_TYPE_IDENTIFIER_STRING@RAMInfo@@0V?$basic_string@DU?$char_traits@D@std@@V?$allocator@D@2@@std@@B@@YAXXZ 00456250 f   systeminfo.obj
 0001:000552b0       ??__F?CLOCK_SPEED_IDENTIFIER_STRING@RAMInfo@@0V?$basic_string@DU?$char_traits@D@std@@V?$allocator@D@2@@std@@B@@YAXXZ 004562b0 f   systeminfo.obj
 0001:00055310       ??__F?BACKUP_CLOCK_SPEED_IDENTIFIER_STRING@RAMInfo@@0V?$basic_string@DU?$char_traits@D@std@@V?$allocator@D@2@@std@@B@@YAXXZ 00456310 f   systeminfo.obj
 0001:00055370       ??__F?RAM_INFO_QUERY_STRING@RAMInfoDelegate@@0V?$basic_string@DU?$char_traits@D@std@@V?$allocator@D@2@@std@@B@@YAXXZ 00456370 f   systeminfo.obj
 0001:000553d0       ??__F?RAM_INSTANCE_QUERY_STRING@RAMInfoDelegate@@0V?$basic_string@DU?$char_traits@D@std@@V?$allocator@D@2@@std@@B@@YAXXZ 004563d0 f   systeminfo.obj
 0001:00055430       ??__F?RAM_INFO_END_IDENTIFIER_STRING@RAMInfoDelegate@@0V?$basic_string@DU?$char_traits@D@std@@V?$allocator@D@2@@std@@B@@YAXXZ 00456430 f   systeminfo.obj
 0001:00055487       ??__F_Fac_tidy_reg@std@@YAXXZ 00456487 f   msvcprt:locale0_implib.obj
 0002:000004ac       ?pre_cpp_initializer@@3P6AXXZA 004574ac     MSVCRT:exe_winmain.obj
 0002:000004b0       ?_Fac_tidy_reg$initializer$@std@@3P6AXXZA 004574b0     msvcprt:locale0_implib.obj
 0002:000004b4       ?g_hWarcraftWnd$initializer$@@3P6AXXZA 004574b4     Main.obj
 0002:000004b8       ??TEMPERATURE_QUERY_STRING$initializer$@CPUInfo@@0P6AXXZA@@3P6AXXZA 004574b8     systeminfo.obj
 0002:000004bc       ??TEMPERATURE_ERROR_IDENTIFIER_STRING$initializer$@CPUInfo@@0P6AXXZA@@3P6AXXZA 004574bc     systeminfo.obj
 0002:000004c0       ??CLOCK_SPEED_QUERY_STRING$initializer$@CPUInfo@@0P6AXXZA@@3P6AXXZA 004574c0     systeminfo.obj
 0002:000004c4       ??CURRENT_CLOCK_SPEED_IDENTIFIER_STRING$initializer$@CPUInfo@@0P6AXXZA@@3P6AXXZA 004574c4     systeminfo.obj
 0002:000004c8       ??NAME_IDENTIFIER_STRING$initializer$@CPUInfo@@0P6AXXZA@@3P6AXXZA 004574c8     systeminfo.obj
 0002:000004cc       ??NUMBER_OF_CORES_IDENTIFIER_STRING$initializer$@CPUInfo@@0P6AXXZA@@3P6AXXZA 004574cc     systeminfo.obj
 0002:000004d0       ??MANUFACTURER_IDENTIFIER_STRING$initializer$@CPUInfo@@0P6AXXZA@@3P6AXXZA 004574d0     systeminfo.obj
 0002:000004d4       ??ARCHITECTURE_IDENTIFIER_STRING$initializer$@CPUInfo@@0P6AXXZA@@3P6AXXZA 004574d4     systeminfo.obj
 0002:000004d8       ??L2_CACHE_SIZE_IDENTIFIER_STRING$initializer$@CPUInfo@@0P6AXXZA@@3P6AXXZA 004574d8     systeminfo.obj
 0002:000004dc       ??L3_CACHE_SIZE_IDENTIFIER_STRING$initializer$@CPUInfo@@0P6AXXZA@@3P6AXXZA 004574dc     systeminfo.obj
 0002:000004e0       ??CPU_INFO_QUERY_STRING$initializer$@CPUInfoDelegate@@0P6AXXZA@@3P6AXXZA 004574e0     systeminfo.obj
 0002:000004e4       ??CPU_INSTANCE_QUERY_STRING$initializer$@CPUInfoDelegate@@0P6AXXZA@@3P6AXXZA 004574e4     systeminfo.obj
 0002:000004e8       ??CPU_INFO_END_IDENTIFIER_STRING$initializer$@CPUInfoDelegate@@0P6AXXZA@@3P6AXXZA 004574e8     systeminfo.obj
 0002:000004ec       ??NVIDIA_IDENTIFIER_STRING$initializer$@GPUInfo@@0P6AXXZA@@3P6AXXZA 004574ec     systeminfo.obj
 0002:000004f0       ??INTEL_IDENTIFIER_STRING$initializer$@GPUInfo@@0P6AXXZA@@3P6AXXZA 004574f0     systeminfo.obj
 0002:000004f4       ??AMD_IDENTIFIER_STRING$initializer$@GPUInfo@@0P6AXXZA@@3P6AXXZA 004574f4     systeminfo.obj
 0002:000004f8       ??NAME_IDENTIFIER_STRING$initializer$@GPUInfo@@0P6AXXZA@@3P6AXXZA 004574f8     systeminfo.obj
 0002:000004fc       ??MANUFACTURER_IDENTIFIER_STRING$initializer$@GPUInfo@@0P6AXXZA@@3P6AXXZA 004574fc     systeminfo.obj
 0002:00000500       ??ADAPTER_RAM_IDENTIFIER_STRING$initializer$@GPUInfo@@0P6AXXZA@@3P6AXXZA 00457500     systeminfo.obj
 0002:00000504       ??REFRESH_RATE_IDENTIFIER_STRING$initializer$@GPUInfo@@0P6AXXZA@@3P6AXXZA 00457504     systeminfo.obj
 0002:00000508       ??DRIVER_VERSION_IDENTIFIER_STRING$initializer$@GPUInfo@@0P6AXXZA@@3P6AXXZA 00457508     systeminfo.obj
 0002:0000050c       ??VIDEO_ARCHITECTURE_IDENTIFIER_STRING$initializer$@GPUInfo@@0P6AXXZA@@3P6AXXZA 0045750c     systeminfo.obj
 0002:00000510       ??VIDEO_MEMORY_TYPE_IDENTIFIER_STRING$initializer$@GPUInfo@@0P6AXXZA@@3P6AXXZA 00457510     systeminfo.obj
 0002:00000514       ??VIDEO_MODE_DESCRIPTION_IDENTIFIER_STRING$initializer$@GPUInfo@@0P6AXXZA@@3P6AXXZA 00457514     systeminfo.obj
 0002:00000518       ??VIDEO_PROCESSOR_IDENTIFIER_STRING$initializer$@GPUInfo@@0P6AXXZA@@3P6AXXZA 00457518     systeminfo.obj
 0002:0000051c       ??CAPTION_IDENTIFIER_STRING$initializer$@GPUInfo@@0P6AXXZA@@3P6AXXZA 0045751c     systeminfo.obj
 0002:00000520       ??GPU_INFO_QUERY_STRING$initializer$@GPUInfoDelegate@@0P6AXXZA@@3P6AXXZA 00457520     systeminfo.obj
 0002:00000524       ??GPU_INSTANCE_QUERY_STRING$initializer$@GPUInfoDelegate@@0P6AXXZA@@3P6AXXZA 00457524     systeminfo.obj
 0002:00000528       ??GPU_INFO_END_IDENTIFIER_STRING$initializer$@GPUInfoDelegate@@0P6AXXZA@@3P6AXXZA 00457528     systeminfo.obj
 0002:0000052c       ??CHIPSET_QUERY_STRING$initializer$@MotherboardInfo@@0P6AXXZA@@3P6AXXZA 0045752c     systeminfo.obj
 0002:00000530       ??NAME_IDENTIFIER_STRING$initializer$@MotherboardInfo@@0P6AXXZA@@3P6AXXZA 00457530     systeminfo.obj
 0002:00000534       ??MANUFACTURER_IDENTIFIER_STRING$initializer$@MotherboardInfo@@0P6AXXZA@@3P6AXXZA 00457534     systeminfo.obj
 0002:00000538       ??CHIPSET_IDENTIFIER_STRING$initializer$@MotherboardInfo@@0P6AXXZA@@3P6AXXZA 00457538     systeminfo.obj
 0002:0000053c       ??CHIPSET_END_IDENTIFIER_STRING$initializer$@MotherboardInfo@@0P6AXXZA@@3P6AXXZA 0045753c     systeminfo.obj
 0002:00000540       ??SERIAL_NUMBER_IDENTIFIER_STRING$initializer$@MotherboardInfo@@0P6AXXZA@@3P6AXXZA 00457540     systeminfo.obj
 0002:00000544       ??VERSION_IDENTIFIER_STRING$initializer$@MotherboardInfo@@0P6AXXZA@@3P6AXXZA 00457544     systeminfo.obj
 0002:00000548       ??MOTHERBOARD_INFO_QUERY_STRING$initializer$@MotherboardInfoDelegate@@0P6AXXZA@@3P6AXXZA 00457548     systeminfo.obj
 0002:0000054c       ??MOTHERBOARD_INSTANCE_QUERY_STRING$initializer$@MotherboardInfoDelegate@@0P6AXXZA@@3P6AXXZA 0045754c     systeminfo.obj
 0002:00000550       ??MOTHERBOARD_INFO_END_IDENTIFIER_STRING$initializer$@MotherboardInfoDelegate@@0P6AXXZA@@3P6AXXZA 00457550     systeminfo.obj
 0002:00000554       ??ARCHITECTURE_IDENTIFIER_STRING$initializer$@OSInfo@@0P6AXXZA@@3P6AXXZA 00457554     systeminfo.obj
 0002:00000558       ??CAPTION_INDENTIFIER_STRING$initializer$@OSInfo@@0P6AXXZA@@3P6AXXZA 00457558     systeminfo.obj
 0002:0000055c       ??NAME_IDENTIFIER_STRING$initializer$@OSInfo@@0P6AXXZA@@3P6AXXZA 0045755c     systeminfo.obj
 0002:00000560       ??MANUFACTURER_IDENTIFIER_STRING$initializer$@OSInfo@@0P6AXXZA@@3P6AXXZA 00457560     systeminfo.obj
 0002:00000564       ??VERSION_IDENTIFIER_STRING$initializer$@OSInfo@@0P6AXXZA@@3P6AXXZA 00457564     systeminfo.obj
 0002:00000568       ??CURRENT_USER_IDENTIFIER_STRING$initializer$@OSInfo@@0P6AXXZA@@3P6AXXZA 00457568     systeminfo.obj
 0002:0000056c       ??INSTALL_DATE_IDENTIFIER_STRING$initializer$@OSInfo@@0P6AXXZA@@3P6AXXZA 0045756c     systeminfo.obj
 0002:00000570       ??BUILD_NUMBER_IDENTIFIER_STRING$initializer$@OSInfo@@0P6AXXZA@@3P6AXXZA 00457570     systeminfo.obj
 0002:00000574       ??LAST_BOOT_UP_TIME_IDENTIFIER_STRING$initializer$@OSInfo@@0P6AXXZA@@3P6AXXZA 00457574     systeminfo.obj
 0002:00000578       ??BOOT_DEVICE_IDENTIFIER_STRING$initializer$@OSInfo@@0P6AXXZA@@3P6AXXZA 00457578     systeminfo.obj
 0002:0000057c       ??SERIAL_NUMBER_IDENTIFIER_STRING$initializer$@OSInfo@@0P6AXXZA@@3P6AXXZA 0045757c     systeminfo.obj
 0002:00000580       ??TOTAL_VIRTUAL_MEMORY_SIZE_IDENTIFIER_STRING$initializer$@OSInfo@@0P6AXXZA@@3P6AXXZA 00457580     systeminfo.obj
 0002:00000584       ??TOTAL_VISIBLE_MEMORY_SIZE_IDENTIFIER_STRING$initializer$@OSInfo@@0P6AXXZA@@3P6AXXZA 00457584     systeminfo.obj
 0002:00000588       ??TOTAL_SWAP_SIZE_IDENTIFIER_STRING$initializer$@OSInfo@@0P6AXXZA@@3P6AXXZA 00457588     systeminfo.obj
 0002:0000058c       ??FREE_PHYSICAL_MEMORY_IDENTIFIER_STRING$initializer$@OSInfo@@0P6AXXZA@@3P6AXXZA 0045758c     systeminfo.obj
 0002:00000590       ??FREE_PHYSICAL_MEMORY_QUERY_STRING$initializer$@OSInfo@@0P6AXXZA@@3P6AXXZA 00457590     systeminfo.obj
 0002:00000594       ??FREE_VIRTUAL_MEMORY_IDENTIFIER_STRING$initializer$@OSInfo@@0P6AXXZA@@3P6AXXZA 00457594     systeminfo.obj
 0002:00000598       ??FREE_VIRTUAL_MEMORY_QUERY_STRING$initializer$@OSInfo@@0P6AXXZA@@3P6AXXZA 00457598     systeminfo.obj
 0002:0000059c       ??FREE_SPACE_IN_PAGING_FILES_IDENTIFIER_STRING$initializer$@OSInfo@@0P6AXXZA@@3P6AXXZA 0045759c     systeminfo.obj
 0002:000005a0       ??FREE_SPACE_IN_PAGING_FILES_QUERY_STRING$initializer$@OSInfo@@0P6AXXZA@@3P6AXXZA 004575a0     systeminfo.obj
 0002:000005a4       ??USED_SPACE_IN_PAGING_FILE_IDENTIFIER_STRING$initializer$@OSInfo@@0P6AXXZA@@3P6AXXZA 004575a4     systeminfo.obj
 0002:000005a8       ??USED_SPACE_IN_PAGING_FILE_QUERY_STRING$initializer$@OSInfo@@0P6AXXZA@@3P6AXXZA 004575a8     systeminfo.obj
 0002:000005ac       ??CURRENT_DATE_TIME_IDENTIFIER_STRING$initializer$@OSInfo@@0P6AXXZA@@3P6AXXZA 004575ac     systeminfo.obj
 0002:000005b0       ??CURRENT_DATE_TIME_QUERY_STRING$initializer$@OSInfo@@0P6AXXZA@@3P6AXXZA 004575b0     systeminfo.obj
 0002:000005b4       ??OS_INFO_QUERY_STRING$initializer$@OSInfoDelegate@@0P6AXXZA@@3P6AXXZA 004575b4     systeminfo.obj
 0002:000005b8       ??OS_INSTANCE_QUERY_STRING$initializer$@OSInfoDelegate@@0P6AXXZA@@3P6AXXZA 004575b8     systeminfo.obj
 0002:000005bc       ??OS_INFO_END_IDENTIFIER_STRING$initializer$@OSInfoDelegate@@0P6AXXZA@@3P6AXXZA 004575bc     systeminfo.obj
 0002:000005c0       ??NAME_IDENTIFIER_STRING$initializer$@RAMInfo@@0P6AXXZA@@3P6AXXZA 004575c0     systeminfo.obj
 0002:000005c4       ??MANUFACTURER_IDENTIFIER_STRING$initializer$@RAMInfo@@0P6AXXZA@@3P6AXXZA 004575c4     systeminfo.obj
 0002:000005c8       ??CAPACITY_IDENTIFIER_STRING$initializer$@RAMInfo@@0P6AXXZA@@3P6AXXZA 004575c8     systeminfo.obj
 0002:000005cc       ??SERIAL_NUMBER_IDENTIFIER_STRING$initializer$@RAMInfo@@0P6AXXZA@@3P6AXXZA 004575cc     systeminfo.obj
 0002:000005d0       ??FORM_FACTOR_IDENTIFIER_STRING$initializer$@RAMInfo@@0P6AXXZA@@3P6AXXZA 004575d0     systeminfo.obj
 0002:000005d4       ??PART_NUMBER_IDENTIFIER_STRING$initializer$@RAMInfo@@0P6AXXZA@@3P6AXXZA 004575d4     systeminfo.obj
 0002:000005d8       ??MEMORY_TYPE_IDENTIFIER_STRING$initializer$@RAMInfo@@0P6AXXZA@@3P6AXXZA 004575d8     systeminfo.obj
 0002:000005dc       ??CLOCK_SPEED_IDENTIFIER_STRING$initializer$@RAMInfo@@0P6AXXZA@@3P6AXXZA 004575dc     systeminfo.obj
 0002:000005e0       ??BACKUP_CLOCK_SPEED_IDENTIFIER_STRING$initializer$@RAMInfo@@0P6AXXZA@@3P6AXXZA 004575e0     systeminfo.obj
 0002:000005e4       ??RAM_INFO_QUERY_STRING$initializer$@RAMInfoDelegate@@0P6AXXZA@@3P6AXXZA 004575e4     systeminfo.obj
 0002:000005e8       ??RAM_INSTANCE_QUERY_STRING$initializer$@RAMInfoDelegate@@0P6AXXZA@@3P6AXXZA 004575e8     systeminfo.obj
 0002:000005ec       ??RAM_INFO_END_IDENTIFIER_STRING$initializer$@RAMInfoDelegate@@0P6AXXZA@@3P6AXXZA 004575ec     systeminfo.obj
 0002:000005f8       ?pre_c_initializer@@3P6AHXZA 004575f8     MSVCRT:exe_winmain.obj
 0002:000005fc       ?post_pgo_initializer@@3P6AHXZA 004575fc     MSVCRT:exe_winmain.obj
 0002:00000628       _GS_ExceptionPointers      00457628     MSVCRT:gs_report.obj
 0002:000006b8       ?finit@?1??mstate@@9@9     004576b8     libcurl:multi.obj
 0002:00000700       ?none@?3??Curl_update_timer@@9@9 00457700     libcurl:multi.obj
 0002:00000ba0       ?ctts@?1??Curl_mime_contenttype@@9@9 00457ba0     libcurl:mime.obj
 0002:00000bf0       _encoders                  00457bf0     libcurl:mime.obj
 0002:00000c38       _base64                    00457c38     libcurl:mime.obj
 0002:00000c80       _qp_class                  00457c80     libcurl:mime.obj
 0002:00000d80       _aschex                    00457d80     libcurl:mime.obj
 0002:00001040       _protocols                 00458040     libcurl:url.obj
 0002:00001080       _Curl_handler_dummy        00458080     libcurl:url.obj
 0002:000017e8       ?s_infotype@?2??Curl_debug@@9@9 004587e8     libcurl:sendf.obj
 0002:00001e38       _identity_encoding         00458e38     libcurl:content_encoding.obj
 0002:00001e50       _encodings                 00458e50     libcurl:content_encoding.obj
 0002:00001e58       _client_encoding           00458e58     libcurl:content_encoding.obj
 0002:00001e70       _error_encoding            00458e70     libcurl:content_encoding.obj
 0002:000020a8       ?KEY_NOTUSED@?1??Curl_splayinsert@@9@9 004590a8     libcurl:splay.obj
 0002:00003b94       ?lookup@?DF@??Curl_SOCKS5@@9@9 0045ab94     libcurl:socks.obj
 0002:000040c0       _lower_digits              0045b0c0     libcurl:mprintf.obj
 0002:000040e8       _upper_digits              0045b0e8     libcurl:mprintf.obj
 0002:00004110       ?null@?CE@??dprintf_formatf@@9@9 0045b110     libcurl:mprintf.obj
 0002:00004118       ?strnil@?DA@??dprintf_formatf@@9@9 0045b118     libcurl:mprintf.obj
 0002:00004140       ?digits@?1??inet_pton4@@9@9 0045b140     libcurl:inet_pton.obj
 0002:0000414c       ?xdigits_l@?1??inet_pton6@@9@9 0045b14c     libcurl:inet_pton.obj
 0002:00004160       ?xdigits_u@?1??inet_pton6@@9@9 0045b160     libcurl:inet_pton.obj
 0002:000041c4       _weekday                   0045b1c4     libcurl:parsedate.obj
 0002:000041e0       _tz                        0045b1e0     libcurl:parsedate.obj
 0002:0000451c       ?month_days_cumulative@?1??time2epoch@@9@9 0045b51c     libcurl:parsedate.obj
 0002:000046f0       _saslimap                  0045b6f0     libcurl:imap.obj
 0002:00004bb0       _saslpop3                  0045bbb0     libcurl:pop3.obj
 0002:00004ce8       _saslsmtp                  0045bce8     libcurl:smtp.obj
 0002:00005218       ?ftpauth@?1??ftp_statemachine@@9@9 0045c218     libcurl:ftp.obj
 0002:0000526c       ?mode@?1??ftp_state_use_port@@9@9 0045c26c     libcurl:ftp.obj
 0002:00005278       ?mode@?1??ftp_state_use_pasv@@9@9 0045c278     libcurl:ftp.obj
 0002:00006058       _telnetoptions             0045d058     libcurl:telnet.obj
 0002:000060f8       _telnetcmds                0045d0f8     libcurl:telnet.obj
 0002:000071cc       ?badbytes@?2??junkscan@@9@9 0045e1cc     libcurl:urlapi.obj
 0002:000072f8       _ascii                     0045e2f8     libcurl:curl_ctype.obj
 0002:000087b4       _errors                    0045f7b4     libcurl:doh.obj
 0002:000089c0       _base64                    0045f9c0     libcurl:base64.obj
 0002:00008a08       _base64url                 0045fa08     libcurl:base64.obj
 0002:00008a5c       ?type2_marker@?1??Curl_auth_decode_ntlm_type2_message@@9@9 0045fa5c     libcurl:ntlm.obj
 0002:00008f08       _mechtable                 0045ff08     libcurl:curl_sasl.obj
 0002:000090a4       ?magic@?1??Curl_ntlm_core_mk_lm_hash@@9@9 004600a4     libcurl:curl_ntlm_core.obj
 0002:00009124       _hmac_ipad                 00460124     libcurl:hmac.obj
 0002:00009125       _hmac_opad                 00460125     libcurl:hmac.obj
 0002:00009230       _NaN                       00460230     MSVCRT:ftol3.obj
 0002:00009234       _onept5                    00460234     MSVCRT:ftol3.obj
 0002:00009238       _DP2to32                   00460238     MSVCRT:ftol3.obj
 0002:00009238       _Int32ToUInt32             00460238     MSVCRT:ftol3.obj
 0002:00009d40       ??_7?$_Func_impl_no_alloc@V<lambda_b5565d269da327e336800d80f472b553>@@V?$basic_string@DU?$char_traits@D@std@@V?$allocator@D@2@@std@@ABV23@@std@@6B@ 00460d40     systeminfo.obj
 0002:0000a150       ??_R3?$_Func_impl_no_alloc@V<lambda_b5565d269da327e336800d80f472b553>@@V?$basic_string@DU?$char_traits@D@std@@V?$allocator@D@2@@std@@ABV23@@std@@8 00461150     systeminfo.obj
 0002:0000a33c       ??_R4?$_Func_impl_no_alloc@V<lambda_b5565d269da327e336800d80f472b553>@@V?$basic_string@DU?$char_traits@D@std@@V?$allocator@D@2@@std@@ABV23@@std@@6B@ 0046133c     systeminfo.obj
 0002:0000a394       ??_R2?$_Func_impl_no_alloc@V<lambda_b5565d269da327e336800d80f472b553>@@V?$basic_string@DU?$char_traits@D@std@@V?$allocator@D@2@@std@@ABV23@@std@@8 00461394     systeminfo.obj
 0002:0000a400       ??_R1A@?0A@EA@?$_Func_impl_no_alloc@V<lambda_b5565d269da327e336800d80f472b553>@@V?$basic_string@DU?$char_traits@D@std@@V?$allocator@D@2@@std@@ABV23@@std@@8 00461400     systeminfo.obj
 0002:0000a810       __ehfuncinfo$?KEY@@YA?AV?$basic_string@DU?$char_traits@D@std@@V?$allocator@D@2@@std@@XZ 00461810     protect.obj
 0002:0000a838       __unwindtable$?KEY@@YA?AV?$basic_string@DU?$char_traits@D@std@@V?$allocator@D@2@@std@@XZ 00461838     protect.obj
 0002:0000a8c0       __ehfuncinfo$?write_to_string@@YAIPAXII0@Z 004618c0     protect.obj
 0002:0000a8e4       __unwindtable$?write_to_string@@YAIPAXII0@Z 004618e4     protect.obj
 0002:0000a8ec       __ehfuncinfo$?IsValidTime@@YA_NHHH@Z 004618ec     protect.obj
 0002:0000a910       __unwindtable$?IsValidTime@@YA_NHHH@Z 00461910     protect.obj
 0002:0000a920       __ehfuncinfo$??1sentry@?$basic_ostream@DU?$char_traits@D@std@@@std@@QAE@XZ 00461920     protect.obj
 0002:0000a920       __ehfuncinfo$??1sentry@?$basic_istream@DU?$char_traits@D@std@@@std@@QAE@XZ 00461920     systeminfo.obj
 0002:0000a944       __unwindtable$??1sentry@?$basic_ostream@DU?$char_traits@D@std@@@std@@QAE@XZ 00461944     protect.obj
 0002:0000a944       __unwindtable$??1sentry@?$basic_istream@DU?$char_traits@D@std@@@std@@QAE@XZ 00461944     systeminfo.obj
 0002:0000a94c       __ehfuncinfo$??1_Sentry_base@?$basic_ostream@DU?$char_traits@D@std@@@std@@QAE@XZ 0046194c     protect.obj
 0002:0000a94c       __ehfuncinfo$??1?$basic_filebuf@DU?$char_traits@D@std@@@std@@UAE@XZ 0046194c     systeminfo.obj
 0002:0000a94c       __ehfuncinfo$??1_Sentry_base@?$basic_istream@DU?$char_traits@D@std@@@std@@QAE@XZ 0046194c     systeminfo.obj
 0002:0000a970       __ehfuncinfo$??$?6U?$char_traits@D@std@@@std@@YAAAV?$basic_ostream@DU?$char_traits@D@std@@@0@AAV10@PBD@Z 00461970     protect.obj
 0002:0000a994       __unwindtable$??$?6U?$char_traits@D@std@@@std@@YAAAV?$basic_ostream@DU?$char_traits@D@std@@@0@AAV10@PBD@Z 00461994     protect.obj
 0002:0000a9c4       __tryblocktable$??$?6U?$char_traits@D@std@@@std@@YAAAV?$basic_ostream@DU?$char_traits@D@std@@@0@AAV10@PBD@Z 004619c4     protect.obj
 0002:0000a9d8       __catchsym$??$?6U?$char_traits@D@std@@@std@@YAAAV?$basic_ostream@DU?$char_traits@D@std@@@0@AAV10@PBD@Z$6 004619d8     protect.obj
 0002:0000a9e8       __ehfuncinfo$??0CPUInfo@@QAE@ABV?$vector@V?$basic_string@DU?$char_traits@D@std@@V?$allocator@D@2@@std@@V?$allocator@V?$basic_string@DU?$char_traits@D@std@@V?$allocator@D@2@@std@@@2@@std@@H@Z 004619e8     systeminfo.obj
 0002:0000aa10       __unwindtable$??0CPUInfo@@QAE@ABV?$vector@V?$basic_string@DU?$char_traits@D@std@@V?$allocator@D@2@@std@@V?$allocator@V?$basic_string@DU?$char_traits@D@std@@V?$allocator@D@2@@std@@@2@@std@@H@Z 00461a10     systeminfo.obj
 0002:0000aa58       __ehfuncinfo$?getArchitecture@CPUInfo@@ABE?AV?$basic_string@DU?$char_traits@D@std@@V?$allocator@D@2@@std@@AAV23@@Z 00461a58     systeminfo.obj
 0002:0000aa7c       __unwindtable$?getArchitecture@CPUInfo@@ABE?AV?$basic_string@DU?$char_traits@D@std@@V?$allocator@D@2@@std@@AAV23@@Z 00461a7c     systeminfo.obj
 0002:0000aa8c       __tryblocktable$?getArchitecture@CPUInfo@@ABE?AV?$basic_string@DU?$char_traits@D@std@@V?$allocator@D@2@@std@@AAV23@@Z 00461a8c     systeminfo.obj
 0002:0000aaa0       __catchsym$?getArchitecture@CPUInfo@@ABE?AV?$basic_string@DU?$char_traits@D@std@@V?$allocator@D@2@@std@@AAV23@@Z$11 00461aa0     systeminfo.obj
 0002:0000aab0       __ehfuncinfo$??0CPUInfoDelegate@@QAE@XZ 00461ab0     systeminfo.obj
 0002:0000aad8       __unwindtable$??0CPUInfoDelegate@@QAE@XZ 00461ad8     systeminfo.obj
 0002:0000ab18       __ehfuncinfo$??0GPUInfo@@QAE@ABV?$vector@V?$basic_string@DU?$char_traits@D@std@@V?$allocator@D@2@@std@@V?$allocator@V?$basic_string@DU?$char_traits@D@std@@V?$allocator@D@2@@std@@@2@@std@@H@Z 00461b18     systeminfo.obj
 0002:0000ab3c       __tryblocktable$??0GPUInfo@@QAE@ABV?$vector@V?$basic_string@DU?$char_traits@D@std@@V?$allocator@D@2@@std@@V?$allocator@V?$basic_string@DU?$char_traits@D@std@@V?$allocator@D@2@@std@@@2@@std@@H@Z 00461b3c     systeminfo.obj
 0002:0000ab50       __unwindtable$??0GPUInfo@@QAE@ABV?$vector@V?$basic_string@DU?$char_traits@D@std@@V?$allocator@D@2@@std@@V?$allocator@V?$basic_string@DU?$char_traits@D@std@@V?$allocator@D@2@@std@@@2@@std@@H@Z 00461b50     systeminfo.obj
 0002:0000abf0       __catchsym$??0GPUInfo@@QAE@ABV?$vector@V?$basic_string@DU?$char_traits@D@std@@V?$allocator@D@2@@std@@V?$allocator@V?$basic_string@DU?$char_traits@D@std@@V?$allocator@D@2@@std@@@2@@std@@H@Z$112 00461bf0     systeminfo.obj
 0002:0000ac00       __ehfuncinfo$?getVideoArchitecture@GPUInfo@@ABE?AV?$basic_string@DU?$char_traits@D@std@@V?$allocator@D@2@@std@@ABV23@@Z 00461c00     systeminfo.obj
 0002:0000ac24       __unwindtable$?getVideoArchitecture@GPUInfo@@ABE?AV?$basic_string@DU?$char_traits@D@std@@V?$allocator@D@2@@std@@ABV23@@Z 00461c24     systeminfo.obj
 0002:0000ac34       __tryblocktable$?getVideoArchitecture@GPUInfo@@ABE?AV?$basic_string@DU?$char_traits@D@std@@V?$allocator@D@2@@std@@ABV23@@Z 00461c34     systeminfo.obj
 0002:0000ac48       __catchsym$?getVideoArchitecture@GPUInfo@@ABE?AV?$basic_string@DU?$char_traits@D@std@@V?$allocator@D@2@@std@@ABV23@@Z$31 00461c48     systeminfo.obj
 0002:0000ac58       __ehfuncinfo$?getVideoMemoryType@GPUInfo@@ABE?AV?$basic_string@DU?$char_traits@D@std@@V?$allocator@D@2@@std@@ABV23@@Z 00461c58     systeminfo.obj
 0002:0000ac7c       __unwindtable$?getVideoMemoryType@GPUInfo@@ABE?AV?$basic_string@DU?$char_traits@D@std@@V?$allocator@D@2@@std@@ABV23@@Z 00461c7c     systeminfo.obj
 0002:0000ac8c       __tryblocktable$?getVideoMemoryType@GPUInfo@@ABE?AV?$basic_string@DU?$char_traits@D@std@@V?$allocator@D@2@@std@@ABV23@@Z 00461c8c     systeminfo.obj
 0002:0000aca0       __catchsym$?getVideoMemoryType@GPUInfo@@ABE?AV?$basic_string@DU?$char_traits@D@std@@V?$allocator@D@2@@std@@ABV23@@Z$31 00461ca0     systeminfo.obj
 0002:0000acb0       __ehfuncinfo$??0GPUInfoDelegate@@QAE@XZ 00461cb0     systeminfo.obj
 0002:0000acd8       __unwindtable$??0GPUInfoDelegate@@QAE@XZ 00461cd8     systeminfo.obj
 0002:0000ad18       __ehfuncinfo$??0MotherboardInfo@@QAE@ABV?$vector@V?$basic_string@DU?$char_traits@D@std@@V?$allocator@D@2@@std@@V?$allocator@V?$basic_string@DU?$char_traits@D@std@@V?$allocator@D@2@@std@@@2@@std@@H@Z 00461d18     systeminfo.obj
 0002:0000ad3c       __unwindtable$??0MotherboardInfo@@QAE@ABV?$vector@V?$basic_string@DU?$char_traits@D@std@@V?$allocator@D@2@@std@@V?$allocator@V?$basic_string@DU?$char_traits@D@std@@V?$allocator@D@2@@std@@@2@@std@@H@Z 00461d3c     systeminfo.obj
 0002:0000ad64       __ehfuncinfo$?determineChipset@MotherboardInfo@@AAEXXZ 00461d64     systeminfo.obj
 0002:0000ad88       __unwindtable$?determineChipset@MotherboardInfo@@AAEXXZ 00461d88     systeminfo.obj
 0002:0000adb0       __ehfuncinfo$??0MotherboardInfoDelegate@@QAE@XZ 00461db0     systeminfo.obj
 0002:0000add8       __unwindtable$??0MotherboardInfoDelegate@@QAE@XZ 00461dd8     systeminfo.obj
 0002:0000ae18       __ehfuncinfo$??0OSInfo@@QAE@ABV?$vector@V?$basic_string@DU?$char_traits@D@std@@V?$allocator@D@2@@std@@V?$allocator@V?$basic_string@DU?$char_traits@D@std@@V?$allocator@D@2@@std@@@2@@std@@H@Z 00461e18     systeminfo.obj
 0002:0000ae3c       __tryblocktable$??0OSInfo@@QAE@ABV?$vector@V?$basic_string@DU?$char_traits@D@std@@V?$allocator@D@2@@std@@V?$allocator@V?$basic_string@DU?$char_traits@D@std@@V?$allocator@D@2@@std@@@2@@std@@H@Z 00461e3c     systeminfo.obj
 0002:0000ae78       __unwindtable$??0OSInfo@@QAE@ABV?$vector@V?$basic_string@DU?$char_traits@D@std@@V?$allocator@D@2@@std@@V?$allocator@V?$basic_string@DU?$char_traits@D@std@@V?$allocator@D@2@@std@@@2@@std@@H@Z 00461e78     systeminfo.obj
 0002:0000af90       __catchsym$??0OSInfo@@QAE@ABV?$vector@V?$basic_string@DU?$char_traits@D@std@@V?$allocator@D@2@@std@@V?$allocator@V?$basic_string@DU?$char_traits@D@std@@V?$allocator@D@2@@std@@@2@@std@@H@Z$181 00461f90     systeminfo.obj
 0002:0000afa0       __catchsym$??0OSInfo@@QAE@ABV?$vector@V?$basic_string@DU?$char_traits@D@std@@V?$allocator@D@2@@std@@V?$allocator@V?$basic_string@DU?$char_traits@D@std@@V?$allocator@D@2@@std@@@2@@std@@H@Z$182 00461fa0     systeminfo.obj
 0002:0000afb0       __catchsym$??0OSInfo@@QAE@ABV?$vector@V?$basic_string@DU?$char_traits@D@std@@V?$allocator@D@2@@std@@V?$allocator@V?$basic_string@DU?$char_traits@D@std@@V?$allocator@D@2@@std@@@2@@std@@H@Z$183 00461fb0     systeminfo.obj
 0002:0000afc0       __ehfuncinfo$??0OSInfoDelegate@@QAE@XZ 00461fc0     systeminfo.obj
 0002:0000afe8       __unwindtable$??0OSInfoDelegate@@QAE@XZ 00461fe8     systeminfo.obj
 0002:0000b028       __ehfuncinfo$??0RAMInfo@@QAE@ABV?$vector@V?$basic_string@DU?$char_traits@D@std@@V?$allocator@D@2@@std@@V?$allocator@V?$basic_string@DU?$char_traits@D@std@@V?$allocator@D@2@@std@@@2@@std@@H@Z 00462028     systeminfo.obj
 0002:0000b04c       __tryblocktable$??0RAMInfo@@QAE@ABV?$vector@V?$basic_string@DU?$char_traits@D@std@@V?$allocator@D@2@@std@@V?$allocator@V?$basic_string@DU?$char_traits@D@std@@V?$allocator@D@2@@std@@@2@@std@@H@Z 0046204c     systeminfo.obj
 0002:0000b060       __unwindtable$??0RAMInfo@@QAE@ABV?$vector@V?$basic_string@DU?$char_traits@D@std@@V?$allocator@D@2@@std@@V?$allocator@V?$basic_string@DU?$char_traits@D@std@@V?$allocator@D@2@@std@@@2@@std@@H@Z 00462060     systeminfo.obj
 0002:0000b100       __catchsym$??0RAMInfo@@QAE@ABV?$vector@V?$basic_string@DU?$char_traits@D@std@@V?$allocator@D@2@@std@@V?$allocator@V?$basic_string@DU?$char_traits@D@std@@V?$allocator@D@2@@std@@@2@@std@@H@Z$112 00462100     systeminfo.obj
 0002:0000b110       __ehfuncinfo$?getMemoryType@RAMInfo@@ABE?AV?$basic_string@DU?$char_traits@D@std@@V?$allocator@D@2@@std@@ABV23@@Z 00462110     systeminfo.obj
 0002:0000b134       __unwindtable$?getMemoryType@RAMInfo@@ABE?AV?$basic_string@DU?$char_traits@D@std@@V?$allocator@D@2@@std@@ABV23@@Z 00462134     systeminfo.obj
 0002:0000b144       __tryblocktable$?getMemoryType@RAMInfo@@ABE?AV?$basic_string@DU?$char_traits@D@std@@V?$allocator@D@2@@std@@ABV23@@Z 00462144     systeminfo.obj
 0002:0000b158       __catchsym$?getMemoryType@RAMInfo@@ABE?AV?$basic_string@DU?$char_traits@D@std@@V?$allocator@D@2@@std@@ABV23@@Z$57 00462158     systeminfo.obj
 0002:0000b168       __ehfuncinfo$?getFormFactor@RAMInfo@@ABE?AV?$basic_string@DU?$char_traits@D@std@@V?$allocator@D@2@@std@@ABV23@@Z 00462168     systeminfo.obj
 0002:0000b18c       __unwindtable$?getFormFactor@RAMInfo@@ABE?AV?$basic_string@DU?$char_traits@D@std@@V?$allocator@D@2@@std@@ABV23@@Z 0046218c     systeminfo.obj
 0002:0000b19c       __tryblocktable$?getFormFactor@RAMInfo@@ABE?AV?$basic_string@DU?$char_traits@D@std@@V?$allocator@D@2@@std@@ABV23@@Z 0046219c     systeminfo.obj
 0002:0000b1b0       __catchsym$?getFormFactor@RAMInfo@@ABE?AV?$basic_string@DU?$char_traits@D@std@@V?$allocator@D@2@@std@@ABV23@@Z$53 004621b0     systeminfo.obj
 0002:0000b1c0       __ehfuncinfo$??0RAMInfoDelegate@@QAE@XZ 004621c0     systeminfo.obj
 0002:0000b1e8       __unwindtable$??0RAMInfoDelegate@@QAE@XZ 004621e8     systeminfo.obj
 0002:0000b228       __ehfuncinfo$?stripAllFromString@SystemCommand@@AAE?AV?$basic_string@DU?$char_traits@D@std@@V?$allocator@D@2@@std@@ABV23@0@Z 00462228     systeminfo.obj
 0002:0000b24c       __unwindtable$?stripAllFromString@SystemCommand@@AAE?AV?$basic_string@DU?$char_traits@D@std@@V?$allocator@D@2@@std@@ABV23@0@Z 0046224c     systeminfo.obj
 0002:0000b254       __ehfuncinfo$?stripFromString@SystemCommand@@AAE?AV?$basic_string@DU?$char_traits@D@std@@V?$allocator@D@2@@std@@ABV23@0@Z 00462254     systeminfo.obj
 0002:0000b278       __unwindtable$?stripFromString@SystemCommand@@AAE?AV?$basic_string@DU?$char_traits@D@std@@V?$allocator@D@2@@std@@ABV23@0@Z 00462278     systeminfo.obj
 0002:0000b290       __ehfuncinfo$?stripPipeFromCommand@SystemCommand@@AAEXXZ 00462290     systeminfo.obj
 0002:0000b2b4       __unwindtable$?stripPipeFromCommand@SystemCommand@@AAEXXZ 004622b4     systeminfo.obj
 0002:0000b2c4       __ehfuncinfo$?systemCommandLaunch@SystemCommand@@AAEX_N@Z 004622c4     systeminfo.obj
 0002:0000b2e8       __unwindtable$?systemCommandLaunch@SystemCommand@@AAEX_N@Z 004622e8     systeminfo.obj
 0002:0000b308       __ehfuncinfo$??R<lambda_b5565d269da327e336800d80f472b553>@@QBE?AV?$basic_string@DU?$char_traits@D@std@@V?$allocator@D@2@@std@@ABV12@@Z 00462308     systeminfo.obj
 0002:0000b330       __unwindtable$??R<lambda_b5565d269da327e336800d80f472b553>@@QBE?AV?$basic_string@DU?$char_traits@D@std@@V?$allocator@D@2@@std@@ABV12@@Z 00462330     systeminfo.obj
 0002:0000b370       __ehfuncinfo$??0?$vector@VRAMInfo@@V?$allocator@VRAMInfo@@@std@@@std@@QAE@ABV01@@Z 00462370     systeminfo.obj
 0002:0000b398       __unwindtable$??0?$vector@VRAMInfo@@V?$allocator@VRAMInfo@@@std@@@std@@QAE@ABV01@@Z 00462398     systeminfo.obj
 0002:0000b3e0       __ehfuncinfo$??0?$vector@VMotherboardInfo@@V?$allocator@VMotherboardInfo@@@std@@@std@@QAE@ABV01@@Z 004623e0     systeminfo.obj
 0002:0000b404       __unwindtable$??0?$vector@VMotherboardInfo@@V?$allocator@VMotherboardInfo@@@std@@@std@@QAE@ABV01@@Z 00462404     systeminfo.obj
 0002:0000b438       __ehfuncinfo$??0?$vector@VGPUInfo@@V?$allocator@VGPUInfo@@@std@@@std@@QAE@ABV01@@Z 00462438     systeminfo.obj
 0002:0000b460       __unwindtable$??0?$vector@VGPUInfo@@V?$allocator@VGPUInfo@@@std@@@std@@QAE@ABV01@@Z 00462460     systeminfo.obj
 0002:0000b4b8       __ehfuncinfo$??0?$vector@VCPUInfo@@V?$allocator@VCPUInfo@@@std@@@std@@QAE@ABV01@@Z 004624b8     systeminfo.obj
 0002:0000b4dc       __unwindtable$??0?$vector@VCPUInfo@@V?$allocator@VCPUInfo@@@std@@@std@@QAE@ABV01@@Z 004624dc     systeminfo.obj
 0002:0000b514       __ehfuncinfo$??0?$vector@V?$basic_string@DU?$char_traits@D@std@@V?$allocator@D@2@@std@@V?$allocator@V?$basic_string@DU?$char_traits@D@std@@V?$allocator@D@2@@std@@@2@@std@@QAE@ABV01@@Z 00462514     systeminfo.obj
 0002:0000b538       __unwindtable$??0?$vector@V?$basic_string@DU?$char_traits@D@std@@V?$allocator@D@2@@std@@V?$allocator@V?$basic_string@DU?$char_traits@D@std@@V?$allocator@D@2@@std@@@2@@std@@QAE@ABV01@@Z 00462538     systeminfo.obj
 0002:0000b548       __ehfuncinfo$?imbue@?$basic_filebuf@DU?$char_traits@D@std@@@std@@MAEXABVlocale@2@@Z 00462548     systeminfo.obj
 0002:0000b56c       __unwindtable$?imbue@?$basic_filebuf@DU?$char_traits@D@std@@@std@@MAEXABVlocale@2@@Z 0046256c     systeminfo.obj
 0002:0000b57c       __ehfuncinfo$?uflow@?$basic_filebuf@DU?$char_traits@D@std@@@std@@MAEHXZ 0046257c     systeminfo.obj
 0002:0000b5a0       __unwindtable$?uflow@?$basic_filebuf@DU?$char_traits@D@std@@@std@@MAEHXZ 004625a0     systeminfo.obj
 0002:0000b5a8       __ehfuncinfo$??0?$basic_ifstream@DU?$char_traits@D@std@@@std@@QAE@XZ 004625a8     systeminfo.obj
 0002:0000b5cc       __unwindtable$??0?$basic_ifstream@DU?$char_traits@D@std@@@std@@QAE@XZ 004625cc     systeminfo.obj
 0002:0000b5e4       __ehfuncinfo$??$use_facet@V?$ctype@D@std@@@std@@YAABV?$ctype@D@0@ABVlocale@0@@Z 004625e4     systeminfo.obj
 0002:0000b608       __unwindtable$??$use_facet@V?$ctype@D@std@@@std@@YAABV?$ctype@D@0@ABVlocale@0@@Z 00462608     systeminfo.obj
 0002:0000b618       __ehfuncinfo$??$_Emplace_reallocate@AAV?$vector@V?$basic_string@DU?$char_traits@D@std@@V?$allocator@D@2@@std@@V?$allocator@V?$basic_string@DU?$char_traits@D@std@@V?$allocator@D@2@@std@@@2@@std@@AAH@?$vector@VCPUInfo@@V?$allocator@VCPUInfo@@@std@@@std@@QAEPAVCPUInfo@@QAV2@AAV?$vector@V?$basic_string@DU?$char_traits@D@std@@V?$allocator@D@2@@std@@V?$allocator@V?$basic_string@DU?$char_traits@D@std@@V?$allocator@D@2@@std@@@2@@1@AAH@Z 00462618     systeminfo.obj
 0002:0000b63c       __unwindtable$??$_Emplace_reallocate@AAV?$vector@V?$basic_string@DU?$char_traits@D@std@@V?$allocator@D@2@@std@@V?$allocator@V?$basic_string@DU?$char_traits@D@std@@V?$allocator@D@2@@std@@@2@@std@@AAH@?$vector@VCPUInfo@@V?$allocator@VCPUInfo@@@std@@@std@@QAEPAVCPUInfo@@QAV2@AAV?$vector@V?$basic_string@DU?$char_traits@D@std@@V?$allocator@D@2@@std@@V?$allocator@V?$basic_string@DU?$char_traits@D@std@@V?$allocator@D@2@@std@@@2@@1@AAH@Z 0046263c     systeminfo.obj
 0002:0000b64c       __tryblocktable$??$_Emplace_reallocate@AAV?$vector@V?$basic_string@DU?$char_traits@D@std@@V?$allocator@D@2@@std@@V?$allocator@V?$basic_string@DU?$char_traits@D@std@@V?$allocator@D@2@@std@@@2@@std@@AAH@?$vector@VCPUInfo@@V?$allocator@VCPUInfo@@@std@@@std@@QAEPAVCPUInfo@@QAV2@AAV?$vector@V?$basic_string@DU?$char_traits@D@std@@V?$allocator@D@2@@std@@V?$allocator@V?$basic_string@DU?$char_traits@D@std@@V?$allocator@D@2@@std@@@2@@1@AAH@Z 0046264c     systeminfo.obj
 0002:0000b660       __catchsym$??$_Emplace_reallocate@AAV?$vector@V?$basic_string@DU?$char_traits@D@std@@V?$allocator@D@2@@std@@V?$allocator@V?$basic_string@DU?$char_traits@D@std@@V?$allocator@D@2@@std@@@2@@std@@AAH@?$vector@VCPUInfo@@V?$allocator@VCPUInfo@@@std@@@std@@QAEPAVCPUInfo@@QAV2@AAV?$vector@V?$basic_string@DU?$char_traits@D@std@@V?$allocator@D@2@@std@@V?$allocator@V?$basic_string@DU?$char_traits@D@std@@V?$allocator@D@2@@std@@@2@@1@AAH@Z$2 00462660     systeminfo.obj
 0002:0000b670       __ehfuncinfo$??$toString@_J@GPUInfo@@ABE?AV?$basic_string@DU?$char_traits@D@std@@V?$allocator@D@2@@std@@AB_J@Z 00462670     systeminfo.obj
 0002:0000b670       __ehfuncinfo$??$toString@_J@OSInfo@@ABE?AV?$basic_string@DU?$char_traits@D@std@@V?$allocator@D@2@@std@@AB_J@Z 00462670     systeminfo.obj
 0002:0000b670       __ehfuncinfo$??$toString@_J@RAMInfo@@ABE?AV?$basic_string@DU?$char_traits@D@std@@V?$allocator@D@2@@std@@AB_J@Z 00462670     systeminfo.obj
 0002:0000b694       __unwindtable$??$toString@_J@GPUInfo@@ABE?AV?$basic_string@DU?$char_traits@D@std@@V?$allocator@D@2@@std@@AB_J@Z 00462694     systeminfo.obj
 0002:0000b694       __unwindtable$??$toString@_J@OSInfo@@ABE?AV?$basic_string@DU?$char_traits@D@std@@V?$allocator@D@2@@std@@AB_J@Z 00462694     systeminfo.obj
 0002:0000b694       __unwindtable$??$toString@_J@RAMInfo@@ABE?AV?$basic_string@DU?$char_traits@D@std@@V?$allocator@D@2@@std@@AB_J@Z 00462694     systeminfo.obj
 0002:0000b6b4       __ehfuncinfo$??$_Emplace_reallocate@AAV?$vector@V?$basic_string@DU?$char_traits@D@std@@V?$allocator@D@2@@std@@V?$allocator@V?$basic_string@DU?$char_traits@D@std@@V?$allocator@D@2@@std@@@2@@std@@AAH@?$vector@VGPUInfo@@V?$allocator@VGPUInfo@@@std@@@std@@QAEPAVGPUInfo@@QAV2@AAV?$vector@V?$basic_string@DU?$char_traits@D@std@@V?$allocator@D@2@@std@@V?$allocator@V?$basic_string@DU?$char_traits@D@std@@V?$allocator@D@2@@std@@@2@@1@AAH@Z 004626b4     systeminfo.obj
 0002:0000b6d8       __unwindtable$??$_Emplace_reallocate@AAV?$vector@V?$basic_string@DU?$char_traits@D@std@@V?$allocator@D@2@@std@@V?$allocator@V?$basic_string@DU?$char_traits@D@std@@V?$allocator@D@2@@std@@@2@@std@@AAH@?$vector@VGPUInfo@@V?$allocator@VGPUInfo@@@std@@@std@@QAEPAVGPUInfo@@QAV2@AAV?$vector@V?$basic_string@DU?$char_traits@D@std@@V?$allocator@D@2@@std@@V?$allocator@V?$basic_string@DU?$char_traits@D@std@@V?$allocator@D@2@@std@@@2@@1@AAH@Z 004626d8     systeminfo.obj
 0002:0000b6e8       __tryblocktable$??$_Emplace_reallocate@AAV?$vector@V?$basic_string@DU?$char_traits@D@std@@V?$allocator@D@2@@std@@V?$allocator@V?$basic_string@DU?$char_traits@D@std@@V?$allocator@D@2@@std@@@2@@std@@AAH@?$vector@VGPUInfo@@V?$allocator@VGPUInfo@@@std@@@std@@QAEPAVGPUInfo@@QAV2@AAV?$vector@V?$basic_string@DU?$char_traits@D@std@@V?$allocator@D@2@@std@@V?$allocator@V?$basic_string@DU?$char_traits@D@std@@V?$allocator@D@2@@std@@@2@@1@AAH@Z 004626e8     systeminfo.obj
 0002:0000b6fc       __catchsym$??$_Emplace_reallocate@AAV?$vector@V?$basic_string@DU?$char_traits@D@std@@V?$allocator@D@2@@std@@V?$allocator@V?$basic_string@DU?$char_traits@D@std@@V?$allocator@D@2@@std@@@2@@std@@AAH@?$vector@VGPUInfo@@V?$allocator@VGPUInfo@@@std@@@std@@QAEPAVGPUInfo@@QAV2@AAV?$vector@V?$basic_string@DU?$char_traits@D@std@@V?$allocator@D@2@@std@@V?$allocator@V?$basic_string@DU?$char_traits@D@std@@V?$allocator@D@2@@std@@@2@@1@AAH@Z$2 004626fc     systeminfo.obj
 0002:0000b70c       __ehfuncinfo$??$_Emplace_reallocate@AAV?$vector@V?$basic_string@DU?$char_traits@D@std@@V?$allocator@D@2@@std@@V?$allocator@V?$basic_string@DU?$char_traits@D@std@@V?$allocator@D@2@@std@@@2@@std@@AAH@?$vector@VMotherboardInfo@@V?$allocator@VMotherboardInfo@@@std@@@std@@QAEPAVMotherboardInfo@@QAV2@AAV?$vector@V?$basic_string@DU?$char_traits@D@std@@V?$allocator@D@2@@std@@V?$allocator@V?$basic_string@DU?$char_traits@D@std@@V?$allocator@D@2@@std@@@2@@1@AAH@Z 0046270c     systeminfo.obj
 0002:0000b730       __unwindtable$??$_Emplace_reallocate@AAV?$vector@V?$basic_string@DU?$char_traits@D@std@@V?$allocator@D@2@@std@@V?$allocator@V?$basic_string@DU?$char_traits@D@std@@V?$allocator@D@2@@std@@@2@@std@@AAH@?$vector@VMotherboardInfo@@V?$allocator@VMotherboardInfo@@@std@@@std@@QAEPAVMotherboardInfo@@QAV2@AAV?$vector@V?$basic_string@DU?$char_traits@D@std@@V?$allocator@D@2@@std@@V?$allocator@V?$basic_string@DU?$char_traits@D@std@@V?$allocator@D@2@@std@@@2@@1@AAH@Z 00462730     systeminfo.obj
 0002:0000b740       __tryblocktable$??$_Emplace_reallocate@AAV?$vector@V?$basic_string@DU?$char_traits@D@std@@V?$allocator@D@2@@std@@V?$allocator@V?$basic_string@DU?$char_traits@D@std@@V?$allocator@D@2@@std@@@2@@std@@AAH@?$vector@VMotherboardInfo@@V?$allocator@VMotherboardInfo@@@std@@@std@@QAEPAVMotherboardInfo@@QAV2@AAV?$vector@V?$basic_string@DU?$char_traits@D@std@@V?$allocator@D@2@@std@@V?$allocator@V?$basic_string@DU?$char_traits@D@std@@V?$allocator@D@2@@std@@@2@@1@AAH@Z 00462740     systeminfo.obj
 0002:0000b754       __catchsym$??$_Emplace_reallocate@AAV?$vector@V?$basic_string@DU?$char_traits@D@std@@V?$allocator@D@2@@std@@V?$allocator@V?$basic_string@DU?$char_traits@D@std@@V?$allocator@D@2@@std@@@2@@std@@AAH@?$vector@VMotherboardInfo@@V?$allocator@VMotherboardInfo@@@std@@@std@@QAEPAVMotherboardInfo@@QAV2@AAV?$vector@V?$basic_string@DU?$char_traits@D@std@@V?$allocator@D@2@@std@@V?$allocator@V?$basic_string@DU?$char_traits@D@std@@V?$allocator@D@2@@std@@@2@@1@AAH@Z$2 00462754     systeminfo.obj
 0002:0000b764       __ehfuncinfo$??$_Emplace_reallocate@AAV?$vector@V?$basic_string@DU?$char_traits@D@std@@V?$allocator@D@2@@std@@V?$allocator@V?$basic_string@DU?$char_traits@D@std@@V?$allocator@D@2@@std@@@2@@std@@AAH@?$vector@VOSInfo@@V?$allocator@VOSInfo@@@std@@@std@@QAEPAVOSInfo@@QAV2@AAV?$vector@V?$basic_string@DU?$char_traits@D@std@@V?$allocator@D@2@@std@@V?$allocator@V?$basic_string@DU?$char_traits@D@std@@V?$allocator@D@2@@std@@@2@@1@AAH@Z 00462764     systeminfo.obj
 0002:0000b788       __unwindtable$??$_Emplace_reallocate@AAV?$vector@V?$basic_string@DU?$char_traits@D@std@@V?$allocator@D@2@@std@@V?$allocator@V?$basic_string@DU?$char_traits@D@std@@V?$allocator@D@2@@std@@@2@@std@@AAH@?$vector@VOSInfo@@V?$allocator@VOSInfo@@@std@@@std@@QAEPAVOSInfo@@QAV2@AAV?$vector@V?$basic_string@DU?$char_traits@D@std@@V?$allocator@D@2@@std@@V?$allocator@V?$basic_string@DU?$char_traits@D@std@@V?$allocator@D@2@@std@@@2@@1@AAH@Z 00462788     systeminfo.obj
 0002:0000b798       __tryblocktable$??$_Emplace_reallocate@AAV?$vector@V?$basic_string@DU?$char_traits@D@std@@V?$allocator@D@2@@std@@V?$allocator@V?$basic_string@DU?$char_traits@D@std@@V?$allocator@D@2@@std@@@2@@std@@AAH@?$vector@VOSInfo@@V?$allocator@VOSInfo@@@std@@@std@@QAEPAVOSInfo@@QAV2@AAV?$vector@V?$basic_string@DU?$char_traits@D@std@@V?$allocator@D@2@@std@@V?$allocator@V?$basic_string@DU?$char_traits@D@std@@V?$allocator@D@2@@std@@@2@@1@AAH@Z 00462798     systeminfo.obj
 0002:0000b7ac       __catchsym$??$_Emplace_reallocate@AAV?$vector@V?$basic_string@DU?$char_traits@D@std@@V?$allocator@D@2@@std@@V?$allocator@V?$basic_string@DU?$char_traits@D@std@@V?$allocator@D@2@@std@@@2@@std@@AAH@?$vector@VOSInfo@@V?$allocator@VOSInfo@@@std@@@std@@QAEPAVOSInfo@@QAV2@AAV?$vector@V?$basic_string@DU?$char_traits@D@std@@V?$allocator@D@2@@std@@V?$allocator@V?$basic_string@DU?$char_traits@D@std@@V?$allocator@D@2@@std@@@2@@1@AAH@Z$2 004627ac     systeminfo.obj
 0002:0000b7bc       __ehfuncinfo$??$_Emplace_reallocate@AAV?$vector@V?$basic_string@DU?$char_traits@D@std@@V?$allocator@D@2@@std@@V?$allocator@V?$basic_string@DU?$char_traits@D@std@@V?$allocator@D@2@@std@@@2@@std@@AAH@?$vector@VRAMInfo@@V?$allocator@VRAMInfo@@@std@@@std@@QAEPAVRAMInfo@@QAV2@AAV?$vector@V?$basic_string@DU?$char_traits@D@std@@V?$allocator@D@2@@std@@V?$allocator@V?$basic_string@DU?$char_traits@D@std@@V?$allocator@D@2@@std@@@2@@1@AAH@Z 004627bc     systeminfo.obj
 0002:0000b7e0       __unwindtable$??$_Emplace_reallocate@AAV?$vector@V?$basic_string@DU?$char_traits@D@std@@V?$allocator@D@2@@std@@V?$allocator@V?$basic_string@DU?$char_traits@D@std@@V?$allocator@D@2@@std@@@2@@std@@AAH@?$vector@VRAMInfo@@V?$allocator@VRAMInfo@@@std@@@std@@QAEPAVRAMInfo@@QAV2@AAV?$vector@V?$basic_string@DU?$char_traits@D@std@@V?$allocator@D@2@@std@@V?$allocator@V?$basic_string@DU?$char_traits@D@std@@V?$allocator@D@2@@std@@@2@@1@AAH@Z 004627e0     systeminfo.obj
 0002:0000b7f0       __tryblocktable$??$_Emplace_reallocate@AAV?$vector@V?$basic_string@DU?$char_traits@D@std@@V?$allocator@D@2@@std@@V?$allocator@V?$basic_string@DU?$char_traits@D@std@@V?$allocator@D@2@@std@@@2@@std@@AAH@?$vector@VRAMInfo@@V?$allocator@VRAMInfo@@@std@@@std@@QAEPAVRAMInfo@@QAV2@AAV?$vector@V?$basic_string@DU?$char_traits@D@std@@V?$allocator@D@2@@std@@V?$allocator@V?$basic_string@DU?$char_traits@D@std@@V?$allocator@D@2@@std@@@2@@1@AAH@Z 004627f0     systeminfo.obj
 0002:0000b804       __catchsym$??$_Emplace_reallocate@AAV?$vector@V?$basic_string@DU?$char_traits@D@std@@V?$allocator@D@2@@std@@V?$allocator@V?$basic_string@DU?$char_traits@D@std@@V?$allocator@D@2@@std@@@2@@std@@AAH@?$vector@VRAMInfo@@V?$allocator@VRAMInfo@@@std@@@std@@QAEPAVRAMInfo@@QAV2@AAV?$vector@V?$basic_string@DU?$char_traits@D@std@@V?$allocator@D@2@@std@@V?$allocator@V?$basic_string@DU?$char_traits@D@std@@V?$allocator@D@2@@std@@@2@@1@AAH@Z$2 00462804     systeminfo.obj
 0002:0000b814       __ehfuncinfo$??$_Emplace_reallocate@ABV?$basic_string@DU?$char_traits@D@std@@V?$allocator@D@2@@std@@@?$vector@V?$basic_string@DU?$char_traits@D@std@@V?$allocator@D@2@@std@@V?$allocator@V?$basic_string@DU?$char_traits@D@std@@V?$allocator@D@2@@std@@@2@@std@@QAEPAV?$basic_string@DU?$char_traits@D@std@@V?$allocator@D@2@@1@QAV21@ABV21@@Z 00462814     systeminfo.obj
 0002:0000b838       __unwindtable$??$_Emplace_reallocate@ABV?$basic_string@DU?$char_traits@D@std@@V?$allocator@D@2@@std@@@?$vector@V?$basic_string@DU?$char_traits@D@std@@V?$allocator@D@2@@std@@V?$allocator@V?$basic_string@DU?$char_traits@D@std@@V?$allocator@D@2@@std@@@2@@std@@QAEPAV?$basic_string@DU?$char_traits@D@std@@V?$allocator@D@2@@1@QAV21@ABV21@@Z 00462838     systeminfo.obj
 0002:0000b848       __tryblocktable$??$_Emplace_reallocate@ABV?$basic_string@DU?$char_traits@D@std@@V?$allocator@D@2@@std@@@?$vector@V?$basic_string@DU?$char_traits@D@std@@V?$allocator@D@2@@std@@V?$allocator@V?$basic_string@DU?$char_traits@D@std@@V?$allocator@D@2@@std@@@2@@std@@QAEPAV?$basic_string@DU?$char_traits@D@std@@V?$allocator@D@2@@1@QAV21@ABV21@@Z 00462848     systeminfo.obj
 0002:0000b85c       __catchsym$??$_Emplace_reallocate@ABV?$basic_string@DU?$char_traits@D@std@@V?$allocator@D@2@@std@@@?$vector@V?$basic_string@DU?$char_traits@D@std@@V?$allocator@D@2@@std@@V?$allocator@V?$basic_string@DU?$char_traits@D@std@@V?$allocator@D@2@@std@@@2@@std@@QAEPAV?$basic_string@DU?$char_traits@D@std@@V?$allocator@D@2@@1@QAV21@ABV21@@Z$2 0046285c     systeminfo.obj
 0002:0000b86c       __ehfuncinfo$??$_Insert_string@DU?$char_traits@D@std@@I@std@@YAAAV?$basic_ostream@DU?$char_traits@D@std@@@0@AAV10@QBDI@Z 0046286c     systeminfo.obj
 0002:0000b890       __unwindtable$??$_Insert_string@DU?$char_traits@D@std@@I@std@@YAAAV?$basic_ostream@DU?$char_traits@D@std@@@0@AAV10@QBDI@Z 00462890     systeminfo.obj
 0002:0000b8c0       __tryblocktable$??$_Insert_string@DU?$char_traits@D@std@@I@std@@YAAAV?$basic_ostream@DU?$char_traits@D@std@@@0@AAV10@QBDI@Z 004628c0     systeminfo.obj
 0002:0000b8d4       __catchsym$??$_Insert_string@DU?$char_traits@D@std@@I@std@@YAAAV?$basic_ostream@DU?$char_traits@D@std@@@0@AAV10@QBDI@Z$6 004628d4     systeminfo.obj
 0002:0000b8e8       __ehfuncinfo$??$_Uninitialized_copy@PAVOSInfo@@V?$allocator@VOSInfo@@@std@@@std@@YAPAVOSInfo@@QAV1@0PAV1@AAV?$allocator@VOSInfo@@@0@@Z 004628e8     systeminfo.obj
 0002:0000b910       __unwindtable$??$_Uninitialized_copy@PAVOSInfo@@V?$allocator@VOSInfo@@@std@@@std@@YAPAVOSInfo@@QAV1@0PAV1@AAV?$allocator@VOSInfo@@@0@@Z 00462910     systeminfo.obj
 0002:0000b980       __ehfuncinfo$??$?5DU?$char_traits@D@std@@V?$allocator@D@1@@std@@YAAAV?$basic_istream@DU?$char_traits@D@std@@@0@$$QAV10@AAV?$basic_string@DU?$char_traits@D@std@@V?$allocator@D@2@@0@@Z 00462980     systeminfo.obj
 0002:0000b9a4       __unwindtable$??$?5DU?$char_traits@D@std@@V?$allocator@D@1@@std@@YAAAV?$basic_istream@DU?$char_traits@D@std@@@0@$$QAV10@AAV?$basic_string@DU?$char_traits@D@std@@V?$allocator@D@2@@0@@Z 004629a4     systeminfo.obj
 0002:0000b9d4       __tryblocktable$??$?5DU?$char_traits@D@std@@V?$allocator@D@1@@std@@YAAAV?$basic_istream@DU?$char_traits@D@std@@@0@$$QAV10@AAV?$basic_string@DU?$char_traits@D@std@@V?$allocator@D@2@@0@@Z 004629d4     systeminfo.obj
 0002:0000b9e8       __catchsym$??$?5DU?$char_traits@D@std@@V?$allocator@D@1@@std@@YAAAV?$basic_istream@DU?$char_traits@D@std@@@0@$$QAV10@AAV?$basic_string@DU?$char_traits@D@std@@V?$allocator@D@2@@0@@Z$7 004629e8     systeminfo.obj
 0002:0000b9f8       __sehtable$??_M@YGXPAXIIP6EX0@Z@Z 004629f8     MSVCRT:ehvecdtr.obj
 0002:0000ba18       __sehtable$?__ArrayUnwind@@YGXPAXIIP6EX0@Z@Z 00462a18     MSVCRT:ehvecdtr.obj
 0002:0000ba38       __sehtable$___scrt_is_nonwritable_in_current_image 00462a38     MSVCRT:utility.obj
 0002:0000ba58       __sehtable$?__scrt_common_main_seh@@YAHXZ 00462a58     MSVCRT:exe_winmain.obj
 0002:0000c21e       .idata$6                   0046321e     kernel32:KERNEL32.dll
 0002:0000c36a       .idata$6                   0046336a     user32:USER32.dll
 0002:0000c38a       .idata$6                   0046338a     gdi32:GDI32.dll
 0002:0000c3d8       .idata$6                   004633d8     advapi32:ADVAPI32.dll
 0002:0000cfa2       .idata$6                   00463fa2     msvcprt:MSVCP140.dll
 0002:0000cfc2       .idata$6                   00463fc2     d3d9:d3d9.dll
 0002:0000cfde       .idata$6                   00463fde     d3dx9:d3dx9_43.dll
 0002:0000d062       .idata$6                   00464062     ws2_32:WS2_32.dll
 0002:0000d06e       .idata$6                   0046406e     wldap32:WLDAP32.dll
 0002:0000d17e       .idata$6                   0046417e     vcruntime:VCRUNTIME140.dll
 0002:0000d5f6       .idata$6                   004645f6     ucrt:api-ms-win-crt-stdio-l1-1-0.dll
 0002:0000d616       .idata$6                   00464616     ucrt:api-ms-win-crt-runtime-l1-1-0.dll
 0002:0000d638       .idata$6                   00464638     ucrt:api-ms-win-crt-convert-l1-1-0.dll
 0002:0000d65a       .idata$6                   0046465a     ucrt:api-ms-win-crt-time-l1-1-0.dll
 0002:0000d67a       .idata$6                   0046467a     ucrt:api-ms-win-crt-filesystem-l1-1-0.dll
 0002:0000d6a0       .idata$6                   004646a0     ucrt:api-ms-win-crt-heap-l1-1-0.dll
 0002:0000d6c0       .idata$6                   004646c0     ucrt:api-ms-win-crt-math-l1-1-0.dll
 0002:0000d6e0       .idata$6                   004646e0     ucrt:api-ms-win-crt-locale-l1-1-0.dll
 0002:0000d702       .idata$6                   00464702     ucrt:api-ms-win-crt-string-l1-1-0.dll
 0002:0000d724       .idata$6                   00464724     ucrt:api-ms-win-crt-utility-l1-1-0.dll
 0002:0000d746       .idata$6                   00464746     ucrt:api-ms-win-crt-multibyte-l1-1-0.dll
 0003:0000002c       ?if_prefix@?2??bindlocal@@9@9 0046502c     libcurl:connect.obj
 0003:00000030       ?host_prefix@?2??bindlocal@@9@9 00465030     libcurl:connect.obj
 0003:00000820       ??_R0?AV<lambda_b5565d269da327e336800d80f472b553>@@@8 00465820     systeminfo.obj
 0003:00000a48       ??_R0?AV?$_Func_impl_no_alloc@V<lambda_b5565d269da327e336800d80f472b553>@@V?$basic_string@DU?$char_traits@D@std@@V?$allocator@D@2@@std@@ABV23@@std@@@8 00465a48     systeminfo.obj
 0003:00000bf0       ?_Fac_head@std@@3PAU_Fac_node@1@A 00465bf0     msvcprt:locale0_implib.obj
 0003:00000bf4       ?_Fac_tidy_reg@std@@3U_Fac_tidy_reg_t@1@B 00465bf4     msvcprt:locale0_implib.obj
 0003:00000c00       ?is_initialized_as_dll@@3_NA 00465c00     MSVCRT:utility.obj
 0003:00000c01       ?module_local_atexit_table_initialized@@3_NA 00465c01     MSVCRT:utility.obj
 0003:00000c04       ?module_local_atexit_table@@3U_onexit_table_t@@A 00465c04     MSVCRT:utility.obj
 0003:00000c10       ?module_local_at_quick_exit_table@@3U_onexit_table_t@@A 00465c10     MSVCRT:utility.obj
 0003:00000c20       _GS_ExceptionRecord        00465c20     MSVCRT:gs_report.obj
 0003:00000c70       _GS_ContextRecord          00465c70     MSVCRT:gs_report.obj
 0003:00000f58       _initialized               00465f58     libcurl:easy.obj
 0003:00000f5c       _init_flags                00465f5c     libcurl:easy.obj
 0003:00000f60       ?tv_zero@?1??multi_timeout@@9@9 00465f60     libcurl:multi.obj
 0003:00000f70       ?detectOsState@?1??Curl_sndbufset@@9@9 00465f70     libcurl:connect.obj
 0003:00000f78       _s_hIpHlpApiDll            00465f78     libcurl:system_win32.obj
 0003:00000f80       ?tv_zero@?1??Curl_splaygetbest@@9@9 00465f80     libcurl:splay.obj
 0003:00000f90       ?randseed@?1??randit@@9@9  00465f90     libcurl:rand.obj
 0003:00000f94       ?seeded@?1??randit@@9@9    00465f94     libcurl:rand.obj
 0004:00000060       $R000000                   00467060     * linker generated manifest res *
