 Warcraft III - External MapHack

 Timestamp is 6091c0ea (Wed May  5 00:47:22 2021)

 Preferred load address is 00400000

 Start         Length     Name                   Class
 0001:00000000 000009f0H .text$di                CODE
 0001:000009f0 00051dc0H .text$mn                CODE
 0001:000527b0 00001230H .text$x                 CODE
 0001:000539e0 00001d41H .text$yd                CODE
 0002:00000000 000004a8H .idata$5                DATA
 0002:000004a8 00000004H .00cfg                  DATA
 0002:000004ac 00000004H .CRT$XCA                DATA
 0002:000004b0 00000004H .CRT$XCAA               DATA
 0002:000004b4 00000004H .CRT$XCL                DATA
 0002:000004b8 0000013cH .CRT$XCU                DATA
 0002:000005f4 00000004H .CRT$XCZ                DATA
 0002:000005f8 00000004H .CRT$XIA                DATA
 0002:000005fc 00000004H .CRT$XIAA               DATA
 0002:00000600 00000004H .CRT$XIAC               DATA
 0002:00000604 00000004H .CRT$XIZ                DATA
 0002:00000608 00000004H .CRT$XPA                DATA
 0002:0000060c 00000004H .CRT$XPZ                DATA
 0002:00000610 00000004H .CRT$XTA                DATA
 0002:00000614 0000000cH .CRT$XTZ                DATA
 0002:00000618 00000000H .gfids$y                DATA
 0002:00000620 000098e0H .rdata                  DATA
 0002:00009f00 00000000H .rdata$CastGuardVftablesA DATA
 0002:00009f00 00000000H .rdata$CastGuardVftablesC DATA
 0002:00009f00 00000590H .rdata$r                DATA
 0002:0000a490 000000bcH .rdata$sxdata           DATA
 0002:0000a54c 000002ecH .rdata$zzzdbg           DATA
 0002:0000a838 00000004H .rtc$IAA                DATA
 0002:0000a83c 00000004H .rtc$IZZ                DATA
 0002:0000a840 00000004H .rtc$TAA                DATA
 0002:0000a844 00000004H .rtc$TZZ                DATA
 0002:0000a848 0000127cH .xdata$x                DATA
 0002:0000bac4 00000000H .edata                  DATA
 0002:0000bac4 000001a4H .idata$2                DATA
 0002:0000bc68 00000014H .idata$3                DATA
 0002:0000bc7c 000004a8H .idata$4                DATA
 0002:0000c124 000019bcH .idata$6                DATA
 0003:00000000 000007a4H .data                   DATA
 0003:000007a4 000000b4H .data$r                 DATA
 0003:00000858 00000398H .data$rs                DATA
 0003:00000bf0 000004d0H .bss                    DATA
 0004:00000000 00000060H .rsrc$01                DATA
 0004:00000060 00000188H .rsrc$02                DATA

  Address         Publics by Value              Rva+Base       Lib:Object

 0000:00000000       ___volatile_metadata       00000000     <absolute>
 0000:00000000       ___arm64x_redirection_metadata 00000000     <absolute>
 0000:00000000       ___guard_longjmp_count     00000000     <absolute>
 0000:00000000       ___guard_iat_count         00000000     <absolute>
 0000:00000000       ___guard_longjmp_table     00000000     <absolute>
 0000:00000000       ___x64_code_ranges_to_entry_points 00000000     <absolute>
 0000:00000000       ___hybrid_code_map         00000000     <absolute>
 0000:00000000       ___guard_iat_table         00000000     <absolute>
 0000:00000000       ___arm64x_native_entrypoint 00000000     <absolute>
 0000:00000000       ___arm64x_extra_rfe_table_size 00000000     <absolute>
 0000:00000000       ___enclave_config          00000000     <absolute>
 0000:00000000       ___arm64x_redirection_metadata_count 00000000     <absolute>
 0000:00000000       ___guard_check_icall_a64n_fptr 00000000     <absolute>
 0000:00000000       ___hybrid_code_map_count   00000000     <absolute>
 0000:00000000       ___guard_fids_table        00000000     <absolute>
 0000:00000000       ___arm64x_extra_rfe_table  00000000     <absolute>
 0000:00000000       ___guard_fids_count        00000000     <absolute>
 0000:00000000       ___x64_code_ranges_to_entry_points_count 00000000     <absolute>
 0000:00000000       ___hybrid_auxiliary_iat    00000000     <absolute>
 0000:00000000       ___dynamic_value_reloc_table 00000000     <absolute>
 0000:00000000       ___guard_eh_cont_count     00000000     <absolute>
 0000:00000000       ___AbsoluteZero            00000000     <absolute>
 0000:00000000       ___hybrid_auxiliary_iat_copy 00000000     <absolute>
 0000:00000000       ___guard_eh_cont_table     00000000     <absolute>
 0000:0000002f       ___safe_se_handler_count   0000002f     <absolute>
 0000:00000100       ___guard_flags             00000100     <absolute>
 0000:00000000       ___ImageBase               00400000     <linker-defined>
 0001:000009f0       _WinMain@16                004019f0 f   Main.obj
 0001:00000ea0       ?Render@@YAXXZ             00401ea0 f   Main.obj
 0001:000015c0       ?WndProc@@YGJPAUHWND__@@IIJ@Z 004025c0 f   Main.obj
 0001:00001610       ___local_stdio_printf_options 00402610 f i protect.obj
 0001:00001620       __vsnprintf_l              00402620 f i protect.obj
 0001:00001660       _sprintf                   00402660 f i protect.obj
 0001:00001680       ??0exception@std@@QAE@ABV01@@Z 00402680 f i protect.obj
 0001:000016b0       ?what@exception@std@@UBEPBDXZ 004026b0 f i protect.obj
 0001:000016c0       ??_Ebad_array_new_length@std@@UAEPAXI@Z 004026c0 f i * CIL library *:* CIL module *
 0001:000016c0       ??_Ebad_alloc@std@@UAEPAXI@Z 004026c0 f i * CIL library *:* CIL module *
 0001:000016c0       ??_Gexception@std@@UAEPAXI@Z 004026c0 f i protect.obj
 0001:000016c0       ??_Ebad_cast@std@@UAEPAXI@Z 004026c0 f i * CIL library *:* CIL module *
 0001:000016c0       ??_Gbad_cast@std@@UAEPAXI@Z 004026c0 f i systeminfo.obj
 0001:000016c0       ??_Eexception@std@@UAEPAXI@Z 004026c0 f i * CIL library *:* CIL module *
 0001:000016c0       ??_Gbad_alloc@std@@UAEPAXI@Z 004026c0 f i protect.obj
 0001:000016c0       ??_Gbad_array_new_length@std@@UAEPAXI@Z 004026c0 f i protect.obj
 0001:00001700       ??1bad_array_new_length@std@@UAE@XZ 00402700 f i protect.obj
 0001:00001700       ??1bad_alloc@std@@UAE@XZ   00402700 f i protect.obj
 0001:00001700       ??1bad_cast@std@@UAE@XZ    00402700 f i systeminfo.obj
 0001:00001720       ??0bad_array_new_length@std@@QAE@XZ 00402720 f i protect.obj
 0001:00001740       ?_Throw_bad_array_new_length@std@@YAXXZ 00402740 f i protect.obj
 0001:00001740       ?__scrt_throw_std_bad_array_new_length@@YAXXZ 00402740 f i MSVCRT:throw_bad_alloc.obj
 0001:00001760       ??0bad_array_new_length@std@@QAE@ABV01@@Z 00402760 f i protect.obj
 0001:000017a0       ??0bad_alloc@std@@QAE@ABV01@@Z 004027a0 f i protect.obj
 0001:000017e0       ?_Xlen_string@std@@YAXXZ   004027e0 f i protect.obj
 0001:000017f0       ?Gen@@YAKV?$basic_string@DU?$char_traits@D@std@@V?$allocator@D@2@@std@@@Z 004027f0 f   protect.obj
 0001:00001860       ?Gen@@YAKH@Z               00402860 f   protect.obj
 0001:00001970       ?KEY@@YA?AV?$basic_string@DU?$char_traits@D@std@@V?$allocator@D@2@@std@@XZ 00402970 f   protect.obj
 0001:000051e0       ?write_to_string@@YAIPAXII0@Z 004061e0 f   protect.obj
 0001:000052f0       ?IsValidTime@@YA_NHHH@Z    004062f0 f   protect.obj
 0001:00005590       ??1?$unique_ptr@VOSInfoDelegate@@U?$default_delete@VOSInfoDelegate@@@std@@@std@@QAE@XZ 00406590 f i protect.obj
 0001:000055b0       ??1?$unique_ptr@VGPUInfoDelegate@@U?$default_delete@VGPUInfoDelegate@@@std@@@std@@QAE@XZ 004065b0 f i protect.obj
 0001:000055d0       ??1?$unique_ptr@VRAMInfoDelegate@@U?$default_delete@VRAMInfoDelegate@@@std@@@std@@QAE@XZ 004065d0 f i protect.obj
 0001:000055f0       ??1?$unique_ptr@VMotherboardInfoDelegate@@U?$default_delete@VMotherboardInfoDelegate@@@std@@@std@@QAE@XZ 004065f0 f i protect.obj
 0001:00005610       ??1?$unique_ptr@VCPUInfoDelegate@@U?$default_delete@VCPUInfoDelegate@@@std@@@std@@QAE@XZ 00406610 f i protect.obj
 0001:00005630       ??1?$vector@VRAMInfo@@V?$allocator@VRAMInfo@@@std@@@std@@QAE@XZ 00406630 f i protect.obj
 0001:00005640       ??1?$vector@VOSInfo@@V?$allocator@VOSInfo@@@std@@@std@@QAE@XZ 00406640 f i protect.obj
 0001:00005650       ??1?$vector@VMotherboardInfo@@V?$allocator@VMotherboardInfo@@@std@@@std@@QAE@XZ 00406650 f i protect.obj
 0001:00005660       ??1?$vector@VGPUInfo@@V?$allocator@VGPUInfo@@@std@@@std@@QAE@XZ 00406660 f i protect.obj
 0001:00005670       ??1?$vector@VCPUInfo@@V?$allocator@VCPUInfo@@@std@@@std@@QAE@XZ 00406670 f i protect.obj
 0001:00005680       ?_Myptr@?$_String_val@U?$_Simple_types@D@std@@@std@@QAEPADXZ 00406680 f i protect.obj
 0001:00005680       ?c_str@?$basic_string@DU?$char_traits@D@std@@V?$allocator@D@2@@std@@QBEPBDXZ 00406680 f i protect.obj
 0001:00005690       ??Y?$basic_string@DU?$char_traits@D@std@@V?$allocator@D@2@@std@@QAEAAV01@QBD@Z 00406690 f i protect.obj
 0001:00005700       ??1?$basic_string@DU?$char_traits@D@std@@V?$allocator@D@2@@std@@QAE@XZ 00406700 f i protect.obj
 0001:00005750       ??1sentry@?$basic_ostream@DU?$char_traits@D@std@@@std@@QAE@XZ 00406750 f i protect.obj
 0001:000057c0       ?_Tidy@?$vector@VRAMInfo@@V?$allocator@VRAMInfo@@@std@@@std@@AAEXXZ 004067c0 f i protect.obj
 0001:00005850       ?_Tidy@?$vector@VOSInfo@@V?$allocator@VOSInfo@@@std@@@std@@AAEXXZ 00406850 f i protect.obj
 0001:000058e0       ?_Tidy@?$vector@VMotherboardInfo@@V?$allocator@VMotherboardInfo@@@std@@@std@@AAEXXZ 004068e0 f i protect.obj
 0001:00005960       ?_Tidy@?$vector@VGPUInfo@@V?$allocator@VGPUInfo@@@std@@@std@@AAEXXZ 00406960 f i protect.obj
 0001:000059f0       ?_Tidy@?$vector@VCPUInfo@@V?$allocator@VCPUInfo@@@std@@@std@@AAEXXZ 004069f0 f i protect.obj
 0001:00005a80       ?assign@?$basic_string@DU?$char_traits@D@std@@V?$allocator@D@2@@std@@QAEAAV12@QBDI@Z 00406a80 f i protect.obj
 0001:00005bc0       ??1_Sentry_base@?$basic_istream@DU?$char_traits@D@std@@@std@@QAE@XZ 00406bc0 f i systeminfo.obj
 0001:00005bc0       ??1_Sentry_base@?$basic_ostream@DU?$char_traits@D@std@@@std@@QAE@XZ 00406bc0 f i protect.obj
 0001:00005c10       ?_Destroy@?$vector@VRAMInfo@@V?$allocator@VRAMInfo@@@std@@@std@@AAEXPAVRAMInfo@@0@Z 00406c10 f i protect.obj
 0001:00005c40       ?deallocate@?$allocator@VRAMInfo@@@std@@QAEXQAVRAMInfo@@I@Z 00406c40 f i protect.obj
 0001:00005c80       ?_Destroy@?$vector@VOSInfo@@V?$allocator@VOSInfo@@@std@@@std@@AAEXPAVOSInfo@@0@Z 00406c80 f i protect.obj
 0001:00005cb0       ?deallocate@?$allocator@VOSInfo@@@std@@QAEXQAVOSInfo@@I@Z 00406cb0 f i protect.obj
 0001:00005cf0       ?_Destroy@?$vector@VMotherboardInfo@@V?$allocator@VMotherboardInfo@@@std@@@std@@AAEXPAVMotherboardInfo@@0@Z 00406cf0 f i protect.obj
 0001:00005d20       ?deallocate@?$allocator@VMotherboardInfo@@@std@@QAEXQAVMotherboardInfo@@I@Z 00406d20 f i protect.obj
 0001:00005d60       ?_Destroy@?$vector@VGPUInfo@@V?$allocator@VGPUInfo@@@std@@@std@@AAEXPAVGPUInfo@@0@Z 00406d60 f i protect.obj
 0001:00005d90       ?deallocate@?$allocator@VGPUInfo@@@std@@QAEXQAVGPUInfo@@I@Z 00406d90 f i protect.obj
 0001:00005dd0       ?_Destroy@?$vector@VCPUInfo@@V?$allocator@VCPUInfo@@@std@@@std@@AAEXPAVCPUInfo@@0@Z 00406dd0 f i protect.obj
 0001:00005e00       ?deallocate@?$allocator@VCPUInfo@@@std@@QAEXQAVCPUInfo@@I@Z 00406e00 f i protect.obj
 0001:00005e40       ?_Xran@?$_String_val@U?$_Simple_types@D@std@@@std@@SAXXZ 00406e40 f i protect.obj
 0001:00005e50       ?move@?$_Char_traits@DH@std@@SAPADQADQBDI@Z 00406e50 f i protect.obj
 0001:00005e70       ??$?6U?$char_traits@D@std@@@std@@YAAAV?$basic_ostream@DU?$char_traits@D@std@@@0@AAV10@PBD@Z 00406e70 f i protect.obj
 0001:000060b0       ??$endl@DU?$char_traits@D@std@@@std@@YAAAV?$basic_ostream@DU?$char_traits@D@std@@@0@AAV10@@Z 004070b0 f i protect.obj
 0001:000060e0       ??$_Reallocate_grow_by@V<lambda_ab246b20b9526e2ef7792587e4298a77>@@PBDI@?$basic_string@DU?$char_traits@D@std@@V?$allocator@D@2@@std@@AAEAAV01@IV<lambda_ab246b20b9526e2ef7792587e4298a77>@@PBDI@Z 004070e0 f i protect.obj
 0001:00006240       ??1RAMInfo@@QAE@XZ         00407240 f i protect.obj
 0001:000064a0       ??1OSInfo@@QAE@XZ          004074a0 f i protect.obj
 0001:00006900       ??1MotherboardInfo@@QAE@XZ 00407900 f i protect.obj
 0001:00006a60       ??1GPUInfo@@QAE@XZ         00407a60 f i protect.obj
 0001:00006d70       ??1CPUInfo@@QAE@XZ         00407d70 f i protect.obj
 0001:00006f20       ??0bad_cast@std@@QAE@XZ    00407f20 f i systeminfo.obj
 0001:00006f40       ?_Throw_bad_cast@std@@YAXXZ 00407f40 f i systeminfo.obj
 0001:00006f60       ??0bad_cast@std@@QAE@ABV01@@Z 00407f60 f i systeminfo.obj
 0001:00006fa0       ??1locale@std@@QAE@XZ      00407fa0 f i systeminfo.obj
 0001:00006fc0       ??0CPUInfo@@QAE@ABV?$vector@V?$basic_string@DU?$char_traits@D@std@@V?$allocator@D@2@@std@@V?$allocator@V?$basic_string@DU?$char_traits@D@std@@V?$allocator@D@2@@std@@@2@@std@@H@Z 00407fc0 f   systeminfo.obj
 0001:00007870       ??1SystemCommand@@QAE@XZ   00408870 f i systeminfo.obj
 0001:00007910       ?getArchitecture@CPUInfo@@ABE?AV?$basic_string@DU?$char_traits@D@std@@V?$allocator@D@2@@std@@AAV23@@Z 00408910 f   systeminfo.obj
 0001:00007a30       ??0CPUInfoDelegate@@QAE@XZ 00408a30 f   systeminfo.obj
 0001:00007d00       ??0GPUInfo@@QAE@ABV?$vector@V?$basic_string@DU?$char_traits@D@std@@V?$allocator@D@2@@std@@V?$allocator@V?$basic_string@DU?$char_traits@D@std@@V?$allocator@D@2@@std@@@2@@std@@H@Z 00408d00 f   systeminfo.obj
 0001:00008cc0       ?getVideoArchitecture@GPUInfo@@ABE?AV?$basic_string@DU?$char_traits@D@std@@V?$allocator@D@2@@std@@ABV23@@Z 00409cc0 f   systeminfo.obj
 0001:00008fd0       ?getVideoMemoryType@GPUInfo@@ABE?AV?$basic_string@DU?$char_traits@D@std@@V?$allocator@D@2@@std@@ABV23@@Z 00409fd0 f   systeminfo.obj
 0001:00009230       ??0GPUInfoDelegate@@QAE@XZ 0040a230 f   systeminfo.obj
 0001:00009500       ??0MotherboardInfo@@QAE@ABV?$vector@V?$basic_string@DU?$char_traits@D@std@@V?$allocator@D@2@@std@@V?$allocator@V?$basic_string@DU?$char_traits@D@std@@V?$allocator@D@2@@std@@@2@@std@@H@Z 0040a500 f   systeminfo.obj
 0001:00009930       ?determineChipset@MotherboardInfo@@AAEXXZ 0040a930 f   systeminfo.obj
 0001:00009b70       ??0MotherboardInfoDelegate@@QAE@XZ 0040ab70 f   systeminfo.obj
 0001:00009e50       ??0OSInfo@@QAE@ABV?$vector@V?$basic_string@DU?$char_traits@D@std@@V?$allocator@D@2@@std@@V?$allocator@V?$basic_string@DU?$char_traits@D@std@@V?$allocator@D@2@@std@@@2@@std@@H@Z 0040ae50 f   systeminfo.obj
 0001:0000b970       ?serialNumber@OSInfo@@QBE?AV?$basic_string@DU?$char_traits@D@std@@V?$allocator@D@2@@std@@XZ 0040c970 f   systeminfo.obj
 0001:0000b990       ?totalVisibleMemory@OSInfo@@QBE?AV?$basic_string@DU?$char_traits@D@std@@V?$allocator@D@2@@std@@XZ 0040c990 f   systeminfo.obj
 0001:0000b9b0       ?totalSwapSize@OSInfo@@QBE?AV?$basic_string@DU?$char_traits@D@std@@V?$allocator@D@2@@std@@XZ 0040c9b0 f   systeminfo.obj
 0001:0000b9d0       ??0OSInfoDelegate@@QAE@XZ  0040c9d0 f   systeminfo.obj
 0001:0000bca0       ??0RAMInfo@@QAE@ABV?$vector@V?$basic_string@DU?$char_traits@D@std@@V?$allocator@D@2@@std@@V?$allocator@V?$basic_string@DU?$char_traits@D@std@@V?$allocator@D@2@@std@@@2@@std@@H@Z 0040cca0 f   systeminfo.obj
 0001:0000cd70       ?getMemoryType@RAMInfo@@ABE?AV?$basic_string@DU?$char_traits@D@std@@V?$allocator@D@2@@std@@ABV23@@Z 0040dd70 f   systeminfo.obj
 0001:0000cfd0       ?getFormFactor@RAMInfo@@ABE?AV?$basic_string@DU?$char_traits@D@std@@V?$allocator@D@2@@std@@ABV23@@Z 0040dfd0 f   systeminfo.obj
 0001:0000d220       ??0RAMInfoDelegate@@QAE@XZ 0040e220 f   systeminfo.obj
 0001:0000d4f0       ?stripAllFromString@SystemCommand@@AAE?AV?$basic_string@DU?$char_traits@D@std@@V?$allocator@D@2@@std@@ABV23@0@Z 0040e4f0 f   systeminfo.obj
 0001:0000d680       ?stripFromString@SystemCommand@@AAE?AV?$basic_string@DU?$char_traits@D@std@@V?$allocator@D@2@@std@@ABV23@0@Z 0040e680 f   systeminfo.obj
 0001:0000d940       ?stripPipeFromCommand@SystemCommand@@AAEXXZ 0040e940 f   systeminfo.obj
 0001:0000daf0       ?systemCommandLaunch@SystemCommand@@AAEX_N@Z 0040eaf0 f   systeminfo.obj
 0001:0000e240       ??1?$function@$$A6A?AV?$basic_string@DU?$char_traits@D@std@@V?$allocator@D@2@@std@@ABV12@@Z@std@@QAE@XZ 0040f240 f i systeminfo.obj
 0001:0000e270       ??0?$vector@VRAMInfo@@V?$allocator@VRAMInfo@@@std@@@std@@QAE@ABV01@@Z 0040f270 f i systeminfo.obj
 0001:0000e450       ??0?$vector@VMotherboardInfo@@V?$allocator@VMotherboardInfo@@@std@@@std@@QAE@ABV01@@Z 0040f450 f i systeminfo.obj
 0001:0000e5f0       ??0?$vector@VGPUInfo@@V?$allocator@VGPUInfo@@@std@@@std@@QAE@ABV01@@Z 0040f5f0 f i systeminfo.obj
 0001:0000e800       ??0?$vector@VCPUInfo@@V?$allocator@VCPUInfo@@@std@@@std@@QAE@ABV01@@Z 0040f800 f i systeminfo.obj
 0001:0000e9b0       ?seekpos@?$basic_stringbuf@DU?$char_traits@D@std@@V?$allocator@D@2@@std@@MAE?AV?$fpos@U_Mbstatet@@@2@V32@H@Z 0040f9b0 f i systeminfo.obj
 0001:0000eac0       ?seekoff@?$basic_stringbuf@DU?$char_traits@D@std@@V?$allocator@D@2@@std@@MAE?AV?$fpos@U_Mbstatet@@@2@_JHH@Z 0040fac0 f i systeminfo.obj
 0001:0000ec50       ?underflow@?$basic_stringbuf@DU?$char_traits@D@std@@V?$allocator@D@2@@std@@MAEHXZ 0040fc50 f i systeminfo.obj
 0001:0000ecb0       ?pbackfail@?$basic_stringbuf@DU?$char_traits@D@std@@V?$allocator@D@2@@std@@MAEHH@Z 0040fcb0 f i systeminfo.obj
 0001:0000ed10       ?overflow@?$basic_stringbuf@DU?$char_traits@D@std@@V?$allocator@D@2@@std@@MAEHH@Z 0040fd10 f i systeminfo.obj
 0001:0000eed0       ??1?$basic_stringbuf@DU?$char_traits@D@std@@V?$allocator@D@2@@std@@UAE@XZ 0040fed0 f i systeminfo.obj
 0001:0000ef80       ??1?$vector@V?$basic_string@DU?$char_traits@D@std@@V?$allocator@D@2@@std@@V?$allocator@V?$basic_string@DU?$char_traits@D@std@@V?$allocator@D@2@@std@@@2@@std@@QAE@XZ 0040ff80 f i systeminfo.obj
 0001:0000ef90       ??0?$vector@V?$basic_string@DU?$char_traits@D@std@@V?$allocator@D@2@@std@@V?$allocator@V?$basic_string@DU?$char_traits@D@std@@V?$allocator@D@2@@std@@@2@@std@@QAE@ABV01@@Z 0040ff90 f i systeminfo.obj
 0001:0000f090       ?imbue@?$basic_filebuf@DU?$char_traits@D@std@@@std@@MAEXABVlocale@2@@Z 00410090 f i systeminfo.obj
 0001:0000f1b0       ?sync@?$basic_filebuf@DU?$char_traits@D@std@@@std@@MAEHXZ 004101b0 f i systeminfo.obj
 0001:0000f1e0       ?setbuf@?$basic_filebuf@DU?$char_traits@D@std@@@std@@MAEPAV?$basic_streambuf@DU?$char_traits@D@std@@@2@PAD_J@Z 004101e0 f i systeminfo.obj
 0001:0000f2d0       ?seekpos@?$basic_filebuf@DU?$char_traits@D@std@@@std@@MAE?AV?$fpos@U_Mbstatet@@@2@V32@H@Z 004102d0 f i systeminfo.obj
 0001:0000f3b0       ?seekoff@?$basic_filebuf@DU?$char_traits@D@std@@@std@@MAE?AV?$fpos@U_Mbstatet@@@2@_JHH@Z 004103b0 f i systeminfo.obj
 0001:0000f4d0       ?xsputn@?$basic_filebuf@DU?$char_traits@D@std@@@std@@MAE_JPBD_J@Z 004104d0 f i systeminfo.obj
 0001:0000f5c0       ?xsgetn@?$basic_filebuf@DU?$char_traits@D@std@@@std@@MAE_JPAD_J@Z 004105c0 f i systeminfo.obj
 0001:0000f6f0       ?uflow@?$basic_filebuf@DU?$char_traits@D@std@@@std@@MAEHXZ 004106f0 f i systeminfo.obj
 0001:0000f940       ?underflow@?$basic_filebuf@DU?$char_traits@D@std@@@std@@MAEHXZ 00410940 f i systeminfo.obj
 0001:0000f980       ?pbackfail@?$basic_filebuf@DU?$char_traits@D@std@@@std@@MAEHH@Z 00410980 f i systeminfo.obj
 0001:0000fa30       ?overflow@?$basic_filebuf@DU?$char_traits@D@std@@@std@@MAEHH@Z 00410a30 f i systeminfo.obj
 0001:0000fb80       ?_Unlock@?$basic_filebuf@DU?$char_traits@D@std@@@std@@UAEXXZ 00410b80 f i systeminfo.obj
 0001:0000fb90       ?_Lock@?$basic_filebuf@DU?$char_traits@D@std@@@std@@UAEXXZ 00410b90 f i systeminfo.obj
 0001:0000fba0       ??1?$basic_filebuf@DU?$char_traits@D@std@@@std@@UAE@XZ 00410ba0 f i systeminfo.obj
 0001:0000fc60       ??0?$basic_ifstream@DU?$char_traits@D@std@@@std@@QAE@XZ 00410c60 f i systeminfo.obj
 0001:0000fd40       ?find@?$basic_string@DU?$char_traits@D@std@@V?$allocator@D@2@@std@@QBEIABV12@I@Z 00410d40 f i systeminfo.obj
 0001:0000fe60       ??4?$basic_string@DU?$char_traits@D@std@@V?$allocator@D@2@@std@@QAEAAV01@$$QAV01@@Z 00410e60 f i systeminfo.obj
 0001:0000fee0       ??0?$basic_string@DU?$char_traits@D@std@@V?$allocator@D@2@@std@@QAE@ABV01@@Z 00410ee0 f i systeminfo.obj
 0001:0000ffb0       ??_E?$basic_stringbuf@DU?$char_traits@D@std@@V?$allocator@D@2@@std@@UAEPAXI@Z 00410fb0 f i * CIL library *:* CIL module *
 0001:0000ffb0       ??_G?$basic_stringbuf@DU?$char_traits@D@std@@V?$allocator@D@2@@std@@UAEPAXI@Z 00410fb0 f i systeminfo.obj
 0001:0000ffe0       ??_G?$basic_stringstream@DU?$char_traits@D@std@@V?$allocator@D@2@@std@@UAEPAXI@Z 00410fe0 f i systeminfo.obj
 0001:0000ffe0       ??_E?$basic_stringstream@DU?$char_traits@D@std@@V?$allocator@D@2@@std@@UAEPAXI@Z 00410fe0 f i * CIL library *:* CIL module *
 0001:00010040       ??_G?$basic_filebuf@DU?$char_traits@D@std@@@std@@UAEPAXI@Z 00411040 f i systeminfo.obj
 0001:00010040       ??_E?$basic_filebuf@DU?$char_traits@D@std@@@std@@UAEPAXI@Z 00411040 f i * CIL library *:* CIL module *
 0001:00010070       ??_G?$basic_ifstream@DU?$char_traits@D@std@@@std@@UAEPAXI@Z 00411070 f i systeminfo.obj
 0001:00010070       ??_E?$basic_ifstream@DU?$char_traits@D@std@@@std@@UAEPAXI@Z 00411070 f i * CIL library *:* CIL module *
 0001:000100d0       ??_D?$basic_stringstream@DU?$char_traits@D@std@@V?$allocator@D@2@@std@@QAEXXZ 004110d0 f i systeminfo.obj
 0001:00010110       ??1?$_Tidy_guard@V?$vector@V?$basic_string@DU?$char_traits@D@std@@V?$allocator@D@2@@std@@V?$allocator@V?$basic_string@DU?$char_traits@D@std@@V?$allocator@D@2@@std@@@2@@std@@@std@@QAE@XZ 00411110 f i systeminfo.obj
 0001:00010120       ??1?$_Tidy_guard@V?$vector@VCPUInfo@@V?$allocator@VCPUInfo@@@std@@@std@@@std@@QAE@XZ 00411120 f i systeminfo.obj
 0001:00010130       ??1?$_Tidy_guard@V?$vector@VGPUInfo@@V?$allocator@VGPUInfo@@@std@@@std@@@std@@QAE@XZ 00411130 f i systeminfo.obj
 0001:00010140       ??1?$_Tidy_guard@V?$vector@VMotherboardInfo@@V?$allocator@VMotherboardInfo@@@std@@@std@@@std@@QAE@XZ 00411140 f i systeminfo.obj
 0001:00010150       ??1?$_Tidy_guard@V?$vector@VOSInfo@@V?$allocator@VOSInfo@@@std@@@std@@@std@@QAE@XZ 00411150 f i systeminfo.obj
 0001:00010160       ??1?$_Tidy_guard@V?$vector@VRAMInfo@@V?$allocator@VRAMInfo@@@std@@@std@@@std@@QAE@XZ 00411160 f i systeminfo.obj
 0001:00010170       ?_Tidy@?$vector@V?$basic_string@DU?$char_traits@D@std@@V?$allocator@D@2@@std@@V?$allocator@V?$basic_string@DU?$char_traits@D@std@@V?$allocator@D@2@@std@@@2@@std@@AAEXXZ 00411170 f i systeminfo.obj
 0001:000101f0       ?_Destroy@?$vector@V?$basic_string@DU?$char_traits@D@std@@V?$allocator@D@2@@std@@V?$allocator@V?$basic_string@DU?$char_traits@D@std@@V?$allocator@D@2@@std@@@2@@std@@AAEXPAV?$basic_string@DU?$char_traits@D@std@@V?$allocator@D@2@@2@0@Z 004111f0 f i systeminfo.obj
 0001:00010210       ?_Endwrite@?$basic_filebuf@DU?$char_traits@D@std@@@std@@IAE_NXZ 00411210 f i systeminfo.obj
 0001:000102e0       ?allocate@?$allocator@V?$basic_string@DU?$char_traits@D@std@@V?$allocator@D@2@@std@@@std@@QAEPAV?$basic_string@DU?$char_traits@D@std@@V?$allocator@D@2@@2@I@Z 004112e0 f i systeminfo.obj
 0001:00010340       ?deallocate@?$allocator@V?$basic_string@DU?$char_traits@D@std@@V?$allocator@D@2@@std@@@std@@QAEXQAV?$basic_string@DU?$char_traits@D@std@@V?$allocator@D@2@@2@I@Z 00411340 f i systeminfo.obj
 0001:00010380       ??$use_facet@V?$ctype@D@std@@@std@@YAABV?$ctype@D@0@ABVlocale@0@@Z 00411380 f i systeminfo.obj
 0001:00010480       ??$?HDU?$char_traits@D@std@@V?$allocator@D@1@@std@@YA?AV?$basic_string@DU?$char_traits@D@std@@V?$allocator@D@2@@0@ABV10@QBD@Z 00411480 f i systeminfo.obj
 0001:000105a0       ??$?8DU?$char_traits@D@std@@V?$allocator@D@1@@std@@YA_NABV?$basic_string@DU?$char_traits@D@std@@V?$allocator@D@2@@0@QBD@Z 004115a0 f i systeminfo.obj
 0001:00010630       ??$_Emplace_reallocate@AAV?$vector@V?$basic_string@DU?$char_traits@D@std@@V?$allocator@D@2@@std@@V?$allocator@V?$basic_string@DU?$char_traits@D@std@@V?$allocator@D@2@@std@@@2@@std@@AAH@?$vector@VCPUInfo@@V?$allocator@VCPUInfo@@@std@@@std@@QAEPAVCPUInfo@@QAV2@AAV?$vector@V?$basic_string@DU?$char_traits@D@std@@V?$allocator@D@2@@std@@V?$allocator@V?$basic_string@DU?$char_traits@D@std@@V?$allocator@D@2@@std@@@2@@1@AAH@Z 00411630 f i systeminfo.obj
 0001:00010880       ??$toString@_J@GPUInfo@@ABE?AV?$basic_string@DU?$char_traits@D@std@@V?$allocator@D@2@@std@@AB_J@Z 00411880 f i systeminfo.obj
 0001:00010880       ??$toString@_J@OSInfo@@ABE?AV?$basic_string@DU?$char_traits@D@std@@V?$allocator@D@2@@std@@AB_J@Z 00411880 f i systeminfo.obj
 0001:00010880       ??$toString@_J@RAMInfo@@ABE?AV?$basic_string@DU?$char_traits@D@std@@V?$allocator@D@2@@std@@AB_J@Z 00411880 f i systeminfo.obj
 0001:00010a20       ??$_Emplace_reallocate@AAV?$vector@V?$basic_string@DU?$char_traits@D@std@@V?$allocator@D@2@@std@@V?$allocator@V?$basic_string@DU?$char_traits@D@std@@V?$allocator@D@2@@std@@@2@@std@@AAH@?$vector@VGPUInfo@@V?$allocator@VGPUInfo@@@std@@@std@@QAEPAVGPUInfo@@QAV2@AAV?$vector@V?$basic_string@DU?$char_traits@D@std@@V?$allocator@D@2@@std@@V?$allocator@V?$basic_string@DU?$char_traits@D@std@@V?$allocator@D@2@@std@@@2@@1@AAH@Z 00411a20 f i systeminfo.obj
 0001:00010c70       ??$_Emplace_reallocate@AAV?$vector@V?$basic_string@DU?$char_traits@D@std@@V?$allocator@D@2@@std@@V?$allocator@V?$basic_string@DU?$char_traits@D@std@@V?$allocator@D@2@@std@@@2@@std@@AAH@?$vector@VMotherboardInfo@@V?$allocator@VMotherboardInfo@@@std@@@std@@QAEPAVMotherboardInfo@@QAV2@AAV?$vector@V?$basic_string@DU?$char_traits@D@std@@V?$allocator@D@2@@std@@V?$allocator@V?$basic_string@DU?$char_traits@D@std@@V?$allocator@D@2@@std@@@2@@1@AAH@Z 00411c70 f i systeminfo.obj
 0001:00010e90       ??$_Emplace_reallocate@AAV?$vector@V?$basic_string@DU?$char_traits@D@std@@V?$allocator@D@2@@std@@V?$allocator@V?$basic_string@DU?$char_traits@D@std@@V?$allocator@D@2@@std@@@2@@std@@AAH@?$vector@VOSInfo@@V?$allocator@VOSInfo@@@std@@@std@@QAEPAVOSInfo@@QAV2@AAV?$vector@V?$basic_string@DU?$char_traits@D@std@@V?$allocator@D@2@@std@@V?$allocator@V?$basic_string@DU?$char_traits@D@std@@V?$allocator@D@2@@std@@@2@@1@AAH@Z 00411e90 f i systeminfo.obj
 0001:00011140       ??$_Emplace_reallocate@AAV?$vector@V?$basic_string@DU?$char_traits@D@std@@V?$allocator@D@2@@std@@V?$allocator@V?$basic_string@DU?$char_traits@D@std@@V?$allocator@D@2@@std@@@2@@std@@AAH@?$vector@VRAMInfo@@V?$allocator@VRAMInfo@@@std@@@std@@QAEPAVRAMInfo@@QAV2@AAV?$vector@V?$basic_string@DU?$char_traits@D@std@@V?$allocator@D@2@@std@@V?$allocator@V?$basic_string@DU?$char_traits@D@std@@V?$allocator@D@2@@std@@@2@@1@AAH@Z 00412140 f i systeminfo.obj
 0001:00011390       ??$_Emplace_reallocate@V?$basic_string@DU?$char_traits@D@std@@V?$allocator@D@2@@std@@@?$vector@V?$basic_string@DU?$char_traits@D@std@@V?$allocator@D@2@@std@@V?$allocator@V?$basic_string@DU?$char_traits@D@std@@V?$allocator@D@2@@std@@@2@@std@@QAEPAV?$basic_string@DU?$char_traits@D@std@@V?$allocator@D@2@@1@QAV21@$$QAV21@@Z 00412390 f i systeminfo.obj
 0001:00011520       ??$_Emplace_reallocate@ABV?$basic_string@DU?$char_traits@D@std@@V?$allocator@D@2@@std@@@?$vector@V?$basic_string@DU?$char_traits@D@std@@V?$allocator@D@2@@std@@V?$allocator@V?$basic_string@DU?$char_traits@D@std@@V?$allocator@D@2@@std@@@2@@std@@QAEPAV?$basic_string@DU?$char_traits@D@std@@V?$allocator@D@2@@1@QAV21@ABV21@@Z 00412520 f i systeminfo.obj
 0001:000116e0       ??$_Destroy_range@V?$allocator@V?$basic_string@DU?$char_traits@D@std@@V?$allocator@D@2@@std@@@std@@@std@@YAXPAV?$basic_string@DU?$char_traits@D@std@@V?$allocator@D@2@@0@QAV10@AAV?$allocator@V?$basic_string@DU?$char_traits@D@std@@V?$allocator@D@2@@std@@@0@@Z 004126e0 f i systeminfo.obj
 0001:00011750       ??$_Reallocate_grow_by@V<lambda_15711c68e099a15a58f4d77303cb286d>@@D@?$basic_string@DU?$char_traits@D@std@@V?$allocator@D@2@@std@@AAEAAV01@IV<lambda_15711c68e099a15a58f4d77303cb286d>@@D@Z 00412750 f i systeminfo.obj
 0001:00011890       ??1?$unique_ptr@V_Facet_base@std@@U?$default_delete@V_Facet_base@std@@@2@@std@@QAE@XZ 00412890 f i systeminfo.obj
 0001:000118a0       ?_Xlength@?$vector@VOSInfo@@V?$allocator@VOSInfo@@@std@@@std@@CAXXZ 004128a0 f i systeminfo.obj
 0001:000118a0       ?_Xlength@?$vector@V?$basic_string@DU?$char_traits@D@std@@V?$allocator@D@2@@std@@V?$allocator@V?$basic_string@DU?$char_traits@D@std@@V?$allocator@D@2@@std@@@2@@std@@CAXXZ 004128a0 f i systeminfo.obj
 0001:000118a0       ?_Xlength@?$vector@VMotherboardInfo@@V?$allocator@VMotherboardInfo@@@std@@@std@@CAXXZ 004128a0 f i systeminfo.obj
 0001:000118a0       ?_Xlength@?$vector@VGPUInfo@@V?$allocator@VGPUInfo@@@std@@@std@@CAXXZ 004128a0 f i systeminfo.obj
 0001:000118a0       ?_Xlength@?$vector@VCPUInfo@@V?$allocator@VCPUInfo@@@std@@@std@@CAXXZ 004128a0 f i systeminfo.obj
 0001:000118a0       ?_Xlength@?$vector@VRAMInfo@@V?$allocator@VRAMInfo@@@std@@@std@@CAXXZ 004128a0 f i systeminfo.obj
 0001:000118b0       ??0?$basic_string@DU?$char_traits@D@std@@V?$allocator@D@2@@std@@QAE@U_String_constructor_concat_tag@1@AAV01@1@Z 004128b0 f i systeminfo.obj
 0001:00011a90       ??$_Insert_string@DU?$char_traits@D@std@@I@std@@YAAAV?$basic_ostream@DU?$char_traits@D@std@@@0@AAV10@QBDI@Z 00412a90 f i systeminfo.obj
 0001:00011c90       ??$_Uninitialized_copy@PAVOSInfo@@V?$allocator@VOSInfo@@@std@@@std@@YAPAVOSInfo@@QAV1@0PAV1@AAV?$allocator@VOSInfo@@@0@@Z 00412c90 f i systeminfo.obj
 0001:00011e40       ??$_Uninitialized_move@PAVRAMInfo@@V?$allocator@VRAMInfo@@@std@@@std@@YAPAVRAMInfo@@QAV1@0PAV1@AAV?$allocator@VRAMInfo@@@0@@Z 00412e40 f i systeminfo.obj
 0001:00012090       ??$_Uninitialized_move@PAVMotherboardInfo@@V?$allocator@VMotherboardInfo@@@std@@@std@@YAPAVMotherboardInfo@@QAV1@0PAV1@AAV?$allocator@VMotherboardInfo@@@0@@Z 00413090 f i systeminfo.obj
 0001:000121f0       ??$_Uninitialized_move@PAVGPUInfo@@V?$allocator@VGPUInfo@@@std@@@std@@YAPAVGPUInfo@@QAV1@0PAV1@AAV?$allocator@VGPUInfo@@@0@@Z 004131f0 f i systeminfo.obj
 0001:00012460       ??$_Uninitialized_move@PAVCPUInfo@@V?$allocator@VCPUInfo@@@std@@@std@@YAPAVCPUInfo@@QAV1@0PAV1@AAV?$allocator@VCPUInfo@@@0@@Z 00413460 f i systeminfo.obj
 0001:00012620       ??$_Uninitialized_move@PAV?$basic_string@DU?$char_traits@D@std@@V?$allocator@D@2@@std@@V?$allocator@V?$basic_string@DU?$char_traits@D@std@@V?$allocator@D@2@@std@@@2@@std@@YAPAV?$basic_string@DU?$char_traits@D@std@@V?$allocator@D@2@@0@QAV10@0PAV10@AAV?$allocator@V?$basic_string@DU?$char_traits@D@std@@V?$allocator@D@2@@std@@@0@@Z 00413620 f i systeminfo.obj
 0001:00012680       ??1?$_Uninitialized_backout_al@V?$allocator@V?$basic_string@DU?$char_traits@D@std@@V?$allocator@D@2@@std@@@std@@@std@@QAE@XZ 00413680 f i systeminfo.obj
 0001:00012690       ??1?$_Uninitialized_backout_al@V?$allocator@VCPUInfo@@@std@@@std@@QAE@XZ 00413690 f i systeminfo.obj
 0001:000126c0       ??1?$_Uninitialized_backout_al@V?$allocator@VGPUInfo@@@std@@@std@@QAE@XZ 004136c0 f i systeminfo.obj
 0001:000126f0       ??1?$_Uninitialized_backout_al@V?$allocator@VMotherboardInfo@@@std@@@std@@QAE@XZ 004136f0 f i systeminfo.obj
 0001:00012720       ??1?$_Uninitialized_backout_al@V?$allocator@VOSInfo@@@std@@@std@@QAE@XZ 00413720 f i systeminfo.obj
 0001:00012750       ??1?$_Uninitialized_backout_al@V?$allocator@VRAMInfo@@@std@@@std@@QAE@XZ 00413750 f i systeminfo.obj
 0001:000127f0       ??$?5DU?$char_traits@D@std@@V?$allocator@D@1@@std@@YAAAV?$basic_istream@DU?$char_traits@D@std@@@0@$$QAV10@AAV?$basic_string@DU?$char_traits@D@std@@V?$allocator@D@2@@0@@Z 004137f0 f i systeminfo.obj
 0001:000129f0       ??1sentry@?$basic_istream@DU?$char_traits@D@std@@@std@@QAE@XZ 004139f0 f i systeminfo.obj
 0001:00012a50       ??0OSInfo@@QAE@$$QAV0@@Z   00413a50 f i systeminfo.obj
 0001:00012e0b       ??_E?$basic_stringstream@DU?$char_traits@D@std@@V?$allocator@D@2@@std@@$4PPPPPPPM@A@AEPAXI@Z 00413e0b f i systeminfo.obj
 0001:00012e13       ??_E?$basic_ifstream@DU?$char_traits@D@std@@@std@@$4PPPPPPPM@A@AEPAXI@Z 00413e13 f i systeminfo.obj
 0001:00012e1b       ??1_Fac_node@std@@QAE@XZ   00413e1b f i msvcprt:locale0_implib.obj
 0001:00012e4c       ??1_Fac_tidy_reg_t@std@@QAE@XZ 00413e4c f i msvcprt:locale0_implib.obj
 0001:00012e73       ?_Facet_Register@std@@YAXPAV_Facet_base@1@@Z 00413e73 f   msvcprt:locale0_implib.obj
 0001:00012e9f       ?_Lock@?$basic_streambuf@DU?$char_traits@D@std@@@std@@UAEXXZ 00413e9f f   msvcprt:MSVCP140.dll
 0001:00012ea5       ?_Unlock@?$basic_streambuf@DU?$char_traits@D@std@@@std@@UAEXXZ 00413ea5 f   msvcprt:MSVCP140.dll
 0001:00012eab       ?showmanyc@?$basic_streambuf@DU?$char_traits@D@std@@@std@@MAE_JXZ 00413eab f   msvcprt:MSVCP140.dll
 0001:00012eb1       ?uflow@?$basic_streambuf@DU?$char_traits@D@std@@@std@@MAEHXZ 00413eb1 f   msvcprt:MSVCP140.dll
 0001:00012eb7       ?xsgetn@?$basic_streambuf@DU?$char_traits@D@std@@@std@@MAE_JPAD_J@Z 00413eb7 f   msvcprt:MSVCP140.dll
 0001:00012ebd       ?xsputn@?$basic_streambuf@DU?$char_traits@D@std@@@std@@MAE_JPBD_J@Z 00413ebd f   msvcprt:MSVCP140.dll
 0001:00012ec3       ?setbuf@?$basic_streambuf@DU?$char_traits@D@std@@@std@@MAEPAV12@PAD_J@Z 00413ec3 f   msvcprt:MSVCP140.dll
 0001:00012ec9       ?sync@?$basic_streambuf@DU?$char_traits@D@std@@@std@@MAEHXZ 00413ec9 f   msvcprt:MSVCP140.dll
 0001:00012ecf       ?imbue@?$basic_streambuf@DU?$char_traits@D@std@@@std@@MAEXABVlocale@2@@Z 00413ecf f   msvcprt:MSVCP140.dll
 0001:00012ed5       @__security_check_cookie@4 00413ed5 f   MSVCRT:secchk.obj
 0001:00012ee6       ??2@YAPAXI@Z               00413ee6 f   MSVCRT:new_scalar.obj
 0001:00012f16       ??3@YAXPAXI@Z              00413f16 f   MSVCRT:delete_scalar_size.obj
 0001:00012f24       ??_Etype_info@@UAEPAXI@Z   00413f24 f i MSVCRT:std_type_info_static.obj
 0001:00012f24       ??_Gtype_info@@UAEPAXI@Z   00413f24 f i MSVCRT:std_type_info_static.obj
 0001:00012f47       ??_M@YGXPAXIIP6EX0@Z@Z     00413f47 f   MSVCRT:ehvecdtr.obj
 0001:00012fcc       ?__ArrayUnwind@@YGXPAXIIP6EX0@Z@Z 00413fcc f   MSVCRT:ehvecdtr.obj
 0001:000130a0       ___scrt_acquire_startup_lock 004140a0 f   MSVCRT:utility.obj
 0001:000130d2       ___scrt_initialize_crt     004140d2 f   MSVCRT:utility.obj
 0001:0001310b       ___scrt_initialize_onexit_tables 0041410b f   MSVCRT:utility.obj
 0001:00013192       ___scrt_is_nonwritable_in_current_image 00414192 f   MSVCRT:utility.obj
 0001:00013226       ___scrt_release_startup_lock 00414226 f   MSVCRT:utility.obj
 0001:00013243       ___scrt_uninitialize_crt   00414243 f   MSVCRT:utility.obj
 0001:0001326b       __onexit                   0041426b f   MSVCRT:utility.obj
 0001:00013298       _atexit                    00414298 f   MSVCRT:utility.obj
 0001:000134ee       _WinMainCRTStartup         004144ee f   MSVCRT:exe_winmain.obj
 0001:000134f8       @_guard_check_icall_nop@4  004144f8 f i MSVCRT:guard_support.obj
 0001:000134f8       __initialize_invalid_parameter_handler 004144f8 f i MSVCRT:invalid_parameter_handler.obj
 0001:000134f8       __initialize_denormal_control 004144f8 f i MSVCRT:denormal_control.obj
 0001:000134fb       ___raise_securityfailure   004144fb f   MSVCRT:gs_report.obj
 0001:00013523       ___report_gsfailure        00414523 f   MSVCRT:gs_report.obj
 0001:0001361d       ___report_rangecheckfailure 0041461d f   MSVCRT:gs_report.obj
 0001:00013629       ___report_securityfailure  00414629 f   MSVCRT:gs_report.obj
 0001:000136f8       ??0bad_alloc@std@@QAE@XZ   004146f8 f i MSVCRT:throw_bad_alloc.obj
 0001:00013710       ?__scrt_throw_std_bad_alloc@@YAXXZ 00414710 f   MSVCRT:throw_bad_alloc.obj
 0001:0001372d       ??3@YAXPAX@Z               0041472d f   MSVCRT:delete_scalar.obj
 0001:00013740       __SEH_prolog4              00414740 f   MSVCRT:sehprolg4.obj
 0001:00013786       __except_handler4          00414786 f   MSVCRT:chandler4gs.obj
 0001:000137b5       ___isa_available_init      004147b5 f   MSVCRT:cpu_disp.obj
 0001:00013986       __get_startup_argv_mode    00414986 f   MSVCRT:argv_mode.obj
 0001:0001398a       ___scrt_is_ucrt_dll_in_use 0041498a f   MSVCRT:ucrt_detection.obj
 0001:00013996       ___scrt_fastfail           00414996 f   MSVCRT:utility_desktop.obj
 0001:00013ab1       ___scrt_get_show_window_mode 00414ab1 f   MSVCRT:utility_desktop.obj
 0001:00013ae2       ___scrt_initialize_mta     00414ae2 f   MSVCRT:utility_desktop.obj
 0001:00013af0       ___scrt_exe_initialize_mta 00414af0 f   MSVCRT:utility_desktop.obj
 0001:00013af0       __get_startup_thread_locale_mode 00414af0 f   MSVCRT:thread_locale.obj
 0001:00013af0       __get_startup_new_mode     00414af0 f   MSVCRT:new_mode.obj
 0001:00013af0       ___scrt_stub_for_initialize_mta 00414af0 f   MSVCRT:utility_desktop.obj
 0001:00013af0       _Curl_if2ip                00414af0 f   libcurl:if2ip.obj
 0001:00013af0       _Curl_ssl_backend          00414af0 f   libcurl:vtls.obj
 0001:00013af0       _Curl_resolver_global_init 00414af0 f   libcurl:asyn-thread.obj
 0001:00013af0       __matherr                  00414af0 f   MSVCRT:matherr.obj
 0001:00013af0       __get_startup_commit_mode  00414af0 f   MSVCRT:commit_mode.obj
 0001:00013af0       ___scrt_initialize_winrt   00414af0 f   MSVCRT:utility_desktop.obj
 0001:00013af0       _Curl_posttransfer         00414af0 f   libcurl:transfer.obj
 0001:00013af3       ___scrt_is_managed_app     00414af3 f   MSVCRT:utility_desktop.obj
 0001:00013b36       ___scrt_set_unhandled_exception_filter 00414b36 f   MSVCRT:utility_desktop.obj
 0001:00013b42       ___scrt_unhandled_exception_filter@4 00414b42 f   MSVCRT:utility_desktop.obj
 0001:00013b98       __crt_debugger_hook        00414b98 f   MSVCRT:utility_desktop.obj
 0001:00013bed       ___security_init_cookie    00414bed f   MSVCRT:gs_support.obj
 0001:00013c38       __get_startup_file_mode    00414c38 f   MSVCRT:file_mode.obj
 0001:00013c3e       ?__scrt_initialize_type_info@@YAXXZ 00414c3e f   MSVCRT:tncleanup.obj
 0001:00013c50       ___vcrt_initialize         00414c50 f   MSVCRT:ucrt_stubs.obj
 0001:00013c50       ___acrt_initialize         00414c50 f   MSVCRT:ucrt_stubs.obj
 0001:00013c50       ___acrt_uninitialize       00414c50 f   MSVCRT:ucrt_stubs.obj
 0001:00013c50       __should_initialize_environment 00414c50 f   MSVCRT:env_mode.obj
 0001:00013c50       ___scrt_stub_for_acrt_initialize 00414c50 f   MSVCRT:ucrt_stubs.obj
 0001:00013c50       _Curl_auth_is_ntlm_supported 00414c50 f   libcurl:ntlm.obj
 0001:00013c50       _Curl_auth_is_digest_supported 00414c50 f   libcurl:digest.obj
 0001:00013c50       ___vcrt_uninitialize       00414c50 f   MSVCRT:ucrt_stubs.obj
 0001:00013c50       ___scrt_stub_for_acrt_uninitialize 00414c50 f   MSVCRT:ucrt_stubs.obj
 0001:00013c53       __initialize_default_precision 00414c53 f   MSVCRT:default_precision.obj
 0001:00013c74       ___local_stdio_scanf_options 00414c74 f i MSVCRT:default_local_stdio_options.obj
 0001:00013c7a       ___scrt_initialize_default_local_stdio_options 00414c7a f   MSVCRT:default_local_stdio_options.obj
 0001:00013c97       ___scrt_is_user_matherr_present 00414c97 f   MSVCRT:matherr_detection.obj
 0001:00013ca3       ___scrt_get_dyn_tls_init_callback 00414ca3 f   MSVCRT:dyn_tls_init.obj
 0001:00013ca9       ___scrt_get_dyn_tls_dtor_callback 00414ca9 f   MSVCRT:dyn_tls_dtor.obj
 0001:00013caf       __RTC_Initialize           00414caf f   MSVCRT:initsect.obj
 0001:00013cdb       __RTC_Terminate            00414cdb f   MSVCRT:initsect.obj
 0001:00013d10       _curl_easy_cleanup         00414d10 f   libcurl:easy.obj
 0001:00013d30       _curl_easy_init            00414d30 f   libcurl:easy.obj
 0001:00013d70       _curl_easy_perform         00414d70 f   libcurl:easy.obj
 0001:00013d90       _curl_global_init          00414d90 f   libcurl:easy.obj
 0001:00013fb0       _Curl_setblobopt           00414fb0 f   libcurl:setopt.obj
 0001:00014050       _Curl_setstropt            00415050 f   libcurl:setopt.obj
 0001:000140c0       _Curl_vsetopt              004150c0 f   libcurl:setopt.obj
 0001:00016d30       _curl_easy_setopt          00417d30 f   libcurl:setopt.obj
 0001:00016e20       _Curl_slist_append_nodup   00417e20 f   libcurl:slist.obj
 0001:00016e60       _curl_slist_append         00417e60 f   libcurl:slist.obj
 0001:00016ea0       _curl_slist_free_all       00417ea0 f   libcurl:slist.obj
 0001:00016f00       _Curl_attach_connnection   00417f00 f   libcurl:multi.obj
 0001:00016f30       _Curl_detach_connnection   00417f30 f   libcurl:multi.obj
 0001:00016f60       _Curl_expire               00417f60 f   libcurl:multi.obj
 0001:000170c0       _Curl_expire_clear         004180c0 f   libcurl:multi.obj
 0001:00017160       _Curl_expire_done          00418160 f   libcurl:multi.obj
 0001:00017170       _Curl_multi_closed         00418170 f   libcurl:multi.obj
 0001:000171d0       _Curl_multi_handle         004181d0 f   libcurl:multi.obj
 0001:00017320       _Curl_multi_max_host_connections 00418320 f   libcurl:multi.obj
 0001:00017340       _Curl_multi_max_total_connections 00418340 f   libcurl:multi.obj
 0001:00017360       _Curl_multiplex_wanted     00418360 f   libcurl:multi.obj
 0001:00017380       _Curl_preconnect           00418380 f   libcurl:multi.obj
 0001:000173c0       _Curl_set_in_callback      004183c0 f   libcurl:multi.obj
 0001:000173f0       _Curl_update_timer         004183f0 f   libcurl:multi.obj
 0001:00017620       _curl_multi_add_handle     00418620 f   libcurl:multi.obj
 0001:000177b0       _curl_multi_cleanup        004187b0 f   libcurl:multi.obj
 0001:000178b0       _curl_multi_info_read      004188b0 f   libcurl:multi.obj
 0001:00017920       _curl_multi_perform        00418920 f   libcurl:multi.obj
 0001:00017a30       _curl_multi_poll           00418a30 f   libcurl:multi.obj
 0001:00017a50       _curl_multi_remove_handle  00418a50 f   libcurl:multi.obj
 0001:00017c20       _curl_multi_setopt         00418c20 f   libcurl:multi.obj
 0001:00017d90       _curl_multi_timeout        00418d90 f   libcurl:multi.obj
 0001:000199c0       _Curl_resolver_cleanup     0041a9c0 f   libcurl:asyn-thread.obj
 0001:00019d00       _Curl_free_idnconverted_hostname 0041ad00 f   libcurl:url.obj
 0001:00019da0       _Curl_cookie_add           0041ada0 f   libcurl:cookie.obj
 0001:0001aad0       _Curl_cookie_cleanup       0041bad0 f   libcurl:cookie.obj
 0001:0001ab20       _Curl_cookie_clearall      0041bb20 f   libcurl:cookie.obj
 0001:0001ab60       _Curl_cookie_clearsess     0041bb60 f   libcurl:cookie.obj
 0001:0001abe0       _Curl_cookie_freelist      0041bbe0 f   libcurl:cookie.obj
 0001:0001ac10       _Curl_cookie_getlist       0041bc10 f   libcurl:cookie.obj
 0001:0001ad80       _Curl_cookie_init          0041bd80 f   libcurl:cookie.obj
 0001:0001af60       _Curl_cookie_loadfiles     0041bf60 f   libcurl:cookie.obj
 0001:0001afe0       _Curl_flush_cookies        0041bfe0 f   libcurl:cookie.obj
 0001:0001ba30       _sscanf                    0041ca30 f i libcurl:cookie.obj
 0001:0001bae0       _Curl_resolver_cancel      0041cae0 f   libcurl:asyn-thread.obj
 0001:0001baf0       _Curl_resolver_getaddrinfo 0041caf0 f   libcurl:asyn-thread.obj
 0001:0001bbb0       _Curl_resolver_getsock     0041cbb0 f   libcurl:asyn-thread.obj
 0001:0001bc70       _Curl_resolver_init        0041cc70 f   libcurl:asyn-thread.obj
 0001:0001bca0       _Curl_resolver_is_resolved 0041cca0 f   libcurl:asyn-thread.obj
 0001:0001bdf0       _Curl_resolver_kill        0041cdf0 f   libcurl:asyn-thread.obj
 0001:0001be20       _Curl_resolver_wait_resolv 0041ce20 f   libcurl:asyn-thread.obj
 0001:0001c2b0       _Curl_dyn_add              0041d2b0 f   libcurl:dynbuf.obj
 0001:0001c2e0       _Curl_dyn_addf             0041d2e0 f   libcurl:dynbuf.obj
 0001:0001c300       _Curl_dyn_addn             0041d300 f   libcurl:dynbuf.obj
 0001:0001c310       _Curl_dyn_free             0041d310 f   libcurl:dynbuf.obj
 0001:0001c340       _Curl_dyn_init             0041d340 f   libcurl:dynbuf.obj
 0001:0001c370       _Curl_dyn_len              0041d370 f   libcurl:dynbuf.obj
 0001:0001c380       _Curl_dyn_ptr              0041d380 f   libcurl:dynbuf.obj
 0001:0001c380       _Curl_dyn_uptr             0041d380 f   libcurl:dynbuf.obj
 0001:0001c390       _Curl_dyn_reset            0041d390 f   libcurl:dynbuf.obj
 0001:0001c3b0       _Curl_dyn_vaddf            0041d3b0 f   libcurl:dynbuf.obj
 0001:0001c980       _Curl_mime_add_header      0041d980 f   libcurl:mime.obj
 0001:0001c9e0       _Curl_mime_cleanpart       0041d9e0 f   libcurl:mime.obj
 0001:0001ca50       _Curl_mime_contenttype     0041da50 f   libcurl:mime.obj
 0001:0001cac0       _Curl_mime_initpart        0041dac0 f   libcurl:mime.obj
 0001:0001cb00       _Curl_mime_prepare_headers 0041db00 f   libcurl:mime.obj
 0001:0001ce10       _Curl_mime_read            0041de10 f   libcurl:mime.obj
 0001:0001ce40       _Curl_mime_rewind          0041de40 f   libcurl:mime.obj
 0001:0001ce60       _Curl_mime_set_subparts    0041de60 f   libcurl:mime.obj
 0001:0001cf30       _Curl_mime_size            0041df30 f   libcurl:mime.obj
 0001:0001d140       _curl_mime_addpart         0041e140 f   libcurl:mime.obj
 0001:0001d1a0       _curl_mime_data            0041e1a0 f   libcurl:mime.obj
 0001:0001d240       _curl_mime_data_cb         0041e240 f   libcurl:mime.obj
 0001:0001d290       _curl_mime_filedata        0041e290 f   libcurl:mime.obj
 0001:0001d3b0       _curl_mime_filename        0041e3b0 f   libcurl:mime.obj
 0001:0001d400       _curl_mime_free            0041e400 f   libcurl:mime.obj
 0001:0001d450       _curl_mime_headers         0041e450 f   libcurl:mime.obj
 0001:0001d4a0       _curl_mime_init            0041e4a0 f   libcurl:mime.obj
 0001:0001d520       _curl_mime_name            0041e520 f   libcurl:mime.obj
 0001:0001d570       _curl_mime_subparts        0041e570 f   libcurl:mime.obj
 0001:0001d590       _curl_mime_type            0041e590 f   libcurl:mime.obj
 0001:0001e220       _Curl_conncache_add_conn   0041f220 f   libcurl:conncache.obj
 0001:0001e320       _Curl_conncache_close_all_connections 0041f320 f   libcurl:conncache.obj
 0001:0001e3d0       _Curl_conncache_destroy    0041f3d0 f   libcurl:conncache.obj
 0001:0001e3f0       _Curl_conncache_extract_bundle 0041f3f0 f   libcurl:conncache.obj
 0001:0001e4a0       _Curl_conncache_extract_oldest 0041f4a0 f   libcurl:conncache.obj
 0001:0001e5d0       _Curl_conncache_find_bundle 0041f5d0 f   libcurl:conncache.obj
 0001:0001e670       _Curl_conncache_foreach    0041f670 f   libcurl:conncache.obj
 0001:0001e740       _Curl_conncache_init       0041f740 f   libcurl:conncache.obj
 0001:0001e7b0       _Curl_conncache_remove_conn 0041f7b0 f   libcurl:conncache.obj
 0001:0001e840       _Curl_conncache_return_conn 0041f840 f   libcurl:conncache.obj
 0001:0001e8c0       _Curl_conncache_size       0041f8c0 f   libcurl:conncache.obj
 0001:0001f380       _Curl_builtin_scheme       00420380 f   libcurl:url.obj
 0001:0001f3c0       _Curl_close                004203c0 f   libcurl:url.obj
 0001:0001f740       _Curl_connect              00420740 f   libcurl:url.obj
 0001:0001f800       _Curl_disconnect           00420800 f   libcurl:url.obj
 0001:0001f890       _Curl_free_request_state   00420890 f   libcurl:url.obj
 0001:0001f900       _Curl_freeset              00420900 f   libcurl:url.obj
 0001:0001f9d0       _Curl_idnconvert_hostname  004209d0 f   libcurl:url.obj
 0001:0001fa00       _Curl_init_do              00420a00 f   libcurl:url.obj
 0001:0001fad0       _Curl_init_userdefined     00420ad0 f   libcurl:url.obj
 0001:0001fd20       _Curl_is_ASCII_name        00420d20 f   libcurl:url.obj
 0001:0001fd50       _Curl_open                 00420d50 f   libcurl:url.obj
 0001:0001fe30       _Curl_parse_login_details  00420e30 f   libcurl:url.obj
 0001:00020050       _Curl_setup_conn           00421050 f   libcurl:url.obj
 0001:00020150       _Curl_uc_to_curlcode       00421150 f   libcurl:url.obj
 0001:00020190       _Curl_verboseconnect       00421190 f   libcurl:url.obj
 0001:00023180       _Curl_initinfo             00424180 f   libcurl:getinfo.obj
 0001:00023320       _Curl_memdup               00424320 f   libcurl:strdup.obj
 0001:00023350       _Curl_saferealloc          00424350 f   libcurl:strdup.obj
 0001:00023380       _Curl_client_write         00424380 f   libcurl:sendf.obj
 0001:000233b0       _Curl_debug                004243b0 f   libcurl:sendf.obj
 0001:00023440       _Curl_failf                00424440 f   libcurl:sendf.obj
 0001:00023500       _Curl_infof                00424500 f   libcurl:sendf.obj
 0001:000235c0       _Curl_read                 004245c0 f   libcurl:sendf.obj
 0001:00023630       _Curl_read_plain           00424630 f   libcurl:sendf.obj
 0001:00023680       _Curl_recv_has_postponed_data 00424680 f   libcurl:sendf.obj
 0001:000236b0       _Curl_recv_plain           004246b0 f   libcurl:sendf.obj
 0001:000237b0       _Curl_send_plain           004247b0 f   libcurl:sendf.obj
 0001:000238a0       _Curl_write                004248a0 f   libcurl:sendf.obj
 0001:00023910       _Curl_write_plain          00424910 f   libcurl:sendf.obj
 0001:00023cd0       _Curl_addr2string          00424cd0 f   libcurl:connect.obj
 0001:00023d70       _Curl_closesocket          00424d70 f   libcurl:connect.obj
 0001:00023df0       _Curl_conn_data_pending    00424df0 f   libcurl:connect.obj
 0001:00023e40       _Curl_connalive            00424e40 f   libcurl:connect.obj
 0001:00023e80       _Curl_conncontrol          00424e80 f   libcurl:connect.obj
 0001:00023ed0       _Curl_connecthost          00424ed0 f   libcurl:connect.obj
 0001:00024040       _Curl_conninfo_local       00425040 f   libcurl:connect.obj
 0001:00024120       _Curl_conninfo_remote      00425120 f   libcurl:connect.obj
 0001:00024220       _Curl_is_connected         00425220 f   libcurl:connect.obj
 0001:00024750       _Curl_persistconninfo      00425750 f   libcurl:connect.obj
 0001:00024820       _Curl_sndbufset            00425820 f   libcurl:connect.obj
 0001:000248c0       _Curl_socket               004258c0 f   libcurl:connect.obj
 0001:000249e0       _Curl_timeleft             004259e0 f   libcurl:connect.obj
 0001:00024b60       _Curl_updateconninfo       00425b60 f   libcurl:connect.obj
 0001:00025930       _curlx_read                00426930 f   libcurl:warnless.obj
 0001:00025950       _curlx_uztosi              00426950 f   libcurl:warnless.obj
 0001:00025950       _curlx_sltosi              00426950 f   libcurl:warnless.obj
 0001:00025950       _curlx_uztosz              00426950 f   libcurl:warnless.obj
 0001:00025960       _curlx_uztoui              00426960 f   libcurl:warnless.obj
 0001:00025960       _curlx_sltoui              00426960 f   libcurl:warnless.obj
 0001:00025960       _curlx_sotouz              00426960 f   libcurl:warnless.obj
 0001:00025970       _curlx_sltous              00426970 f   libcurl:warnless.obj
 0001:00025970       _curlx_ultous              00426970 f   libcurl:warnless.obj
 0001:00025970       _curlx_uitous              00426970 f   libcurl:warnless.obj
 0001:00025980       _curlx_ultouc              00426980 f   libcurl:warnless.obj
 0001:00025990       _curlx_write               00426990 f   libcurl:warnless.obj
 0001:000259b0       _Curl_http_auth_cleanup_digest 004269b0 f   libcurl:http_digest.obj
 0001:000259e0       _Curl_input_digest         004269e0 f   libcurl:http_digest.obj
 0001:00025a50       _Curl_output_digest        00426a50 f   libcurl:http_digest.obj
 0001:00025bb0       _Curl_load_library         00426bb0 f   libcurl:system_win32.obj
 0001:00025d00       _Curl_win32_init           00426d00 f   libcurl:system_win32.obj
 0001:00025dc0       _Curl_alpnid2str           00426dc0 f   libcurl:altsvc.obj
 0001:00025df0       _Curl_altsvc_cleanup       00426df0 f   libcurl:altsvc.obj
 0001:00025e40       _Curl_altsvc_ctrl          00426e40 f   libcurl:altsvc.obj
 0001:00025e60       _Curl_altsvc_init          00426e60 f   libcurl:altsvc.obj
 0001:00025e90       _Curl_altsvc_load          00426e90 f   libcurl:altsvc.obj
 0001:00025ea0       _Curl_altsvc_lookup        00426ea0 f   libcurl:altsvc.obj
 0001:00025f40       _Curl_altsvc_parse         00426f40 f   libcurl:altsvc.obj
 0001:00026420       _Curl_altsvc_save          00427420 f   libcurl:altsvc.obj
 0001:00026a60       _Curl_raw_toupper          00427a60 f   libcurl:strcase.obj
 0001:00026a80       _Curl_safe_strcasecompare  00427a80 f   libcurl:strcase.obj
 0001:00026ab0       _Curl_strcasecompare       00427ab0 f   libcurl:strcase.obj
 0001:00026b20       _Curl_strncasecompare      00427b20 f   libcurl:strcase.obj
 0001:00026bb0       _Curl_strntolower          00427bb0 f   libcurl:strcase.obj
 0001:00026bf0       _Curl_strntoupper          00427bf0 f   libcurl:strcase.obj
 0001:00026c30       _curl_strequal             00427c30 f   libcurl:strcase.obj
 0001:00026c40       _curl_strnequal            00427c40 f   libcurl:strcase.obj
 0001:00026d40       _Curl_all_content_encodings 00427d40 f   libcurl:content_encoding.obj
 0001:00026e40       _Curl_build_unencoding_stack 00427e40 f   libcurl:content_encoding.obj
 0001:00026f50       _Curl_unencode_cleanup     00427f50 f   libcurl:content_encoding.obj
 0001:00026f90       _Curl_unencode_write       00427f90 f   libcurl:content_encoding.obj
 0001:00027070       _Curl_share_lock           00428070 f   libcurl:share.obj
 0001:000270b0       _Curl_share_unlock         004280b0 f   libcurl:share.obj
 0001:000270f0       _Curl_now                  004280f0 f   libcurl:timeval.obj
 0001:00027190       _Curl_timediff             00428190 f   libcurl:timeval.obj
 0001:00027220       _Curl_timediff_us          00428220 f   libcurl:timeval.obj
 0001:00027290       _Curl_llist_count          00428290 f   libcurl:llist.obj
 0001:00027290       _Curl_ftp_parselist_geterror 00428290 f   libcurl:ftplistparser.obj
 0001:000272a0       _Curl_llist_destroy        004282a0 f   libcurl:llist.obj
 0001:000272d0       _Curl_llist_init           004282d0 f   libcurl:llist.obj
 0001:00027300       _Curl_llist_insert_next    00428300 f   libcurl:llist.obj
 0001:00027380       _Curl_llist_remove         00428380 f   libcurl:llist.obj
 0001:00027400       _Curl_hash_add             00428400 f   libcurl:hash.obj
 0001:00027490       _Curl_hash_clean           00428490 f   libcurl:hash.obj
 0001:000274b0       _Curl_hash_clean_with_criterium 004284b0 f   libcurl:hash.obj
 0001:00027530       _Curl_hash_delete          00428530 f   libcurl:hash.obj
 0001:000275b0       _Curl_hash_destroy         004285b0 f   libcurl:hash.obj
 0001:00027600       _Curl_hash_init            00428600 f   libcurl:hash.obj
 0001:00027690       _Curl_hash_next_element    00428690 f   libcurl:hash.obj
 0001:00027700       _Curl_hash_pick            00428700 f   libcurl:hash.obj
 0001:00027770       _Curl_hash_start_iterate   00428770 f   libcurl:hash.obj
 0001:00027790       _Curl_hash_str             00428790 f   libcurl:hash.obj
 0001:000277e0       _Curl_str_key_compare      004287e0 f   libcurl:hash.obj
 0001:000278d0       _Curl_ipv6works            004288d0 f   libcurl:hostip6.obj
 0001:00027920       _Curl_ipvalid              00428920 f   libcurl:hostip6.obj
 0001:00027940       _Curl_cache_addr           00428940 f   libcurl:hostip.obj
 0001:00027a60       _Curl_fetch_addr           00428a60 f   libcurl:hostip.obj
 0001:00027ab0       _Curl_hostcache_clean      00428ab0 f   libcurl:hostip.obj
 0001:00027b00       _Curl_hostcache_prune      00428b00 f   libcurl:hostip.obj
 0001:00027b70       _Curl_loadhostpairs        00428b70 f   libcurl:hostip.obj
 0001:00028000       _Curl_mk_dnscache          00429000 f   libcurl:hostip.obj
 0001:00028030       _Curl_num_addresses        00429030 f   libcurl:hostip.obj
 0001:00028050       _Curl_once_resolved        00429050 f   libcurl:hostip.obj
 0001:000280b0       _Curl_printable_address    004290b0 f   libcurl:hostip.obj
 0001:00028100       _Curl_resolv               00429100 f   libcurl:hostip.obj
 0001:00028330       _Curl_resolv_check         00429330 f   libcurl:hostip.obj
 0001:00028360       _Curl_resolv_getsock       00429360 f   libcurl:hostip.obj
 0001:00028380       _Curl_resolv_timeout       00429380 f   libcurl:hostip.obj
 0001:000283c0       _Curl_resolv_unlock        004293c0 f   libcurl:hostip.obj
 0001:00028410       _Curl_resolver_error       00429410 f   libcurl:hostip.obj
 0001:00028830       _Curl_splay                00429830 f   libcurl:splay.obj
 0001:00028990       _Curl_splaygetbest         00429990 f   libcurl:splay.obj
 0001:00028a40       _Curl_splayinsert          00429a40 f   libcurl:splay.obj
 0001:00028b40       _Curl_splayremove          00429b40 f   libcurl:splay.obj
 0001:00028d00       _Curl_http                 00429d00 f   libcurl:http.obj
 0001:000292d0       _Curl_http_done            0042a2d0 f   libcurl:http.obj
 0001:000293b0       _Curl_http_connect         0042a3b0 f   libcurl:http.obj
 0001:00029430       _Curl_add_custom_headers   0042a430 f   libcurl:http.obj
 0001:00029760       _Curl_add_timecondition    0042a760 f   libcurl:http.obj
 0001:000298a0       _Curl_buffer_send          0042a8a0 f   libcurl:http.obj
 0001:00029b20       _Curl_checkProxyheaders    0042ab20 f   libcurl:http.obj
 0001:00029ba0       _Curl_compareheader        0042aba0 f   libcurl:http.obj
 0001:00029c70       _Curl_copy_header_value    0042ac70 f   libcurl:http.obj
 0001:00029d40       _Curl_http_auth_act        0042ad40 f   libcurl:http.obj
 0001:00029f50       _Curl_http_body            0042af50 f   libcurl:http.obj
 0001:0002a130       _Curl_http_bodysend        0042b130 f   libcurl:http.obj
 0001:0002a870       _Curl_http_compile_trailers 0042b870 f   libcurl:http.obj
 0001:0002a900       _Curl_http_cookies         0042b900 f   libcurl:http.obj
 0001:0002aa90       _Curl_http_firstwrite      0042ba90 f   libcurl:http.obj
 0001:0002aba0       _Curl_http_header          0042bba0 f   libcurl:http.obj
 0001:0002b270       _Curl_http_host            0042c270 f   libcurl:http.obj
 0001:0002b4a0       _Curl_http_input_auth      0042c4a0 f   libcurl:http.obj
 0001:0002b670       _Curl_http_method          0042c670 f   libcurl:http.obj
 0001:0002b720       _Curl_http_output_auth     0042c720 f   libcurl:http.obj
 0001:0002b870       _Curl_http_range           0042c870 f   libcurl:http.obj
 0001:0002b9b0       _Curl_http_readwrite_headers 0042c9b0 f   libcurl:http.obj
 0001:0002c250       _Curl_http_resume          0042d250 f   libcurl:http.obj
 0001:0002c440       _Curl_http_statusline      0042d440 f   libcurl:http.obj
 0001:0002c560       _Curl_http_target          0042d560 f   libcurl:http.obj
 0001:0002c750       _Curl_http_useragent       0042d750 f   libcurl:http.obj
 0001:0002d190       _Curl_wildcard_dtor        0042e190 f   libcurl:wildcard.obj
 0001:0002d200       _Curl_wildcard_init        0042e200 f   libcurl:wildcard.obj
 0001:0002d240       _Curl_socketpair           0042e240 f   libcurl:socketpair.obj
 0001:0002d430       _Curl_checkheaders         0042e430 f   libcurl:transfer.obj
 0001:0002d490       _Curl_done_sending         0042e490 f   libcurl:transfer.obj
 0001:0002d4c0       _Curl_fillreadbuffer       0042e4c0 f   libcurl:transfer.obj
 0001:0002d880       _Curl_follow               0042e880 f   libcurl:transfer.obj
 0001:0002dbe0       _Curl_get_upload_buffer    0042ebe0 f   libcurl:transfer.obj
 0001:0002dc20       _Curl_init_CONNECT         0042ec20 f   libcurl:transfer.obj
 0001:0002dc40       _Curl_meets_timecondition  0042ec40 f   libcurl:transfer.obj
 0001:0002dcb0       _Curl_pretransfer          0042ecb0 f   libcurl:transfer.obj
 0001:0002dfd0       _Curl_readrewind           0042efd0 f   libcurl:transfer.obj
 0001:0002e140       _Curl_readwrite            0042f140 f   libcurl:transfer.obj
 0001:0002e460       _Curl_retry_request        0042f460 f   libcurl:transfer.obj
 0001:0002e5c0       _Curl_setup_transfer       0042f5c0 f   libcurl:transfer.obj
 0001:0002e760       _Curl_single_getsock       0042f760 f   libcurl:transfer.obj
 0001:0002f2e0       _curlx_nonblock            004302e0 f   libcurl:nonblock.obj
 0001:0002f310       _Curl_pgrsDone             00430310 f   libcurl:progress.obj
 0001:0002f370       _Curl_pgrsLimitWaitTime    00430370 f   libcurl:progress.obj
 0001:0002f440       _Curl_pgrsResetTransferSizes 00430440 f   libcurl:progress.obj
 0001:0002f460       _Curl_pgrsSetDownloadCounter 00430460 f   libcurl:progress.obj
 0001:0002f480       _Curl_pgrsSetDownloadSize  00430480 f   libcurl:progress.obj
 0001:0002f4d0       _Curl_pgrsSetUploadCounter 004304d0 f   libcurl:progress.obj
 0001:0002f4f0       _Curl_pgrsSetUploadSize    004304f0 f   libcurl:progress.obj
 0001:0002f540       _Curl_pgrsStartNow         00430540 f   libcurl:progress.obj
 0001:0002f5e0       _Curl_pgrsTime             004305e0 f   libcurl:progress.obj
 0001:0002f750       _Curl_pgrsUpdate           00430750 f   libcurl:progress.obj
 0001:0002f8e0       _Curl_ratelimit            004308e0 f   libcurl:progress.obj
 0001:000304e0       _Curl_poll                 004314e0 f   libcurl:select.obj
 0001:00030790       _Curl_socket_check         00431790 f   libcurl:select.obj
 0001:000308a0       _Curl_wait_ms              004318a0 f   libcurl:select.obj
 0001:00030a20       _Curl_speedcheck           00431a20 f   libcurl:speedcheck.obj
 0001:00030b20       _Curl_speedinit            00431b20 f   libcurl:speedcheck.obj
 0001:000314b0       _Curl_connect_complete     004324b0 f   libcurl:http_proxy.obj
 0001:000314d0       _Curl_connect_free         004324d0 f   libcurl:http_proxy.obj
 0001:00031500       _Curl_connect_ongoing      00432500 f   libcurl:http_proxy.obj
 0001:00031520       _Curl_proxyCONNECT         00432520 f   libcurl:http_proxy.obj
 0001:00031580       _Curl_proxy_connect        00432580 f   libcurl:http_proxy.obj
 0001:00031780       _Curl_SOCKS4               00432780 f   libcurl:socks.obj
 0001:00031e00       _Curl_SOCKS5               00432e00 f   libcurl:socks.obj
 0001:000329d0       _Curl_SOCKS_getsock        004339d0 f   libcurl:socks.obj
 0001:00032a50       _Curl_dyn_vprintf          00433a50 f   libcurl:mprintf.obj
 0001:00032b10       _curl_maprintf             00433b10 f   libcurl:mprintf.obj
 0001:00032b30       _curl_mfprintf             00433b30 f   libcurl:mprintf.obj
 0001:00032b50       _curl_msnprintf            00433b50 f   libcurl:mprintf.obj
 0001:00032b70       _curl_mvaprintf            00433b70 f   libcurl:mprintf.obj
 0001:00032bf0       _curl_mvsnprintf           00433bf0 f   libcurl:mprintf.obj
 0001:00033fd0       _curlx_win32_access        00434fd0 f   libcurl:curl_multibyte.obj
 0001:00033fe0       _curlx_win32_fopen         00434fe0 f   libcurl:curl_multibyte.obj
 0001:00033ff0       _curlx_win32_open          00434ff0 f   libcurl:curl_multibyte.obj
 0001:00034020       _curlx_win32_stat          00435020 f   libcurl:curl_multibyte.obj
 0001:00034030       _Curl_strtok_r             00435030 f   libcurl:strtok.obj
 0001:000340b0       _curlx_strtoofft           004350b0 f   libcurl:strtoofft.obj
 0001:00034170       _Curl_get_line             00435170 f   libcurl:curl_get_line.obj
 0001:000341e0       _Curl_memrchr              004351e0 f   libcurl:curl_memrchr.obj
 0001:00034210       _Curl_inet_pton            00435210 f   libcurl:inet_pton.obj
 0001:00034520       _Curl_getdate_capped       00435520 f   libcurl:parsedate.obj
 0001:00034590       _Curl_gmtime               00435590 f   libcurl:parsedate.obj
 0001:00034c50       _Curl_rand                 00435c50 f   libcurl:rand.obj
 0001:00034cb0       _Curl_rand_hex             00435cb0 f   libcurl:rand.obj
 0001:00034df0       _Curl_rename               00435df0 f   libcurl:rename.obj
 0001:00034ed0       _Curl_freeaddrinfo         00435ed0 f   libcurl:curl_addrinfo.obj
 0001:00034f00       _Curl_getaddrinfo_ex       00435f00 f   libcurl:curl_addrinfo.obj
 0001:00035090       _Curl_he2ai                00436090 f   libcurl:curl_addrinfo.obj
 0001:000351d0       _Curl_ip2addr              004361d0 f   libcurl:curl_addrinfo.obj
 0001:000352a0       _Curl_str2addr             004362a0 f   libcurl:curl_addrinfo.obj
 0001:00035330       _Curl_unix2addr            00436330 f   libcurl:curl_addrinfo.obj
 0001:000353e0       _Curl_addrinfo_callback    004363e0 f   libcurl:hostasyn.obj
 0001:00035470       _Curl_getaddrinfo          00436470 f   libcurl:hostasyn.obj
 0001:00035480       _Curl_thread_create        00436480 f   libcurl:curl_threads.obj
 0001:000354b0       _Curl_thread_destroy       004364b0 f   libcurl:curl_threads.obj
 0001:000354c0       _Curl_thread_join          004364c0 f   libcurl:curl_threads.obj
 0001:000379f0       _Curl_pop3_write           004389f0 f   libcurl:pop3.obj
 0001:00038c10       _Curl_smtp_escape_eob      00439c10 f   libcurl:smtp.obj
 0001:0003ae40       _Curl_GetFTPResponse       0043be40 f   libcurl:ftp.obj
 0001:000443c0       _Curl_rtsp_parseheader     004453c0 f   libcurl:rtsp.obj
 0001:00046340       _curl_getenv               00447340 f   libcurl:getenv.obj
 0001:00046350       _Curl_is_absolute_url      00447350 f   libcurl:urlapi.obj
 0001:00046760       _curl_url                  00447760 f   libcurl:urlapi.obj
 0001:00046770       _curl_url_cleanup          00447770 f   libcurl:urlapi.obj
 0001:00046790       _curl_url_dup              00447790 f   libcurl:urlapi.obj
 0001:000468b0       _curl_url_get              004478b0 f   libcurl:urlapi.obj
 0001:00046dc0       _curl_url_set              00447dc0 f   libcurl:urlapi.obj
 0001:00047ed0       _Curl_isalnum              00448ed0 f   libcurl:curl_ctype.obj
 0001:00047ef0       _Curl_isalpha              00448ef0 f   libcurl:curl_ctype.obj
 0001:00047f10       _Curl_iscntrl              00448f10 f   libcurl:curl_ctype.obj
 0001:00047f30       _Curl_isdigit              00448f30 f   libcurl:curl_ctype.obj
 0001:00047f50       _Curl_isgraph              00448f50 f   libcurl:curl_ctype.obj
 0001:00047f70       _Curl_islower              00448f70 f   libcurl:curl_ctype.obj
 0001:00047f90       _Curl_isprint              00448f90 f   libcurl:curl_ctype.obj
 0001:00047fb0       _Curl_isspace              00448fb0 f   libcurl:curl_ctype.obj
 0001:00047fd0       _Curl_isupper              00448fd0 f   libcurl:curl_ctype.obj
 0001:00048000       _Curl_isxdigit             00449000 f   libcurl:curl_ctype.obj
 0001:00048020       _Curl_parsenetrc           00449020 f   libcurl:netrc.obj
 0001:00048580       _Curl_clone_primary_ssl_config 00449580 f   libcurl:vtls.obj
 0001:00048720       _Curl_free_primary_ssl_config 00449720 f   libcurl:vtls.obj
 0001:000487d0       _Curl_ssl_config_matches   004497d0 f   libcurl:vtls.obj
 0001:000489f0       _Curl_isunreserved         004499f0 f   libcurl:escape.obj
 0001:00048a80       _Curl_urldecode            00449a80 f   libcurl:escape.obj
 0001:00048ba0       _Curl_http_auth_cleanup_ntlm 00449ba0 f   libcurl:http_ntlm.obj
 0001:00048bd0       _Curl_input_ntlm           00449bd0 f   libcurl:http_ntlm.obj
 0001:00048ce0       _Curl_output_ntlm          00449ce0 f   libcurl:http_ntlm.obj
 0001:00048ef0       _Curl_strerror             00449ef0 f   libcurl:strerror.obj
 0001:00048ff0       _curl_easy_strerror        00449ff0 f   libcurl:strerror.obj
 0001:00049810       _Curl_ipv6_scope           0044a810 f   libcurl:if2ip.obj
 0001:000498b0       _Curl_inet_ntop            0044a8b0 f   libcurl:inet_ntop.obj
 0001:00049be0       _curlx_verify_windows_version 0044abe0 f   libcurl:version_win32.obj
 0001:00049d40       _Curl_auth_create_digest_http_message 0044ad40 f   libcurl:digest.obj
 0001:00049db0       _Curl_auth_create_digest_md5_message 0044adb0 f   libcurl:digest.obj
 0001:0004a300       _Curl_auth_decode_digest_http_message 0044b300 f   libcurl:digest.obj
 0001:0004a7c0       _Curl_auth_digest_cleanup  0044b7c0 f   libcurl:digest.obj
 0001:0004a840       _Curl_auth_digest_get_pair 0044b840 f   libcurl:digest.obj
 0001:0004b120       _Curl_chunked_strerror     0044c120 f   libcurl:http_chunks.obj
 0001:0004b180       _Curl_httpchunk_init       0044c180 f   libcurl:http_chunks.obj
 0001:0004b1b0       _Curl_httpchunk_read       0044c1b0 f   libcurl:http_chunks.obj
 0001:0004b540       _Curl_doh                  0044c540 f   libcurl:doh.obj
 0001:0004b660       _Curl_doh_is_resolved      0044c660 f   libcurl:doh.obj
 0001:0004cab0       _Curl_getformdata          0044dab0 f   libcurl:formdata.obj
 0001:0004cde0       _Curl_base64_decode        0044dde0 f   libcurl:base64.obj
 0001:0004cee0       _Curl_base64_encode        0044dee0 f   libcurl:base64.obj
 0001:0004cf10       _Curl_base64url_encode     0044df10 f   libcurl:base64.obj
 0001:0004d1b0       _Curl_auth_cleanup_ntlm    0044e1b0 f   libcurl:ntlm.obj
 0001:0004d1e0       _Curl_auth_create_ntlm_type1_message 0044e1e0 f   libcurl:ntlm.obj
 0001:0004d290       _Curl_auth_create_ntlm_type3_message 0044e290 f   libcurl:ntlm.obj
 0001:0004d830       _Curl_auth_decode_ntlm_type2_message 0044e830 f   libcurl:ntlm.obj
 0001:0004da50       _Curl_output_aws_sigv4     0044ea50 f   libcurl:http_aws_sigv4.obj
 0001:0004e460       _Curl_fileinfo_alloc       0044f460 f   libcurl:fileinfo.obj
 0001:0004e470       _Curl_fileinfo_cleanup     0044f470 f   libcurl:fileinfo.obj
 0001:0004e4a0       _Curl_pp_disconnect        0044f4a0 f   libcurl:pingpong.obj
 0001:0004e4d0       _Curl_pp_flushsend         0044f4d0 f   libcurl:pingpong.obj
 0001:0004e550       _Curl_pp_getsock           0044f550 f   libcurl:pingpong.obj
 0001:0004e580       _Curl_pp_init              0044f580 f   libcurl:pingpong.obj
 0001:0004e5c0       _Curl_pp_moredata          0044f5c0 f   libcurl:pingpong.obj
 0001:0004e5f0       _Curl_pp_readresp          0044f5f0 f   libcurl:pingpong.obj
 0001:0004e8b0       _Curl_pp_sendf             0044f8b0 f   libcurl:pingpong.obj
 0001:0004e8d0       _Curl_pp_setup             0044f8d0 f   libcurl:pingpong.obj
 0001:0004e8f0       _Curl_pp_state_timeout     0044f8f0 f   libcurl:pingpong.obj
 0001:0004e9c0       _Curl_pp_statemach         0044f9c0 f   libcurl:pingpong.obj
 0001:0004eb10       _Curl_pp_vsendf            0044fb10 f   libcurl:pingpong.obj
 0001:0004ec10       _Curl_sasl_can_authenticate 0044fc10 f   libcurl:curl_sasl.obj
 0001:0004ec40       _Curl_sasl_cleanup         0044fc40 f   libcurl:curl_sasl.obj
 0001:0004ec60       _Curl_sasl_continue        0044fc60 f   libcurl:curl_sasl.obj
 0001:0004f110       _Curl_sasl_decode_mech     00450110 f   libcurl:curl_sasl.obj
 0001:0004f210       _Curl_sasl_init            00450210 f   libcurl:curl_sasl.obj
 0001:0004f250       _Curl_sasl_parse_url_auth_option 00450250 f   libcurl:curl_sasl.obj
 0001:0004f2d0       _Curl_sasl_start           004502d0 f   libcurl:curl_sasl.obj
 0001:0004f760       _Curl_MD5_final            00450760 f   libcurl:md5.obj
 0001:0004f790       _Curl_MD5_init             00450790 f   libcurl:md5.obj
 0001:0004f7e0       _Curl_MD5_update           004507e0 f   libcurl:md5.obj
 0001:0004f7e0       _Curl_HMAC_update          004507e0 f   libcurl:hmac.obj
 0001:0004f800       _Curl_md5it                00450800 f   libcurl:md5.obj
 0001:0004f840       _Curl_gethostname          00450840 f   libcurl:curl_gethostname.obj
 0001:0004f880       _Curl_ftp_parselist        00450880 f   libcurl:ftplistparser.obj
 0001:00050420       _Curl_ftp_parselist_data_alloc 00451420 f   libcurl:ftplistparser.obj
 0001:00050430       _Curl_ftp_parselist_data_free 00451430 f   libcurl:ftplistparser.obj
 0001:000506b0       _Curl_range                004516b0 f   libcurl:curl_range.obj
 0001:00050810       _Curl_ntlm_core_lm_resp    00451810 f   libcurl:curl_ntlm_core.obj
 0001:00050850       _Curl_ntlm_core_mk_lm_hash 00451850 f   libcurl:curl_ntlm_core.obj
 0001:00050900       _Curl_ntlm_core_mk_lmv2_resp 00451900 f   libcurl:curl_ntlm_core.obj
 0001:00050980       _Curl_ntlm_core_mk_nt_hash 00451980 f   libcurl:curl_ntlm_core.obj
 0001:00050a10       _Curl_ntlm_core_mk_ntlmv2_hash 00451a10 f   libcurl:curl_ntlm_core.obj
 0001:00050aa0       _Curl_ntlm_core_mk_ntlmv2_resp 00451aa0 f   libcurl:curl_ntlm_core.obj
 0001:00050e00       _Curl_read16_be            00451e00 f   libcurl:curl_endian.obj
 0001:00050e20       _Curl_read16_le            00451e20 f   libcurl:curl_endian.obj
 0001:00050e40       _Curl_read32_le            00451e40 f   libcurl:curl_endian.obj
 0001:00050e70       _Curl_dedotdotify          00451e70 f   libcurl:dotdot.obj
 0001:000510f0       _Curl_auth_build_spn       004520f0 f   libcurl:vauth.obj
 0001:000511f0       _Curl_sha256it             004521f0 f   libcurl:sha256.obj
 0001:00051230       _Curl_HMAC_final           00452230 f   libcurl:hmac.obj
 0001:00051280       _Curl_HMAC_init            00452280 f   libcurl:hmac.obj
 0001:00051390       _Curl_hmacit               00452390 f   libcurl:hmac.obj
 0001:000513e0       _Curl_auth_create_external_message 004523e0 f   libcurl:cleartext.obj
 0001:000513f0       _Curl_auth_create_login_message 004523f0 f   libcurl:cleartext.obj
 0001:00051460       _Curl_auth_create_plain_message 00452460 f   libcurl:cleartext.obj
 0001:00051570       _Curl_auth_create_cram_md5_message 00452570 f   libcurl:cram.obj
 0001:000516c0       _Curl_auth_decode_cram_md5_message 004526c0 f   libcurl:cram.obj
 0001:00051710       _Curl_auth_create_oauth_bearer_message 00452710 f   libcurl:oauth2.obj
 0001:00051790       _Curl_auth_create_xoauth_bearer_message 00452790 f   libcurl:oauth2.obj
 0001:000517f0       _Curl_fnmatch              004527f0 f   libcurl:curl_fnmatch.obj
 0001:00052110       _Curl_des_set_odd_parity   00453110 f   libcurl:curl_des.obj
 0001:00052160       _Curl_md4it                00453160 f   libcurl:md4.obj
 0001:000521e3       ___WSAFDIsSet@8            004531e3 f   ws2_32:WS2_32.dll
 0001:000521e9       ___CxxFrameHandler3        004531e9 f   vcruntime:VCRUNTIME140.dll
 0001:000521ef       ___std_terminate           004531ef f   vcruntime:VCRUNTIME140.dll
 0001:000521f5       ___current_exception       004531f5 f   vcruntime:VCRUNTIME140.dll
 0001:000521fb       ___current_exception_context 004531fb f   vcruntime:VCRUNTIME140.dll
 0001:00052201       __CxxThrowException@8      00453201 f   vcruntime:VCRUNTIME140.dll
 0001:00052207       __except_handler4_common   00453207 f   vcruntime:VCRUNTIME140.dll
 0001:0005220d       _memset                    0045320d f   vcruntime:VCRUNTIME140.dll
 0001:00052213       _memcpy                    00453213 f   vcruntime:VCRUNTIME140.dll
 0001:00052219       _memmove                   00453219 f   vcruntime:VCRUNTIME140.dll
 0001:0005221f       _memchr                    0045321f f   vcruntime:VCRUNTIME140.dll
 0001:00052225       __callnewh                 00453225 f   ucrt:api-ms-win-crt-heap-l1-1-0.dll
 0001:0005222b       _malloc                    0045322b f   ucrt:api-ms-win-crt-heap-l1-1-0.dll
 0001:00052231       _terminate                 00453231 f   ucrt:api-ms-win-crt-runtime-l1-1-0.dll
 0001:00052237       __configure_narrow_argv    00453237 f   ucrt:api-ms-win-crt-runtime-l1-1-0.dll
 0001:0005223d       __initialize_narrow_environment 0045323d f   ucrt:api-ms-win-crt-runtime-l1-1-0.dll
 0001:00052243       __initialize_onexit_table  00453243 f   ucrt:api-ms-win-crt-runtime-l1-1-0.dll
 0001:00052249       __register_onexit_function 00453249 f   ucrt:api-ms-win-crt-runtime-l1-1-0.dll
 0001:0005224f       __crt_atexit               0045324f f   ucrt:api-ms-win-crt-runtime-l1-1-0.dll
 0001:00052255       __cexit                    00453255 f   ucrt:api-ms-win-crt-runtime-l1-1-0.dll
 0001:0005225b       __seh_filter_exe           0045325b f   ucrt:api-ms-win-crt-runtime-l1-1-0.dll
 0001:00052261       __set_app_type             00453261 f   ucrt:api-ms-win-crt-runtime-l1-1-0.dll
 0001:00052267       ___setusermatherr          00453267 f   ucrt:api-ms-win-crt-math-l1-1-0.dll
 0001:0005226d       __get_narrow_winmain_command_line 0045326d f   ucrt:api-ms-win-crt-runtime-l1-1-0.dll
 0001:00052273       __initterm                 00453273 f   ucrt:api-ms-win-crt-runtime-l1-1-0.dll
 0001:00052279       __initterm_e               00453279 f   ucrt:api-ms-win-crt-runtime-l1-1-0.dll
 0001:0005227f       _exit                      0045327f f   ucrt:api-ms-win-crt-runtime-l1-1-0.dll
 0001:00052285       __exit                     00453285 f   ucrt:api-ms-win-crt-runtime-l1-1-0.dll
 0001:0005228b       __set_fmode                0045328b f   ucrt:api-ms-win-crt-stdio-l1-1-0.dll
 0001:00052291       __c_exit                   00453291 f   ucrt:api-ms-win-crt-runtime-l1-1-0.dll
 0001:00052297       __register_thread_local_exe_atexit_callback 00453297 f   ucrt:api-ms-win-crt-runtime-l1-1-0.dll
 0001:0005229d       __configthreadlocale       0045329d f   ucrt:api-ms-win-crt-locale-l1-1-0.dll
 0001:000522a3       __set_new_mode             004532a3 f   ucrt:api-ms-win-crt-heap-l1-1-0.dll
 0001:000522a9       ___p__commode              004532a9 f   ucrt:api-ms-win-crt-stdio-l1-1-0.dll
 0001:000522af       _free                      004532af f   ucrt:api-ms-win-crt-heap-l1-1-0.dll
 0001:000522b5       __controlfp_s              004532b5 f   ucrt:api-ms-win-crt-runtime-l1-1-0.dll
 0001:000522bb       _realloc                   004532bb f   ucrt:api-ms-win-crt-heap-l1-1-0.dll
 0001:000522c1       _calloc                    004532c1 f   ucrt:api-ms-win-crt-heap-l1-1-0.dll
 0001:000522d0       __alldiv                   004532d0 f   MSVCRT:lldiv.obj
 0001:00052380       __chkstk                   00453380 f   MSVCRT:chkstk.obj
 0001:00052380       __alloca_probe             00453380 f   MSVCRT:chkstk.obj
 0001:000523b0       __dtol3                    004533b0 f   MSVCRT:ftol3.obj
 0001:00052460       __ltod3                    00453460 f   MSVCRT:ftol3.obj
 0001:000524b0       __alldvrm                  004534b0 f   MSVCRT:lldvrm.obj
 0001:00052590       __allmul                   00453590 f   MSVCRT:llmul.obj
 0001:000525d0       __allrem                   004535d0 f   MSVCRT:llrem.obj
 0001:00052690       __aulldvrm                 00453690 f   MSVCRT:ulldvrm.obj
 0001:00052725       __strdup                   00453725 f   ucrt:api-ms-win-crt-string-l1-1-0.dll
 0001:00052725       _strdup                    00453725 f   ucrt:api-ms-win-crt-string-l1-1-0.dll
 0001:0005272b       __filter_x86_sse2_floating_point_exception 0045372b f   MSVCRT:x86_exception_filter.obj
 0001:0005272b       __filter_x86_sse2_floating_point_exception_default 0045372b f   MSVCRT:x86_exception_filter.obj
 0002:00000000       __imp__AdjustTokenPrivileges@24 00457000     advapi32:ADVAPI32.dll
 0002:00000004       __imp__CryptImportKey@24   00457004     advapi32:ADVAPI32.dll
 0002:00000008       __imp__CryptDestroyKey@4   00457008     advapi32:ADVAPI32.dll
 0002:0000000c       __imp__CryptDestroyHash@4  0045700c     advapi32:ADVAPI32.dll
 0002:00000010       __imp__CryptHashData@16    00457010     advapi32:ADVAPI32.dll
 0002:00000014       __imp__CryptCreateHash@20  00457014     advapi32:ADVAPI32.dll
 0002:00000018       __imp__CryptGetHashParam@20 00457018     advapi32:ADVAPI32.dll
 0002:0000001c       __imp__CryptReleaseContext@8 0045701c     advapi32:ADVAPI32.dll
 0002:00000020       __imp__CryptAcquireContextA@20 00457020     advapi32:ADVAPI32.dll
 0002:00000024       __imp__CryptEncrypt@28     00457024     advapi32:ADVAPI32.dll
 0002:00000028       __imp__LookupPrivilegeValueA@12 00457028     advapi32:ADVAPI32.dll
 0002:0000002c       __imp__OpenProcessToken@12 0045702c     advapi32:ADVAPI32.dll
 0002:00000030       \177ADVAPI32_NULL_THUNK_DATA 00457030     advapi32:ADVAPI32.dll
 0002:00000034       __imp__CreateSolidBrush@4  00457034     gdi32:GDI32.dll
 0002:00000038       \177GDI32_NULL_THUNK_DATA  00457038     gdi32:GDI32.dll
 0002:0000003c       __imp__GetCurrentThreadId@0 0045703c     kernel32:KERNEL32.dll
 0002:00000040       __imp__GetSystemTimeAsFileTime@4 00457040     kernel32:KERNEL32.dll
 0002:00000044       __imp__InitializeSListHead@4 00457044     kernel32:KERNEL32.dll
 0002:00000048       __imp__EnterCriticalSection@4 00457048     kernel32:KERNEL32.dll
 0002:0000004c       __imp__LeaveCriticalSection@4 0045704c     kernel32:KERNEL32.dll
 0002:00000050       __imp__GetCurrentProcessId@0 00457050     kernel32:KERNEL32.dll
 0002:00000054       __imp__DeleteCriticalSection@4 00457054     kernel32:KERNEL32.dll
 0002:00000058       __imp__SleepEx@8           00457058     kernel32:KERNEL32.dll
 0002:0000005c       __imp__QueryPerformanceFrequency@4 0045705c     kernel32:KERNEL32.dll
 0002:00000060       __imp__GetSystemDirectoryA@8 00457060     kernel32:KERNEL32.dll
 0002:00000064       __imp__QueryPerformanceCounter@4 00457064     kernel32:KERNEL32.dll
 0002:00000068       __imp__InitializeCriticalSectionEx@12 00457068     kernel32:KERNEL32.dll
 0002:0000006c       __imp__GetStartupInfoW@4   0045706c     kernel32:KERNEL32.dll
 0002:00000070       __imp__IsDebuggerPresent@0 00457070     kernel32:KERNEL32.dll
 0002:00000074       __imp__IsProcessorFeaturePresent@4 00457074     kernel32:KERNEL32.dll
 0002:00000078       __imp__GetModuleHandleW@4  00457078     kernel32:KERNEL32.dll
 0002:0000007c       __imp__GetModuleHandleA@4  0045707c     kernel32:KERNEL32.dll
 0002:00000080       __imp__GetProcAddress@8    00457080     kernel32:KERNEL32.dll
 0002:00000084       __imp__LoadLibraryA@4      00457084     kernel32:KERNEL32.dll
 0002:00000088       __imp__GetTickCount@0      00457088     kernel32:KERNEL32.dll
 0002:0000008c       __imp__Sleep@4             0045708c     kernel32:KERNEL32.dll
 0002:00000090       __imp__MoveFileExA@12      00457090     kernel32:KERNEL32.dll
 0002:00000094       __imp__WaitForSingleObjectEx@12 00457094     kernel32:KERNEL32.dll
 0002:00000098       __imp__GetStdHandle@4      00457098     kernel32:KERNEL32.dll
 0002:0000009c       __imp__GetFileType@4       0045709c     kernel32:KERNEL32.dll
 0002:000000a0       __imp__ReadFile@20         004570a0     kernel32:KERNEL32.dll
 0002:000000a4       __imp__PeekNamedPipe@24    004570a4     kernel32:KERNEL32.dll
 0002:000000a8       __imp__WaitForMultipleObjects@16 004570a8     kernel32:KERNEL32.dll
 0002:000000ac       __imp__GetEnvironmentVariableA@12 004570ac     kernel32:KERNEL32.dll
 0002:000000b0       __imp__GetLastError@0      004570b0     kernel32:KERNEL32.dll
 0002:000000b4       __imp__SetLastError@4      004570b4     kernel32:KERNEL32.dll
 0002:000000b8       __imp__FormatMessageW@28   004570b8     kernel32:KERNEL32.dll
 0002:000000bc       __imp__VerSetConditionMask@16 004570bc     kernel32:KERNEL32.dll
 0002:000000c0       __imp__VerifyVersionInfoA@16 004570c0     kernel32:KERNEL32.dll
 0002:000000c4       __imp__TerminateProcess@8  004570c4     kernel32:KERNEL32.dll
 0002:000000c8       __imp__SetUnhandledExceptionFilter@4 004570c8     kernel32:KERNEL32.dll
 0002:000000cc       __imp__AllocConsole@0      004570cc     kernel32:KERNEL32.dll
 0002:000000d0       __imp__K32EnumProcessModules@16 004570d0     kernel32:KERNEL32.dll
 0002:000000d4       __imp__ReadProcessMemory@20 004570d4     kernel32:KERNEL32.dll
 0002:000000d8       __imp__CloseHandle@4       004570d8     kernel32:KERNEL32.dll
 0002:000000dc       __imp__K32GetModuleFileNameExA@16 004570dc     kernel32:KERNEL32.dll
 0002:000000e0       __imp__OpenProcess@12      004570e0     kernel32:KERNEL32.dll
 0002:000000e4       __imp__GetCurrentProcess@0 004570e4     kernel32:KERNEL32.dll
 0002:000000e8       __imp__UnhandledExceptionFilter@4 004570e8     kernel32:KERNEL32.dll
 0002:000000ec       \177KERNEL32_NULL_THUNK_DATA 004570ec     kernel32:KERNEL32.dll
 0002:000000f0       __imp_?_Getcat@?$codecvt@DDU_Mbstatet@@@std@@SAIPAPBVfacet@locale@2@PBV42@@Z 004570f0     msvcprt:MSVCP140.dll
 0002:000000f4       __imp_??6?$basic_ostream@DU?$char_traits@D@std@@@std@@QAEAAV01@_J@Z 004570f4     msvcprt:MSVCP140.dll
 0002:000000f8       __imp_?sgetc@?$basic_streambuf@DU?$char_traits@D@std@@@std@@QAEHXZ 004570f8     msvcprt:MSVCP140.dll
 0002:000000fc       __imp_?unshift@?$codecvt@DDU_Mbstatet@@@std@@QBEHAAU_Mbstatet@@PAD1AAPAD@Z 004570fc     msvcprt:MSVCP140.dll
 0002:00000100       __imp_??0?$basic_streambuf@DU?$char_traits@D@std@@@std@@IAE@XZ 00457100     msvcprt:MSVCP140.dll
 0002:00000104       __imp_?_Init@?$basic_streambuf@DU?$char_traits@D@std@@@std@@IAEXXZ 00457104     msvcprt:MSVCP140.dll
 0002:00000108       __imp_?in@?$codecvt@DDU_Mbstatet@@@std@@QBEHAAU_Mbstatet@@PBD1AAPBDPAD3AAPAD@Z 00457108     msvcprt:MSVCP140.dll
 0002:0000010c       __imp_?out@?$codecvt@DDU_Mbstatet@@@std@@QBEHAAU_Mbstatet@@PBD1AAPBDPAD3AAPAD@Z 0045710c     msvcprt:MSVCP140.dll
 0002:00000110       __imp_?snextc@?$basic_streambuf@DU?$char_traits@D@std@@@std@@QAEHXZ 00457110     msvcprt:MSVCP140.dll
 0002:00000114       __imp_?_Pninc@?$basic_streambuf@DU?$char_traits@D@std@@@std@@IAEPADXZ 00457114     msvcprt:MSVCP140.dll
 0002:00000118       __imp_??0?$basic_ios@DU?$char_traits@D@std@@@std@@IAE@XZ 00457118     msvcprt:MSVCP140.dll
 0002:0000011c       __imp_??0?$basic_istream@DU?$char_traits@D@std@@@std@@QAE@PAV?$basic_streambuf@DU?$char_traits@D@std@@@1@_N@Z 0045711c     msvcprt:MSVCP140.dll
 0002:00000120       __imp_??1?$basic_streambuf@DU?$char_traits@D@std@@@std@@UAE@XZ 00457120     msvcprt:MSVCP140.dll
 0002:00000124       __imp_?_Lock@?$basic_streambuf@DU?$char_traits@D@std@@@std@@UAEXXZ 00457124     msvcprt:MSVCP140.dll
 0002:00000128       __imp_?_Unlock@?$basic_streambuf@DU?$char_traits@D@std@@@std@@UAEXXZ 00457128     msvcprt:MSVCP140.dll
 0002:0000012c       __imp_?showmanyc@?$basic_streambuf@DU?$char_traits@D@std@@@std@@MAE_JXZ 0045712c     msvcprt:MSVCP140.dll
 0002:00000130       __imp_?uflow@?$basic_streambuf@DU?$char_traits@D@std@@@std@@MAEHXZ 00457130     msvcprt:MSVCP140.dll
 0002:00000134       __imp_?xsgetn@?$basic_streambuf@DU?$char_traits@D@std@@@std@@MAE_JPAD_J@Z 00457134     msvcprt:MSVCP140.dll
 0002:00000138       __imp_?xsputn@?$basic_streambuf@DU?$char_traits@D@std@@@std@@MAE_JPBD_J@Z 00457138     msvcprt:MSVCP140.dll
 0002:0000013c       __imp_?setbuf@?$basic_streambuf@DU?$char_traits@D@std@@@std@@MAEPAV12@PAD_J@Z 0045713c     msvcprt:MSVCP140.dll
 0002:00000140       __imp_?sync@?$basic_streambuf@DU?$char_traits@D@std@@@std@@MAEHXZ 00457140     msvcprt:MSVCP140.dll
 0002:00000144       __imp_?imbue@?$basic_streambuf@DU?$char_traits@D@std@@@std@@MAEXABVlocale@2@@Z 00457144     msvcprt:MSVCP140.dll
 0002:00000148       __imp_??1?$basic_ios@DU?$char_traits@D@std@@@std@@UAE@XZ 00457148     msvcprt:MSVCP140.dll
 0002:0000014c       __imp_??1?$basic_istream@DU?$char_traits@D@std@@@std@@UAE@XZ 0045714c     msvcprt:MSVCP140.dll
 0002:00000150       __imp_??1?$basic_iostream@DU?$char_traits@D@std@@@std@@UAE@XZ 00457150     msvcprt:MSVCP140.dll
 0002:00000154       __imp_?getloc@ios_base@std@@QBE?AVlocale@2@XZ 00457154     msvcprt:MSVCP140.dll
 0002:00000158       __imp_?_Getcat@?$ctype@D@std@@SAIPAPBVfacet@locale@2@PBV42@@Z 00457158     msvcprt:MSVCP140.dll
 0002:0000015c       __imp_?always_noconv@codecvt_base@std@@QBE_NXZ 0045715c     msvcprt:MSVCP140.dll
 0002:00000160       __imp_??Bid@locale@std@@QAEIXZ 00457160     msvcprt:MSVCP140.dll
 0002:00000164       __imp_??0?$basic_iostream@DU?$char_traits@D@std@@@std@@QAE@PAV?$basic_streambuf@DU?$char_traits@D@std@@@1@@Z 00457164     msvcprt:MSVCP140.dll
 0002:00000168       __imp_?_Ipfx@?$basic_istream@DU?$char_traits@D@std@@@std@@QAE_N_N@Z 00457168     msvcprt:MSVCP140.dll
 0002:0000016c       __imp_?id@?$ctype@D@std@@2V0locale@2@A 0045716c     msvcprt:MSVCP140.dll
 0002:00000170       __imp_?id@?$codecvt@DDU_Mbstatet@@@std@@2V0locale@2@A 00457170     msvcprt:MSVCP140.dll
 0002:00000174       __imp_?_Getgloballocale@locale@std@@CAPAV_Locimp@12@XZ 00457174     msvcprt:MSVCP140.dll
 0002:00000178       __imp_??0_Lockit@std@@QAE@H@Z 00457178     msvcprt:MSVCP140.dll
 0002:0000017c       __imp_??1_Lockit@std@@QAE@XZ 0045717c     msvcprt:MSVCP140.dll
 0002:00000180       __imp_??6?$basic_ostream@DU?$char_traits@D@std@@@std@@QAEAAV01@H@Z 00457180     msvcprt:MSVCP140.dll
 0002:00000184       __imp_??6?$basic_ostream@DU?$char_traits@D@std@@@std@@QAEAAV01@P6AAAV01@AAV01@@Z@Z 00457184     msvcprt:MSVCP140.dll
 0002:00000188       __imp_?setstate@?$basic_ios@DU?$char_traits@D@std@@@std@@QAEXH_N@Z 00457188     msvcprt:MSVCP140.dll
 0002:0000018c       __imp_?flush@?$basic_ostream@DU?$char_traits@D@std@@@std@@QAEAAV12@XZ 0045718c     msvcprt:MSVCP140.dll
 0002:00000190       __imp_?_Osfx@?$basic_ostream@DU?$char_traits@D@std@@@std@@QAEXXZ 00457190     msvcprt:MSVCP140.dll
 0002:00000194       __imp_?sputc@?$basic_streambuf@DU?$char_traits@D@std@@@std@@QAEHD@Z 00457194     msvcprt:MSVCP140.dll
 0002:00000198       __imp_?put@?$basic_ostream@DU?$char_traits@D@std@@@std@@QAEAAV12@D@Z 00457198     msvcprt:MSVCP140.dll
 0002:0000019c       __imp_?widen@?$basic_ios@DU?$char_traits@D@std@@@std@@QBEDD@Z 0045719c     msvcprt:MSVCP140.dll
 0002:000001a0       __imp_?sputn@?$basic_streambuf@DU?$char_traits@D@std@@@std@@QAE_JPBD_J@Z 004571a0     msvcprt:MSVCP140.dll
 0002:000001a4       __imp_?_Xlength_error@std@@YAXPBD@Z 004571a4     msvcprt:MSVCP140.dll
 0002:000001a8       __imp_?_Xout_of_range@std@@YAXPBD@Z 004571a8     msvcprt:MSVCP140.dll
 0002:000001ac       __imp_?_Xinvalid_argument@std@@YAXPBD@Z 004571ac     msvcprt:MSVCP140.dll
 0002:000001b0       __imp_?uncaught_exception@std@@YA_NXZ 004571b0     msvcprt:MSVCP140.dll
 0002:000001b4       __imp_?cout@std@@3V?$basic_ostream@DU?$char_traits@D@std@@@1@A 004571b4     msvcprt:MSVCP140.dll
 0002:000001b8       \177MSVCP140_NULL_THUNK_DATA 004571b8     msvcprt:MSVCP140.dll
 0002:000001bc       __imp__GetMessageA@16      004571bc     user32:USER32.dll
 0002:000001c0       __imp__DispatchMessageA@4  004571c0     user32:USER32.dll
 0002:000001c4       __imp__GetWindowRect@8     004571c4     user32:USER32.dll
 0002:000001c8       __imp__DestroyWindow@4     004571c8     user32:USER32.dll
 0002:000001cc       __imp__ShowWindow@8        004571cc     user32:USER32.dll
 0002:000001d0       __imp__GetForegroundWindow@0 004571d0     user32:USER32.dll
 0002:000001d4       __imp__MoveWindow@24       004571d4     user32:USER32.dll
 0002:000001d8       __imp__GetWindowThreadProcessId@8 004571d8     user32:USER32.dll
 0002:000001dc       __imp__CreateWindowExA@48  004571dc     user32:USER32.dll
 0002:000001e0       __imp__SetLayeredWindowAttributes@16 004571e0     user32:USER32.dll
 0002:000001e4       __imp__TranslateMessage@4  004571e4     user32:USER32.dll
 0002:000001e8       __imp__UnregisterClassA@8  004571e8     user32:USER32.dll
 0002:000001ec       __imp__PostQuitMessage@4   004571ec     user32:USER32.dll
 0002:000001f0       __imp__FindWindowA@8       004571f0     user32:USER32.dll
 0002:000001f4       __imp__RegisterClassExA@4  004571f4     user32:USER32.dll
 0002:000001f8       __imp__UpdateWindow@4      004571f8     user32:USER32.dll
 0002:000001fc       __imp__DefWindowProcA@16   004571fc     user32:USER32.dll
 0002:00000200       \177USER32_NULL_THUNK_DATA 00457200     user32:USER32.dll
 0002:00000204       __imp__memchr              00457204     vcruntime:VCRUNTIME140.dll
 0002:00000208       __imp__strrchr             00457208     vcruntime:VCRUNTIME140.dll
 0002:0000020c       __imp__strchr              0045720c     vcruntime:VCRUNTIME140.dll
 0002:00000210       __imp__memmove             00457210     vcruntime:VCRUNTIME140.dll
 0002:00000214       __imp__memcpy              00457214     vcruntime:VCRUNTIME140.dll
 0002:00000218       __imp__memset              00457218     vcruntime:VCRUNTIME140.dll
 0002:0000021c       __imp__strstr              0045721c     vcruntime:VCRUNTIME140.dll
 0002:00000220       __imp____CxxFrameHandler3  00457220     vcruntime:VCRUNTIME140.dll
 0002:00000224       __imp____std_exception_destroy 00457224     vcruntime:VCRUNTIME140.dll
 0002:00000228       __imp____std_exception_copy 00457228     vcruntime:VCRUNTIME140.dll
 0002:0000022c       __imp____std_terminate     0045722c     vcruntime:VCRUNTIME140.dll
 0002:00000230       __imp____current_exception 00457230     vcruntime:VCRUNTIME140.dll
 0002:00000234       __imp____current_exception_context 00457234     vcruntime:VCRUNTIME140.dll
 0002:00000238       __imp___CxxThrowException@8 00457238     vcruntime:VCRUNTIME140.dll
 0002:0000023c       __imp___except_handler4_common 0045723c     vcruntime:VCRUNTIME140.dll
 0002:00000240       \177VCRUNTIME140_NULL_THUNK_DATA 00457240     vcruntime:VCRUNTIME140.dll
 0002:00000244       __imp__ldap_memfree        00457244     wldap32:WLDAP32.dll
 0002:00000248       __imp__ldap_get_dn         00457248     wldap32:WLDAP32.dll
 0002:0000024c       __imp__ldap_value_free_len 0045724c     wldap32:WLDAP32.dll
 0002:00000250       __imp__ldap_get_values_len 00457250     wldap32:WLDAP32.dll
 0002:00000254       __imp__ldap_next_attribute 00457254     wldap32:WLDAP32.dll
 0002:00000258       __imp__ber_free            00457258     wldap32:WLDAP32.dll
 0002:0000025c       __imp__ldap_simple_bind_s  0045725c     wldap32:WLDAP32.dll
 0002:00000260       __imp__ldap_first_attribute 00457260     wldap32:WLDAP32.dll
 0002:00000264       __imp__ldap_set_option     00457264     wldap32:WLDAP32.dll
 0002:00000268       __imp__ldap_unbind_s       00457268     wldap32:WLDAP32.dll
 0002:0000026c       __imp__ldap_sslinit        0045726c     wldap32:WLDAP32.dll
 0002:00000270       __imp__ldap_next_entry     00457270     wldap32:WLDAP32.dll
 0002:00000274       __imp__ldap_init           00457274     wldap32:WLDAP32.dll
 0002:00000278       __imp__ldap_search_s       00457278     wldap32:WLDAP32.dll
 0002:0000027c       __imp__ldap_err2string     0045727c     wldap32:WLDAP32.dll
 0002:00000280       __imp__ldap_msgfree        00457280     wldap32:WLDAP32.dll
 0002:00000284       __imp__ldap_first_entry    00457284     wldap32:WLDAP32.dll
 0002:00000288       \177WLDAP32_NULL_THUNK_DATA 00457288     wldap32:WLDAP32.dll
 0002:0000028c       __imp__getsockopt@20       0045728c     ws2_32:WS2_32.dll
 0002:00000290       __imp__htons@4             00457290     ws2_32:WS2_32.dll
 0002:00000294       __imp__ntohs@4             00457294     ws2_32:WS2_32.dll
 0002:00000298       __imp__setsockopt@20       00457298     ws2_32:WS2_32.dll
 0002:0000029c       __imp__getsockname@12      0045729c     ws2_32:WS2_32.dll
 0002:000002a0       __imp__getpeername@12      004572a0     ws2_32:WS2_32.dll
 0002:000002a4       __imp__connect@12          004572a4     ws2_32:WS2_32.dll
 0002:000002a8       __imp__WSASetLastError@4   004572a8     ws2_32:WS2_32.dll
 0002:000002ac       __imp__WSAIoctl@36         004572ac     ws2_32:WS2_32.dll
 0002:000002b0       __imp__WSAStartup@8        004572b0     ws2_32:WS2_32.dll
 0002:000002b4       __imp__WSACleanup@0        004572b4     ws2_32:WS2_32.dll
 0002:000002b8       __imp__accept@12           004572b8     ws2_32:WS2_32.dll
 0002:000002bc       __imp__htonl@4             004572bc     ws2_32:WS2_32.dll
 0002:000002c0       __imp__listen@8            004572c0     ws2_32:WS2_32.dll
 0002:000002c4       __imp__ioctlsocket@12      004572c4     ws2_32:WS2_32.dll
 0002:000002c8       __imp____WSAFDIsSet@8      004572c8     ws2_32:WS2_32.dll
 0002:000002cc       __imp__select@20           004572cc     ws2_32:WS2_32.dll
 0002:000002d0       __imp__getaddrinfo@16      004572d0     ws2_32:WS2_32.dll
 0002:000002d4       __imp__freeaddrinfo@4      004572d4     ws2_32:WS2_32.dll
 0002:000002d8       __imp__WSACloseEvent@4     004572d8     ws2_32:WS2_32.dll
 0002:000002dc       __imp__WSACreateEvent@0    004572dc     ws2_32:WS2_32.dll
 0002:000002e0       __imp__WSAEnumNetworkEvents@12 004572e0     ws2_32:WS2_32.dll
 0002:000002e4       __imp__WSAEventSelect@12   004572e4     ws2_32:WS2_32.dll
 0002:000002e8       __imp__recvfrom@24         004572e8     ws2_32:WS2_32.dll
 0002:000002ec       __imp__sendto@24           004572ec     ws2_32:WS2_32.dll
 0002:000002f0       __imp__gethostname@8       004572f0     ws2_32:WS2_32.dll
 0002:000002f4       __imp__bind@12             004572f4     ws2_32:WS2_32.dll
 0002:000002f8       __imp__WSAGetLastError@0   004572f8     ws2_32:WS2_32.dll
 0002:000002fc       __imp__send@16             004572fc     ws2_32:WS2_32.dll
 0002:00000300       __imp__recv@16             00457300     ws2_32:WS2_32.dll
 0002:00000304       __imp__closesocket@4       00457304     ws2_32:WS2_32.dll
 0002:00000308       __imp__socket@12           00457308     ws2_32:WS2_32.dll
 0002:0000030c       \177WS2_32_NULL_THUNK_DATA 0045730c     ws2_32:WS2_32.dll
 0002:00000310       __imp__atoi                00457310     ucrt:api-ms-win-crt-convert-l1-1-0.dll
 0002:00000314       __imp__wcstombs            00457314     ucrt:api-ms-win-crt-convert-l1-1-0.dll
 0002:00000318       __imp__strtoll             00457318     ucrt:api-ms-win-crt-convert-l1-1-0.dll
 0002:0000031c       __imp__strtol              0045731c     ucrt:api-ms-win-crt-convert-l1-1-0.dll
 0002:00000320       __imp__strtoul             00457320     ucrt:api-ms-win-crt-convert-l1-1-0.dll
 0002:00000324       \177api-ms-win-crt-convert-l1-1-0_NULL_THUNK_DATA 00457324     ucrt:api-ms-win-crt-convert-l1-1-0.dll
 0002:00000328       __imp___fstat64            00457328     ucrt:api-ms-win-crt-filesystem-l1-1-0.dll
 0002:0000032c       __imp___stat64             0045732c     ucrt:api-ms-win-crt-filesystem-l1-1-0.dll
 0002:00000330       __imp___access             00457330     ucrt:api-ms-win-crt-filesystem-l1-1-0.dll
 0002:00000334       __imp___lock_file          00457334     ucrt:api-ms-win-crt-filesystem-l1-1-0.dll
 0002:00000338       __imp___unlock_file        00457338     ucrt:api-ms-win-crt-filesystem-l1-1-0.dll
 0002:0000033c       __imp__unlink              0045733c     ucrt:api-ms-win-crt-filesystem-l1-1-0.dll
 0002:0000033c       __imp___unlink             0045733c     ucrt:api-ms-win-crt-filesystem-l1-1-0.dll
 0002:00000340       \177api-ms-win-crt-filesystem-l1-1-0_NULL_THUNK_DATA 00457340     ucrt:api-ms-win-crt-filesystem-l1-1-0.dll
 0002:00000344       __imp__malloc              00457344     ucrt:api-ms-win-crt-heap-l1-1-0.dll
 0002:00000348       __imp__realloc             00457348     ucrt:api-ms-win-crt-heap-l1-1-0.dll
 0002:0000034c       __imp__calloc              0045734c     ucrt:api-ms-win-crt-heap-l1-1-0.dll
 0002:00000350       __imp___callnewh           00457350     ucrt:api-ms-win-crt-heap-l1-1-0.dll
 0002:00000354       __imp__free                00457354     ucrt:api-ms-win-crt-heap-l1-1-0.dll
 0002:00000358       __imp___set_new_mode       00457358     ucrt:api-ms-win-crt-heap-l1-1-0.dll
 0002:0000035c       \177api-ms-win-crt-heap-l1-1-0_NULL_THUNK_DATA 0045735c     ucrt:api-ms-win-crt-heap-l1-1-0.dll
 0002:00000360       __imp___configthreadlocale 00457360     ucrt:api-ms-win-crt-locale-l1-1-0.dll
 0002:00000364       \177api-ms-win-crt-locale-l1-1-0_NULL_THUNK_DATA 00457364     ucrt:api-ms-win-crt-locale-l1-1-0.dll
 0002:00000368       __imp____setusermatherr    00457368     ucrt:api-ms-win-crt-math-l1-1-0.dll
 0002:0000036c       \177api-ms-win-crt-math-l1-1-0_NULL_THUNK_DATA 0045736c     ucrt:api-ms-win-crt-math-l1-1-0.dll
 0002:00000370       __imp___mbspbrk            00457370     ucrt:api-ms-win-crt-multibyte-l1-1-0.dll
 0002:00000374       \177api-ms-win-crt-multibyte-l1-1-0_NULL_THUNK_DATA 00457374     ucrt:api-ms-win-crt-multibyte-l1-1-0.dll
 0002:00000378       __imp___controlfp_s        00457378     ucrt:api-ms-win-crt-runtime-l1-1-0.dll
 0002:0000037c       __imp___beginthreadex      0045737c     ucrt:api-ms-win-crt-runtime-l1-1-0.dll
 0002:00000380       __imp___crt_atexit         00457380     ucrt:api-ms-win-crt-runtime-l1-1-0.dll
 0002:00000384       __imp___register_onexit_function 00457384     ucrt:api-ms-win-crt-runtime-l1-1-0.dll
 0002:00000388       __imp___cexit              00457388     ucrt:api-ms-win-crt-runtime-l1-1-0.dll
 0002:0000038c       __imp___getpid             0045738c     ucrt:api-ms-win-crt-runtime-l1-1-0.dll
 0002:00000390       __imp___seh_filter_exe     00457390     ucrt:api-ms-win-crt-runtime-l1-1-0.dll
 0002:00000394       __imp___invalid_parameter_noinfo_noreturn 00457394     ucrt:api-ms-win-crt-runtime-l1-1-0.dll
 0002:00000398       __imp____sys_nerr          00457398     ucrt:api-ms-win-crt-runtime-l1-1-0.dll
 0002:0000039c       __imp__strerror            0045739c     ucrt:api-ms-win-crt-runtime-l1-1-0.dll
 0002:000003a0       __imp___set_app_type       004573a0     ucrt:api-ms-win-crt-runtime-l1-1-0.dll
 0002:000003a4       __imp___get_narrow_winmain_command_line 004573a4     ucrt:api-ms-win-crt-runtime-l1-1-0.dll
 0002:000003a8       __imp___initterm           004573a8     ucrt:api-ms-win-crt-runtime-l1-1-0.dll
 0002:000003ac       __imp___initialize_onexit_table 004573ac     ucrt:api-ms-win-crt-runtime-l1-1-0.dll
 0002:000003b0       __imp___initterm_e         004573b0     ucrt:api-ms-win-crt-runtime-l1-1-0.dll
 0002:000003b4       __imp___initialize_narrow_environment 004573b4     ucrt:api-ms-win-crt-runtime-l1-1-0.dll
 0002:000003b8       __imp___configure_narrow_argv 004573b8     ucrt:api-ms-win-crt-runtime-l1-1-0.dll
 0002:000003bc       __imp__terminate           004573bc     ucrt:api-ms-win-crt-runtime-l1-1-0.dll
 0002:000003c0       __imp__system              004573c0     ucrt:api-ms-win-crt-runtime-l1-1-0.dll
 0002:000003c4       __imp__exit                004573c4     ucrt:api-ms-win-crt-runtime-l1-1-0.dll
 0002:000003c8       __imp___errno              004573c8     ucrt:api-ms-win-crt-runtime-l1-1-0.dll
 0002:000003cc       __imp___register_thread_local_exe_atexit_callback 004573cc     ucrt:api-ms-win-crt-runtime-l1-1-0.dll
 0002:000003d0       __imp___c_exit             004573d0     ucrt:api-ms-win-crt-runtime-l1-1-0.dll
 0002:000003d4       __imp___exit               004573d4     ucrt:api-ms-win-crt-runtime-l1-1-0.dll
 0002:000003d8       \177api-ms-win-crt-runtime-l1-1-0_NULL_THUNK_DATA 004573d8     ucrt:api-ms-win-crt-runtime-l1-1-0.dll
 0002:000003dc       __imp__fclose              004573dc     ucrt:api-ms-win-crt-stdio-l1-1-0.dll
 0002:000003e0       __imp__fgetc               004573e0     ucrt:api-ms-win-crt-stdio-l1-1-0.dll
 0002:000003e4       __imp___set_fmode          004573e4     ucrt:api-ms-win-crt-stdio-l1-1-0.dll
 0002:000003e8       __imp__fflush              004573e8     ucrt:api-ms-win-crt-stdio-l1-1-0.dll
 0002:000003ec       __imp___close              004573ec     ucrt:api-ms-win-crt-stdio-l1-1-0.dll
 0002:000003ec       __imp__close               004573ec     ucrt:api-ms-win-crt-stdio-l1-1-0.dll
 0002:000003f0       __imp__fputc               004573f0     ucrt:api-ms-win-crt-stdio-l1-1-0.dll
 0002:000003f4       __imp____stdio_common_vsprintf 004573f4     ucrt:api-ms-win-crt-stdio-l1-1-0.dll
 0002:000003f8       __imp____p__commode        004573f8     ucrt:api-ms-win-crt-stdio-l1-1-0.dll
 0002:000003fc       __imp___lseeki64           004573fc     ucrt:api-ms-win-crt-stdio-l1-1-0.dll
 0002:00000400       __imp__freopen_s           00457400     ucrt:api-ms-win-crt-stdio-l1-1-0.dll
 0002:00000404       __imp___open               00457404     ucrt:api-ms-win-crt-stdio-l1-1-0.dll
 0002:00000408       __imp__fopen               00457408     ucrt:api-ms-win-crt-stdio-l1-1-0.dll
 0002:0000040c       __imp____acrt_iob_func     0045740c     ucrt:api-ms-win-crt-stdio-l1-1-0.dll
 0002:00000410       __imp__fseek               00457410     ucrt:api-ms-win-crt-stdio-l1-1-0.dll
 0002:00000414       __imp__feof                00457414     ucrt:api-ms-win-crt-stdio-l1-1-0.dll
 0002:00000418       __imp___read               00457418     ucrt:api-ms-win-crt-stdio-l1-1-0.dll
 0002:00000418       __imp__read                00457418     ucrt:api-ms-win-crt-stdio-l1-1-0.dll
 0002:0000041c       __imp__write               0045741c     ucrt:api-ms-win-crt-stdio-l1-1-0.dll
 0002:0000041c       __imp___write              0045741c     ucrt:api-ms-win-crt-stdio-l1-1-0.dll
 0002:00000420       __imp____stdio_common_vsscanf 00457420     ucrt:api-ms-win-crt-stdio-l1-1-0.dll
 0002:00000424       __imp__fputs               00457424     ucrt:api-ms-win-crt-stdio-l1-1-0.dll
 0002:00000428       __imp___get_stream_buffer_pointers 00457428     ucrt:api-ms-win-crt-stdio-l1-1-0.dll
 0002:0000042c       __imp___fseeki64           0045742c     ucrt:api-ms-win-crt-stdio-l1-1-0.dll
 0002:00000430       __imp__fread               00457430     ucrt:api-ms-win-crt-stdio-l1-1-0.dll
 0002:00000434       __imp__fsetpos             00457434     ucrt:api-ms-win-crt-stdio-l1-1-0.dll
 0002:00000438       __imp__ungetc              00457438     ucrt:api-ms-win-crt-stdio-l1-1-0.dll
 0002:0000043c       __imp___popen              0045743c     ucrt:api-ms-win-crt-stdio-l1-1-0.dll
 0002:00000440       __imp__setvbuf             00457440     ucrt:api-ms-win-crt-stdio-l1-1-0.dll
 0002:00000444       __imp__fgetpos             00457444     ucrt:api-ms-win-crt-stdio-l1-1-0.dll
 0002:00000448       __imp__fwrite              00457448     ucrt:api-ms-win-crt-stdio-l1-1-0.dll
 0002:0000044c       __imp__fgets               0045744c     ucrt:api-ms-win-crt-stdio-l1-1-0.dll
 0002:00000450       __imp___pclose             00457450     ucrt:api-ms-win-crt-stdio-l1-1-0.dll
 0002:00000454       \177api-ms-win-crt-stdio-l1-1-0_NULL_THUNK_DATA 00457454     ucrt:api-ms-win-crt-stdio-l1-1-0.dll
 0002:00000458       __imp__tolower             00457458     ucrt:api-ms-win-crt-string-l1-1-0.dll
 0002:0000045c       __imp___strdup             0045745c     ucrt:api-ms-win-crt-string-l1-1-0.dll
 0002:0000045c       __imp__strdup              0045745c     ucrt:api-ms-win-crt-string-l1-1-0.dll
 0002:00000460       __imp__strncmp             00457460     ucrt:api-ms-win-crt-string-l1-1-0.dll
 0002:00000464       __imp__strpbrk             00457464     ucrt:api-ms-win-crt-string-l1-1-0.dll
 0002:00000468       __imp__strspn              00457468     ucrt:api-ms-win-crt-string-l1-1-0.dll
 0002:0000046c       __imp__strncpy             0045746c     ucrt:api-ms-win-crt-string-l1-1-0.dll
 0002:00000470       __imp__strcspn             00457470     ucrt:api-ms-win-crt-string-l1-1-0.dll
 0002:00000474       \177api-ms-win-crt-string-l1-1-0_NULL_THUNK_DATA 00457474     ucrt:api-ms-win-crt-string-l1-1-0.dll
 0002:00000478       __imp___gmtime64           00457478     ucrt:api-ms-win-crt-time-l1-1-0.dll
 0002:0000047c       __imp___time64             0045747c     ucrt:api-ms-win-crt-time-l1-1-0.dll
 0002:00000480       __imp__strftime            00457480     ucrt:api-ms-win-crt-time-l1-1-0.dll
 0002:00000484       __imp___localtime64        00457484     ucrt:api-ms-win-crt-time-l1-1-0.dll
 0002:00000488       \177api-ms-win-crt-time-l1-1-0_NULL_THUNK_DATA 00457488     ucrt:api-ms-win-crt-time-l1-1-0.dll
 0002:0000048c       __imp__qsort               0045748c     ucrt:api-ms-win-crt-utility-l1-1-0.dll
 0002:00000490       \177api-ms-win-crt-utility-l1-1-0_NULL_THUNK_DATA 00457490     ucrt:api-ms-win-crt-utility-l1-1-0.dll
 0002:00000494       __imp__Direct3DCreate9@4   00457494     d3d9:d3d9.dll
 0002:00000498       \177d3d9_NULL_THUNK_DATA   00457498     d3d9:d3d9.dll
 0002:0000049c       __imp__D3DXCreateLine@8    0045749c     d3dx9:d3dx9_43.dll
 0002:000004a0       __imp__D3DXCreateFontA@48  004574a0     d3dx9:d3dx9_43.dll
 0002:000004a4       \177d3dx9_43_NULL_THUNK_DATA 004574a4     d3dx9:d3dx9_43.dll
 0002:000004a8       ___guard_check_icall_fptr  004574a8     MSVCRT:guard_support.obj
 0002:000004ac       ___xc_a                    004574ac     MSVCRT:initializers.obj
 0002:000005f4       ___xc_z                    004575f4     MSVCRT:initializers.obj
 0002:000005f8       ___xi_a                    004575f8     MSVCRT:initializers.obj
 0002:00000604       ___xi_z                    00457604     MSVCRT:initializers.obj
 0002:00000608       ___xp_a                    00457608     MSVCRT:initializers.obj
 0002:0000060c       ___xp_z                    0045760c     MSVCRT:initializers.obj
 0002:00000610       ___xt_a                    00457610     MSVCRT:initializers.obj
 0002:00000614       ___xt_z                    00457614     MSVCRT:initializers.obj
 0002:00000624       ??_7type_info@@6B@         00457624     MSVCRT:std_type_info_static.obj
 0002:00000634       ??_7exception@std@@6B@     00457634     MSVCRT:throw_bad_alloc.obj
 0002:00000640       ??_7bad_alloc@std@@6B@     00457640     MSVCRT:throw_bad_alloc.obj
 0002:00000648       ??_C@_0P@GHFPNOJB@bad?5allocation@ 00457648     MSVCRT:throw_bad_alloc.obj
 0002:0000065c       ??_7bad_array_new_length@std@@6B@ 0045765c     MSVCRT:throw_bad_alloc.obj
 0002:00000664       ??_C@_0CJ@FAHCKHJA@easy?5handle?5already?5used?5in?5mult@ 00457664     libcurl:easy.obj
 0002:0000068d       ??_C@_00CNPNBAHC@?$AA@     0045768d     libcurl:setopt.obj
 0002:00000690       ??_C@_03NIFPGLBG@ALL?$AA@  00457690     libcurl:setopt.obj
 0002:00000694       ??_C@_04BFMIILII@SESS?$AA@ 00457694     libcurl:setopt.obj
 0002:0000069c       ??_C@_05KALGKIBB@FLUSH?$AA@ 0045769c     libcurl:setopt.obj
 0002:000006a4       ??_C@_06DCHFNDBF@RELOAD?$AA@ 004576a4     libcurl:setopt.obj
 0002:000006ac       ??_C@_0M@ICGHKGOK@Set?9Cookie?3?$AA@ 004576ac     libcurl:setopt.obj
 0002:00000710       ??_C@_0CH@LECELJNK@Connection?5?$CD?$CFld?5to?5host?5?$CFs?5left?5@ 00457710     libcurl:multi.obj
 0002:00000738       ??_C@_03OFAPEBGM@?$CFs?6?$AA@ 00457738     libcurl:multi.obj
 0002:0000073c       ??_C@_0CN@BEDJOLPM@Resolving?5timed?5out?5after?5?$CFI64d?5@ 0045773c     libcurl:multi.obj
 0002:0000076c       ??_C@_0CO@PINFDPJN@Connection?5timed?5out?5after?5?$CFI64d@ 0045776c     libcurl:multi.obj
 0002:000007a0       ??_C@_0FE@NBLGEINA@Operation?5timed?5out?5after?5?$CFI64d?5@ 004577a0     libcurl:multi.obj
 0002:000007f8       ??_C@_0EH@GJEAMCHA@Operation?5timed?5out?5after?5?$CFI64d?5@ 004577f8     libcurl:multi.obj
 0002:00000840       ??_C@_0CH@NOKKCOPP@Transfer?5was?5pending?0?5now?5try?5an@ 00457840     libcurl:multi.obj
 0002:00000868       ??_C@_0CG@EBAFLAEC@Hostname?5?8?$CFs?8?5was?5found?5in?5DNS?5c@ 00457868     libcurl:multi.obj
 0002:00000890       ??_C@_0CJ@OALAEPML@Internal?5error?5removing?5splay?5no@ 00457890     libcurl:multi.obj
 0002:000008bc       ??_C@_0CJ@EHKACPHP@Internal?5error?5clearing?5splay?5no@ 004578bc     libcurl:multi.obj
 0002:000008e8       ??_C@_01KMDKNFGN@?1?$AA@   004578e8     libcurl:cookie.obj
 0002:000008ec       ??_C@_0CE@BBKJHKDF@ignoring?5failed?5cookie_init?5for?5@ 004578ec     libcurl:cookie.obj
 0002:00000910       ??_C@_09IPAEKDAI@localhost?$AA@ 00457910     libcurl:cookie.obj
 0002:0000091c       ??_C@_0BK@IIFEHJP@?$CF4095?$FL?$FO?$DL?$AN?6?$DN?$FN?5?$DN?$CF4095?$FL?$FO?$DL?$AN?6?$FN?$AA@ 0045791c     libcurl:cookie.obj
 0002:00000938       ??_C@_0DE@IBKAGOK@oversized?5cookie?5dropped?0?5name?1v@ 00457938     libcurl:cookie.obj
 0002:0000096c       ??_C@_09OLPEHKPE@__Secure?9?$AA@ 0045796c     libcurl:cookie.obj
 0002:00000978       ??_C@_07DBHHKFCO@__Host?9?$AA@ 00457978     libcurl:cookie.obj
 0002:00000980       ??_C@_06CKKGAKDB@secure?$AA@ 00457980     libcurl:cookie.obj
 0002:00000988       ??_C@_08LKPJDOCJ@httponly?$AA@ 00457988     libcurl:cookie.obj
 0002:00000994       ??_C@_04LNEJFJGI@path?$AA@ 00457994     libcurl:cookie.obj
 0002:0000099c       ??_C@_06LKIIGAOE@domain?$AA@ 0045799c     libcurl:cookie.obj
 0002:000009a4       ??_C@_01JLIPDDHJ@?3?$AA@   004579a4     libcurl:cookie.obj
 0002:000009a8       ??_C@_0CO@IPHLIEKA@skipped?5cookie?5with?5bad?5tailmatc@ 004579a8     libcurl:cookie.obj
 0002:000009d8       ??_C@_07CPCPJPKL@version?$AA@ 004579d8     libcurl:cookie.obj
 0002:000009e0       ??_C@_07PEFKGEJF@max?9age?$AA@ 004579e0     libcurl:cookie.obj
 0002:000009e8       ??_C@_07MJGJEDBB@expires?$AA@ 004579e8     libcurl:cookie.obj
 0002:000009f0       ??_C@_0L@KAKJBGGD@?$CDHttpOnly_?$AA@ 004579f0     libcurl:cookie.obj
 0002:000009fc       ??_C@_01GPOEFGEJ@?7?$AA@   004579fc     libcurl:cookie.obj
 0002:00000a00       ??_C@_04HCDDPBNL@TRUE?$AA@ 00457a00     libcurl:cookie.obj
 0002:00000a08       ??_C@_05MAJJAKPI@FALSE?$AA@ 00457a08     libcurl:cookie.obj
 0002:00000a10       ??_C@_08IMELJCAM@Replaced?$AA@ 00457a10     libcurl:cookie.obj
 0002:00000a1c       ??_C@_05BNECJBCE@Added?$AA@ 00457a1c     libcurl:cookie.obj
 0002:00000a24       ??_C@_0DI@KHDIKDMI@?$CFs?5cookie?5?$CFs?$DN?$CC?$CFs?$CC?5for?5domain?5?$CFs?0@ 00457a24     libcurl:cookie.obj
 0002:00000a5c       ??_C@_04CGFJFPFD@none?$AA@ 00457a5c     libcurl:cookie.obj
 0002:00000a64       ??_C@_01JOAMLHOP@?9?$AA@   00457a64     libcurl:cookie.obj
 0002:00000a68       ??_C@_02BMJICGCB@rt?$AA@   00457a68     libcurl:cookie.obj
 0002:00000a6c       ??_C@_07CIFAGBMG@unknown?$AA@ 00457a6c     libcurl:cookie.obj
 0002:00000a74       ??_C@_01LFCBOECM@?4?$AA@   00457a74     libcurl:cookie.obj
 0002:00000a78       ??_C@_0BM@FIJJOLNN@?$CFs?$CFs?$CFs?7?$CFs?7?$CFs?7?$CFs?7?$CFI64d?7?$CFs?7?$CFs?$AA@ 00457a78     libcurl:cookie.obj
 0002:00000a94       ??_C@_09HFHMDOBG@?$CFs?4?$CFs?4tmp?$AA@ 00457a94     libcurl:cookie.obj
 0002:00000aa0       ??_C@_02BKFDOEMK@wt?$AA@   00457aa0     libcurl:cookie.obj
 0002:00000aa8       ??_C@_0IE@HIOMJDLH@?$CD?5Netscape?5HTTP?5Cookie?5File?6?$CD?5ht@ 00457aa8     libcurl:cookie.obj
 0002:00000b2c       ??_C@_0BJ@LMHKHCLE@?$CD?6?$CD?5Fatal?5libcurl?5error?6?$AA@ 00457b2c     libcurl:cookie.obj
 0002:00000b48       ??_C@_0CH@EIDBEPEM@WARNING?3?5failed?5to?5save?5cookies?5@ 00457b48     libcurl:cookie.obj
 0002:00000b70       ??_C@_02DPKJAMEF@?$CFd?$AA@ 00457b70     libcurl:asyn-thread.obj
 0002:00000b74       ??_C@_0CF@DENKCHCB@getaddrinfo?$CI?$CJ?5thread?5failed?5to?5s@ 00457b74     libcurl:asyn-thread.obj
 0002:00000d94       ??_C@_04JFHMGKLD@?4gif?$AA@ 00457d94     libcurl:mime.obj
 0002:00000d9c       ??_C@_09HADNJIG@image?1gif?$AA@ 00457d9c     libcurl:mime.obj
 0002:00000da8       ??_C@_04GNPKBLNA@?4jpg?$AA@ 00457da8     libcurl:mime.obj
 0002:00000db0       ??_C@_0L@PJKHLKFB@image?1jpeg?$AA@ 00457db0     libcurl:mime.obj
 0002:00000dbc       ??_C@_05KPIGABMB@?4jpeg?$AA@ 00457dbc     libcurl:mime.obj
 0002:00000dc4       ??_C@_04EEOGCCFB@?4png?$AA@ 00457dc4     libcurl:mime.obj
 0002:00000dcc       ??_C@_09NGJJJBGE@image?1png?$AA@ 00457dcc     libcurl:mime.obj
 0002:00000dd8       ??_C@_04EEGGHPHH@?4svg?$AA@ 00457dd8     libcurl:mime.obj
 0002:00000de0       ??_C@_0O@MMMFMLNF@image?1svg?$CLxml?$AA@ 00457de0     libcurl:mime.obj
 0002:00000df0       ??_C@_04LCMACLFG@?4txt?$AA@ 00457df0     libcurl:mime.obj
 0002:00000df8       ??_C@_0L@NPNLKGOJ@text?1plain?$AA@ 00457df8     libcurl:mime.obj
 0002:00000e04       ??_C@_04DKBFJDAN@?4htm?$AA@ 00457e04     libcurl:mime.obj
 0002:00000e0c       ??_C@_09KABDMIOB@text?1html?$AA@ 00457e0c     libcurl:mime.obj
 0002:00000e18       ??_C@_05LHMDENIF@?4html?$AA@ 00457e18     libcurl:mime.obj
 0002:00000e20       ??_C@_04FAGKJGMG@?4pdf?$AA@ 00457e20     libcurl:mime.obj
 0002:00000e28       ??_C@_0BA@MHMDKHOF@application?1pdf?$AA@ 00457e28     libcurl:mime.obj
 0002:00000e38       ??_C@_04GAOAGNCM@?4xml?$AA@ 00457e38     libcurl:mime.obj
 0002:00000e40       ??_C@_0BA@PHEJFMAP@application?1xml?$AA@ 00457e40     libcurl:mime.obj
 0002:00000e50       ??_C@_06FNFBAEBE@binary?$AA@ 00457e50     libcurl:mime.obj
 0002:00000e58       ??_C@_04DFPGIIHA@8bit?$AA@ 00457e58     libcurl:mime.obj
 0002:00000e60       ??_C@_04LHKGBPKB@7bit?$AA@ 00457e60     libcurl:mime.obj
 0002:00000e68       ??_C@_06JEFEFGEJ@base64?$AA@ 00457e68     libcurl:mime.obj
 0002:00000e70       ??_C@_0BB@CAHAECFA@quoted?9printable?$AA@ 00457e70     libcurl:mime.obj
 0002:00000e84       ??_C@_02JDPG@rb?$AA@       00457e84     libcurl:mime.obj
 0002:00000e88       ??_C@_0N@LAFFMKKA@Content?9Type?$AA@ 00457e88     libcurl:mime.obj
 0002:00000e98       ??_C@_02PCIJFNDE@?$AN?6?$AA@ 00457e98     libcurl:mime.obj
 0002:00000e9c       ??_C@_04LOEPKDGL@?$AN?6?9?9?$AA@ 00457e9c     libcurl:mime.obj
 0002:00000ea4       ??_C@_04KAODOPGN@?9?9?$AN?6?$AA@ 00457ea4     libcurl:mime.obj
 0002:00000eac       ??_C@_0BP@IAECJDB@Can?8t?5add?5itself?5as?5a?5subpart?$CB?$AA@ 00457eac     libcurl:mime.obj
 0002:00000ecc       ??_C@_0M@MJDFHGPO@?$DL?5boundary?$DN?$AA@ 00457ecc     libcurl:mime.obj
 0002:00000ed8       ??_C@_0BF@JGMBPGGP@Content?9Type?3?5?$CFs?$CFs?$CFs?$AA@ 00457ed8     libcurl:mime.obj
 0002:00000ef0       ??_C@_0BA@LBPJGHIO@multipart?1mixed?$AA@ 00457ef0     libcurl:mime.obj
 0002:00000f00       ??_C@_0BJ@JDCJMJCJ@application?1octet?9stream?$AA@ 00457f00     libcurl:mime.obj
 0002:00000f1c       ??_C@_0BE@LMOOGHBG@Content?9Disposition?$AA@ 00457f1c     libcurl:mime.obj
 0002:00000f30       ??_C@_0L@LMJJPMNG@multipart?1?$AA@ 00457f30     libcurl:mime.obj
 0002:00000f3c       ??_C@_0L@HBDHCFKP@attachment?$AA@ 00457f3c     libcurl:mime.obj
 0002:00000f48       ??_C@_01BJJEKLCA@?$CC?$AA@ 00457f48     libcurl:mime.obj
 0002:00000f4c       ??_C@_0N@EBLPPAMO@?$DL?5filename?$DN?$CC?$AA@ 00457f4c     libcurl:mime.obj
 0002:00000f5c       ??_C@_08LCJOLIGB@?$DL?5name?$DN?$CC?$AA@ 00457f5c     libcurl:mime.obj
 0002:00000f68       ??_C@_0CE@DDNMPDM@Content?9Disposition?3?5?$CFs?$CFs?$CFs?$CFs?$CFs?$CF@ 00457f68     libcurl:mime.obj
 0002:00000f8c       ??_C@_0BK@MJFMDPAI@Content?9Transfer?9Encoding?$AA@ 00457f8c     libcurl:mime.obj
 0002:00000fa8       ??_C@_0BO@GPACEDCJ@Content?9Transfer?9Encoding?3?5?$CFs?$AA@ 00457fa8     libcurl:mime.obj
 0002:00000fc8       ??_C@_0BE@PILCJFLE@multipart?1form?9data?$AA@ 00457fc8     libcurl:mime.obj
 0002:00000fdc       ??_C@_09DMEGNLGK@form?9data?$AA@ 00457fdc     libcurl:mime.obj
 0002:00000ff0       __xmm@2d2d2d2d2d2d2d2d2d2d2d2d2d2d2d2d 00457ff0     libcurl:mime.obj
 0002:00001000       ??_C@_05MLEOJOPP@?$CFld?$CFs?$AA@ 00458000     libcurl:conncache.obj
 0002:00001008       ??_C@_0DD@OLONMPCM@Connection?5cache?5is?5full?0?5closin@ 00458008     libcurl:conncache.obj
 0002:000010cc       ??_C@_0O@PKKFKPHL@?$DMno?5protocol?$DO?$AA@ 004580cc     libcurl:url.obj
 0002:000010dc       ??_C@_0BI@DDGGAIOA@Closing?5connection?5?$CFld?6?$AA@ 004580dc     libcurl:url.obj
 0002:000010f4       ??_C@_0DB@DJFDJCOE@Too?5old?5connection?5?$CI?$CFld?5seconds?$CJ@ 004580f4     libcurl:url.obj
 0002:00001128       ??_C@_0CC@JFLBHGMD@Connection?5?$CFld?5seems?5to?5be?5dead?$CB@ 00458128     libcurl:url.obj
 0002:0000114c       ??_C@_0O@EFAPFLJF@can?5multiplex?$AA@ 0045814c     libcurl:url.obj
 0002:0000115c       ??_C@_08HGENMDLD@serially?$AA@ 0045815c     libcurl:url.obj
 0002:00001168       ??_C@_0CD@OCDJOGEP@Found?5bundle?5for?5host?5?$CFs?3?5?$CFp?5?$FL?$CFs@ 00458168     libcurl:url.obj
 0002:0000118c       ??_C@_0CM@DIEBCPAL@Server?5doesn?8t?5support?5multiplex@ 0045818c     libcurl:url.obj
 0002:000011b8       ??_C@_0CI@GFGFLNAA@Server?5doesn?8t?5support?5multiplex@ 004581b8     libcurl:url.obj
 0002:000011e0       ??_C@_0CE@OANFFLBC@Could?5multiplex?0?5but?5not?5asked?5t@ 004581e0     libcurl:url.obj
 0002:00001204       ??_C@_0CK@OJMDJFJB@Can?5not?5multiplex?0?5even?5if?5we?5wa@ 00458204     libcurl:url.obj
 0002:00001230       ??_C@_0DG@ICACGPNK@Connection?5?$CD?$CFld?5is?5still?5name?5re@ 00458230     libcurl:url.obj
 0002:00001268       ??_C@_0DA@HEGJMKAL@Connection?5?$CD?$CFld?5isn?8t?5open?5enoug@ 00458268     libcurl:url.obj
 0002:00001298       ??_C@_0BP@IJOBPHC@Multiplexed?5connection?5found?$CB?6?$AA@ 00458298     libcurl:url.obj
 0002:000012b8       ??_C@_0DP@IINEECKA@Found?5pending?5candidate?5for?5reus@ 004582b8     libcurl:url.obj
 0002:000012f8       ??_C@_0CG@GIJHGMPJ@Connected?5to?5?$CFs?5?$CI?$CFs?$CJ?5port?5?$CFld?5?$CI?$CD@ 004582f8     libcurl:url.obj
 0002:00001320       ??_C@_0DG@OJGGOHOC@IDN?5support?5not?5present?0?5can?8t?5p@ 00458320     libcurl:url.obj
 0002:00001358       ??_C@_0DD@CPLPHJPM@Protocol?5?$CC?$CFs?$CC?5not?5supported?5or?5d@ 00458358     libcurl:url.obj
 0002:0000138c       ??_C@_0BI@BEHOBPHB@Invalid?5zoneid?3?5?$CFs?$DL?5?$CFs?6?$AA@ 0045838c     libcurl:url.obj
 0002:000013a4       ??_C@_07NCHOALFK@?$CFs?3?1?1?$CFs?$AA@ 004583a4     libcurl:url.obj
 0002:000013ac       ??_C@_04DAMGJPCA@file?$AA@ 004583ac     libcurl:url.obj
 0002:000013b4       ??_C@_06OJJNHGNN@?$CFI64d?9?$AA@ 004583b4     libcurl:url.obj
 0002:000013bc       ??_C@_02KEGNLNML@?0?5?$AA@ 004583bc     libcurl:url.obj
 0002:000013c0       ??_C@_01NBENCBCI@?$CK?$AA@ 004583c0     libcurl:url.obj
 0002:000013c4       ??_C@_06PIGEBLLD@_proxy?$AA@ 004583c4     libcurl:url.obj
 0002:000013cc       ??_C@_0L@BKCFCEPH@http_proxy?$AA@ 004583cc     libcurl:url.obj
 0002:000013d8       ??_C@_09IFLEAELB@all_proxy?$AA@ 004583d8     libcurl:url.obj
 0002:000013e4       ??_C@_09HKPIAANK@ALL_PROXY?$AA@ 004583e4     libcurl:url.obj
 0002:000013f0       ??_C@_0CE@MLGGMLP@Uses?5proxy?5env?5variable?5?$CFs?5?$DN?$DN?5?8?$CF@ 004583f0     libcurl:url.obj
 0002:00001414       ??_C@_05BCHGOAMK@https?$AA@ 00458414     libcurl:url.obj
 0002:0000141c       ??_C@_07FDHAHIOH@socks5h?$AA@ 0045841c     libcurl:url.obj
 0002:00001424       ??_C@_06IAICDOJI@socks5?$AA@ 00458424     libcurl:url.obj
 0002:0000142c       ??_C@_07IDHAKJJJ@socks4a?$AA@ 0045842c     libcurl:url.obj
 0002:00001434       ??_C@_06JJJJAPNJ@socks4?$AA@ 00458434     libcurl:url.obj
 0002:0000143c       ??_C@_05LBOKJHLG@socks?$AA@ 0045843c     libcurl:url.obj
 0002:00001444       ??_C@_04IAFLKNP@http?$AA@  00458444     libcurl:url.obj
 0002:0000144c       ??_C@_0CC@CEKBDKLM@Unsupported?5proxy?5scheme?5for?5?8?$CFs@ 0045844c     libcurl:url.obj
 0002:00001470       ??_C@_0CB@HLNKMBJD@Unsupported?5proxy?5syntax?5in?5?8?$CFs?8@ 00458470     libcurl:url.obj
 0002:00001498       ??_C@_0EK@MGMANAOF@Unsupported?5proxy?5?8?$CFs?8?0?5libcurl?5@ 00458498     libcurl:url.obj
 0002:000014e4       ??_C@_0BA@GJPPEADO@memory?5shortage?$AA@ 004584e4     libcurl:url.obj
 0002:000014f4       ??_C@_08BOGLDIEC@no_proxy?$AA@ 004584f4     libcurl:url.obj
 0002:00001500       ??_C@_08KOHKDPPJ@NO_PROXY?$AA@ 00458500     libcurl:url.obj
 0002:0000150c       ??_C@_0DG@MFBPPKBC@Couldn?8t?5find?5host?5?$CFs?5in?5the?5?$CFs?5@ 0045850c     libcurl:url.obj
 0002:00001544       ??_C@_09BMFBKPHA@anonymous?$AA@ 00458544     libcurl:url.obj
 0002:00001550       ??_C@_0BA@LJIKBFGM@ftp?$EAexample?4com?$AA@ 00458550     libcurl:url.obj
 0002:00001560       ??_C@_03MMIJIMKH@?$CF25?$AA@ 00458560     libcurl:url.obj
 0002:00001564       ??_C@_0CN@NDBDIMOC@Please?5URL?5encode?5?$CF?$CF?5as?5?$CF?$CF25?0?5se@ 00458564     libcurl:url.obj
 0002:00001594       ??_C@_0BN@IHHAEPKG@Invalid?5IPv6?5address?5format?6?$AA@ 00458594     libcurl:url.obj
 0002:000015b4       ??_C@_0DF@IONEKJDD@No?5valid?5port?5number?5in?5connect?5@ 004585b4     libcurl:url.obj
 0002:000015ec       ??_C@_01LBDDMOBJ@?$FN?$AA@ 004585ec     libcurl:url.obj
 0002:000015f0       ??_C@_01OHGJGJJP@?$FL?$AA@ 004585f0     libcurl:url.obj
 0002:000015f4       ??_C@_06DIJPEION@?$CFs?$CFs?$CFs?$AA@ 004585f4     libcurl:url.obj
 0002:000015fc       ??_C@_0BM@PMENCPCA@Connecting?5to?5hostname?3?5?$CFs?6?$AA@ 004585fc     libcurl:url.obj
 0002:00001618       ??_C@_0BI@BICCPIEJ@Connecting?5to?5port?3?5?$CFd?6?$AA@ 00458618     libcurl:url.obj
 0002:00001630       ??_C@_0DA@NFHFFFEO@Alt?9svc?5connecting?5from?5?$FL?$CFs?$FN?$CFs?3?$CF@ 00458630     libcurl:url.obj
 0002:00001660       ??_C@_0CA@PCHAHPEF@Unix?5socket?5path?5too?5long?3?5?8?$CFs?8?$AA@ 00458660     libcurl:url.obj
 0002:00001680       ??_C@_0BL@CBGJLMGC@Could?5not?5resolve?5host?3?5?$CFs?$AA@ 00458680     libcurl:url.obj
 0002:0000169c       ??_C@_0BM@PBLGFFN@Couldn?8t?5resolve?5proxy?5?8?$CFs?8?$AA@ 0045869c     libcurl:url.obj
 0002:000016b8       ??_C@_05BFHPMDA@proxy?$AA@ 004586b8     libcurl:url.obj
 0002:000016c0       ??_C@_04OODOLJMA@host?$AA@ 004586c0     libcurl:url.obj
 0002:000016c8       ??_C@_0DB@KBMGPDLF@Re?9using?5existing?5connection?$CB?5?$CI?$CD@ 004586c8     libcurl:url.obj
 0002:000016fc       ??_C@_0CN@MPPLPHGC@No?5more?5connections?5allowed?5to?5h@ 004586fc     libcurl:url.obj
 0002:0000172c       ??_C@_0CD@DJOOMEOI@No?5connections?5available?5in?5cach@ 0045872c     libcurl:url.obj
 0002:00001750       ??_C@_0BL@LKODOMNP@No?5connections?5available?4?6?$AA@ 00458750     libcurl:url.obj
 0002:0000176c       ??_C@_0CO@KHIJKMHA@NTLM?5picked?5AND?5auth?5done?5set?0?5c@ 0045876c     libcurl:url.obj
 0002:0000179c       ??_C@_0DE@GICFFDLJ@NTLM?9proxy?5picked?5AND?5auth?5done?5@ 0045879c     libcurl:url.obj
 0002:000017d0       ??_C@_04BINJNOJD@HEAD?$AA@ 004587d0     libcurl:getinfo.obj
 0002:000017d8       ??_C@_04HCJEIHPL@POST?$AA@ 004587d8     libcurl:getinfo.obj
 0002:000017e0       ??_C@_03KBBGFLEK@PUT?$AA@  004587e0     libcurl:getinfo.obj
 0002:000017e4       ??_C@_03HAPOJHBM@GET?$AA@  004587e4     libcurl:getinfo.obj
 0002:00001800       ??_C@_04MPPNMCOK@?4?4?4?6?$AA@ 00458800     libcurl:sendf.obj
 0002:00001808       ??_C@_03KHICJKCI@?4?4?4?$AA@ 00458808     libcurl:sendf.obj
 0002:0000180c       ??_C@_0BB@JCBOFDKN@Send?5failure?3?5?$CFs?$AA@ 0045880c     libcurl:sendf.obj
 0002:00001820       ??_C@_0BB@GOGKBCCD@Recv?5failure?3?5?$CFs?$AA@ 00458820     libcurl:sendf.obj
 0002:00001834       ??_C@_0DD@KHGMOPKJ@Write?5callback?5asked?5for?5PAUSE?5w@ 00458834     libcurl:sendf.obj
 0002:00001868       ??_C@_0CG@EMCHOAAB@Failure?5writing?5output?5to?5destin@ 00458868     libcurl:sendf.obj
 0002:00001890       ??_C@_0BG@OFFCIDAN@Failed?5writing?5header?$AA@ 00458890     libcurl:sendf.obj
 0002:000018a8       ??_C@_0CF@PEMBPPBD@Failed?5to?5set?5SO_KEEPALIVE?5on?5fd@ 004588a8     libcurl:connect.obj
 0002:000018d0       ??_C@_0CP@NKGEMNPP@Failed?5to?5set?5SIO_KEEPALIVE_VALS@ 004588d0     libcurl:connect.obj
 0002:00001900       ??_C@_03FIFADKBL@if?$CB?$AA@ 00458900     libcurl:connect.obj
 0002:00001904       ??_C@_05BHBFOJOK@host?$CB?$AA@ 00458904     libcurl:connect.obj
 0002:0000190c       ??_C@_0CA@NNLJLENH@Couldn?8t?5bind?5to?5interface?5?8?$CFs?8?$AA@ 0045890c     libcurl:connect.obj
 0002:0000192c       ??_C@_0DF@GKHAKMGC@Local?5Interface?5?$CFs?5is?5ip?5?$CFs?5usin@ 0045892c     libcurl:connect.obj
 0002:00001964       ??_C@_0DA@OPBJKDFD@Name?5?8?$CFs?8?5family?5?$CFi?5resolved?5to?5@ 00458964     libcurl:connect.obj
 0002:00001994       ??_C@_0BG@CIMNBOAN@Couldn?8t?5bind?5to?5?8?$CFs?8?$AA@ 00458994     libcurl:connect.obj
 0002:000019ac       ??_C@_0CH@DDKDPEAI@getsockname?$CI?$CJ?5failed?5with?5errno?5@ 004589ac     libcurl:connect.obj
 0002:000019d4       ??_C@_0BB@PLFEKLHG@Local?5port?3?5?$CFhu?6?$AA@ 004589d4     libcurl:connect.obj
 0002:000019e8       ??_C@_0CM@IFAJKKEJ@Bind?5to?5local?5port?5?$CFhu?5failed?0?5t@ 004589e8     libcurl:connect.obj
 0002:00001a14       ??_C@_0BO@NNMFENBA@bind?5failed?5with?5errno?5?$CFd?3?5?$CFs?$AA@ 00458a14     libcurl:connect.obj
 0002:00001a34       ??_C@_0CH@IBJKPDAO@getpeername?$CI?$CJ?5failed?5with?5errno?5@ 00458a34     libcurl:connect.obj
 0002:00001a5c       ??_C@_0CL@PFOECMOH@ssrem?5inet_ntop?$CI?$CJ?5failed?5with?5er@ 00458a5c     libcurl:connect.obj
 0002:00001a88       ??_C@_0CL@FJICKPK@ssloc?5inet_ntop?$CI?$CJ?5failed?5with?5er@ 00458a88     libcurl:connect.obj
 0002:00001ab4       ??_C@_0BP@FBEALKHG@unknown?5proxytype?5option?5given?$AA@ 00458ab4     libcurl:connect.obj
 0002:00001ad4       ??_C@_0BE@GAEGKOEF@Connection?5time?9out?$AA@ 00458ad4     libcurl:connect.obj
 0002:00001ae8       ??_C@_0CG@OOKPFHPB@After?5?$CFI64dms?5connect?5time?0?5move@ 00458ae8     libcurl:connect.obj
 0002:00001b10       ??_C@_0CD@INOOPIKI@connect?5to?5?$CFs?5port?5?$CFld?5failed?3?5?$CF@ 00458b10     libcurl:connect.obj
 0002:00001b34       ??_C@_0CF@PFFPOJAN@Failed?5to?5connect?5to?5?$CFs?5port?5?$CFld@ 00458b34     libcurl:connect.obj
 0002:00001b5c       ??_C@_0BP@MAILANNH@Could?5not?5set?5TCP_NODELAY?3?5?$CFs?6?$AA@ 00458b5c     libcurl:connect.obj
 0002:00001b7c       ??_C@_0CN@NLCIOFFH@sa_addr?5inet_ntop?$CI?$CJ?5failed?5with?5@ 00458b7c     libcurl:connect.obj
 0002:00001bac       ??_C@_0BD@MPJNDNNC@?5?5Trying?5?$CFs?3?$CFd?4?4?4?6?$AA@ 00458bac     libcurl:connect.obj
 0002:00001bc0       ??_C@_0CD@EAMEJFBB@Immediate?5connect?5fail?5for?5?$CFs?3?5?$CF@ 00458bc0     libcurl:connect.obj
 0002:00001be4       ??_C@_06MHCCOJOO@Digest?$AA@ 00458be4     libcurl:http_digest.obj
 0002:00001bec       ??_C@_04EBNJJJJI@?$CF?4?$CKs?$AA@ 00458bec     libcurl:http_digest.obj
 0002:00001bf4       ??_C@_06MJEPAECD@Proxy?9?$AA@ 00458bf4     libcurl:http_digest.obj
 0002:00001bfc       ??_C@_0BN@NPMGGCBO@?$CFsAuthorization?3?5Digest?5?$CFs?$AN?6?$AA@ 00458bfc     libcurl:http_digest.obj
 0002:00001c1c       ??_C@_0N@BBCKHBCL@iphlpapi?4dll?$AA@ 00458c1c     libcurl:system_win32.obj
 0002:00001c2c       ??_C@_0P@GFPCJLDD@if_nametoindex?$AA@ 00458c2c     libcurl:system_win32.obj
 0002:00001c3c       ??_C@_08PNLNEKOB@kernel32?$AA@ 00458c3c     libcurl:system_win32.obj
 0002:00001c48       ??_C@_0P@GILJFMCJ@LoadLibraryExA?$AA@ 00458c48     libcurl:system_win32.obj
 0002:00001c58       ??_C@_02HHAEMJFE@?2?1?$AA@ 00458c58     libcurl:system_win32.obj
 0002:00001c5c       ??_C@_0BA@NMFGOKJN@AddDllDirectory?$AA@ 00458c5c     libcurl:system_win32.obj
 0002:00001c6c       ??_C@_02IACHLLMH@h1?$AA@   00458c6c     libcurl:altsvc.obj
 0002:00001c70       ??_C@_02KLAKOIAE@h2?$AA@   00458c70     libcurl:altsvc.obj
 0002:00001c74       ??_C@_02LCBBNJEF@h3?$AA@   00458c74     libcurl:altsvc.obj
 0002:00001c78       ??_C@_0CM@DAEANJFD@?$CF10s?5?$CF512s?5?$CFu?5?$CF10s?5?$CF512s?5?$CFu?5?$CC?$CF64@ 00458c78     libcurl:altsvc.obj
 0002:00001ca4       ??_C@_0DF@DAAFPCNG@?$CFs?5?$CFs?5?$CFu?5?$CFs?5?$CFs?5?$CFu?5?$CC?$CFd?$CF02d?$CF02d?5?$CF0@ 00458ca4     libcurl:altsvc.obj
 0002:00001ce0       ??_C@_0HG@JDCLPEEL@?$CD?5Your?5alt?9svc?5cache?4?5https?3?1?1cu@ 00458ce0     libcurl:altsvc.obj
 0002:00001d58       ??_C@_0CH@GNONCAKC@Excessive?5alt?9svc?5header?0?5ignori@ 00458d58     libcurl:altsvc.obj
 0002:00001d80       ??_C@_05MEHLAELG@clear?$AA@ 00458d80     libcurl:altsvc.obj
 0002:00001d88       ??_C@_0CK@IFODLHOH@Excessive?5alt?9svc?5host?5name?0?5ign@ 00458d88     libcurl:altsvc.obj
 0002:00001db4       ??_C@_0CK@IIDJBGKI@Unknown?5alt?9svc?5port?5number?0?5ign@ 00458db4     libcurl:altsvc.obj
 0002:00001de0       ??_C@_02DMFHCEHI@ma?$AA@   00458de0     libcurl:altsvc.obj
 0002:00001de4       ??_C@_07EMFBDGOD@persist?$AA@ 00458de4     libcurl:altsvc.obj
 0002:00001dec       ??_C@_0BO@EALCHFOF@Added?5alt?9svc?3?5?$CFs?3?$CFd?5over?5?$CFs?6?$AA@ 00458dec     libcurl:altsvc.obj
 0002:00001e0c       ??_C@_0CM@MLGGHAPD@Unknown?5alt?9svc?5protocol?5?$CC?$CFs?$CC?0?5s@ 00458e0c     libcurl:altsvc.obj
 0002:00001e88       ??_C@_08LBJOIDDC@identity?$AA@ 00458e88     libcurl:content_encoding.obj
 0002:00001e98       ??_C@_0EO@CHCFCBOE@Unrecognized?5content?5encoding?5ty@ 00458e98     libcurl:content_encoding.obj
 0002:00001ee8       ??_C@_07KCKHAHHI@chunked?$AA@ 00458ee8     libcurl:content_encoding.obj
 0002:00001ef0       ??_C@_03CNODDBJO@?3?$CFu?$AA@ 00458ef0     libcurl:hostip.obj
 0002:00001ef4       ??_C@_0CJ@BHEFAGPN@Hostname?5in?5DNS?5cache?5was?5stale?0@ 00458ef4     libcurl:hostip.obj
 0002:00001f20       ??_C@_0BH@EAPFBJAK@Shuffling?5?$CFi?5addresses?$AA@ 00458f20     libcurl:hostip.obj
 0002:00001f38       ??_C@_0CE@NGLGBBNH@Hostname?5?$CFs?5was?5found?5in?5DNS?5cac@ 00458f38     libcurl:hostip.obj
 0002:00001f5c       ??_C@_0M@CAIHMLOC@?$CF255?$FL?$FO?3?$FN?3?$CFd?$AA@ 00458f5c     libcurl:hostip.obj
 0002:00001f68       ??_C@_0DE@ELJFMFMM@Couldn?8t?5parse?5CURLOPT_RESOLVE?5r@ 00458f68     libcurl:hostip.obj
 0002:00001f9c       ??_C@_0CF@FMMIAGMF@Resolve?5address?5?8?$CFs?8?5found?5illeg@ 00458f9c     libcurl:hostip.obj
 0002:00001fc4       ??_C@_0CM@LICJDDJG@Couldn?8t?5parse?5CURLOPT_RESOLVE?5e@ 00458fc4     libcurl:hostip.obj
 0002:00001ff0       ??_C@_0CN@JHBOBPLC@RESOLVE?5?$CFs?3?$CFd?5is?5?9?5old?5addresses@ 00458ff0     libcurl:hostip.obj
 0002:00002020       ??_C@_0BB@KFONHPNE@?5?$CInon?9permanent?$CJ?$AA@ 00459020     libcurl:hostip.obj
 0002:00002034       ??_C@_0BP@KGHHPNAO@Added?5?$CFs?3?$CFd?3?$CFs?5to?5DNS?5cache?$CFs?6?$AA@ 00459034     libcurl:hostip.obj
 0002:00002054       ??_C@_0DF@FGOBCBFC@RESOLVE?5?$CFs?3?$CFd?5is?5wildcard?0?5enabl@ 00459054     libcurl:hostip.obj
 0002:0000208c       ??_C@_0BJ@MIAHLHBF@Could?5not?5resolve?5?$CFs?3?5?$CFs?$AA@ 0045908c     libcurl:hostip.obj
 0002:000020b8       ??_C@_04MEDPFIKH@HTTP?$AA@ 004590b8     libcurl:http.obj
 0002:000020c0       ??_C@_0CD@KELEPDPB@HTTP?13?5requested?5for?5non?9HTTPS?5U@ 004590c0     libcurl:http.obj
 0002:000020e8       _Curl_handler_http         004590e8     libcurl:http.obj
 0002:00002134       ??_C@_05CCMOGDN@?$CFs?3?$CFs?$AA@ 00459134     libcurl:http.obj
 0002:0000213c       ??_C@_0BM@NMNAGCIL@?$CFsAuthorization?3?5Basic?5?$CFs?$AN?6?$AA@ 0045913c     libcurl:http.obj
 0002:00002158       ??_C@_0BL@JHLMAFGM@Authorization?3?5Bearer?5?$CFs?$AN?6?$AA@ 00459158     libcurl:http.obj
 0002:00002174       ??_C@_0BK@HOMHMGOD@Rewind?5stream?5after?5send?6?$AA@ 00459174     libcurl:http.obj
 0002:00002190       ??_C@_0DB@DNAPMGHO@NTLM?5send?0?5close?5instead?5of?5send@ 00459190     libcurl:http.obj
 0002:000021c4       ??_C@_0BK@CMMBNKGD@Forcing?5HTTP?11?41?5for?5NTLM?$AA@ 004591c4     libcurl:http.obj
 0002:000021e0       ??_C@_0CF@BBGENOPF@The?5requested?5URL?5returned?5error@ 004591e0     libcurl:http.obj
 0002:00002208       ??_C@_09HPCLDLMD@AWS_SIGV4?$AA@ 00459208     libcurl:http.obj
 0002:00002214       ??_C@_04KGCGDDND@NTLM?$AA@ 00459214     libcurl:http.obj
 0002:0000221c       ??_C@_0BE@PPNONACO@Proxy?9authorization?$AA@ 0045921c     libcurl:http.obj
 0002:00002230       ??_C@_0O@NAFGPKMI@Authorization?$AA@ 00459230     libcurl:http.obj
 0002:00002240       ??_C@_05NIKDGMHP@Basic?$AA@ 00459240     libcurl:http.obj
 0002:00002248       ??_C@_0P@LAMGMCAB@Authorization?3?$AA@ 00459248     libcurl:http.obj
 0002:00002258       ??_C@_06NPEPPOGN@Bearer?$AA@ 00459258     libcurl:http.obj
 0002:00002260       ??_C@_05GPLPJAG@Proxy?$AA@ 00459260     libcurl:http.obj
 0002:00002268       ??_C@_06LGMEBDBC@Server?$AA@ 00459268     libcurl:http.obj
 0002:00002270       ??_C@_0CB@BNDOODNM@?$CFs?5auth?5using?5?$CFs?5with?5user?5?8?$CFs?8?6@ 00459270     libcurl:http.obj
 0002:00002294       ??_C@_0CI@DKAENECE@Authentication?5problem?4?5Ignoring@ 00459294     libcurl:http.obj
 0002:000022bc       ??_C@_0CI@DIJIGOJK@Ignoring?5duplicate?5digest?5auth?5h@ 004592bc     libcurl:http.obj
 0002:000022e4       ??_C@_04JIEPCJPP@TCP6?$AA@ 004592e4     libcurl:http.obj
 0002:000022ec       ??_C@_04KKHJELHN@TCP4?$AA@ 004592ec     libcurl:http.obj
 0002:000022f4       ??_C@_0BH@GGJGKPOP@PROXY?5?$CFs?5?$CFs?5?$CFs?5?$CFi?5?$CFi?$AN?6?$AA@ 004592f4     libcurl:http.obj
 0002:0000230c       ??_C@_0BI@KEPAADBC@Empty?5reply?5from?5server?$AA@ 0045930c     libcurl:http.obj
 0002:00002324       ??_C@_03GCKCNDHP@1?41?$AA@ 00459324     libcurl:http.obj
 0002:00002328       ??_C@_03HLLJOCDO@1?40?$AA@ 00459328     libcurl:http.obj
 0002:0000232c       ??_C@_06GHDJNLIG@Expect?$AA@ 0045932c     libcurl:http.obj
 0002:00002334       ??_C@_0N@IOPAKPOD@100?9continue?$AA@ 00459334     libcurl:http.obj
 0002:00002344       ??_C@_07CBBFMBLH@Expect?3?$AA@ 00459344     libcurl:http.obj
 0002:0000234c       ??_C@_0BH@JCEGEJFB@Expect?3?5100?9continue?$AN?6?$AA@ 0045934c     libcurl:http.obj
 0002:00002364       ??_C@_01EEMJAFIK@?6?$AA@   00459364     libcurl:http.obj
 0002:00002368       ??_C@_0DB@KNJCCOIM@Malformatted?5trailing?5header?5?$CB?5S@ 00459368     libcurl:http.obj
 0002:0000239c       ??_C@_05LJIPCHEG@Host?3?$AA@ 0045939c     libcurl:http.obj
 0002:000023a4       ??_C@_0O@PDMPCIFL@Content?9Type?3?$AA@ 004593a4     libcurl:http.obj
 0002:000023b4       ??_C@_0BA@DIGAFIOK@Content?9Length?3?$AA@ 004593b4     libcurl:http.obj
 0002:000023c4       ??_C@_0M@HJBFCNNB@Connection?3?$AA@ 004593c4     libcurl:http.obj
 0002:000023d0       ??_C@_0BD@DNFFOCFM@Transfer?9Encoding?3?$AA@ 004593d0     libcurl:http.obj
 0002:000023e4       ??_C@_07HKOKENHM@Cookie?3?$AA@ 004593e4     libcurl:http.obj
 0002:000023ec       ??_C@_04LLEBNMDN@?$CFs?$AN?6?$AA@ 004593ec     libcurl:http.obj
 0002:000023f4       ??_C@_0BC@PCIFJBEC@Invalid?5TIMEVALUE?$AA@ 004593f4     libcurl:http.obj
 0002:00002408       ??_C@_0BC@GJLFBBBL@If?9Modified?9Since?$AA@ 00459408     libcurl:http.obj
 0002:0000241c       ??_C@_0BE@DDBHAKNF@If?9Unmodified?9Since?$AA@ 0045941c     libcurl:http.obj
 0002:00002430       ??_C@_0O@FICEOEAF@Last?9Modified?$AA@ 00459430     libcurl:http.obj
 0002:00002440       ??_C@_0CJ@PBKGCGNN@?$CFs?3?5?$CFs?0?5?$CF02d?5?$CFs?5?$CF4d?5?$CF02d?3?$CF02d?3?$CF0@ 00459440     libcurl:http.obj
 0002:0000246c       ??_C@_0L@DMPACEMJ@User?9Agent?$AA@ 0045946c     libcurl:http.obj
 0002:00002478       ??_C@_04CPPPJGME@Host?$AA@ 00459478     libcurl:http.obj
 0002:00002480       ??_C@_09PEHAMPH@Host?3?$CFs?$AN?6?$AA@ 00459480     libcurl:http.obj
 0002:0000248c       ??_C@_0P@CKOLCGKA@Host?3?5?$CFs?$CFs?$CFs?$AN?6?$AA@ 0045948c     libcurl:http.obj
 0002:0000249c       ??_C@_0BC@DBODHBND@Host?3?5?$CFs?$CFs?$CFs?3?$CFd?$AN?6?$AA@ 0045949c     libcurl:http.obj
 0002:000024b0       ??_C@_03LMDBDBEG@ftp?$AA@  004594b0     libcurl:http.obj
 0002:000024b4       ??_C@_06ODENPNKJ@?$DLtype?$DN?$AA@ 004594b4     libcurl:http.obj
 0002:000024bc       ??_C@_08MMJPNGCD@?$DLtype?$DN?$CFc?$AA@ 004594bc     libcurl:http.obj
 0002:000024c8       ??_C@_03EMGHGGCK@?$DP?$CFs?$AA@ 004594c8     libcurl:http.obj
 0002:000024cc       ??_C@_0BC@ELHLFCNH@Transfer?9Encoding?$AA@ 004594cc     libcurl:http.obj
 0002:000024e0       ??_C@_0CL@OGPNFEKJ@Chunky?5upload?5is?5not?5supported?5b@ 004594e0     libcurl:http.obj
 0002:0000250c       ??_C@_0BN@HCMGFBOG@Transfer?9Encoding?3?5chunked?$AN?6?$AA@ 0045950c     libcurl:http.obj
 0002:0000252c       ??_C@_0P@HOJGPHBA@Content?9Length?$AA@ 0045952c     libcurl:http.obj
 0002:0000253c       ??_C@_0BI@LJIKFNCE@Content?9Length?3?5?$CFI64d?$AN?6?$AA@ 0045953c     libcurl:http.obj
 0002:00002554       ??_C@_0BL@KJBPLOOA@Failed?5sending?5PUT?5request?$AA@ 00459554     libcurl:http.obj
 0002:00002570       ??_C@_0BG@DPJOPI@Content?9Length?3?50?$AN?6?$AN?6?$AA@ 00459570     libcurl:http.obj
 0002:00002588       ??_C@_0BM@OJEBFGIF@Failed?5sending?5POST?5request?$AA@ 00459588     libcurl:http.obj
 0002:000025a4       ??_C@_0DC@DMFLICKC@Content?9Type?3?5application?1x?9www?9@ 004595a4     libcurl:http.obj
 0002:000025d8       ??_C@_04GMEAFLDM@?$CFx?$AN?6?$AA@ 004595d8     libcurl:http.obj
 0002:000025e0       ??_C@_05CPFNAGPN@0?$AN?6?$AN?6?$AA@ 004595e0     libcurl:http.obj
 0002:000025e8       ??_C@_0CB@KDDFLMMJ@Failed?5sending?5HTTP?5POST?5request@ 004595e8     libcurl:http.obj
 0002:0000260c       ??_C@_0BM@FKBPNPDJ@Failed?5sending?5HTTP?5request?$AA@ 0045960c     libcurl:http.obj
 0002:00002628       ??_C@_06EGBLANDJ@Cookie?$AA@ 00459628     libcurl:http.obj
 0002:00002630       ??_C@_08MMENPDPI@Cookie?3?5?$AA@ 00459630     libcurl:http.obj
 0002:0000263c       ??_C@_02LNAEAIDO@?$DL?5?$AA@ 0045963c     libcurl:http.obj
 0002:00002640       ??_C@_07CHANAGMK@?$CFs?$CFs?$DN?$CFs?$AA@ 00459640     libcurl:http.obj
 0002:00002648       ??_C@_04HDOCAJNK@?$CFs?$CFs?$AA@ 00459648     libcurl:http.obj
 0002:00002650       ??_C@_05CFMCGLCK@Range?$AA@ 00459650     libcurl:http.obj
 0002:00002658       ??_C@_0BC@MAJANMND@Range?3?5bytes?$DN?$CFs?$AN?6?$AA@ 00459658     libcurl:http.obj
 0002:0000266c       ??_C@_0O@PLGHKCFM@Content?9Range?$AA@ 0045966c     libcurl:http.obj
 0002:0000267c       ??_C@_0CF@GOIFFLMO@Content?9Range?3?5bytes?50?9?$CFI64d?1?$CFI6@ 0045967c     libcurl:http.obj
 0002:000026a4       ??_C@_0CF@JBBBEEAB@Content?9Range?3?5bytes?5?$CFs?$CFI64d?1?$CFI6@ 004596a4     libcurl:http.obj
 0002:000026cc       ??_C@_0CA@KGFKCJEO@Content?9Range?3?5bytes?5?$CFs?1?$CFI64d?$AN?6?$AA@ 004596cc     libcurl:http.obj
 0002:000026ec       ??_C@_0BG@FAJPNPNB@Could?5not?5seek?5stream?$AA@ 004596ec     libcurl:http.obj
 0002:00002704       ??_C@_0CL@LFKAINMC@Could?5only?5read?5?$CFI64d?5bytes?5from@ 00459704     libcurl:http.obj
 0002:00002730       ??_C@_0CB@BPNMMFKO@File?5already?5completely?5uploaded@ 00459730     libcurl:http.obj
 0002:00002754       ??_C@_0BM@KNDLFPLE@Ignoring?5the?5response?9body?6?$AA@ 00459754     libcurl:http.obj
 0002:00002770       ??_C@_0CK@ELFDNGAB@The?5entire?5document?5is?5already?5d@ 00459770     libcurl:http.obj
 0002:000027a0       ??_C@_0EA@PGICDNJG@HTTP?5server?5doesn?8t?5seem?5to?5supp@ 004597a0     libcurl:http.obj
 0002:000027e0       ??_C@_0BP@BDCHAEKO@Simulate?5a?5HTTP?5304?5response?$CB?6?$AA@ 004597e0     libcurl:http.obj
 0002:00002800       ??_C@_05DFPCBGAP@?$CFs?$DP?$CFs?$AA@ 00459800     libcurl:http.obj
 0002:00002808       ??_C@_07EJAMNJLN@Referer?$AA@ 00459808     libcurl:http.obj
 0002:00002810       ??_C@_0O@JOAPDPIB@Referer?3?5?$CFs?$AN?6?$AA@ 00459810     libcurl:http.obj
 0002:00002820       ??_C@_0BA@KDJCHKHJ@Accept?9Encoding?$AA@ 00459820     libcurl:http.obj
 0002:00002830       ??_C@_0BG@NKBLEFIE@Accept?9Encoding?3?5?$CFs?$AN?6?$AA@ 00459830     libcurl:http.obj
 0002:00002848       ??_C@_06MDEHPNLG@Accept?$AA@ 00459848     libcurl:http.obj
 0002:00002850       ??_C@_0O@GHCMGJMD@Accept?3?5?$CK?1?$CK?$AN?6?$AA@ 00459850     libcurl:http.obj
 0002:00002860       ??_C@_03IKGEINEE@?$CFs?5?$AA@ 00459860     libcurl:http.obj
 0002:00002864       ??_C@_08DCLKEDJA@Alt?9Used?$AA@ 00459864     libcurl:http.obj
 0002:00002870       ??_C@_0BC@NLLFJIJM@Alt?9Used?3?5?$CFs?3?$CFd?$AN?6?$AA@ 00459870     libcurl:http.obj
 0002:00002884       ??_C@_0BB@MLFPABGO@Proxy?9Connection?$AA@ 00459884     libcurl:http.obj
 0002:00002898       ??_C@_0BP@HADNPFIL@Proxy?9Connection?3?5Keep?9Alive?$AN?6?$AA@ 00459898     libcurl:http.obj
 0002:000028b8       ??_C@_0CD@NHMGHKMA@?5HTTP?1?$CFs?$AN?6?$CFs?$CFs?$CFs?$CFs?$CFs?$CFs?$CFs?$CFs?$CFs?$CFs?$CFs@ 004598b8     libcurl:http.obj
 0002:000028dc       ??_C@_0DG@MEACOPGN@upload?5completely?5sent?5off?3?5?$CFI64@ 004598dc     libcurl:http.obj
 0002:00002914       ??_C@_05FKGKDBHO@HTTP?1?$AA@ 00459914     libcurl:http.obj
 0002:0000291c       ??_C@_05GFPACIDK@RTSP?1?$AA@ 0045991c     libcurl:http.obj
 0002:00002924       ??_C@_0BL@GFBKPFMO@Maximum?5file?5size?5exceeded?$AA@ 00459924     libcurl:http.obj
 0002:00002940       ??_C@_0CB@KGLAHIH@Overflow?5Content?9Length?3?5value?$CB?6@ 00459940     libcurl:http.obj
 0002:00002964       ??_C@_0BO@DIBNEJMM@Invalid?5Content?9Length?3?5value?$AA@ 00459964     libcurl:http.obj
 0002:00002984       ??_C@_0L@FFDPOIEG@keep?9alive?$AA@ 00459984     libcurl:http.obj
 0002:00002990       ??_C@_0BC@IPGIMNCH@Proxy?9Connection?3?$AA@ 00459990     libcurl:http.obj
 0002:000029a4       ??_C@_0CO@NNECKAAI@HTTP?11?40?5proxy?5connection?5set?5to@ 004599a4     libcurl:http.obj
 0002:000029d4       ??_C@_05LBOHBHFK@close?$AA@ 004599d4     libcurl:http.obj
 0002:000029dc       ??_C@_0CG@GBJOIAPM@HTTP?11?41?5proxy?5connection?5set?5cl@ 004599dc     libcurl:http.obj
 0002:00002a04       ??_C@_0CI@DLONMNKD@HTTP?11?40?5connection?5set?5to?5keep?5@ 00459a04     libcurl:http.obj
 0002:00002a2c       ??_C@_0BC@FGDKEGD@Content?9Encoding?3?$AA@ 00459a2c     libcurl:http.obj
 0002:00002a40       ??_C@_0N@OFDPOHHB@Retry?9After?3?$AA@ 00459a40     libcurl:http.obj
 0002:00002a50       ??_C@_0P@EHIPKEAE@Content?9Range?3?$AA@ 00459a50     libcurl:http.obj
 0002:00002a60       ??_C@_0P@FFJLAOBC@Last?9Modified?3?$AA@ 00459a60     libcurl:http.obj
 0002:00002a70       ??_C@_0BC@EALNDOCH@WWW?9Authenticate?3?$AA@ 00459a70     libcurl:http.obj
 0002:00002a84       ??_C@_0BE@IHHLHIBG@Proxy?9authenticate?3?$AA@ 00459a84     libcurl:http.obj
 0002:00002a98       ??_C@_09GILIFLDG@Location?3?$AA@ 00459a98     libcurl:http.obj
 0002:00002aa4       ??_C@_08KKJBEKGK@Alt?9Svc?3?$AA@ 00459aa4     libcurl:http.obj
 0002:00002ab0       ??_C@_0CD@KMCBNFEI@HTTP?51?40?0?5assume?5close?5after?5bod@ 00459ab0     libcurl:http.obj
 0002:00002ad4       ??_C@_0CD@KCIPCEBM@Received?5HTTP?10?49?5when?5not?5allow@ 00459ad4     libcurl:http.obj
 0002:00002af8       ??_C@_0O@HIILDMIH@Received?5101?6?$AA@ 00459af8     libcurl:http.obj
 0002:00002b08       ??_C@_0DJ@MIHKJEOL@no?5chunk?0?5no?5close?0?5no?5size?4?5Ass@ 00459b08     libcurl:http.obj
 0002:00002b44       ??_C@_0DH@BADDOKJP@Connection?5closure?5while?5negotia@ 00459b44     libcurl:http.obj
 0002:00002b7c       ??_C@_0CB@CMHNBKGH@Got?5417?5while?5waiting?5for?5a?5100?6@ 00459b7c     libcurl:http.obj
 0002:00002ba0       ??_C@_0CN@PJJLOEM@HTTP?5error?5before?5end?5of?5send?0?5k@ 00459ba0     libcurl:http.obj
 0002:00002bd0       ??_C@_0CN@NJNEALCI@HTTP?5error?5before?5end?5of?5send?0?5s@ 00459bd0     libcurl:http.obj
 0002:00002c00       ??_C@_0CH@COOIMIHN@Keep?5sending?5data?5to?5get?5tossed?5@ 00459c00     libcurl:http.obj
 0002:00002c28       ??_C@_0BD@MJKOHCIC@?5HTTP?1?$CF1d?4?$CF1d?$CFc?$CF3d?$AA@ 00459c28     libcurl:http.obj
 0002:00002c3c       ??_C@_0BA@KFEEPMFA@?5HTTP?1?$CF1?$FL23?$FN?5?$CFd?$AA@ 00459c3c     libcurl:http.obj
 0002:00002c4c       ??_C@_0CN@OHBDOBD@Unsupported?5HTTP?5version?5?$CI?$CFu?4?$CFd?$CJ@ 00459c4c     libcurl:http.obj
 0002:00002c7c       ??_C@_0CC@JKBOGHFA@Lying?5server?0?5not?5serving?5HTTP?12@ 00459c7c     libcurl:http.obj
 0002:00002ca0       ??_C@_0CI@LFNOECD@Mark?5bundle?5as?5not?5supporting?5mu@ 00459ca0     libcurl:http.obj
 0002:00002cc8       ??_C@_09ENILIIEL@?5HTTP?5?$CF3d?$AA@ 00459cc8     libcurl:http.obj
 0002:00002cd4       ??_C@_0CF@HNNLNLIA@Unsupported?5HTTP?5version?5in?5resp@ 00459cd4     libcurl:http.obj
 0002:00002cfc       ??_C@_0BD@IHBBDGA@?5RTSP?1?$CF1d?4?$CF1d?$CFc?$CF3d?$AA@ 00459cfc     libcurl:http.obj
 0002:00002d10       ??_C@_02BBAHNLBA@?$CFp?$AA@ 00459d10     libcurl:socketpair.obj
 0002:00002d14       ??_C@_0DM@ENEANEJF@Moving?5trailers?5state?5machine?5fr@ 00459d14     libcurl:transfer.obj
 0002:00002d50       ??_C@_0CP@HJNKABJC@operation?5aborted?5by?5trailing?5he@ 00459d50     libcurl:transfer.obj
 0002:00002d80       ??_C@_0CC@PPBDDFKE@Successfully?5compiled?5trailers?4?$AN@ 00459d80     libcurl:transfer.obj
 0002:00002da4       ??_C@_0BO@MMBEFIGJ@operation?5aborted?5by?5callback?$AA@ 00459da4     libcurl:transfer.obj
 0002:00002dc4       ??_C@_0DC@KLEIDKKI@Read?5callback?5asked?5for?5PAUSE?5wh@ 00459dc4     libcurl:transfer.obj
 0002:00002df8       ??_C@_0CD@HAMJCOCA@read?5function?5returned?5funny?5val@ 00459df8     libcurl:transfer.obj
 0002:00002e1c       ??_C@_05DOCBBEPK@?$CFzx?$CFs?$AA@ 00459e1c     libcurl:transfer.obj
 0002:00002e24       ??_C@_0DB@OHDOBAMJ@Signaling?5end?5of?5chunked?5upload?5@ 00459e24     libcurl:transfer.obj
 0002:00002e58       ??_C@_0DI@GAABNBIG@Signaling?5end?5of?5chunked?5upload?5@ 00459e58     libcurl:transfer.obj
 0002:00002e90       ??_C@_0BN@LINFGIKF@Cannot?5rewind?5mime?1post?5data?$AA@ 00459e90     libcurl:transfer.obj
 0002:00002eb0       ??_C@_0CA@DIJIHPOF@seek?5callback?5returned?5error?5?$CFd?$AA@ 00459eb0     libcurl:transfer.obj
 0002:00002ed0       ??_C@_0CA@FAMFIPII@the?5ioctl?5callback?5returned?5?$CFd?6?$AA@ 00459ed0     libcurl:transfer.obj
 0002:00002ef0       ??_C@_0CB@KPKNOGEG@ioctl?5callback?5returned?5error?5?$CFd@ 00459ef0     libcurl:transfer.obj
 0002:00002f14       ??_C@_0CG@CHEKEDLE@necessary?5data?5rewind?5wasn?8t?5pos@ 00459f14     libcurl:transfer.obj
 0002:00002f3c       ??_C@_0CK@FAJPFEAA@The?5requested?5document?5is?5not?5ne@ 00459f3c     libcurl:transfer.obj
 0002:00002f68       ??_C@_0CK@HMOOBMAB@The?5requested?5document?5is?5not?5ol@ 00459f68     libcurl:transfer.obj
 0002:00002f94       ??_C@_0DI@LKBFDFDE@Excess?5found?3?5excess?5?$DN?5?$CFzd?5url?5?$DN@ 00459f94     libcurl:transfer.obj
 0002:00002fcc       ??_C@_0CK@CJJBEGPJ@Failed?5reading?5the?5chunked?9encod@ 00459fcc     libcurl:transfer.obj
 0002:00002ff8       ??_C@_0BH@ONNJJKOC@?$CFs?5in?5chunked?9encoding?$AA@ 00459ff8     libcurl:transfer.obj
 0002:00003010       ??_C@_0CJ@LNLGBBHG@Leftovers?5after?5chunking?3?5?$CF?5I64d@ 0045a010     libcurl:transfer.obj
 0002:00003040       ??_C@_0FM@BBNOIMMG@Excess?5found?5in?5a?5read?3?5excess?5?$DN@ 0045a040     libcurl:transfer.obj
 0002:0000309c       ??_C@_0DJ@GJLMKBJF@we?5are?5done?5reading?5and?5this?5is?5@ 0045a09c     libcurl:transfer.obj
 0002:000030d8       ??_C@_0CA@FDBKFCML@Failed?5to?5alloc?5scratch?5buffer?$CB?$AA@ 0045a0d8     libcurl:transfer.obj
 0002:000030f8       ??_C@_0CF@KMDHNAMD@We?5are?5completely?5uploaded?5and?5f@ 0045a0f8     libcurl:transfer.obj
 0002:00003120       ??_C@_0BL@EMJDLKIE@select?1poll?5returned?5error?$AA@ 0045a120     libcurl:transfer.obj
 0002:0000313c       ??_C@_0BP@GGMDICAN@Done?5waiting?5for?5100?9continue?6?$AA@ 0045a13c     libcurl:transfer.obj
 0002:0000315c       ??_C@_0DD@EDBBFLBK@transfer?5closed?5with?5?$CFI64d?5bytes@ 0045a15c     libcurl:transfer.obj
 0002:00003190       ??_C@_0DF@NKPPDLKD@transfer?5closed?5with?5outstanding@ 0045a190     libcurl:transfer.obj
 0002:000031c8       ??_C@_0M@BHCFJOKI@No?5URL?5set?$CB?$AA@ 0045a1c8     libcurl:transfer.obj
 0002:000031d4       ??_C@_0BB@CAJCOHBO@User?9Agent?3?5?$CFs?$AN?6?$AA@ 0045a1d4     libcurl:transfer.obj
 0002:000031e8       ??_C@_0CB@MELNCDNE@Maximum?5?$CI?$CFld?$CJ?5redirects?5followed@ 0045a1e8     libcurl:transfer.obj
 0002:0000320c       ??_C@_0CJ@KJEMPLIM@Issue?5another?5request?5to?5this?5UR@ 0045a20c     libcurl:transfer.obj
 0002:00003238       ??_C@_0BJ@HBHELCBA@Switch?5from?5POST?5to?5GET?6?$AA@ 0045a238     libcurl:transfer.obj
 0002:00003254       ??_C@_0O@HGEEJMOP@Switch?5to?5?$CFs?6?$AA@ 0045a254     libcurl:transfer.obj
 0002:00003264       ??_C@_0CK@CDCMFBLO@REFUSED_STREAM?0?5retrying?5a?5fresh@ 0045a264     libcurl:transfer.obj
 0002:00003290       ??_C@_0DB@JBFLNIDB@Connection?5died?0?5tried?5?$CFd?5times?5@ 0045a290     libcurl:transfer.obj
 0002:000032c4       ??_C@_0DM@GDKKDADD@Connection?5died?0?5retrying?5a?5fres@ 0045a2c4     libcurl:transfer.obj
 0002:00003300       ??_C@_08JGCGJPK@?9?9?3?9?9?3?9?9?$AA@ 0045a300     libcurl:progress.obj
 0002:0000330c       ??_C@_0BH@DDKMEPEA@?$CF2I64d?3?$CF02I64d?3?$CF02I64d?$AA@ 0045a30c     libcurl:progress.obj
 0002:00003324       ??_C@_0BB@HBEGKPFM@?$CF3I64dd?5?$CF02I64dh?$AA@ 0045a324     libcurl:progress.obj
 0002:00003338       ??_C@_07HBLPGDFD@?$CF7I64dd?$AA@ 0045a338     libcurl:progress.obj
 0002:00003340       ??_C@_06JPBNOAO@?$CF5I64d?$AA@ 0045a340     libcurl:progress.obj
 0002:00003348       ??_C@_07MHMPGFAB@?$CF4I64dk?$AA@ 0045a348     libcurl:progress.obj
 0002:00003350       ??_C@_0P@HINFNDLG@?$CF2I64d?4?$CF0I64dM?$AA@ 0045a350     libcurl:progress.obj
 0002:00003360       ??_C@_07EBBOGCF@?$CF4I64dM?$AA@ 0045a360     libcurl:progress.obj
 0002:00003368       ??_C@_0P@ICDKDLDM@?$CF2I64d?4?$CF0I64dG?$AA@ 0045a368     libcurl:progress.obj
 0002:00003378       ??_C@_07POPOAOKP@?$CF4I64dG?$AA@ 0045a378     libcurl:progress.obj
 0002:00003380       ??_C@_07JPBBEPDN@?$CF4I64dT?$AA@ 0045a380     libcurl:progress.obj
 0002:00003388       ??_C@_07PLHNIKDJ@?$CF4I64dP?$AA@ 0045a388     libcurl:progress.obj
 0002:00003390       ??_C@_0CP@JLABFKHL@?$CK?$CK?5Resuming?5transfer?5from?5byte?5p@ 0045a390     libcurl:progress.obj
 0002:000033c0       ??_C@_0KC@DNGKHLLM@?5?5?$CF?$CF?5Total?5?5?5?5?$CF?$CF?5Received?5?$CF?$CF?5Xfe@ 0045a3c0     libcurl:progress.obj
 0002:00003464       ??_C@_0DF@JLDNJIPD@?$AN?$CF3I64d?5?$CFs?5?5?$CF3I64d?5?$CFs?5?5?$CF3I64d?5?$CFs@ 0045a464     libcurl:progress.obj
 0002:0000349c       ??_C@_0BB@GAJGHPCC@Callback?5aborted?$AA@ 0045a49c     libcurl:progress.obj
 0002:000034b0       __real@408f400000000000    0045a4b0     libcurl:progress.obj
 0002:000034b8       ??_C@_0EN@COANIBDN@Operation?5too?5slow?4?5Less?5than?5?$CFl@ 0045a4b8     libcurl:speedcheck.obj
 0002:00003508       ??_C@_0BK@PNKMNPKO@allocate?5connect?5buffer?$CB?6?$AA@ 0045a508     libcurl:http_proxy.obj
 0002:00003524       ??_C@_0BK@OHJCNBEA@CONNECT?5phase?5completed?$CB?6?$AA@ 0045a524     libcurl:http_proxy.obj
 0002:00003540       ??_C@_09FJKLDKHO@?$CFs?$CFs?$CFs?3?$CFd?$AA@ 0045a540     libcurl:http_proxy.obj
 0002:0000354c       ??_C@_0L@LAAIKCML@Host?3?5?$CFs?$AN?6?$AA@ 0045a54c     libcurl:http_proxy.obj
 0002:00003558       ??_C@_0CG@JIEEDFAF@Establish?5HTTP?5proxy?5tunnel?5to?5?$CF@ 0045a558     libcurl:http_proxy.obj
 0002:00003580       ??_C@_07FNNMGOPK@CONNECT?$AA@ 0045a580     libcurl:http_proxy.obj
 0002:00003588       ??_C@_0BN@HGHMBOED@CONNECT?5?$CFs?5HTTP?1?$CFs?$AN?6?$CFs?$CFs?$CFs?$CFs?$AA@ 0045a588     libcurl:http_proxy.obj
 0002:000035a8       ??_C@_0CA@KCBNIFEI@Failed?5sending?5CONNECT?5to?5proxy?$AA@ 0045a5a8     libcurl:http_proxy.obj
 0002:000035c8       ??_C@_0CF@KOLJOBP@Proxy?5CONNECT?5aborted?5due?5to?5tim@ 0045a5c8     libcurl:http_proxy.obj
 0002:000035f0       ??_C@_0CB@DICNFOOE@Proxy?5CONNECT?5connection?5closed?6@ 0045a5f0     libcurl:http_proxy.obj
 0002:00003614       ??_C@_0BG@JFLKGDIG@Proxy?5CONNECT?5aborted?$AA@ 0045a614     libcurl:http_proxy.obj
 0002:0000362c       ??_C@_0BE@LIFOKNAI@chunk?5reading?5DONE?6?$AA@ 0045a62c     libcurl:http_proxy.obj
 0002:00003640       ??_C@_0BM@LDKBIKH@CONNECT?5response?5too?5large?$CB?$AA@ 0045a640     libcurl:http_proxy.obj
 0002:0000365c       ??_C@_0CF@EGEEKEED@Ignore?5?$CFI64d?5bytes?5of?5response?9b@ 0045a65c     libcurl:http_proxy.obj
 0002:00003684       ??_C@_0BO@ECLLDHEE@Ignore?5chunked?5response?9body?6?$AA@ 0045a684     libcurl:http_proxy.obj
 0002:000036a4       ??_C@_0DC@KNKBLKEG@Ignoring?5Content?9Length?5in?5CONNE@ 0045a6a4     libcurl:http_proxy.obj
 0002:000036d8       ??_C@_0DF@HKNKCFIL@Ignoring?5Transfer?9Encoding?5in?5CO@ 0045a6d8     libcurl:http_proxy.obj
 0002:00003710       ??_C@_0BL@FDNFJOM@CONNECT?5responded?5chunked?6?$AA@ 0045a710     libcurl:http_proxy.obj
 0002:0000372c       ??_C@_0N@HGFACOOI@HTTP?11?4?$CFd?5?$CFd?$AA@ 0045a72c     libcurl:http_proxy.obj
 0002:0000373c       ??_C@_0BJ@KOKGPDEF@Connect?5me?5again?5please?6?$AA@ 0045a73c     libcurl:http_proxy.obj
 0002:00003758       ??_C@_0CP@GIFMMFLA@Received?5HTTP?5code?5?$CFd?5from?5proxy@ 0045a758     libcurl:http_proxy.obj
 0002:00003788       ??_C@_0CF@LHCLBLEC@Proxy?5replied?5?$CFd?5to?5CONNECT?5requ@ 0045a788     libcurl:http_proxy.obj
 0002:000037b0       ??_C@_01MCMALHOG@a?$AA@    0045a7b0     libcurl:socks.obj
 0002:000037b4       ??_C@_0CP@GODCGMBP@SOCKS4?$CFs?3?5connecting?5to?5HTTP?5pro@ 0045a7b4     libcurl:socks.obj
 0002:000037e4       ??_C@_0BP@BFLNLLPD@SOCKS4?5communication?5to?5?$CFs?3?$CFd?6?$AA@ 0045a7e4     libcurl:socks.obj
 0002:00003804       ??_C@_0CD@BBPIICAB@SOCKS4?5non?9blocking?5resolve?5of?5?$CF@ 0045a804     libcurl:socks.obj
 0002:00003828       ??_C@_0BJ@HAGKBMCP@Hostname?5?8?$CFs?8?5was?5found?6?$AA@ 0045a828     libcurl:socks.obj
 0002:00003844       ??_C@_0CO@JJCMGPBJ@SOCKS4?5connect?5to?5IPv4?5?$CFs?5?$CIlocal@ 0045a844     libcurl:socks.obj
 0002:00003874       ??_C@_0CG@NKAIHKN@SOCKS4?5connection?5to?5?$CFs?5not?5supp@ 0045a874     libcurl:socks.obj
 0002:0000389c       ??_C@_0CL@BDNFEDCD@Failed?5to?5resolve?5?$CC?$CFs?$CC?5for?5SOCKS@ 0045a89c     libcurl:socks.obj
 0002:000038c8       ??_C@_0CL@MCOGLIGC@Too?5long?5SOCKS?5proxy?5user?5name?0?5@ 0045a8c8     libcurl:socks.obj
 0002:000038f4       ??_C@_0BL@JJKDFGHD@SOCKS4?3?5too?5long?5host?5name?$AA@ 0045a8f4     libcurl:socks.obj
 0002:00003910       ??_C@_0CH@MHLMDCGL@Failed?5to?5send?5SOCKS4?5connect?5re@ 0045a910     libcurl:socks.obj
 0002:00003938       ??_C@_0DB@OIJFDGGK@SOCKS4?3?5Failed?5receiving?5connect@ 0045a938     libcurl:socks.obj
 0002:0000396c       ??_C@_0BL@EDONHKIC@connection?5to?5proxy?5closed?$AA@ 0045a96c     libcurl:socks.obj
 0002:00003988       ??_C@_0DF@PDFOFKGI@SOCKS4?5reply?5has?5wrong?5version?0?5@ 0045a988     libcurl:socks.obj
 0002:000039c0       ??_C@_0BL@KEGECNIK@SOCKS4?$CFs?5request?5granted?4?6?$AA@ 0045a9c0     libcurl:socks.obj
 0002:000039e0       ??_C@_0FG@CLNHBPIC@Can?8t?5complete?5SOCKS4?5connection@ 0045a9e0     libcurl:socks.obj
 0002:00003a38       ??_C@_0II@IBODGEP@Can?8t?5complete?5SOCKS4?5connection@ 0045aa38     libcurl:socks.obj
 0002:00003ac0       ??_C@_0IM@JGJMKCMN@Can?8t?5complete?5SOCKS4?5connection@ 0045aac0     libcurl:socks.obj
 0002:00003b50       ??_C@_0ED@LEIEKNLE@Can?8t?5complete?5SOCKS4?5connection@ 0045ab50     libcurl:socks.obj
 0002:00003bb8       ??_C@_0CN@HPHFPLLC@SOCKS5?3?5connecting?5to?5HTTP?5proxy@ 0045abb8     libcurl:socks.obj
 0002:00003be8       ??_C@_0FC@NMNHLDOO@SOCKS5?3?5server?5resolving?5disable@ 0045abe8     libcurl:socks.obj
 0002:00003c3c       ??_C@_0DP@BIGHPBCP@warning?3?5unsupported?5value?5passe@ 0045ac3c     libcurl:socks.obj
 0002:00003c7c       ??_C@_0CH@GMDFCCKK@Unable?5to?5send?5initial?5SOCKS5?5re@ 0045ac7c     libcurl:socks.obj
 0002:00003ca4       ??_C@_0CL@JAKJLHBC@Unable?5to?5receive?5initial?5SOCKS5@ 0045aca4     libcurl:socks.obj
 0002:00003cd0       ??_C@_0BL@PPAECMCI@Connection?5to?5proxy?5closed?$AA@ 0045acd0     libcurl:socks.obj
 0002:00003cec       ??_C@_0DF@KPPCOMKD@Received?5invalid?5version?5in?5init@ 0045acec     libcurl:socks.obj
 0002:00003d24       ??_C@_0DL@FCEPENBN@SOCKS5?5GSSAPI?5per?9message?5authen@ 0045ad24     libcurl:socks.obj
 0002:00003d60       ??_C@_0CJ@CHHGJDNO@No?5authentication?5method?5was?5acc@ 0045ad60     libcurl:socks.obj
 0002:00003d8c       ??_C@_0DJ@GEDKBFPH@Undocumented?5SOCKS5?5mode?5attempt@ 0045ad8c     libcurl:socks.obj
 0002:00003dc8       ??_C@_0CK@NCDGADEO@Excessive?5user?5name?5length?5for?5p@ 0045adc8     libcurl:socks.obj
 0002:00003df4       ??_C@_0CJ@LKBHCEIE@Excessive?5password?5length?5for?5pr@ 0045adf4     libcurl:socks.obj
 0002:00003e20       ??_C@_0CP@CMDGNMCE@Failed?5to?5send?5SOCKS5?5sub?9negoti@ 0045ae20     libcurl:socks.obj
 0002:00003e50       ??_C@_0DD@BOLKPAMM@Unable?5to?5receive?5SOCKS5?5sub?9neg@ 0045ae50     libcurl:socks.obj
 0002:00003e84       ??_C@_0DA@CLHHICIG@User?5was?5rejected?5by?5the?5SOCKS5?5@ 0045ae84     libcurl:socks.obj
 0002:00003eb4       ??_C@_0BN@BFPKMOIA@SOCKS5?3?5hostname?5?8?$CFs?8?5found?6?$AA@ 0045aeb4     libcurl:socks.obj
 0002:00003ed4       ??_C@_0CL@NCFLJMOD@Failed?5to?5resolve?5?$CC?$CFs?$CC?5for?5SOCKS@ 0045aed4     libcurl:socks.obj
 0002:00003f00       ??_C@_03HODKBCIO@?3?$CFd?$AA@ 0045af00     libcurl:socks.obj
 0002:00003f04       ??_C@_0CO@HBDLPPLI@SOCKS5?5connect?5to?5IPv4?5?$CFs?5?$CIlocal@ 0045af04     libcurl:socks.obj
 0002:00003f34       ??_C@_0CO@OBFNNJOF@SOCKS5?5connect?5to?5IPv6?5?$CFs?5?$CIlocal@ 0045af34     libcurl:socks.obj
 0002:00003f64       ??_C@_0CG@DLFCBHFO@SOCKS5?5connection?5to?5?$CFs?5not?5supp@ 0045af64     libcurl:socks.obj
 0002:00003f8c       ??_C@_0CN@FPICFOPM@SOCKS5?5connect?5to?5?$CFs?3?$CFd?5?$CIremotel@ 0045af8c     libcurl:socks.obj
 0002:00003fbc       ??_C@_0CH@BAFOLCDD@Failed?5to?5send?5SOCKS5?5connect?5re@ 0045afbc     libcurl:socks.obj
 0002:00003fe4       ??_C@_0CO@HHLOPEDO@Failed?5to?5receive?5SOCKS5?5connect@ 0045afe4     libcurl:socks.obj
 0002:00004014       ??_C@_0DF@MICEHEFP@SOCKS5?5reply?5has?5wrong?5version?0?5@ 0045b014     libcurl:socks.obj
 0002:0000404c       ??_C@_0CN@LLAFNAAA@Can?8t?5complete?5SOCKS5?5connection@ 0045b04c     libcurl:socks.obj
 0002:0000407c       ??_C@_0CF@NJGGJEDC@SOCKS5?5reply?5has?5wrong?5address?5t@ 0045b07c     libcurl:socks.obj
 0002:000040a4       ??_C@_0BJ@DJFGPDDE@SOCKS5?5request?5granted?4?6?$AA@ 0045b0a4     libcurl:socks.obj
 0002:00004120       ??_C@_03PDPKDIOM@I32?$AA@  0045b120     libcurl:mprintf.obj
 0002:00004124       ??_C@_03KDGLFNIB@I64?$AA@  0045b124     libcurl:mprintf.obj
 0002:00004128       ??_C@_03JALODAI@?$CFld?$AA@ 0045b128     libcurl:mprintf.obj
 0002:0000412c       ??_C@_04JAJMFKGM@?4?$CFld?$AA@ 0045b12c     libcurl:mprintf.obj
 0002:00004138       __real@4024000000000000    0045b138     libcurl:mprintf.obj
 0002:00004178       _Curl_wkday                0045b178     libcurl:parsedate.obj
 0002:00004194       _Curl_month                0045b194     libcurl:parsedate.obj
 0002:0000454c       ??_C@_03PDAGKDH@Mon?$AA@   0045b54c     libcurl:parsedate.obj
 0002:00004550       ??_C@_03NAGEINEP@Tue?$AA@  0045b550     libcurl:parsedate.obj
 0002:00004554       ??_C@_03MHOMLAJA@Wed?$AA@  0045b554     libcurl:parsedate.obj
 0002:00004558       ??_C@_03IOFIKPDN@Thu?$AA@  0045b558     libcurl:parsedate.obj
 0002:0000455c       ??_C@_03IDIOELNC@Fri?$AA@  0045b55c     libcurl:parsedate.obj
 0002:00004560       ??_C@_03FEFJNEK@Sat?$AA@   0045b560     libcurl:parsedate.obj
 0002:00004564       ??_C@_03KOEHGMDN@Sun?$AA@  0045b564     libcurl:parsedate.obj
 0002:00004568       ??_C@_03JIHJHPIE@Jan?$AA@  0045b568     libcurl:parsedate.obj
 0002:0000456c       ??_C@_03HJBDCHOM@Feb?$AA@  0045b56c     libcurl:parsedate.obj
 0002:00004570       ??_C@_03ODNJBKGA@Mar?$AA@  0045b570     libcurl:parsedate.obj
 0002:00004574       ??_C@_03LEOLGMJP@Apr?$AA@  0045b574     libcurl:parsedate.obj
 0002:00004578       ??_C@_03CNMDKL@May?$AA@    0045b578     libcurl:parsedate.obj
 0002:0000457c       ??_C@_03IDFGHECI@Jun?$AA@  0045b57c     libcurl:parsedate.obj
 0002:00004580       ??_C@_03LBGABGKK@Jul?$AA@  0045b580     libcurl:parsedate.obj
 0002:00004584       ??_C@_03IFJFEIGA@Aug?$AA@  0045b584     libcurl:parsedate.obj
 0002:00004588       ??_C@_03GGCAPAJC@Sep?$AA@  0045b588     libcurl:parsedate.obj
 0002:0000458c       ??_C@_03BMAOKBAD@Oct?$AA@  0045b58c     libcurl:parsedate.obj
 0002:00004590       ??_C@_03JPJOFNIA@Nov?$AA@  0045b590     libcurl:parsedate.obj
 0002:00004594       ??_C@_03MKABNOCG@Dec?$AA@  0045b594     libcurl:parsedate.obj
 0002:00004598       ??_C@_06JLEDEDGH@Monday?$AA@ 0045b598     libcurl:parsedate.obj
 0002:000045a0       ??_C@_07BAAGCFCM@Tuesday?$AA@ 0045b5a0     libcurl:parsedate.obj
 0002:000045a8       ??_C@_09DLIGFAKA@Wednesday?$AA@ 0045b5a8     libcurl:parsedate.obj
 0002:000045b4       ??_C@_08HACCIKIA@Thursday?$AA@ 0045b5b4     libcurl:parsedate.obj
 0002:000045c0       ??_C@_06JECMNKMI@Friday?$AA@ 0045b5c0     libcurl:parsedate.obj
 0002:000045c8       ??_C@_08INBOOONO@Saturday?$AA@ 0045b5c8     libcurl:parsedate.obj
 0002:000045d4       ??_C@_06OOPIFAJ@Sunday?$AA@ 0045b5d4     libcurl:parsedate.obj
 0002:000045dc       ??_C@_0DK@DJOHIPMC@?$CF31?$FLABCDEFGHIJKLMNOPQRSTUVWXYZab@ 0045b5dc     libcurl:parsedate.obj
 0002:00004618       ??_C@_0BB@DDKNHMEG@?$CF02d?3?$CF02d?3?$CF02d?$CFn?$AA@ 0045b618     libcurl:parsedate.obj
 0002:0000462c       ??_C@_0M@GGPEELHK@?$CF02d?3?$CF02d?$CFn?$AA@ 0045b62c     libcurl:parsedate.obj
 0002:00004638       ??_C@_0CB@GKOJBLCO@WARNING?3?5Using?5weak?5random?5seed?6@ 0045b638     libcurl:rand.obj
 0002:0000465c       ??_C@_0BB@JCEFLFJE@0123456789abcdef?$AA@ 0045b65c     libcurl:rand.obj
 0002:00004670       _Curl_handler_gopher       0045b670     libcurl:gopher.obj
 0002:000046bc       ??_C@_06IFFOBMCL@GOPHER?$AA@ 0045b6bc     libcurl:gopher.obj
 0002:000046c4       ??_C@_0BO@PBGBECFJ@Failed?5sending?5Gopher?5request?$AA@ 0045b6c4     libcurl:gopher.obj
 0002:000046e4       ??_C@_04MOKDAIJJ@IMAP?$AA@ 0045b6e4     libcurl:imap.obj
 0002:00004710       _Curl_handler_imap         0045b710     libcurl:imap.obj
 0002:0000475c       ??_C@_04CJJOKOB@imap?$AA@  0045b75c     libcurl:imap.obj
 0002:00004764       ??_C@_02GIPFHKNO@OK?$AA@   0045b764     libcurl:imap.obj
 0002:00004768       ??_C@_0L@LNNPCDBM@CAPABILITY?$AA@ 0045b768     libcurl:imap.obj
 0002:00004774       ??_C@_04PCOPKCKE@LIST?$AA@ 0045b774     libcurl:imap.obj
 0002:0000477c       ??_C@_05CIPFEEPL@STORE?$AA@ 0045b77c     libcurl:imap.obj
 0002:00004784       ??_C@_05JDMAOHF@FETCH?$AA@ 0045b784     libcurl:imap.obj
 0002:0000478c       ??_C@_06LCPJPOPK@SELECT?$AA@ 0045b78c     libcurl:imap.obj
 0002:00004794       ??_C@_07JOOLACMD@EXAMINE?$AA@ 0045b794     libcurl:imap.obj
 0002:0000479c       ??_C@_06GBNAAIDA@SEARCH?$AA@ 0045b79c     libcurl:imap.obj
 0002:000047a4       ??_C@_07JEPHAMII@EXPUNGE?$AA@ 0045b7a4     libcurl:imap.obj
 0002:000047ac       ??_C@_04NFFONMDK@LSUB?$AA@ 0045b7ac     libcurl:imap.obj
 0002:000047b4       ??_C@_03MJDGODDN@UID?$AA@  0045b7b4     libcurl:imap.obj
 0002:000047b8       ??_C@_04NMBEDBAI@NOOP?$AA@ 0045b7b8     libcurl:imap.obj
 0002:000047c0       ??_C@_0CB@FHOJFP@Unexpected?5continuation?5response@ 0045b7c0     libcurl:imap.obj
 0002:000047e4       ??_C@_08EBJFDHCC@STARTTLS?$AA@ 0045b7e4     libcurl:imap.obj
 0002:000047f0       ??_C@_0M@HKLLGBJE@LOGIN?5?$CFs?5?$CFs?$AA@ 0045b7f0     libcurl:imap.obj
 0002:000047fc       ??_C@_0BD@HAAFOLAI@AUTHENTICATE?5?$CFs?5?$CFs?$AA@ 0045b7fc     libcurl:imap.obj
 0002:00004810       ??_C@_0BA@MBJBMJEE@AUTHENTICATE?5?$CFs?$AA@ 0045b810     libcurl:imap.obj
 0002:00004820       ??_C@_02DKCKIIND@?$CFs?$AA@ 0045b820     libcurl:imap.obj
 0002:00004824       ??_C@_0CP@IMHCGJPM@No?5known?5authentication?5mechanis@ 0045b824     libcurl:imap.obj
 0002:00004854       ??_C@_0M@HEIBGALO@LIST?5?$CC?$CFs?$CC?5?$CK?$AA@ 0045b854     libcurl:imap.obj
 0002:00004860       ??_C@_0CB@CNPLJHNG@Cannot?5SELECT?5without?5a?5mailbox?4@ 0045b860     libcurl:imap.obj
 0002:00004884       ??_C@_09GMKLHBDP@SELECT?5?$CFs?$AA@ 0045b884     libcurl:imap.obj
 0002:00004890       ??_C@_0BK@HINEGIBC@UID?5FETCH?5?$CFs?5BODY?$FL?$CFs?$FN?$DM?$CFs?$DO?$AA@ 0045b890     libcurl:imap.obj
 0002:000048ac       ??_C@_0BG@MFEJGEMK@UID?5FETCH?5?$CFs?5BODY?$FL?$CFs?$FN?$AA@ 0045b8ac     libcurl:imap.obj
 0002:000048c4       ??_C@_0BG@KDICJLOA@FETCH?5?$CFs?5BODY?$FL?$CFs?$FN?$DM?$CFs?$DO?$AA@ 0045b8c4     libcurl:imap.obj
 0002:000048dc       ??_C@_0BC@DBBDHOGD@FETCH?5?$CFs?5BODY?$FL?$CFs?$FN?$AA@ 0045b8dc     libcurl:imap.obj
 0002:000048f0       ??_C@_0BM@MDAKNOLA@Cannot?5FETCH?5without?5a?5UID?4?$AA@ 0045b8f0     libcurl:imap.obj
 0002:0000490c       ??_C@_0CB@OJIMGEKK@Cannot?5APPEND?5without?5a?5mailbox?4@ 0045b90c     libcurl:imap.obj
 0002:00004930       ??_C@_0N@CMGFLCKF@Mime?9Version?$AA@ 0045b930     libcurl:imap.obj
 0002:00004940       ??_C@_0BC@LJLDDNIA@Mime?9Version?3?51?40?$AA@ 0045b940     libcurl:imap.obj
 0002:00004954       ??_C@_0CL@KHDECIDD@Cannot?5APPEND?5with?5unknown?5input@ 0045b954     libcurl:imap.obj
 0002:00004980       ??_C@_0BK@BLHEIJNH@APPEND?5?$CFs?5?$CI?2Seen?$CJ?5?$HL?$CFI64d?$HN?$AA@ 0045b980     libcurl:imap.obj
 0002:0000499c       ??_C@_0CG@GFOCBLJM@Cannot?5SEARCH?5without?5a?5query?5st@ 0045b99c     libcurl:imap.obj
 0002:000049c4       ??_C@_09PAMHLMCN@SEARCH?5?$CFs?$AA@ 0045b9c4     libcurl:imap.obj
 0002:000049d0       ??_C@_06ICDCDPAM@LOGOUT?$AA@ 0045b9d0     libcurl:imap.obj
 0002:000049d8       ??_C@_0CM@LEKNMHGJ@PREAUTH?5connection?0?5already?5auth@ 0045b9d8     libcurl:imap.obj
 0002:00004a04       ??_C@_0CE@FKNEKFDD@Got?5unexpected?5imap?9server?5respo@ 0045ba04     libcurl:imap.obj
 0002:00004a28       ??_C@_0O@MEFIGCNE@LOGINDISABLED?$AA@ 0045ba28     libcurl:imap.obj
 0002:00004a38       ??_C@_05CKMEMLBN@AUTH?$DN?$AA@ 0045ba38     libcurl:imap.obj
 0002:00004a40       ??_C@_0BI@BIKPOJKH@STARTTLS?5not?5supported?4?$AA@ 0045ba40     libcurl:imap.obj
 0002:00004a58       ??_C@_0BA@IKAEMKBM@STARTTLS?5denied?$AA@ 0045ba58     libcurl:imap.obj
 0002:00004a68       ??_C@_0BJ@KPCPDCOC@Authentication?5cancelled?$AA@ 0045ba68     libcurl:imap.obj
 0002:00004a84       ??_C@_0BC@GNMNACJK@Access?5denied?4?5?$CFc?$AA@ 0045ba84     libcurl:imap.obj
 0002:00004a98       ??_C@_0CB@HHPEICDC@OK?5?$FLUIDVALIDITY?5?$CF19?$FL0123456789?$FN?$FN@ 0045ba98     libcurl:imap.obj
 0002:00004abc       ??_C@_0CA@GGNJMECP@Mailbox?5UIDVALIDITY?5has?5changed?$AA@ 0045babc     libcurl:imap.obj
 0002:00004adc       ??_C@_0O@IFFBAKPD@Select?5failed?$AA@ 0045badc     libcurl:imap.obj
 0002:00004aec       ??_C@_0BP@GLMKNCNJ@Found?5?$CFI64d?5bytes?5to?5download?6?$AA@ 0045baec     libcurl:imap.obj
 0002:00004b0c       ??_C@_0DG@HDINJNJA@Written?5?$CFzu?5bytes?0?5?$CFI64u?5bytes?5a@ 0045bb0c     libcurl:imap.obj
 0002:00004b44       ??_C@_0CA@GCPCMMJK@Failed?5to?5parse?5FETCH?5response?4?$AA@ 0045bb44     libcurl:imap.obj
 0002:00004b64       ??_C@_06KPMAOGPB@?$CFc?$CF03d?$AA@ 0045bb64     libcurl:imap.obj
 0002:00004b6c       ??_C@_05DNIIFBMG@?$CFs?5?$CFs?$AA@ 0045bb6c     libcurl:imap.obj
 0002:00004b74       ??_C@_07OHGMEIBP@?$CI?$CJ?$HL?5?$CF?$CK?$FN?$AA@ 0045bb74     libcurl:imap.obj
 0002:00004b7c       ??_C@_0M@BOIGKDFF@UIDVALIDITY?$AA@ 0045bb7c     libcurl:imap.obj
 0002:00004b88       ??_C@_09NEHACAIH@MAILINDEX?$AA@ 0045bb88     libcurl:imap.obj
 0002:00004b94       ??_C@_07OADICAGF@SECTION?$AA@ 0045bb94     libcurl:imap.obj
 0002:00004b9c       ??_C@_07GKNKJNCD@PARTIAL?$AA@ 0045bb9c     libcurl:imap.obj
 0002:00004ba4       ??_C@_04FKGOMEMC@POP3?$AA@ 0045bba4     libcurl:pop3.obj
 0002:00004bd0       _Curl_handler_pop3         0045bbd0     libcurl:pop3.obj
 0002:00004c1c       ??_C@_03NJDAHFJE@pop?$AA@  0045bc1c     libcurl:pop3.obj
 0002:00004c20       ??_C@_04IAPIEFNH@CAPA?$AA@ 0045bc20     libcurl:pop3.obj
 0002:00004c28       ??_C@_04OKBHFPDP@STLS?$AA@ 0045bc28     libcurl:pop3.obj
 0002:00004c30       ??_C@_07BCMGCIGK@USER?5?$CFs?$AA@ 0045bc30     libcurl:pop3.obj
 0002:00004c38       ??_C@_04NOJCDH@?$CF02x?$AA@ 0045bc38     libcurl:pop3.obj
 0002:00004c40       ??_C@_0L@NCKPAHGC@APOP?5?$CFs?5?$CFs?$AA@ 0045bc40     libcurl:pop3.obj
 0002:00004c4c       ??_C@_0L@LFENDKBE@AUTH?5?$CFs?5?$CFs?$AA@ 0045bc4c     libcurl:pop3.obj
 0002:00004c58       ??_C@_07GLDNHMJM@AUTH?5?$CFs?$AA@ 0045bc58     libcurl:pop3.obj
 0002:00004c60       ??_C@_04DEPMIFPM@RETR?$AA@ 0045bc60     libcurl:pop3.obj
 0002:00004c68       ??_C@_04GBOBDPBG@QUIT?$AA@ 0045bc68     libcurl:pop3.obj
 0002:00004c70       ??_C@_0CE@PFHNFNOL@Got?5unexpected?5pop3?9server?5respo@ 0045bc70     libcurl:pop3.obj
 0002:00004c94       ??_C@_0BE@NGBFBFLB@STLS?5not?5supported?4?$AA@ 0045bc94     libcurl:pop3.obj
 0002:00004ca8       ??_C@_0BK@FLOCGBM@Authentication?5failed?3?5?$CFd?$AA@ 0045bca8     libcurl:pop3.obj
 0002:00004cc4       ??_C@_07ECIIGDNP@PASS?5?$CFs?$AA@ 0045bcc4     libcurl:pop3.obj
 0002:00004ccc       ??_C@_05EMLFECFL@?$CLAPOP?$AA@ 0045bccc     libcurl:pop3.obj
 0002:00004cd4       ??_C@_05KMJPGPH@?$AN?6?4?$AN?6?$AA@ 0045bcd4     libcurl:pop3.obj
 0002:00004cdc       ??_C@_04POBOOGCB@SMTP?$AA@ 0045bcdc     libcurl:smtp.obj
 0002:00004d08       _Curl_handler_smtp         0045bd08     libcurl:smtp.obj
 0002:00004d54       ??_C@_04DCCEAEFJ@smtp?$AA@ 0045bd54     libcurl:smtp.obj
 0002:00004d5c       ??_C@_07LENLNDIO@EHLO?5?$CFs?$AA@ 0045bd5c     libcurl:smtp.obj
 0002:00004d64       ??_C@_07EOAJKHJP@HELO?5?$CFs?$AA@ 0045bd64     libcurl:smtp.obj
 0002:00004d6c       ??_C@_09KGGPGOEC@?5SMTPUTF8?$AA@ 0045bd6c     libcurl:smtp.obj
 0002:00004d78       ??_C@_01EOFPKCAF@?$EA?$AA@ 0045bd78     libcurl:smtp.obj
 0002:00004d7c       ??_C@_0O@LLBOEPLL@VRFY?5?$CFs?$CFs?$CFs?$CFs?$AA@ 0045bd7c     libcurl:smtp.obj
 0002:00004d8c       ??_C@_04KFDBLEKN@EXPN?$AA@ 0045bd8c     libcurl:smtp.obj
 0002:00004d94       ??_C@_07LLFIICBM@?$CFs?5?$CFs?$CFs?$AA@ 0045bd94     libcurl:smtp.obj
 0002:00004d9c       ??_C@_04DOKPJKJF@HELP?$AA@ 0045bd9c     libcurl:smtp.obj
 0002:00004da4       ??_C@_07IAOBMFMB@?$DM?$CFs?$EA?$CFs?$DO?$AA@ 0045bda4     libcurl:smtp.obj
 0002:00004dac       ??_C@_04NNJCMPBN@?$DM?$CFs?$DO?$AA@ 0045bdac     libcurl:smtp.obj
 0002:00004db4       ??_C@_02GMAKCBGE@?$DM?$DO?$AA@ 0045bdb4     libcurl:smtp.obj
 0002:00004db8       ??_C@_05LLAMLEHD@?$CFI64d?$AA@ 0045bdb8     libcurl:smtp.obj
 0002:00004dc0       ??_C@_06MKNOLBCP@?5SIZE?$DN?$AA@ 0045bdc0     libcurl:smtp.obj
 0002:00004dc8       ??_C@_06MJNHIMFM@?5AUTH?$DN?$AA@ 0045bdc8     libcurl:smtp.obj
 0002:00004dd0       ??_C@_0BH@CCDJIIDH@MAIL?5FROM?3?$CFs?$CFs?$CFs?$CFs?$CFs?$CFs?$AA@ 0045bdd0     libcurl:smtp.obj
 0002:00004de8       ??_C@_0BA@HHMHFILL@RCPT?5TO?3?$DM?$CFs?$EA?$CFs?$DO?$AA@ 0045bde8     libcurl:smtp.obj
 0002:00004df8       ??_C@_0N@LGJBDMGK@RCPT?5TO?3?$DM?$CFs?$DO?$AA@ 0045bdf8     libcurl:smtp.obj
 0002:00004e08       ??_C@_0CI@FJFEAKAL@Got?5unexpected?5smtp?9server?5respo@ 0045be08     libcurl:smtp.obj
 0002:00004e30       ??_C@_0BJ@EDGODDHJ@STARTTLS?5denied?0?5code?5?$CFd?$AA@ 0045be30     libcurl:smtp.obj
 0002:00004e4c       ??_C@_0BJ@DNMHCFHF@Remote?5access?5denied?3?5?$CFd?$AA@ 0045be4c     libcurl:smtp.obj
 0002:00004e68       ??_C@_0CB@HKFOBCB@Unexpectedly?5short?5EHLO?5response@ 0045be68     libcurl:smtp.obj
 0002:00004e8c       ??_C@_0BD@COCKJOPI@Command?5failed?3?5?$CFd?$AA@ 0045be8c     libcurl:smtp.obj
 0002:00004ea0       ??_C@_0BA@FIAGOBAE@MAIL?5failed?3?5?$CFd?$AA@ 0045bea0     libcurl:smtp.obj
 0002:00004eb0       ??_C@_0BA@LOKNLPKK@RCPT?5failed?3?5?$CFd?$AA@ 0045beb0     libcurl:smtp.obj
 0002:00004ec0       ??_C@_0BN@DILLHMBG@RCPT?5failed?3?5?$CFd?5?$CIlast?5error?$CJ?$AA@ 0045bec0     libcurl:smtp.obj
 0002:00004ee0       ??_C@_04DFNBDBBL@DATA?$AA@ 0045bee0     libcurl:smtp.obj
 0002:00004ee8       ??_C@_0BA@BDBJMDJD@DATA?5failed?3?5?$CFd?$AA@ 0045bee8     libcurl:smtp.obj
 0002:00004ef8       ??_C@_04JHCEEOPB@?$AN?6?4?4?$AA@ 0045bef8     libcurl:smtp.obj
 0002:00004f00       ??_C@_0BJ@NPJPFJML@?$CF04d?$CF02d?$CF02d?$CF02d?$CF02d?$CF02d?$AA@ 0045bf00     libcurl:ftp.obj
 0002:00004f1c       ??_C@_0CA@CJAAICLH@?$CF04d?$CF02d?$CF02d?5?$CF02d?3?$CF02d?3?$CF02d?5GMT?$AA@ 0045bf1c     libcurl:ftp.obj
 0002:00004f3c       ??_C@_0DE@GKBAFMFA@Last?9Modified?3?5?$CFs?0?5?$CF02d?5?$CFs?5?$CF4d?5?$CF@ 0045bf3c     libcurl:ftp.obj
 0002:00004f70       ??_C@_0BP@EOJCADGH@unsupported?5MDTM?5reply?5format?6?$AA@ 0045bf70     libcurl:ftp.obj
 0002:00004f90       ??_C@_0BK@JLENJKNN@Given?5file?5does?5not?5exist?$AA@ 0045bf90     libcurl:ftp.obj
 0002:00004fac       ??_C@_0BK@LIEJIOFD@Skipping?5time?5comparison?6?$AA@ 0045bfac     libcurl:ftp.obj
 0002:00004fc8       ??_C@_0BK@DEMDJAEI@Couldn?8t?5set?5desired?5mode?$AA@ 0045bfc8     libcurl:ftp.obj
 0002:00004fe4       ??_C@_0DF@NIKHFCK@Got?5a?5?$CF03d?5response?5code?5instead@ 0045bfe4     libcurl:ftp.obj
 0002:0000501c       ??_C@_0CB@IDOEMMGJ@ftp?5server?5doesn?8t?5support?5SIZE?6@ 0045c01c     libcurl:ftp.obj
 0002:00005040       ??_C@_0CM@HFMKHHME@Offset?5?$CI?$CFI64d?$CJ?5was?5beyond?5file?5s@ 0045c040     libcurl:ftp.obj
 0002:0000506c       ??_C@_0CE@DDNCLNDJ@File?5already?5completely?5download@ 0045c06c     libcurl:ftp.obj
 0002:00005090       ??_C@_0CO@NFEHDDGP@Instructs?5server?5to?5resume?5from?5@ 0045c090     libcurl:ftp.obj
 0002:000050c0       ??_C@_0L@GMAGLFCO@REST?5?$CFI64d?$AA@ 0045c0c0     libcurl:ftp.obj
 0002:000050cc       ??_C@_0BI@DFLKJFAC@The?5file?5does?5not?5exist?$AA@ 0045c0cc     libcurl:ftp.obj
 0002:000050e4       ??_C@_0BH@OONDMNFK@Accept?9ranges?3?5bytes?$AN?6?$AA@ 0045c0e4     libcurl:ftp.obj
 0002:000050fc       ??_C@_0BC@MLOKPHOJ@Couldn?8t?5use?5REST?$AA@ 0045c0fc     libcurl:ftp.obj
 0002:00005110       ??_C@_0BH@NAGIDHLA@Failed?5FTP?5upload?3?5?$CF0d?$AA@ 0045c110     libcurl:ftp.obj
 0002:00005128       ??_C@_0CJ@KNNCCANJ@Data?5conn?5was?5not?5available?5imme@ 0045c128     libcurl:ftp.obj
 0002:00005154       ??_C@_06LCIDCBMH@?5bytes?$AA@ 0045c154     libcurl:ftp.obj
 0002:0000515c       ??_C@_0BF@OJNOJFMB@Maxdownload?5?$DN?5?$CFI64d?6?$AA@ 0045c15c     libcurl:ftp.obj
 0002:00005174       ??_C@_0BP@JBOHHHEF@Getting?5file?5with?5size?3?5?$CFI64d?6?$AA@ 0045c174     libcurl:ftp.obj
 0002:00005194       ??_C@_0BE@IHDENKLC@RETR?5response?3?5?$CF03d?$AA@ 0045c194     libcurl:ftp.obj
 0002:000051a8       ??_C@_07HLPDJPKF@PBSZ?5?$CFd?$AA@ 0045c1a8     libcurl:ftp.obj
 0002:000051b0       ??_C@_03LBMKPMDK@FTP?$AA@  0045c1b0     libcurl:ftp.obj
 0002:000051b4       ??_C@_07NEPAJNMI@ACCT?5?$CFs?$AA@ 0045c1b4     libcurl:ftp.obj
 0002:000051bc       ??_C@_0CC@FIJBPOPC@ACCT?5requested?5but?5none?5availabl@ 0045c1bc     libcurl:ftp.obj
 0002:000051e0       ??_C@_0BE@IDFIDIK@Access?5denied?3?5?$CF03d?$AA@ 0045c1e0     libcurl:ftp.obj
 0002:000051f4       ??_C@_0BO@KPCJJKDD@ACCT?5rejected?5by?5server?3?5?$CF03d?$AA@ 0045c1f4     libcurl:ftp.obj
 0002:00005220       _Curl_handler_ftp          0045c220     libcurl:ftp.obj
 0002:00005284       ??_C@_0CB@MGPFOKOC@Error?5accept?$CI?$CJing?5server?5connect@ 0045c284     libcurl:ftp.obj
 0002:000052a8       ??_C@_0CB@CHFILBBG@Connection?5accepted?5from?5server?6@ 0045c2a8     libcurl:ftp.obj
 0002:000052cc       ??_C@_0BN@OADDFOLF@Checking?5for?5server?5connect?6?$AA@ 0045c2cc     libcurl:ftp.obj
 0002:000052ec       ??_C@_0DF@ECKOGFBG@Accept?5timeout?5occurred?5while?5wa@ 0045c2ec     libcurl:ftp.obj
 0002:00005324       ??_C@_0DI@EHJDBFKM@There?5is?5negative?5response?5in?5ca@ 0045c324     libcurl:ftp.obj
 0002:0000535c       ??_C@_0DF@BCDKPLJO@Got?5a?5?$CF03d?5ftp?9server?5response?5w@ 0045c35c     libcurl:ftp.obj
 0002:00005394       ??_C@_0CH@IPEAPKCM@Error?5while?5waiting?5for?5server?5c@ 0045c394     libcurl:ftp.obj
 0002:000053bc       ??_C@_0CN@DICMJIKG@Ready?5to?5accept?5data?5connection?5@ 0045c3bc     libcurl:ftp.obj
 0002:000053ec       ??_C@_0DA@LIJFNFEC@unsupported?5parameter?5to?5CURLOPT@ 0045c3ec     libcurl:ftp.obj
 0002:0000541c       ??_C@_0DA@FIFPKHDL@Ctrl?5conn?5has?5data?5while?5waiting@ 0045c41c     libcurl:ftp.obj
 0002:0000544c       ??_C@_0DA@NKJCHCEC@Doing?5the?5SSL?1TLS?5handshake?5on?5t@ 0045c44c     libcurl:ftp.obj
 0002:0000547c       ??_C@_07JIEIOJCN@PROT?5?$CFc?$AA@ 0045c47c     libcurl:ftp.obj
 0002:00005484       ??_C@_0CN@HIFIJJNN@Preparing?5for?5accepting?5server?5o@ 0045c484     libcurl:ftp.obj
 0002:000054b4       ??_C@_03POJCPIGP@CCC?$AA@  0045c4b4     libcurl:ftp.obj
 0002:000054b8       ??_C@_0CK@DIEJGCGD@Failed?5to?5clear?5the?5command?5chan@ 0045c4b8     libcurl:ftp.obj
 0002:000054e4       ??_C@_04EAEGPFGI@SYST?$AA@ 0045c4e4     libcurl:ftp.obj
 0002:000054ec       ??_C@_0BE@OCHIMCLN@Entry?5path?5is?5?8?$CFs?8?6?$AA@ 0045c4ec     libcurl:ftp.obj
 0002:00005500       ??_C@_0BL@LGIJMHED@Failed?5to?5figure?5out?5path?6?$AA@ 0045c500     libcurl:ftp.obj
 0002:0000551c       ??_C@_06JNDPFLAI@OS?1400?$AA@ 0045c51c     libcurl:ftp.obj
 0002:00005524       ??_C@_0P@JBGEGJKJ@SITE?5NAMEFMT?51?$AA@ 0045c524     libcurl:ftp.obj
 0002:00005534       ??_C@_0BO@OHEGJEDF@QUOT?5command?5failed?5with?5?$CF03d?$AA@ 0045c534     libcurl:ftp.obj
 0002:00005554       ??_C@_06BFAFDBBO@MKD?5?$CFs?$AA@ 0045c554     libcurl:ftp.obj
 0002:0000555c       ??_C@_0DD@PPJPGINE@Server?5denied?5you?5to?5change?5to?5t@ 0045c55c     libcurl:ftp.obj
 0002:00005590       ??_C@_0BI@BHKLDLGC@Failed?5to?5MKD?5dir?3?5?$CF03d?$AA@ 0045c590     libcurl:ftp.obj
 0002:000055a8       ??_C@_0CA@MIHDFENK@PRET?5command?5not?5accepted?3?5?$CF03d?$AA@ 0045c5a8     libcurl:ftp.obj
 0002:000055c8       ??_C@_03OIFAJNHF@PWD?$AA@  0045c5c8     libcurl:ftp.obj
 0002:000055cc       ??_C@_0CA@BPKLCDMI@Remembering?5we?5are?5in?5dir?5?$CC?$CFs?$CC?6?$AA@ 0045c5cc     libcurl:ftp.obj
 0002:000055ec       ??_C@_04JOBIBMIG@ABOR?$AA@ 0045c5ec     libcurl:ftp.obj
 0002:000055f4       ??_C@_0CB@ELHFDEFP@Failure?5sending?5ABOR?5command?3?5?$CFs@ 0045c5f4     libcurl:ftp.obj
 0002:00005618       ??_C@_0BO@IBJECBBL@control?5connection?5looks?5dead?$AA@ 0045c618     libcurl:ftp.obj
 0002:00005638       ??_C@_06DBCOIIKD@CWD?5?$CFs?$AA@ 0045c638     libcurl:ftp.obj
 0002:00005640       ??_C@_0DA@LKDFHHHG@partial?5download?5completed?0?5clos@ 0045c640     libcurl:ftp.obj
 0002:00005670       ??_C@_0BM@KBMOAOIH@Exceeded?5storage?5allocation?$AA@ 0045c670     libcurl:ftp.obj
 0002:0000568c       ??_C@_0CB@MBIEKFAL@server?5did?5not?5report?5OK?0?5got?5?$CFd@ 0045c68c     libcurl:ftp.obj
 0002:000056b0       ??_C@_0DI@GGNLIACP@Uploaded?5unaligned?5file?5size?5?$CI?$CFI@ 0045c6b0     libcurl:ftp.obj
 0002:000056e8       ??_C@_0CI@BFHFHKBK@Received?5only?5partial?5file?3?5?$CFI64@ 0045c6e8     libcurl:ftp.obj
 0002:00005710       ??_C@_0BG@JNDKCNAF@No?5data?5was?5received?$CB?$AA@ 0045c710     libcurl:ftp.obj
 0002:00005728       ??_C@_0BN@KKEKOBII@QUOT?5string?5not?5accepted?3?5?$CFs?$AA@ 0045c728     libcurl:ftp.obj
 0002:00005748       ??_C@_07LBAFLNFB@TYPE?5?$CFc?$AA@ 0045c748     libcurl:ftp.obj
 0002:00005750       ??_C@_0BP@PDGEBKHD@Connecting?5to?5?$CFs?5?$CI?$CFs?$CJ?5port?5?$CFd?6?$AA@ 0045c750     libcurl:ftp.obj
 0002:00005770       ??_C@_0BJ@KBDKIMG@getsockname?$CI?$CJ?5failed?3?5?$CFs?$AA@ 0045c770     libcurl:ftp.obj
 0002:0000578c       ??_C@_0DD@DMEJNKPI@failed?5to?5resolve?5the?5address?5pr@ 0045c78c     libcurl:ftp.obj
 0002:000057c0       ??_C@_0BD@OKODOHGG@socket?5failure?3?5?$CFs?$AA@ 0045c7c0     libcurl:ftp.obj
 0002:000057d4       ??_C@_0DA@CIIHINBN@bind?$CIport?$DN?$CFhu?$CJ?5on?5non?9local?5addr@ 0045c7d4     libcurl:ftp.obj
 0002:00005804       ??_C@_0BK@PGDLCBEF@bind?$CIport?$DN?$CFhu?$CJ?5failed?3?5?$CFs?$AA@ 0045c804     libcurl:ftp.obj
 0002:00005820       ??_C@_0CE@CGKJCPDM@bind?$CI?$CJ?5failed?0?5we?5ran?5out?5of?5por@ 0045c820     libcurl:ftp.obj
 0002:00005844       ??_C@_0CF@BIADGCCG@ftp_perform?5ends?5with?5SECONDARY?3@ 0045c844     libcurl:ftp.obj
 0002:0000586c       ??_C@_0P@JIPLFCKK@?$CFs?5?$HM?$CFd?$HM?$CFs?$HM?$CFhu?$HM?$AA@ 0045c86c     libcurl:ftp.obj
 0002:0000587c       ??_C@_0CB@BJFEKOJI@Failure?5sending?5EPRT?5command?3?5?$CFs@ 0045c87c     libcurl:ftp.obj
 0002:000058a0       ??_C@_06IEKOAMEP@?0?$CFd?0?$CFd?$AA@ 0045c8a0     libcurl:ftp.obj
 0002:000058a8       ??_C@_0CB@JCGGICMN@Failure?5sending?5PORT?5command?3?5?$CFs@ 0045c8a8     libcurl:ftp.obj
 0002:000058cc       ??_C@_0BP@PMBCHHFK@Connect?5data?5stream?5passively?6?$AA@ 0045c8cc     libcurl:ftp.obj
 0002:000058ec       ??_C@_0BM@CBMMJPAN@Wildcard?5?9?5Parsing?5started?6?$AA@ 0045c8ec     libcurl:ftp.obj
 0002:00005908       ??_C@_04LPPBABPG@NLST?$AA@ 0045c908     libcurl:ftp.obj
 0002:00005910       ??_C@_07HDBBNIBK@PRET?5?$CFs?$AA@ 0045c910     libcurl:ftp.obj
 0002:00005918       ??_C@_0N@JGBIEHDA@PRET?5STOR?5?$CFs?$AA@ 0045c918     libcurl:ftp.obj
 0002:00005928       ??_C@_0N@PCAKCCIM@PRET?5RETR?5?$CFs?$AA@ 0045c928     libcurl:ftp.obj
 0002:00005938       ??_C@_07EDEBBIDH@REST?5?$CFd?$AA@ 0045c938     libcurl:ftp.obj
 0002:00005940       ??_C@_0BK@EBFHJJOJ@Wildcard?5?9?5START?5of?5?$CC?$CFs?$CC?6?$AA@ 0045c940     libcurl:ftp.obj
 0002:0000595c       ??_C@_0CB@HPHNJDIO@Wildcard?5?9?5?$CC?$CFs?$CC?5skipped?5by?5user?6@ 0045c95c     libcurl:ftp.obj
 0002:00005980       ??_C@_07DHEHBJLB@SIZE?5?$CFs?$AA@ 0045c980     libcurl:ftp.obj
 0002:00005988       ??_C@_01CLKCMJKC@?5?$AA@   0045c988     libcurl:ftp.obj
 0002:0000598c       ??_C@_0CB@JNMCPEIN@Failure?5sending?5QUIT?5command?3?5?$CFs@ 0045c98c     libcurl:ftp.obj
 0002:000059b0       ??_C@_07DFNLHBNJ@MDTM?5?$CFs?$AA@ 0045c9b0     libcurl:ftp.obj
 0002:000059b8       ??_C@_0BE@KEOJEJGI@Failed?5to?5read?5data?$AA@ 0045c9b8     libcurl:ftp.obj
 0002:000059cc       ??_C@_0CC@MLJOLKKA@File?5already?5completely?5uploaded@ 0045c9cc     libcurl:ftp.obj
 0002:000059f0       ??_C@_07FKAENFJM@APPE?5?$CFs?$AA@ 0045c9f0     libcurl:ftp.obj
 0002:000059f8       ??_C@_07LAJFDMAF@STOR?5?$CFs?$AA@ 0045c9f8     libcurl:ftp.obj
 0002:00005a00       ??_C@_0CI@FGKDODBE@Uploading?5to?5a?5URL?5without?5a?5fil@ 0045ca00     libcurl:ftp.obj
 0002:00005a28       ??_C@_0CM@BBAADEII@Request?5has?5same?5path?5as?5previou@ 0045ca28     libcurl:ftp.obj
 0002:00005a54       ??_C@_07NEIHFJLJ@RETR?5?$CFs?$AA@ 0045ca54     libcurl:ftp.obj
 0002:00005a5c       ??_C@_0BN@DGOLGMBJ@Failed?5EPSV?5attempt?0?5exiting?$AA@ 0045ca5c     libcurl:ftp.obj
 0002:00005a7c       ??_C@_0CF@LLFCDFKE@Failed?5EPSV?5attempt?4?5Disabling?5E@ 0045ca7c     libcurl:ftp.obj
 0002:00005aa4       ??_C@_04KAHNJCEK@PASV?$AA@ 0045caa4     libcurl:ftp.obj
 0002:00005aac       ??_C@_0L@PJBCJFDL@?$CFc?$CFc?$CFc?$CFu?$CFc?$AA@ 0045caac     libcurl:ftp.obj
 0002:00005ab8       ??_C@_0CC@DPAPDPDE@Illegal?5port?5number?5in?5EPSV?5repl@ 0045cab8     libcurl:ftp.obj
 0002:00005adc       ??_C@_0BN@NDEBJJDH@Weirdly?5formatted?5EPSV?5reply?$AA@ 0045cadc     libcurl:ftp.obj
 0002:00005afc       ??_C@_0BC@GDCBJEOP@?$CFu?0?$CFu?0?$CFu?0?$CFu?0?$CFu?0?$CFu?$AA@ 0045cafc     libcurl:ftp.obj
 0002:00005b10       ??_C@_0CE@JAKPPKFJ@Couldn?8t?5interpret?5the?5227?9respo@ 0045cb10     libcurl:ftp.obj
 0002:00005b34       ??_C@_0DJ@BDPONOCF@Skip?5?$CFu?4?$CFu?4?$CFu?4?$CFu?5for?5data?5connec@ 0045cb34     libcurl:ftp.obj
 0002:00005b70       ??_C@_0M@CDHNGIPM@?$CFu?4?$CFu?4?$CFu?4?$CFu?$AA@ 0045cb70     libcurl:ftp.obj
 0002:00005b7c       ??_C@_0BN@NLMHLNCJ@Bad?5PASV?1EPSV?5response?3?5?$CF03d?$AA@ 0045cb7c     libcurl:ftp.obj
 0002:00005b9c       ??_C@_0CA@JCGDHCDD@Can?8t?5resolve?5proxy?5host?5?$CFs?3?$CFhu?$AA@ 0045cb9c     libcurl:ftp.obj
 0002:00005bbc       ??_C@_0BO@IFBOOOND@Can?8t?5resolve?5new?5host?5?$CFs?3?$CFhu?$AA@ 0045cbbc     libcurl:ftp.obj
 0002:00005bdc       ??_C@_0BG@GHLIGHGL@disabling?5EPRT?5usage?6?$AA@ 0045cbdc     libcurl:ftp.obj
 0002:00005bf4       ??_C@_0BC@GNDMALEK@Failed?5to?5do?5PORT?$AA@ 0045cbf4     libcurl:ftp.obj
 0002:00005c08       ??_C@_0BO@NCOMJOLE@Connect?5data?5stream?5actively?6?$AA@ 0045cc08     libcurl:ftp.obj
 0002:00005c28       ??_C@_0BJ@DGDBOHFM@We?5got?5a?5421?5?9?5timeout?$CB?6?$AA@ 0045cc28     libcurl:ftp.obj
 0002:00005c44       ??_C@_0BF@LJJJLKGP@FTP?5response?5timeout?$AA@ 0045cc44     libcurl:ftp.obj
 0002:00005c5c       ??_C@_0DC@FEDHDEPK@FTP?5response?5aborted?5due?5to?5sele@ 0045cc5c     libcurl:ftp.obj
 0002:00005c90       ??_C@_04PMPMHNFI@FILE?$AA@ 0045cc90     libcurl:file.obj
 0002:00005c98       _Curl_handler_file         0045cc98     libcurl:file.obj
 0002:00005ce4       ??_C@_0BG@EMIMEGKB@Couldn?8t?5open?5file?5?$CFs?$AA@ 0045cce4     libcurl:file.obj
 0002:00005cfc       ??_C@_0BK@BBIJKCFE@Can?8t?5open?5?$CFs?5for?5writing?$AA@ 0045ccfc     libcurl:file.obj
 0002:00005d18       ??_C@_0BJ@PBDLFGHG@Can?8t?5get?5the?5size?5of?5?$CFs?$AA@ 0045cd18     libcurl:file.obj
 0002:00005d34       ??_C@_0DG@OCPCIEKF@Last?9Modified?3?5?$CFs?0?5?$CF02d?5?$CFs?5?$CF4d?5?$CF@ 0045cd34     libcurl:file.obj
 0002:00005d6c       ??_C@_0BM@JKOBLIFI@Can?8t?5get?5the?5size?5of?5file?4?$AA@ 0045cd6c     libcurl:file.obj
 0002:00005d88       ??_C@_0CC@BFDLBKLP@failed?5to?5resume?5file?3?1?1?5transfe@ 0045cd88     libcurl:file.obj
 0002:00005db0       _Curl_handler_dict         0045cdb0     libcurl:dict.obj
 0002:00005dfc       ??_C@_04NOLJEKBF@DICT?$AA@ 0045cdfc     libcurl:dict.obj
 0002:00005e04       ??_C@_07EEEBABMF@?1MATCH?3?$AA@ 0045ce04     libcurl:dict.obj
 0002:00005e0c       ??_C@_03HLABFPGB@?1M?3?$AA@ 0045ce0c     libcurl:dict.obj
 0002:00005e10       ??_C@_06POHFGONG@?1FIND?3?$AA@ 0045ce10     libcurl:dict.obj
 0002:00005e18       ??_C@_0BI@HCFEFF@lookup?5word?5is?5missing?6?$AA@ 0045ce18     libcurl:dict.obj
 0002:00005e30       ??_C@_07DLHCIBDH@default?$AA@ 0045ce30     libcurl:dict.obj
 0002:00005e38       ??_C@_01DCLJPIOD@?$CB?$AA@ 0045ce38     libcurl:dict.obj
 0002:00005e3c       ??_C@_0CO@LOIPPG@CLIENT?5libcurl?57?476?41?$AN?6MATCH?5?$CFs?5@ 0045ce3c     libcurl:dict.obj
 0002:00005e6c       ??_C@_0BM@NMDEPLOC@Failed?5sending?5DICT?5request?$AA@ 0045ce6c     libcurl:dict.obj
 0002:00005e88       ??_C@_08FLILFNPP@?1DEFINE?3?$AA@ 0045ce88     libcurl:dict.obj
 0002:00005e94       ??_C@_03HENAGEOO@?1D?3?$AA@ 0045ce94     libcurl:dict.obj
 0002:00005e98       ??_C@_08OMCEKKKJ@?1LOOKUP?3?$AA@ 0045ce98     libcurl:dict.obj
 0002:00005ea4       ??_C@_0CM@LFFEFHLL@CLIENT?5libcurl?57?476?41?$AN?6DEFINE?5?$CFs@ 0045cea4     libcurl:dict.obj
 0002:00005ed0       ??_C@_0CC@MBNAKKIG@CLIENT?5libcurl?57?476?41?$AN?6?$CFs?$AN?6QUIT?$AN@ 0045ced0     libcurl:dict.obj
 0002:00005ef4       ??_C@_0BH@HDMBNBNK@Width?3?5?$CFd?5?$DL?5Height?3?5?$CFd?$AA@ 0045cef4     libcurl:telnet.obj
 0002:00005f0c       ??_C@_03JAFEDHAF@?5IS?$AA@ 0045cf0c     libcurl:telnet.obj
 0002:00005f10       ??_C@_05HEPJGMLF@?5SEND?$AA@ 0045cf10     libcurl:telnet.obj
 0002:00005f18       ??_C@_0M@NNAMPCHG@?5INFO?1REPLY?$AA@ 0045cf18     libcurl:telnet.obj
 0002:00005f24       ??_C@_05HILGCHMJ@?5NAME?$AA@ 0045cf24     libcurl:telnet.obj
 0002:00005f2c       ??_C@_05JEHJOICL@?5?$CC?$CFs?$CC?$AA@ 0045cf2c     libcurl:telnet.obj
 0002:00005f34       ??_C@_03MHLONNLM@?5?$DN?5?$AA@ 0045cf34     libcurl:telnet.obj
 0002:00005f38       ??_C@_02HAOIJKIC@?$CFc?$AA@ 0045cf38     libcurl:telnet.obj
 0002:00005f3c       ??_C@_05MAFEOBBD@?5?$CF?42x?$AA@ 0045cf3c     libcurl:telnet.obj
 0002:00005f44       ??_C@_07FIBAJHNC@USER?0?$CFs?$AA@ 0045cf44     libcurl:telnet.obj
 0002:00005f4c       ??_C@_0BF@FKHAOHNG@?$CF127?$FL?$FO?$DN?5?$FN?$CF?$CK?$FL?5?$DN?$FN?$CF255s?$AA@ 0045cf4c     libcurl:telnet.obj
 0002:00005f64       ??_C@_05EDAGKIGO@TTYPE?$AA@ 0045cf64     libcurl:telnet.obj
 0002:00005f6c       ??_C@_07CBBODINF@NEW_ENV?$AA@ 0045cf6c     libcurl:telnet.obj
 0002:00005f74       ??_C@_02PINLBAEP@WS?$AA@   0045cf74     libcurl:telnet.obj
 0002:00005f78       ??_C@_0N@DFKPNNGO@?$CFhu?$CF?$CK?$FLxX?$FN?$CFhu?$AA@ 0045cf78     libcurl:telnet.obj
 0002:00005f88       ??_C@_0CC@NJCHGDLJ@Syntax?5error?5in?5telnet?5option?3?5?$CF@ 0045cf88     libcurl:telnet.obj
 0002:00005fac       ??_C@_0BJ@EPEDNNHH@Unknown?5telnet?5option?5?$CFs?$AA@ 0045cfac     libcurl:telnet.obj
 0002:00005fc8       ??_C@_0P@IJIBEBBB@?$CFc?$CFc?$CFc?$CFc?$CFs?$CFc?$CFc?$AA@ 0045cfc8     libcurl:telnet.obj
 0002:00005fd8       ??_C@_08MMPFKENM@?$CFc?$CFc?$CFc?$CFc?$AA@ 0045cfd8     libcurl:telnet.obj
 0002:00005fe4       ??_C@_0P@EIKOJKEK@?$CF127?$FL?$FO?0?$FN?0?$CF127s?$AA@ 0045cfe4     libcurl:telnet.obj
 0002:00005ff4       ??_C@_08IFOBLEBG@?$CFc?$CFs?$CFc?$CFs?$AA@ 0045cff4     libcurl:telnet.obj
 0002:00006000       ??_C@_04GJDJEMBE@?$CFc?$CFc?$AA@ 0045d000     libcurl:telnet.obj
 0002:00006008       _Curl_handler_telnet       0045d008     libcurl:telnet.obj
 0002:00006148       ??_C@_0BO@FGKIEAKL@In?5SUBOPTION?5processing?0?5RCVD?$AA@ 0045d148     libcurl:telnet.obj
 0002:00006168       ??_C@_06FJHKNKMG@BINARY?$AA@ 0045d168     libcurl:telnet.obj
 0002:00006170       ??_C@_04CJAHKHLK@ECHO?$AA@ 0045d170     libcurl:telnet.obj
 0002:00006178       ??_C@_03HHNIIJAH@RCP?$AA@  0045d178     libcurl:telnet.obj
 0002:0000617c       ??_C@_0BC@PNOFGINB@SUPPRESS?5GO?5AHEAD?$AA@ 0045d17c     libcurl:telnet.obj
 0002:00006190       ??_C@_04IPKHEEB@NAME?$AA@  0045d190     libcurl:telnet.obj
 0002:00006198       ??_C@_06DNKMJCIK@STATUS?$AA@ 0045d198     libcurl:telnet.obj
 0002:000061a0       ??_C@_0M@EKEOBHGL@TIMING?5MARK?$AA@ 0045d1a0     libcurl:telnet.obj
 0002:000061ac       ??_C@_04BEBEFOLG@RCTE?$AA@ 0045d1ac     libcurl:telnet.obj
 0002:000061b4       ??_C@_04NKLMBLGG@NAOL?$AA@ 0045d1b4     libcurl:telnet.obj
 0002:000061bc       ??_C@_04DMMLEGDL@NAOP?$AA@ 0045d1bc     libcurl:telnet.obj
 0002:000061c4       ??_C@_06BKIMLPPI@NAOCRD?$AA@ 0045d1c4     libcurl:telnet.obj
 0002:000061cc       ??_C@_06MMIDMANN@NAOHTS?$AA@ 0045d1cc     libcurl:telnet.obj
 0002:000061d4       ??_C@_06MJAAEEEL@NAOHTD?$AA@ 0045d1d4     libcurl:telnet.obj
 0002:000061dc       ??_C@_06DGHNEEGG@NAOFFD?$AA@ 0045d1dc     libcurl:telnet.obj
 0002:000061e4       ??_C@_06HMEFOAHB@NAOVTS?$AA@ 0045d1e4     libcurl:telnet.obj
 0002:000061ec       ??_C@_06HJMGGEOH@NAOVTD?$AA@ 0045d1ec     libcurl:telnet.obj
 0002:000061f4       ??_C@_06FJMAKEAC@NAOLFD?$AA@ 0045d1f4     libcurl:telnet.obj
 0002:000061fc       ??_C@_0BL@IAGBODFB@WSACreateEvent?5failed?5?$CI?$CFd?$CJ?$AA@ 0045d1fc     libcurl:telnet.obj
 0002:00006218       ??_C@_0N@MCHGCBGJ@EXTEND?5ASCII?$AA@ 0045d218     libcurl:telnet.obj
 0002:00006228       ??_C@_0L@JJAOJAFM@BYTE?5MACRO?$AA@ 0045d228     libcurl:telnet.obj
 0002:00006234       ??_C@_0M@BFPOMMHF@DE?5TERMINAL?$AA@ 0045d234     libcurl:telnet.obj
 0002:00006240       ??_C@_06NAEEPLEB@SUPDUP?$AA@ 0045d240     libcurl:telnet.obj
 0002:00006248       ??_C@_0O@LDEGDMCH@SUPDUP?5OUTPUT?$AA@ 0045d248     libcurl:telnet.obj
 0002:00006258       ??_C@_0O@GCFNAHCA@SEND?5LOCATION?$AA@ 0045d258     libcurl:telnet.obj
 0002:00006268       ??_C@_09JHNIKOBE@TERM?5TYPE?$AA@ 0045d268     libcurl:telnet.obj
 0002:00006274       ??_C@_0O@OOFFLMHN@END?5OF?5RECORD?$AA@ 0045d274     libcurl:telnet.obj
 0002:00006284       ??_C@_0L@GPKIIPN@TACACS?5UID?$AA@ 0045d284     libcurl:telnet.obj
 0002:00006290       ??_C@_0P@MGPJDEPO@OUTPUT?5MARKING?$AA@ 0045d290     libcurl:telnet.obj
 0002:000062a0       ??_C@_06GGEFDLMA@TTYLOC?$AA@ 0045d2a0     libcurl:telnet.obj
 0002:000062a8       ??_C@_0M@NIKPEBAA@3270?5REGIME?$AA@ 0045d2a8     libcurl:telnet.obj
 0002:000062b4       ??_C@_06BPMGLPAC@X3?5PAD?$AA@ 0045d2b4     libcurl:telnet.obj
 0002:000062bc       ??_C@_04FNDOHDA@NAWS?$AA@  0045d2bc     libcurl:telnet.obj
 0002:000062c4       ??_C@_0L@PJIKHDLG@TERM?5SPEED?$AA@ 0045d2c4     libcurl:telnet.obj
 0002:000062d0       ??_C@_05LOOKNPEJ@LFLOW?$AA@ 0045d2d0     libcurl:telnet.obj
 0002:000062d8       ??_C@_08MFKKBNLA@LINEMODE?$AA@ 0045d2d8     libcurl:telnet.obj
 0002:000062e4       ??_C@_08GPGBHAKO@XDISPLOC?$AA@ 0045d2e4     libcurl:telnet.obj
 0002:000062f0       ??_C@_0M@HACFCEDH@OLD?9ENVIRON?$AA@ 0045d2f0     libcurl:telnet.obj
 0002:000062fc       ??_C@_0P@LGIMEOHB@AUTHENTICATION?$AA@ 0045d2fc     libcurl:telnet.obj
 0002:0000630c       ??_C@_0CB@LGFLAPBC@WSAEnumNetworkEvents?5failed?5?$CI?$CFd?$CJ@ 0045d30c     libcurl:telnet.obj
 0002:00006330       ??_C@_07CAOFPAJK@ENCRYPT?$AA@ 0045d330     libcurl:telnet.obj
 0002:00006338       ??_C@_0M@FMFEGMDG@NEW?9ENVIRON?$AA@ 0045d338     libcurl:telnet.obj
 0002:00006344       ??_C@_03KPJEKKJC@EOF?$AA@  0045d344     libcurl:telnet.obj
 0002:00006348       ??_C@_04GOPMIPNE@SUSP?$AA@ 0045d348     libcurl:telnet.obj
 0002:00006350       ??_C@_05NKJCKGFJ@ABORT?$AA@ 0045d350     libcurl:telnet.obj
 0002:00006358       ??_C@_03IBDKHNMH@EOR?$AA@  0045d358     libcurl:telnet.obj
 0002:0000635c       ??_C@_02ODEKANEE@SE?$AA@   0045d35c     libcurl:telnet.obj
 0002:00006360       ??_C@_03GEANJIEE@NOP?$AA@  0045d360     libcurl:telnet.obj
 0002:00006364       ??_C@_05CFIKNJJG@DMARK?$AA@ 0045d364     libcurl:telnet.obj
 0002:0000636c       ??_C@_03JDBDNMEF@BRK?$AA@  0045d36c     libcurl:telnet.obj
 0002:00006370       ??_C@_02MFEOMNPG@IP?$AA@   0045d370     libcurl:telnet.obj
 0002:00006374       ??_C@_08IMJOJNO@Time?9out?$AA@ 0045d374     libcurl:telnet.obj
 0002:00006380       ??_C@_02GAHJCNA@AO?$AA@    0045d380     libcurl:telnet.obj
 0002:00006384       ??_C@_03EAKJJCNE@AYT?$AA@  0045d384     libcurl:telnet.obj
 0002:00006388       ??_C@_0BK@CECPJKBH@WSACloseEvent?5failed?5?$CI?$CFd?$CJ?$AA@ 0045d388     libcurl:telnet.obj
 0002:000063a4       ??_C@_02KNLLHFAA@EC?$AA@   0045d3a4     libcurl:telnet.obj
 0002:000063a8       ??_C@_02CKCDGJMP@EL?$AA@   0045d3a8     libcurl:telnet.obj
 0002:000063ac       ??_C@_02JMAJMDOM@GA?$AA@   0045d3ac     libcurl:telnet.obj
 0002:000063b0       ??_C@_02KMALJLID@SB?$AA@   0045d3b0     libcurl:telnet.obj
 0002:000063b4       ??_C@_04HALOHICD@WILL?$AA@ 0045d3b4     libcurl:telnet.obj
 0002:000063bc       ??_C@_04NEEKGLMI@WONT?$AA@ 0045d3bc     libcurl:telnet.obj
 0002:000063c4       ??_C@_02MMFADL@DO?$AA@     0045d3c4     libcurl:telnet.obj
 0002:000063c8       ??_C@_04PDAKIGJK@DONT?$AA@ 0045d3c8     libcurl:telnet.obj
 0002:000063d0       ??_C@_03JCKLMMGF@IAC?$AA@  0045d3d0     libcurl:telnet.obj
 0002:000063d4       ??_C@_06KENCDLMH@TELNET?$AA@ 0045d3d4     libcurl:telnet.obj
 0002:000063dc       ??_C@_0L@FLCLEAPM@?$CFs?5IAC?5?$CFs?6?$AA@ 0045d3dc     libcurl:telnet.obj
 0002:000063e8       ??_C@_0L@ECECPFAJ@?$CFs?5IAC?5?$CFd?6?$AA@ 0045d3e8     libcurl:telnet.obj
 0002:000063f4       ??_C@_05OKMMCHFL@EXOPL?$AA@ 0045d3f4     libcurl:telnet.obj
 0002:000063fc       ??_C@_09GPBPOFIE@?$CFs?5?$CFs?5?$CFs?6?$AA@ 0045d3fc     libcurl:telnet.obj
 0002:00006408       ??_C@_09HGHGFAHB@?$CFs?5?$CFs?5?$CFd?6?$AA@ 0045d408     libcurl:telnet.obj
 0002:00006414       ??_C@_09GIKFGCFC@?$CFs?5?$CFd?5?$CFd?6?$AA@ 0045d414     libcurl:telnet.obj
 0002:00006420       ??_C@_0BJ@GCKINNGG@Sending?5data?5failed?5?$CI?$CFd?$CJ?$AA@ 0045d420     libcurl:telnet.obj
 0002:0000643c       ??_C@_04EOHHCNGM@SENT?$AA@ 0045d43c     libcurl:telnet.obj
 0002:00006444       ??_C@_04OILLLJJ@RCVD?$AA@  0045d444     libcurl:telnet.obj
 0002:0000644c       ??_C@_0L@FPLNPMDD@?$CFs?5IAC?5SB?5?$AA@ 0045d44c     libcurl:telnet.obj
 0002:00006458       ??_C@_0BA@MMHHHFDG@?$CIterminated?5by?5?$AA@ 0045d458     libcurl:telnet.obj
 0002:00006468       ??_C@_03IOOJPBPG@?$CFu?5?$AA@ 0045d468     libcurl:telnet.obj
 0002:0000646c       ??_C@_0BA@IHPPDJFF@?0?5not?5IAC?5SE?$CB?$CJ?5?$AA@ 0045d46c     libcurl:telnet.obj
 0002:0000647c       ??_C@_0BD@CLPAOCOB@?$CIEmpty?5suboption?$DP?$CJ?$AA@ 0045d47c     libcurl:telnet.obj
 0002:00006490       ??_C@_0BB@BBIGPKKK@?$CFs?5?$CIunsupported?$CJ?$AA@ 0045d490     libcurl:telnet.obj
 0002:000064a4       ??_C@_0N@IAAHJJEB@?$CFd?5?$CIunknown?$CJ?$AA@ 0045d4a4     libcurl:telnet.obj
 0002:000064b4       ??_C@_0CL@NOIDGMJA@Received?5last?5DATA?5packet?5block?5@ 0045d4b4     libcurl:tftp.obj
 0002:000064e0       ??_C@_0DO@LHJHEMEL@Received?5unexpected?5DATA?5packet?5@ 0045d4e0     libcurl:tftp.obj
 0002:00006520       ??_C@_0DB@CJGPFEOC@Timeout?5waiting?5for?5block?5?$CFd?5ACK@ 0045d520     libcurl:tftp.obj
 0002:00006554       ??_C@_0BI@BHFNNNHL@tftp_rx?3?5internal?5error?$AA@ 0045d554     libcurl:tftp.obj
 0002:0000656c       ??_C@_0CJ@LBPPEMJL@Received?5ACK?5for?5block?5?$CFd?0?5expec@ 0045d56c     libcurl:tftp.obj
 0002:00006598       ??_C@_0CM@BNMFOENM@tftp_tx?3?5giving?5up?5waiting?5for?5b@ 0045d598     libcurl:tftp.obj
 0002:000065c4       ??_C@_0CD@DGDGOEOE@tftp_tx?3?5internal?5error?0?5event?3?5@ 0045d5c4     libcurl:tftp.obj
 0002:000065e8       ??_C@_0O@BONHPLEA@TFTP?5finished?$AA@ 0045d5e8     libcurl:tftp.obj
 0002:000065f8       ??_C@_0BN@LMNCOGNC@Internal?5state?5machine?5error?$AA@ 0045d5f8     libcurl:tftp.obj
 0002:00006618       _Curl_handler_tftp         0045d618     libcurl:tftp.obj
 0002:00006664       ??_C@_0BC@JMLCPALC@bind?$CI?$CJ?5failed?$DL?5?$CFs?$AA@ 0045d664     libcurl:tftp.obj
 0002:00006678       ??_C@_0BK@KEKALNLH@Received?5too?5short?5packet?$AA@ 0045d678     libcurl:tftp.obj
 0002:00006694       ??_C@_0BA@OIPDKKBA@TFTP?5error?3?5?$CFs?6?$AA@ 0045d694     libcurl:tftp.obj
 0002:000066a4       ??_C@_0CC@GGFBEDBJ@Internal?5error?3?5Unexpected?5packe@ 0045d6a4     libcurl:tftp.obj
 0002:000066c8       ??_C@_0BG@GPKMDEIC@TFTP?5response?5timeout?$AA@ 0045d6c8     libcurl:tftp.obj
 0002:000066e0       ??_C@_06PHEPAMBA@?$DLmode?$DN?$AA@ 0045d6e0     libcurl:tftp.obj
 0002:000066e8       ??_C@_04JLDPLNDA@TFTP?$AA@ 0045d6e8     libcurl:tftp.obj
 0002:000066f0       ??_C@_0DN@DDJEILNF@set?5timeouts?5for?5state?5?$CFd?$DL?5Total@ 0045d6f0     libcurl:tftp.obj
 0002:00006730       ??_C@_0CA@PGCHPLAI@Malformed?5ACK?5packet?0?5rejecting?$AA@ 0045d730     libcurl:tftp.obj
 0002:00006750       ??_C@_0BM@GELOOIAH@got?5option?$DN?$CI?$CFs?$CJ?5value?$DN?$CI?$CFs?$CJ?6?$AA@ 0045d750     libcurl:tftp.obj
 0002:0000676c       ??_C@_07JPIGAOKK@blksize?$AA@ 0045d76c     libcurl:tftp.obj
 0002:00006774       ??_C@_0CH@GOMNMHP@invalid?5blocksize?5value?5in?5OACK?5@ 0045d774     libcurl:tftp.obj
 0002:0000679c       ??_C@_0CF@EKACJECO@blksize?5is?5larger?5than?5max?5suppo@ 0045d79c     libcurl:tftp.obj
 0002:000067c4       ??_C@_07JMKCEEPK@?$CFs?5?$CI?$CFd?$CJ?$AA@ 0045d7c4     libcurl:tftp.obj
 0002:000067cc       ??_C@_0CG@BNJFBJFK@blksize?5is?5smaller?5than?5min?5supp@ 0045d7cc     libcurl:tftp.obj
 0002:000067f4       ??_C@_0CP@HBGJMNNA@server?5requested?5blksize?5larger?5@ 0045d7f4     libcurl:tftp.obj
 0002:00006824       ??_C@_08KEEEBANB@?$CFs?5?$CI?$CFld?$CJ?$AA@ 0045d824     libcurl:tftp.obj
 0002:00006830       ??_C@_09GLAMPMBA@requested?$AA@ 0045d830     libcurl:tftp.obj
 0002:0000683c       ??_C@_0BJ@PECOFDN@blksize?5parsed?5from?5OACK?$AA@ 0045d83c     libcurl:tftp.obj
 0002:00006858       ??_C@_0BB@OFCPCICB@?$CFs?5?$CI?$CFd?$CJ?5?$CFs?5?$CI?$CFd?$CJ?6?$AA@ 0045d858     libcurl:tftp.obj
 0002:0000686c       ??_C@_05GHDOEBHJ@tsize?$AA@ 0045d86c     libcurl:tftp.obj
 0002:00006874       ??_C@_0BH@BLDLMHGE@tsize?5parsed?5from?5OACK?$AA@ 0045d874     libcurl:tftp.obj
 0002:0000688c       ??_C@_09LJPEONI@?$CFs?5?$CI?$CFld?$CJ?6?$AA@ 0045d88c     libcurl:tftp.obj
 0002:00006898       ??_C@_0CK@LPILMKIM@invalid?5tsize?5?9?3?$CFs?3?9?5value?5in?5OA@ 0045d898     libcurl:tftp.obj
 0002:000068c4       ??_C@_0BH@NFEFKEBL@Connected?5for?5transmit?$AA@ 0045d8c4     libcurl:tftp.obj
 0002:000068dc       ??_C@_0BG@KPOBMFLM@Connected?5for?5receive?$AA@ 0045d8dc     libcurl:tftp.obj
 0002:000068f4       ??_C@_05IIBPGMLM@octet?$AA@ 0045d8f4     libcurl:tftp.obj
 0002:000068fc       ??_C@_08KKALNFMM@netascii?$AA@ 0045d8fc     libcurl:tftp.obj
 0002:00006908       ??_C@_0BI@BPHCFCIJ@TFTP?5file?5name?5too?5long?$AA@ 0045d908     libcurl:tftp.obj
 0002:00006920       ??_C@_08OAFHMCGI@?$CFs?$CFc?$CFs?$CFc?$AA@ 0045d920     libcurl:tftp.obj
 0002:0000692c       ??_C@_07DDHNKDGP@timeout?$AA@ 0045d92c     libcurl:tftp.obj
 0002:00006934       ??_C@_0CC@KFGMHGKB@TFTP?5buffer?5too?5small?5for?5option@ 0045d934     libcurl:tftp.obj
 0002:00006958       ??_C@_0CA@EOCLEEDH@tftp_send_first?3?5internal?5error?$AA@ 0045d958     libcurl:tftp.obj
 0002:00006978       _Curl_handler_ldap         0045d978     libcurl:ldap.obj
 0002:000069c8       _Curl_handler_ldaps        0045d9c8     libcurl:ldap.obj
 0002:00006a14       ??_C@_04HLELMIGD@LDAP?$AA@ 0045da14     libcurl:ldap.obj
 0002:00006a1c       ??_C@_05EFFGHFLN@LDAPS?$AA@ 0045da1c     libcurl:ldap.obj
 0002:00006a24       ??_C@_0BH@BDPOFBOA@Microsoft?5Corporation?4?$AA@ 0045da24     libcurl:ldap.obj
 0002:00006a3c       ??_C@_0DC@DDHGKLDE@LDAP?5local?3?5LDAP?5Vendor?5?$DN?5?$CFs?5?$DL?5L@ 0045da3c     libcurl:ldap.obj
 0002:00006a70       ??_C@_0BA@HJNHPBP@LDAP?5local?3?5?$CFs?6?$AA@ 0045da70     libcurl:ldap.obj
 0002:00006a80       ??_C@_0P@BAGOOPBK@LDAP?5local?3?5?$CFs?$AA@ 0045da80     libcurl:ldap.obj
 0002:00006a90       ??_C@_09OEKGEILE@encrypted?$AA@ 0045da90     libcurl:ldap.obj
 0002:00006a9c       ??_C@_09HOMJNLCK@cleartext?$AA@ 0045da9c     libcurl:ldap.obj
 0002:00006aa8       ??_C@_0CP@FAIPPKFC@LDAP?5local?3?5trying?5to?5establish?5@ 0045daa8     libcurl:ldap.obj
 0002:00006ad8       ??_C@_0CF@JGNKKLCE@LDAP?5local?3?5Cannot?5connect?5to?5?$CFs@ 0045dad8     libcurl:ldap.obj
 0002:00006b00       ??_C@_0CG@CNFHGIPC@LDAP?5local?3?5bind?5via?5ldap_win_bi@ 0045db00     libcurl:ldap.obj
 0002:00006b28       ??_C@_0BA@BDNMEOJM@LDAP?5remote?3?5?$CFs?$AA@ 0045db28     libcurl:ldap.obj
 0002:00006b38       ??_C@_04FDBNJNIB@DN?3?5?$AA@ 0045db38     libcurl:ldap.obj
 0002:00006b40       ??_C@_02LMMGGCAJ@?3?5?$AA@ 0045db40     libcurl:ldap.obj
 0002:00006b44       ??_C@_07HNLIELCI@?$DLbinary?$AA@ 0045db44     libcurl:ldap.obj
 0002:00006b4c       ??_C@_0CA@LPADKPML@There?5are?5more?5than?5?$CFd?5entries?6?$AA@ 0045db4c     libcurl:ldap.obj
 0002:00006b6c       ??_C@_03OHDNLOHO@one?$AA@  0045db6c     libcurl:ldap.obj
 0002:00006b70       ??_C@_07ILFEIDOB@onetree?$AA@ 0045db70     libcurl:ldap.obj
 0002:00006b78       ??_C@_04BHIIPFEC@base?$AA@ 0045db78     libcurl:ldap.obj
 0002:00006b80       ??_C@_03KCMAIMAP@sub?$AA@  0045db80     libcurl:ldap.obj
 0002:00006b84       ??_C@_07NIJMFPAJ@subtree?$AA@ 0045db84     libcurl:ldap.obj
 0002:00006b8c       ??_C@_01IHBHIGKO@?0?$AA@   0045db8c     libcurl:ldap.obj
 0002:00006b90       ??_C@_0BI@PJGIPNBN@Failed?5writing?5RTP?5data?$AA@ 0045db90     libcurl:rtsp.obj
 0002:00006ba8       ??_C@_04OLCAMBAB@RTSP?$AA@ 0045dba8     libcurl:rtsp.obj
 0002:00006bb0       ??_C@_0DM@GEFBOCAL@The?5CSeq?5of?5this?5request?5?$CFld?5did@ 0045dbb0     libcurl:rtsp.obj
 0002:00006bec       ??_C@_0CH@PLNGLCEI@Got?5an?5RTP?5Receive?5with?5a?5CSeq?5o@ 0045dbec     libcurl:rtsp.obj
 0002:00006c18       _Curl_handler_rtsp         0045dc18     libcurl:rtsp.obj
 0002:00006c64       ??_C@_0BJ@IIOCCFNL@Got?5invalid?5RTSP?5request?$AA@ 0045dc64     libcurl:rtsp.obj
 0002:00006c80       ??_C@_07KDKMIPIP@OPTIONS?$AA@ 0045dc80     libcurl:rtsp.obj
 0002:00006c88       ??_C@_08DKNLJHMJ@DESCRIBE?$AA@ 0045dc88     libcurl:rtsp.obj
 0002:00006c94       ??_C@_08HCNIHNDL@ANNOUNCE?$AA@ 0045dc94     libcurl:rtsp.obj
 0002:00006ca0       ??_C@_05MAJHNKMG@SETUP?$AA@ 0045dca0     libcurl:rtsp.obj
 0002:00006ca8       ??_C@_04MKCNCBEG@PLAY?$AA@ 0045dca8     libcurl:rtsp.obj
 0002:00006cb0       ??_C@_05DIAHPDGL@PAUSE?$AA@ 0045dcb0     libcurl:rtsp.obj
 0002:00006cb8       ??_C@_08JNACAMMP@TEARDOWN?$AA@ 0045dcb8     libcurl:rtsp.obj
 0002:00006cc4       ??_C@_0O@GCENIMNJ@GET_PARAMETER?$AA@ 0045dcc4     libcurl:rtsp.obj
 0002:00006cd4       ??_C@_0O@BNFDDPKO@SET_PARAMETER?$AA@ 0045dcd4     libcurl:rtsp.obj
 0002:00006ce4       ??_C@_06KOEFFJON@RECORD?$AA@ 0045dce4     libcurl:rtsp.obj
 0002:00006cec       ??_C@_0CH@PJHKLBD@Got?5invalid?5RTSP?5request?3?5RTSPRE@ 0045dcec     libcurl:rtsp.obj
 0002:00006d14       ??_C@_0DN@HHEKACHB@Refusing?5to?5issue?5an?5RTSP?5reques@ 0045dd14     libcurl:rtsp.obj
 0002:00006d54       ??_C@_09LOBALFEM@Transport?$AA@ 0045dd54     libcurl:rtsp.obj
 0002:00006d60       ??_C@_0BA@LGEHOCAD@Transport?3?5?$CFs?$AN?6?$AA@ 0045dd60     libcurl:rtsp.obj
 0002:00006d70       ??_C@_0DN@KLGPNCLM@Refusing?5to?5issue?5an?5RTSP?5SETUP?5@ 0045dd70     libcurl:rtsp.obj
 0002:00006db0       ??_C@_0BK@PJBJHPJP@Accept?3?5application?1sdp?$AN?6?$AA@ 0045ddb0     libcurl:rtsp.obj
 0002:00006dcc       ??_C@_0M@CDDEOJHP@Range?3?5?$CFs?$AN?6?$AA@ 0045ddcc     libcurl:rtsp.obj
 0002:00006dd8       ??_C@_04IHAOMLEL@CSeq?$AA@ 0045ddd8     libcurl:rtsp.obj
 0002:00006de0       ??_C@_0CH@ONHNBNNP@CSeq?5cannot?5be?5set?5as?5a?5custom?5h@ 0045dde0     libcurl:rtsp.obj
 0002:00006e08       ??_C@_07FFOFCADM@Session?$AA@ 0045de08     libcurl:rtsp.obj
 0002:00006e10       ??_C@_0CN@HJLGEJGN@Session?5ID?5cannot?5be?5set?5as?5a?5cu@ 0045de10     libcurl:rtsp.obj
 0002:00006e40       ??_C@_0BM@GGGCCKFL@?$CFs?5?$CFs?5RTSP?11?40?$AN?6CSeq?3?5?$CFld?$AN?6?$AA@ 0045de40     libcurl:rtsp.obj
 0002:00006e5c       ??_C@_0O@LAIMJOHG@Session?3?5?$CFs?$AN?6?$AA@ 0045de5c     libcurl:rtsp.obj
 0002:00006e6c       ??_C@_0BB@JAHKEOEL@?$CFs?$CFs?$CFs?$CFs?$CFs?$CFs?$CFs?$CFs?$AA@ 0045de6c     libcurl:rtsp.obj
 0002:00006e80       ??_C@_0CA@DANBHCCB@Content?9Type?3?5text?1parameters?$AN?6?$AA@ 0045de80     libcurl:rtsp.obj
 0002:00006ea0       ??_C@_0CA@NAIPKPJL@Content?9Type?3?5application?1sdp?$AN?6?$AA@ 0045dea0     libcurl:rtsp.obj
 0002:00006ec0       ??_C@_0BM@PNHMAKEG@Failed?5sending?5RTSP?5request?$AA@ 0045dec0     libcurl:rtsp.obj
 0002:00006edc       ??_C@_0CD@OOIHJNBP@Got?5an?5error?5writing?5an?5RTP?5pack@ 0045dedc     libcurl:rtsp.obj
 0002:00006f00       ??_C@_0CC@GKOAKHDG@Cannot?5write?5a?50?5size?5RTP?5packet@ 0045df00     libcurl:rtsp.obj
 0002:00006f24       ??_C@_0BB@GCCOHJON@Cannot?5pause?5RTP?$AA@ 0045df24     libcurl:rtsp.obj
 0002:00006f38       ??_C@_05MECAEIKK@CSeq?3?$AA@ 0045df38     libcurl:rtsp.obj
 0002:00006f40       ??_C@_05PNKNJGHI@?3?5?$CFld?$AA@ 0045df40     libcurl:rtsp.obj
 0002:00006f48       ??_C@_0CF@LBAGGOHD@Unable?5to?5read?5the?5CSeq?5header?3?5@ 0045df48     libcurl:rtsp.obj
 0002:00006f70       ??_C@_08KJDEHNO@Session?3?$AA@ 0045df70     libcurl:rtsp.obj
 0002:00006f7c       ??_C@_0BH@GCDEOPPG@Got?5a?5blank?5Session?5ID?$AA@ 0045df7c     libcurl:rtsp.obj
 0002:00006f94       ??_C@_0DC@HDNNNEDB@Got?5RTSP?5Session?5ID?5Line?5?$FL?$CFs?$FN?0?5b@ 0045df94     libcurl:rtsp.obj
 0002:00006fc8       ??_C@_03LNAOLDLL@SMB?$AA@  0045dfc8     libcurl:smb.obj
 0002:00006fcc       ??_C@_0P@CNIFBIKC@?$AA?$AM?$AA?$ACNT?5LM?50?412?$AA@ 0045dfcc     libcurl:smb.obj
 0002:00006fdc       ??_C@_0O@EMCJKFGJ@i386?9pc?9win32?$AA@ 0045dfdc     libcurl:smb.obj
 0002:00006fec       ??_C@_04CFJDMNEE@curl?$AA@ 0045dfec     libcurl:smb.obj
 0002:00006ff4       ??_C@_02HDBGODGB@?2?2?$AA@ 0045dff4     libcurl:smb.obj
 0002:00006ff8       ??_C@_01KICIPPFI@?2?$AA@   0045dff8     libcurl:smb.obj
 0002:00006ffc       ??_C@_05EHMBKEBF@?$DP?$DP?$DP?$DP?$DP?$AA@ 0045dffc     libcurl:smb.obj
 0002:00007004       ??_C@_0BF@MGOADBKP@Invalid?5input?5packet?$AA@ 0045e004     libcurl:smb.obj
 0002:00007020       _Curl_handler_smb          0045e020     libcurl:smb.obj
 0002:0000706c       ??_C@_04FPGNOCOB@MQTT?$AA@ 0045e06c     libcurl:mqtt.obj
 0002:00007074       ??_C@_0BG@MNJJKFG@Using?5client?5id?5?8?$CFs?8?6?$AA@ 0045e074     libcurl:mqtt.obj
 0002:0000708c       ??_C@_02KJFMPGEN@?$OA?$AA?$AA@ 0045e08c     libcurl:mqtt.obj
 0002:00007090       ??_C@_0CD@NLBEEENO@Expected?5?$CF02x?$CF02x?5but?5got?5?$CF02x?$CF0@ 0045e090     libcurl:mqtt.obj
 0002:000070b4       ??_C@_0BL@DNONOMHF@Error?3?5No?5topic?5specified?4?$AA@ 0045e0b4     libcurl:mqtt.obj
 0002:000070d0       ??_C@_0BA@OEKHBJOJ@Got?5DISCONNECT?6?$AA@ 0045e0d0     libcurl:mqtt.obj
 0002:000070e0       ??_C@_0BN@MGHEPCAC@Remaining?5length?3?5?$CFzd?5bytes?6?$AA@ 0045e0e0     libcurl:mqtt.obj
 0002:00007100       ??_C@_0P@DEFHBOED@EEEE?5AAAAGAIN?6?$AA@ 0045e100     libcurl:mqtt.obj
 0002:00007110       ??_C@_0BF@GACMGODJ@server?5disconnected?6?$AA@ 0045e110     libcurl:mqtt.obj
 0002:00007128       ??_C@_0CD@OJHBBMOE@Error?5?$CFd?5sending?5MQTT?5CONN?5reque@ 0045e128     libcurl:mqtt.obj
 0002:00007150       _Curl_handler_mqtt         0045e150     libcurl:mqtt.obj
 0002:0000719c       ??_C@_0BI@BABCFLCJ@mqtt_doing?3?5state?5?$FL?$CFd?$FN?6?$AA@ 0045e19c     libcurl:mqtt.obj
 0002:000071b4       ??_C@_0BG@OAAPNLCI@State?5not?5handled?5yet?$AA@ 0045e1b4     libcurl:mqtt.obj
 0002:000071f0       ??_C@_02CBLDBPFN@?1?1?$AA@ 0045e1f0     libcurl:urlapi.obj
 0002:000071f4       ??_C@_06JBHEDIOK@?$CF?$CF?$CF02x?$AA@ 0045e1f4     libcurl:urlapi.obj
 0002:000071fc       ??_C@_0CE@LAJONJKD@?$FL?$CF?$CK45?$FL0123456789abcdefABCDEF?3?4?$FN?$CF@ 0045e1fc     libcurl:urlapi.obj
 0002:00007220       ??_C@_0L@JMDPGJCF@?$CF?$CK?$FL?$FO?$FN?$FN?$CFc?$CFn?$AA@ 0045e220     libcurl:urlapi.obj
 0002:0000722c       ??_C@_0BJ@GCDIHJFL@0123456789abcdefABCDEF?3?4?$AA@ 0045e22c     libcurl:urlapi.obj
 0002:00007248       ??_C@_02IFGANFKF@25?$AA@   0045e248     libcurl:urlapi.obj
 0002:0000724c       ??_C@_0L@BMEILEPM@localhost?1?$AA@ 0045e24c     libcurl:urlapi.obj
 0002:00007258       ??_C@_0L@PEIKEDOA@127?40?40?41?1?$AA@ 0045e258     libcurl:urlapi.obj
 0002:00007264       ??_C@_04JEAENMLI@ftp?4?$AA@ 0045e264     libcurl:urlapi.obj
 0002:0000726c       ??_C@_05DIBGJHGB@dict?4?$AA@ 0045e26c     libcurl:urlapi.obj
 0002:00007274       ??_C@_04BCIDKIGN@dict?$AA@ 0045e274     libcurl:urlapi.obj
 0002:0000727c       ??_C@_05IBNFLBOK@ldap?4?$AA@ 0045e27c     libcurl:urlapi.obj
 0002:00007284       ??_C@_04LHHBCKBL@ldap?$AA@ 0045e284     libcurl:urlapi.obj
 0002:0000728c       ??_C@_05NMAIECCI@imap?4?$AA@ 0045e28c     libcurl:urlapi.obj
 0002:00007294       ??_C@_05BJICMEHI@smtp?4?$AA@ 0045e294     libcurl:urlapi.obj
 0002:0000729c       ??_C@_05BIGIEBHI@pop3?4?$AA@ 0045e29c     libcurl:urlapi.obj
 0002:000072a4       ??_C@_04DNAACBI@pop3?$AA@  0045e2a4     libcurl:urlapi.obj
 0002:000072ac       ??_C@_01IPJKGB@?$CD?$AA@   0045e2ac     libcurl:urlapi.obj
 0002:000072b0       ??_C@_0O@IHCFMOPH@file?3?1?1?$CFs?$CFs?$CFs?$AA@ 0045e2b0     libcurl:urlapi.obj
 0002:000072c0       ??_C@_07FIPDGBND@?$CF?$CF25?$CFs?$FN?$AA@ 0045e2c0     libcurl:urlapi.obj
 0002:000072c8       ??_C@_01OGPIMHDM@?$DP?$AA@ 0045e2c8     libcurl:urlapi.obj
 0002:000072cc       ??_C@_01ICJEACDI@?$DL?$AA@ 0045e2cc     libcurl:urlapi.obj
 0002:000072d0       ??_C@_0CE@OBDBGLCL@?$CFs?3?1?1?$CFs?$CFs?$CFs?$CFs?$CFs?$CFs?$CFs?$CFs?$CFs?$CFs?$CFs?$CFs?$CFs?$CF@ 0045e2d0     libcurl:urlapi.obj
 0002:00007378       ??_C@_03ILLHFMNI@?5?7?6?$AA@ 0045e378     libcurl:netrc.obj
 0002:0000737c       ??_C@_07MHDNFCJE@machine?$AA@ 0045e37c     libcurl:netrc.obj
 0002:00007384       ??_C@_05DAOAAINN@login?$AA@ 0045e384     libcurl:netrc.obj
 0002:0000738c       ??_C@_08NLHBPEGP@password?$AA@ 0045e38c     libcurl:netrc.obj
 0002:00007398       ??_C@_04GHGFPGNC@HOME?$AA@ 0045e398     libcurl:netrc.obj
 0002:000073a0       ??_C@_0L@JFCCGFMF@?$CFs?$CFs?4netrc?$AA@ 0045e3a0     libcurl:netrc.obj
 0002:000073ac       ??_C@_0L@NPDNLOFK@?$CFs?$CFs_netrc?$AA@ 0045e3ac     libcurl:netrc.obj
 0002:000073b8       ??_C@_0BF@HLLGBJGK@NTLM?5auth?5restarted?6?$AA@ 0045e3b8     libcurl:http_ntlm.obj
 0002:000073d0       ??_C@_0BJ@HCCPNMOH@NTLM?5handshake?5rejected?6?$AA@ 0045e3d0     libcurl:http_ntlm.obj
 0002:000073ec       ??_C@_0CJ@MLNEPBAC@NTLM?5handshake?5failure?5?$CIinternal@ 0045e3ec     libcurl:http_ntlm.obj
 0002:00007418       ??_C@_0BL@EBFLOACM@?$CFsAuthorization?3?5NTLM?5?$CFs?$AN?6?$AA@ 0045e418     libcurl:http_ntlm.obj
 0002:00007434       ??_C@_08INEPGKHH@No?5error?$AA@ 0045e434     libcurl:strerror.obj
 0002:00007440       ??_C@_0BF@MEALNKLO@Unsupported?5protocol?$AA@ 0045e440     libcurl:strerror.obj
 0002:00007458       ??_C@_0BG@JPNCGCLF@Failed?5initialization?$AA@ 0045e458     libcurl:strerror.obj
 0002:00007470       ??_C@_0CM@JDMFNFNN@URL?5using?5bad?1illegal?5format?5or?5@ 0045e470     libcurl:strerror.obj
 0002:000074a0       ??_C@_0GN@KLBPDHPC@A?5requested?5feature?0?5protocol?5or@ 0045e4a0     libcurl:strerror.obj
 0002:00007510       ??_C@_0BM@JKHJDDPC@Couldn?8t?5resolve?5proxy?5name?$AA@ 0045e510     libcurl:strerror.obj
 0002:0000752c       ??_C@_0BL@CLPICHFB@Couldn?8t?5resolve?5host?5name?$AA@ 0045e52c     libcurl:strerror.obj
 0002:00007548       ??_C@_0BL@BDHAOFN@Couldn?8t?5connect?5to?5server?$AA@ 0045e548     libcurl:strerror.obj
 0002:00007564       ??_C@_0BD@GDNMKEAK@Weird?5server?5reply?$AA@ 0045e564     libcurl:strerror.obj
 0002:00007578       ??_C@_0CB@NKJGLEPP@Access?5denied?5to?5remote?5resource@ 0045e578     libcurl:strerror.obj
 0002:0000759c       ??_C@_0CP@GDKINGFF@FTP?3?5The?5server?5failed?5to?5connec@ 0045e59c     libcurl:strerror.obj
 0002:000075cc       ??_C@_0CM@JHMKLKFK@FTP?3?5Accepting?5server?5connect?5ha@ 0045e5cc     libcurl:strerror.obj
 0002:000075f8       ??_C@_0DB@DKHIAOH@FTP?3?5The?5server?5did?5not?5accept?5t@ 0045e5f8     libcurl:strerror.obj
 0002:0000762c       ??_C@_0BI@CNGAPMMH@FTP?3?5unknown?5PASS?5reply?$AA@ 0045e62c     libcurl:strerror.obj
 0002:00007644       ??_C@_0BI@GFIAPCKD@FTP?3?5unknown?5PASV?5reply?$AA@ 0045e644     libcurl:strerror.obj
 0002:0000765c       ??_C@_0CB@PEGAMKPE@FTP?3?5unknown?5227?5response?5format@ 0045e65c     libcurl:strerror.obj
 0002:00007680       ??_C@_0DE@KGBALKDA@FTP?3?5can?8t?5figure?5out?5the?5host?5i@ 0045e680     libcurl:strerror.obj
 0002:000076b4       ??_C@_0CB@HOOHONND@Error?5in?5the?5HTTP2?5framing?5layer@ 0045e6b4     libcurl:strerror.obj
 0002:000076d8       ??_C@_0BM@OGPMHHJ@FTP?3?5couldn?8t?5set?5file?5type?$AA@ 0045e6d8     libcurl:strerror.obj
 0002:000076f4       ??_C@_0BL@ODNPPPLA@Transferred?5a?5partial?5file?$AA@ 0045e6f4     libcurl:strerror.obj
 0002:00007710       ??_C@_0DI@LLJCFNFF@FTP?3?5couldn?8t?5retrieve?5?$CIRETR?5fai@ 0045e710     libcurl:strerror.obj
 0002:00007748       ??_C@_0BN@GGHOIADB@Quote?5command?5returned?5error?$AA@ 0045e748     libcurl:strerror.obj
 0002:00007768       ??_C@_0BO@BCKEJEKM@HTTP?5response?5code?5said?5error?$AA@ 0045e768     libcurl:strerror.obj
 0002:00007788       ??_C@_0DB@IMNDCIAA@Failed?5writing?5received?5data?5to?5@ 0045e788     libcurl:strerror.obj
 0002:000077bc       ??_C@_0CM@GACCEIFL@Upload?5failed?5?$CIat?5start?1before?5i@ 0045e7bc     libcurl:strerror.obj
 0002:000077e8       ??_C@_0DF@NBDLHGLH@Failed?5to?5open?1read?5local?5data?5f@ 0045e7e8     libcurl:strerror.obj
 0002:00007820       ??_C@_0O@NALGGDJF@Out?5of?5memory?$AA@ 0045e820     libcurl:strerror.obj
 0002:00007830       ??_C@_0BE@EKAJAHAD@Timeout?5was?5reached?$AA@ 0045e830     libcurl:strerror.obj
 0002:00007844       ??_C@_0BJ@IDOBBECI@FTP?3?5command?5PORT?5failed?$AA@ 0045e844     libcurl:strerror.obj
 0002:00007860       ??_C@_0BJ@GCLHLJAN@FTP?3?5command?5REST?5failed?$AA@ 0045e860     libcurl:strerror.obj
 0002:0000787c       ??_C@_0DA@JICMAFCG@Requested?5range?5was?5not?5delivere@ 0045e87c     libcurl:strerror.obj
 0002:000078ac       ??_C@_0CF@HBEMJAO@Internal?5problem?5setting?5up?5the?5@ 0045e8ac     libcurl:strerror.obj
 0002:000078d4       ??_C@_0BC@BFLONMCD@SSL?5connect?5error?$AA@ 0045e8d4     libcurl:strerror.obj
 0002:000078e8       ??_C@_0BJ@PKKEKELC@Couldn?8t?5resume?5download?$AA@ 0045e8e8     libcurl:strerror.obj
 0002:00007904       ??_C@_0BN@LDKECGHJ@Couldn?8t?5read?5a?5file?3?1?1?5file?$AA@ 0045e904     libcurl:strerror.obj
 0002:00007924       ??_C@_0BC@LBJDCDKB@LDAP?3?5cannot?5bind?$AA@ 0045e924     libcurl:strerror.obj
 0002:00007938       ??_C@_0BE@BFMFHGMM@LDAP?3?5search?5failed?$AA@ 0045e938     libcurl:strerror.obj
 0002:0000794c       ??_C@_0DB@KKNDLNIK@A?5required?5function?5in?5the?5libra@ 0045e94c     libcurl:strerror.obj
 0002:00007980       ??_C@_0DB@KJJLMJOB@Operation?5was?5aborted?5by?5an?5appl@ 0045e980     libcurl:strerror.obj
 0002:000079b4       ??_C@_0CM@GEPFAHDP@A?5libcurl?5function?5was?5given?5a?5b@ 0045e9b4     libcurl:strerror.obj
 0002:000079e0       ??_C@_0CE@NLIKOML@Failed?5binding?5local?5connection?5@ 0045e9e0     libcurl:strerror.obj
 0002:00007a04       ??_C@_0CH@DFMKCAJO@Number?5of?5redirects?5hit?5maximum?5@ 0045ea04     libcurl:strerror.obj
 0002:00007a2c       ??_C@_0CL@GBAGOIGJ@An?5unknown?5option?5was?5passed?5in?5@ 0045ea2c     libcurl:strerror.obj
 0002:00007a58       ??_C@_0BI@GPIPAJAH@Malformed?5telnet?5option?$AA@ 0045ea58     libcurl:strerror.obj
 0002:00007a70       ??_C@_0CO@JJKEOCN@Server?5returned?5nothing?5?$CIno?5head@ 0045ea70     libcurl:strerror.obj
 0002:00007aa0       ??_C@_0BM@GLLPPMBF@SSL?5crypto?5engine?5not?5found?$AA@ 0045eaa0     libcurl:strerror.obj
 0002:00007abc       ??_C@_0CJ@HENCHBOB@Can?5not?5set?5SSL?5crypto?5engine?5as@ 0045eabc     libcurl:strerror.obj
 0002:00007ae8       ??_C@_0CH@DINFHAAN@Failed?5to?5initialise?5SSL?5crypto?5@ 0045eae8     libcurl:strerror.obj
 0002:00007b10       ??_C@_0CA@CBOACNIE@Failed?5sending?5data?5to?5the?5peer?$AA@ 0045eb10     libcurl:strerror.obj
 0002:00007b30       ??_C@_0CK@JABNOBEN@Failure?5when?5receiving?5data?5from@ 0045eb30     libcurl:strerror.obj
 0002:00007b5c       ??_C@_0CH@IGBGAMEJ@Problem?5with?5the?5local?5SSL?5certi@ 0045eb5c     libcurl:strerror.obj
 0002:00007b84       ??_C@_0CC@IOEMABMM@Couldn?8t?5use?5specified?5SSL?5ciphe@ 0045eb84     libcurl:strerror.obj
 0002:00007ba8       ??_C@_0DC@MAPCLGNF@SSL?5peer?5certificate?5or?5SSH?5remo@ 0045eba8     libcurl:strerror.obj
 0002:00007bdc       ??_C@_0DE@DEFDNJHO@Problem?5with?5the?5SSL?5CA?5cert?5?$CIpa@ 0045ebdc     libcurl:strerror.obj
 0002:00007c10       ??_C@_0DG@BCBHMDOA@Unrecognized?5or?5bad?5HTTP?5Content@ 0045ec10     libcurl:strerror.obj
 0002:00007c48       ??_C@_0BB@NNNAEHGN@Invalid?5LDAP?5URL?$AA@ 0045ec48     libcurl:strerror.obj
 0002:00007c5c       ??_C@_0BL@CJHAPGCI@Requested?5SSL?5level?5failed?$AA@ 0045ec5c     libcurl:strerror.obj
 0002:00007c78       ??_C@_0CH@HOHNDJFI@Failed?5to?5shut?5down?5the?5SSL?5conn@ 0045ec78     libcurl:strerror.obj
 0002:00007ca0       ??_C@_0DI@OEDDMGMA@Failed?5to?5load?5CRL?5file?5?$CIpath?$DP?5a@ 0045eca0     libcurl:strerror.obj
 0002:00007cd8       ??_C@_0CN@PNDCIOI@Issuer?5check?5against?5peer?5certif@ 0045ecd8     libcurl:strerror.obj
 0002:00007d08       ??_C@_0DG@HNNLFELE@Send?5failed?5since?5rewinding?5of?5t@ 0045ed08     libcurl:strerror.obj
 0002:00007d40       ??_C@_0N@LMNBNGOH@Login?5denied?$AA@ 0045ed40     libcurl:strerror.obj
 0002:00007d50       ??_C@_0BF@MMMLEDNM@TFTP?3?5File?5Not?5Found?$AA@ 0045ed50     libcurl:strerror.obj
 0002:00007d68       ??_C@_0BH@CPEHAKGC@TFTP?3?5Access?5Violation?$AA@ 0045ed68     libcurl:strerror.obj
 0002:00007d80       ??_C@_0CB@HICDEKOD@Disk?5full?5or?5allocation?5exceeded@ 0045ed80     libcurl:strerror.obj
 0002:00007da4       ??_C@_0BI@FHLDKMPM@TFTP?3?5Illegal?5operation?$AA@ 0045eda4     libcurl:strerror.obj
 0002:00007dbc       ??_C@_0BK@FHGNFCEK@TFTP?3?5Unknown?5transfer?5ID?$AA@ 0045edbc     libcurl:strerror.obj
 0002:00007dd8       ??_C@_0BL@LCPLBBDI@Remote?5file?5already?5exists?$AA@ 0045edd8     libcurl:strerror.obj
 0002:00007df4       ??_C@_0BD@HHOJBMKC@TFTP?3?5No?5such?5user?$AA@ 0045edf4     libcurl:strerror.obj
 0002:00007e08       ??_C@_0BC@CGNMGHHJ@Conversion?5failed?$AA@ 0045ee08     libcurl:strerror.obj
 0002:00007e1c       ??_C@_0DE@HIBGAHH@Caller?5must?5register?5CURLOPT_CON@ 0045ee1c     libcurl:strerror.obj
 0002:00007e50       ??_C@_0BG@IGAJKGEI@Remote?5file?5not?5found?$AA@ 0045ee50     libcurl:strerror.obj
 0002:00007e68       ??_C@_0BH@LIBGKEPA@Error?5in?5the?5SSH?5layer?$AA@ 0045ee68     libcurl:strerror.obj
 0002:00007e80       ??_C@_0BP@PKAGPAKC@Socket?5not?5ready?5for?5send?1recv?$AA@ 0045ee80     libcurl:strerror.obj
 0002:00007ea0       ??_C@_0CD@KOGOJFPD@RTSP?5CSeq?5mismatch?5or?5invalid?5CS@ 0045eea0     libcurl:strerror.obj
 0002:00007ec4       ??_C@_0BD@JIDDONAN@RTSP?5session?5error?$AA@ 0045eec4     libcurl:strerror.obj
 0002:00007ed8       ??_C@_0BO@DHDGALJN@Unable?5to?5parse?5FTP?5file?5list?$AA@ 0045eed8     libcurl:strerror.obj
 0002:00007ef8       ??_C@_0BG@NNCCNDKN@Chunk?5callback?5failed?$AA@ 0045eef8     libcurl:strerror.obj
 0002:00007f10       ??_C@_0CE@LHGEKMEA@The?5max?5connection?5limit?5is?5reac@ 0045ef10     libcurl:strerror.obj
 0002:00007f34       ??_C@_0DA@PMPKPBFL@SSL?5public?5key?5does?5not?5match?5pi@ 0045ef34     libcurl:strerror.obj
 0002:00007f64       ??_C@_0DC@PMBIKFPE@SSL?5server?5certificate?5status?5ve@ 0045ef64     libcurl:strerror.obj
 0002:00007f98       ??_C@_0CJ@PHNFPMLB@Stream?5error?5in?5the?5HTTP?12?5frami@ 0045ef98     libcurl:strerror.obj
 0002:00007fc4       ??_C@_0CJ@IFPPFNBC@API?5function?5called?5from?5within?5@ 0045efc4     libcurl:strerror.obj
 0002:00007ff0       ??_C@_0CN@PKGNGNMF@An?5authentication?5function?5retur@ 0045eff0     libcurl:strerror.obj
 0002:00008020       ??_C@_0N@IECDEAGO@HTTP?13?5error?$AA@ 0045f020     libcurl:strerror.obj
 0002:00008030       ??_C@_0BG@PCGCKLBM@QUIC?5connection?5error?$AA@ 0045f030     libcurl:strerror.obj
 0002:00008048       ??_C@_0BG@DPKHLLKF@proxy?5handshake?5error?$AA@ 0045f048     libcurl:strerror.obj
 0002:00008060       ??_C@_0O@NIPGCINC@Unknown?5error?$AA@ 0045f060     libcurl:strerror.obj
 0002:00008070       ??_C@_0BB@HPBICEIN@Call?5interrupted?$AA@ 0045f070     libcurl:strerror.obj
 0002:00008084       ??_C@_08IEJNJKPH@Bad?5file?$AA@ 0045f084     libcurl:strerror.obj
 0002:00008090       ??_C@_0L@PPOOPPLI@Bad?5access?$AA@ 0045f090     libcurl:strerror.obj
 0002:0000809c       ??_C@_0N@OFCOFIJG@Bad?5argument?$AA@ 0045f09c     libcurl:strerror.obj
 0002:000080ac       ??_C@_0BC@PALKPJEA@Invalid?5arguments?$AA@ 0045f0ac     libcurl:strerror.obj
 0002:000080c0       ??_C@_0BI@OFCJJGOL@Out?5of?5file?5descriptors?$AA@ 0045f0c0     libcurl:strerror.obj
 0002:000080d8       ??_C@_0BB@KJIOCALL@Call?5would?5block?$AA@ 0045f0d8     libcurl:strerror.obj
 0002:000080ec       ??_C@_0BK@LAFJNHKK@Blocking?5call?5in?5progress?$AA@ 0045f0ec     libcurl:strerror.obj
 0002:00008108       ??_C@_0BL@BCCPNPNK@Descriptor?5is?5not?5a?5socket?$AA@ 0045f108     libcurl:strerror.obj
 0002:00008124       ??_C@_0BJ@PJJDHGPA@Need?5destination?5address?$AA@ 0045f124     libcurl:strerror.obj
 0002:00008140       ??_C@_0BB@FIFBBOKN@Bad?5message?5size?$AA@ 0045f140     libcurl:strerror.obj
 0002:00008154       ??_C@_0N@HKFEGNLE@Bad?5protocol?$AA@ 0045f154     libcurl:strerror.obj
 0002:00008164       ??_C@_0BP@CMLHIFII@Protocol?5option?5is?5unsupported?$AA@ 0045f164     libcurl:strerror.obj
 0002:00008184       ??_C@_0BI@KIGPDANH@Protocol?5is?5unsupported?$AA@ 0045f184     libcurl:strerror.obj
 0002:0000819c       ??_C@_0BG@PJCKEJGL@Socket?5is?5unsupported?$AA@ 0045f19c     libcurl:strerror.obj
 0002:000081b4       ??_C@_0BI@EDJAHLMH@Operation?5not?5supported?$AA@ 0045f1b4     libcurl:strerror.obj
 0002:000081cc       ??_C@_0BN@GMEBDOHK@Address?5family?5not?5supported?$AA@ 0045f1cc     libcurl:strerror.obj
 0002:000081ec       ??_C@_0BO@EBCCBLCJ@Protocol?5family?5not?5supported?$AA@ 0045f1ec     libcurl:strerror.obj
 0002:0000820c       ??_C@_0BH@LOKACPE@Address?5already?5in?5use?$AA@ 0045f20c     libcurl:strerror.obj
 0002:00008224       ??_C@_0BG@LPGNEDFC@Address?5not?5available?$AA@ 0045f224     libcurl:strerror.obj
 0002:0000823c       ??_C@_0N@BLPKELHL@Network?5down?$AA@ 0045f23c     libcurl:strerror.obj
 0002:0000824c       ??_C@_0BE@BCKBHKGP@Network?5unreachable?$AA@ 0045f24c     libcurl:strerror.obj
 0002:00008260       ??_C@_0BH@IGDKJAJA@Network?5has?5been?5reset?$AA@ 0045f260     libcurl:strerror.obj
 0002:00008278       ??_C@_0BH@CAGNAMLD@Connection?5was?5aborted?$AA@ 0045f278     libcurl:strerror.obj
 0002:00008290       ??_C@_0BF@ONIPBLIH@Connection?5was?5reset?$AA@ 0045f290     libcurl:strerror.obj
 0002:000082a8       ??_C@_0BA@OCGNHFCH@No?5buffer?5space?$AA@ 0045f2a8     libcurl:strerror.obj
 0002:000082b8       ??_C@_0BM@CCONNCKE@Socket?5is?5already?5connected?$AA@ 0045f2b8     libcurl:strerror.obj
 0002:000082d4       ??_C@_0BI@ILAOGBJJ@Socket?5is?5not?5connected?$AA@ 0045f2d4     libcurl:strerror.obj
 0002:000082ec       ??_C@_0BK@KFOKKGHA@Socket?5has?5been?5shut?5down?$AA@ 0045f2ec     libcurl:strerror.obj
 0002:00008308       ??_C@_0BE@JFIGGPOD@Too?5many?5references?$AA@ 0045f308     libcurl:strerror.obj
 0002:0000831c       ??_C@_09OGKCMDDI@Timed?5out?$AA@ 0045f31c     libcurl:strerror.obj
 0002:00008328       ??_C@_0BD@NPDMPPFP@Connection?5refused?$AA@ 0045f328     libcurl:strerror.obj
 0002:0000833c       ??_C@_06BPCOEKJC@Loop?$DP?$DP?$AA@ 0045f33c     libcurl:strerror.obj
 0002:00008344       ??_C@_0O@CGIEAMHJ@Name?5too?5long?$AA@ 0045f344     libcurl:strerror.obj
 0002:00008354       ??_C@_09IKKBPHPB@Host?5down?$AA@ 0045f354     libcurl:strerror.obj
 0002:00008360       ??_C@_0BB@BJPAGEMG@Host?5unreachable?$AA@ 0045f360     libcurl:strerror.obj
 0002:00008374       ??_C@_09HNKMHKD@Not?5empty?$AA@ 0045f374     libcurl:strerror.obj
 0002:00008380       ??_C@_0BG@HNPEDFFM@Process?5limit?5reached?$AA@ 0045f380     libcurl:strerror.obj
 0002:00008398       ??_C@_0P@DAFGFIDC@Too?5many?5users?$AA@ 0045f398     libcurl:strerror.obj
 0002:000083a8       ??_C@_09OLCJIOMK@Bad?5quota?$AA@ 0045f3a8     libcurl:strerror.obj
 0002:000083b4       ??_C@_0BD@OAJEPCAF@Something?5is?5stale?$AA@ 0045f3b4     libcurl:strerror.obj
 0002:000083c8       ??_C@_0N@CMGGHDDP@Remote?5error?$AA@ 0045f3c8     libcurl:strerror.obj
 0002:000083d8       ??_C@_0N@NFBNFHML@Disconnected?$AA@ 0045f3d8     libcurl:strerror.obj
 0002:000083e8       ??_C@_0BN@NBHIJNDO@Winsock?5library?5is?5not?5ready?$AA@ 0045f3e8     libcurl:strerror.obj
 0002:00008408       ??_C@_0CA@GOKMBGKE@Winsock?5library?5not?5initialised?$AA@ 0045f408     libcurl:strerror.obj
 0002:00008428       ??_C@_0BO@CMBHKIGC@Winsock?5version?5not?5supported?$AA@ 0045f428     libcurl:strerror.obj
 0002:00008448       ??_C@_0P@CAFMJNJH@Host?5not?5found?$AA@ 0045f448     libcurl:strerror.obj
 0002:00008458       ??_C@_0BK@LIMDACMA@Host?5not?5found?0?5try?5again?$AA@ 0045f458     libcurl:strerror.obj
 0002:00008474       ??_C@_0CK@PHGIEDKM@Unrecoverable?5error?5in?5call?5to?5n@ 0045f474     libcurl:strerror.obj
 0002:000084a0       ??_C@_0CB@PAPDILAI@No?5data?5record?5of?5requested?5type@ 0045f4a0     libcurl:strerror.obj
 0002:000084c4       ??_C@_0BH@LLHLFDOA@Unknown?5error?5?$CFd?5?$CI?$CF?$CDx?$CJ?$AA@ 0045f4c4     libcurl:strerror.obj
 0002:000084dc       ??_C@_0M@PCENNPGA@?$CFd?4?$CFd?4?$CFd?4?$CFd?$AA@ 0045f4dc     libcurl:inet_ntop.obj
 0002:000084e8       ??_C@_03OPHMLOFF@?$CFlx?$AA@ 0045f4e8     libcurl:inet_ntop.obj
 0002:000084ec       ??_C@_04DPLCCHJC@auth?$AA@ 0045f4ec     libcurl:digest.obj
 0002:000084f4       ??_C@_08DMLLJBKJ@auth?9int?$AA@ 0045f4f4     libcurl:digest.obj
 0002:00008500       ??_C@_09HPCMDFJO@auth?9conf?$AA@ 0045f500     libcurl:digest.obj
 0002:0000850c       ??_C@_07EJNHPKHG@nonce?$DN?$CC?$AA@ 0045f50c     libcurl:digest.obj
 0002:00008514       ??_C@_07HAABIMLH@realm?$DN?$CC?$AA@ 0045f514     libcurl:digest.obj
 0002:0000851c       ??_C@_0L@HDBLKLNB@algorithm?$DN?$AA@ 0045f51c     libcurl:digest.obj
 0002:00008528       ??_C@_05HFBPPANL@qop?$DN?$CC?$AA@ 0045f528     libcurl:digest.obj
 0002:00008530       ??_C@_08KNCPHIAE@00000001?$AA@ 0045f530     libcurl:digest.obj
 0002:0000853c       ??_C@_0N@PMNNBFMH@AUTHENTICATE?$AA@ 0045f53c     libcurl:digest.obj
 0002:0000854c       ??_C@_08EBDNNOOM@md5?9sess?$AA@ 0045f54c     libcurl:digest.obj
 0002:00008558       ??_C@_0FL@LNDBMOBB@username?$DN?$CC?$CFs?$CC?0realm?$DN?$CC?$CFs?$CC?0nonce?$DN?$CC@ 0045f558     libcurl:digest.obj
 0002:000085b4       ??_C@_05OOEDLKEB@nonce?$AA@ 0045f5b4     libcurl:digest.obj
 0002:000085bc       ??_C@_05BFAEFKPM@stale?$AA@ 0045f5bc     libcurl:digest.obj
 0002:000085c4       ??_C@_04LOAJBDKD@true?$AA@ 0045f5c4     libcurl:digest.obj
 0002:000085cc       ??_C@_05ELABLNGD@realm?$AA@ 0045f5cc     libcurl:digest.obj
 0002:000085d4       ??_C@_06CJCOLNBB@opaque?$AA@ 0045f5d4     libcurl:digest.obj
 0002:000085dc       ??_C@_03GBIMBCPB@qop?$AA@  0045f5dc     libcurl:digest.obj
 0002:000085e0       ??_C@_09JPNFBOJG@algorithm?$AA@ 0045f5e0     libcurl:digest.obj
 0002:000085ec       ??_C@_08DKLKDOBJ@MD5?9sess?$AA@ 0045f5ec     libcurl:digest.obj
 0002:000085f8       ??_C@_03GCGHEHKJ@MD5?$AA@  0045f5f8     libcurl:digest.obj
 0002:000085fc       ??_C@_07DKFLFLPF@SHA?9256?$AA@ 0045f5fc     libcurl:digest.obj
 0002:00008604       ??_C@_0N@EOLPNNCE@SHA?9256?9SESS?$AA@ 0045f604     libcurl:digest.obj
 0002:00008614       ??_C@_0M@ODMGHIGE@SHA?9512?9256?$AA@ 0045f614     libcurl:digest.obj
 0002:00008620       ??_C@_0BB@LFGPIGKB@SHA?9512?9256?9SESS?$AA@ 0045f620     libcurl:digest.obj
 0002:00008634       ??_C@_08MPDCKPHM@userhash?$AA@ 0045f634     libcurl:digest.obj
 0002:00008640       ??_C@_08LDENPILD@?$CFs?3?$CFs?3?$CFs?$AA@ 0045f640     libcurl:digest.obj
 0002:0000864c       ??_C@_0BE@DBLPOOMB@?$CFs?3?$CFs?3?$CF08x?3?$CFs?3?$CFs?3?$CFs?$AA@ 0045f64c     libcurl:digest.obj
 0002:00008660       ??_C@_0FN@LPOMOJKE@username?$DN?$CC?$CFs?$CC?0?5realm?$DN?$CC?$CFs?$CC?0?5nonce@ 0045f660     libcurl:digest.obj
 0002:000086c0       ??_C@_0DP@IEBMKLAD@username?$DN?$CC?$CFs?$CC?0?5realm?$DN?$CC?$CFs?$CC?0?5nonce@ 0045f6c0     libcurl:digest.obj
 0002:00008700       ??_C@_0BA@BIMHECMC@?$CFs?0?5opaque?$DN?$CC?$CFs?$CC?$AA@ 0045f700     libcurl:digest.obj
 0002:00008710       ??_C@_0BB@JNPNCBL@?$CFs?0?5algorithm?$DN?$CFs?$AA@ 0045f710     libcurl:digest.obj
 0002:00008724       ??_C@_0BC@HNHNJNFB@?$CFs?0?5userhash?$DNtrue?$AA@ 0045f724     libcurl:digest.obj
 0002:00008738       ??_C@_0BM@ILAEFAML@Too?5long?5hexadecimal?5number?$AA@ 0045f738     libcurl:http_chunks.obj
 0002:00008754       ??_C@_0CI@EPIPCBEA@Illegal?5or?5missing?5hexadecimal?5s@ 0045f754     libcurl:http_chunks.obj
 0002:0000877c       ??_C@_0BJ@JKKKEMNN@Malformed?5encoding?5found?$AA@ 0045f77c     libcurl:http_chunks.obj
 0002:00008798       ??_C@_0BL@NBOBMEI@Bad?5content?9encoding?5found?$AA@ 0045f798     libcurl:http_chunks.obj
 0002:000087ec       ??_C@_09JLCBMBBK@Bad?5label?$AA@ 0045f7ec     libcurl:doh.obj
 0002:000087f8       ??_C@_0N@OBIJMHDD@Out?5of?5range?$AA@ 0045f7f8     libcurl:doh.obj
 0002:00008808       ??_C@_0L@IEBIAGNN@Label?5loop?$AA@ 0045f808     libcurl:doh.obj
 0002:00008814       ??_C@_09OCNDOFP@Too?5small?$AA@ 0045f814     libcurl:doh.obj
 0002:00008820       ??_C@_0N@FHJOLNAK@RDATA?5length?$AA@ 0045f820     libcurl:doh.obj
 0002:00008830       ??_C@_09OCLBHOEO@Malformat?$AA@ 0045f830     libcurl:doh.obj
 0002:0000883c       ??_C@_09DBMBBPHM@Bad?5RCODE?$AA@ 0045f83c     libcurl:doh.obj
 0002:00008848       ??_C@_0BA@OKMFLAL@Unexpected?5TYPE?$AA@ 0045f848     libcurl:doh.obj
 0002:00008858       ??_C@_0BB@EAJHLOKN@Unexpected?5CLASS?$AA@ 0045f858     libcurl:doh.obj
 0002:0000886c       ??_C@_0L@KKIPEPDM@No?5content?$AA@ 0045f86c     libcurl:doh.obj
 0002:00008878       ??_C@_06FFHBNKND@Bad?5ID?$AA@ 0045f878     libcurl:doh.obj
 0002:00008880       ??_C@_0P@JHEEOJHM@bad?5error?5code?$AA@ 0045f880     libcurl:doh.obj
 0002:00008890       ??_C@_0CG@CKDPOMBN@a?5DOH?5request?5is?5completed?0?5?$CFu?5t@ 0045f890     libcurl:doh.obj
 0002:000088b8       ??_C@_0BA@NDOGDMBN@DOH?5request?5?$CFs?6?$AA@ 0045f8b8     libcurl:doh.obj
 0002:000088c8       ??_C@_0CB@KOMHFCDO@Failed?5to?5encode?5DOH?5packet?5?$FL?$CFd?$FN@ 0045f8c8     libcurl:doh.obj
 0002:000088ec       ??_C@_09OLGCPDFN@?$CFs?$DPdns?$DN?$CFs?$AA@ 0045f8ec     libcurl:doh.obj
 0002:000088f8       ??_C@_0CG@KIGAOFHM@Content?9Type?3?5application?1dns?9me@ 0045f8f8     libcurl:doh.obj
 0002:00008920       ??_C@_0BB@DKILCKOO@TTL?3?5?$CFu?5seconds?6?$AA@ 0045f920     libcurl:doh.obj
 0002:00008934       ??_C@_0BE@FOEBOIJB@DOH?5A?3?5?$CFu?4?$CFu?4?$CFu?4?$CFu?6?$AA@ 0045f934     libcurl:doh.obj
 0002:00008948       ??_C@_0L@NNFPBGFL@DOH?5AAAA?3?5?$AA@ 0045f948     libcurl:doh.obj
 0002:00008954       ??_C@_0L@NCOIGGIO@?$CFs?$CF02x?$CF02x?$AA@ 0045f954     libcurl:doh.obj
 0002:00008960       ??_C@_0L@GJHHPGAI@CNAME?3?5?$CFs?6?$AA@ 0045f960     libcurl:doh.obj
 0002:0000896c       ??_C@_01FHEEJDEE@A?$AA@    0045f96c     libcurl:doh.obj
 0002:00008970       ??_C@_04OHNMNPPA@AAAA?$AA@ 0045f970     libcurl:doh.obj
 0002:00008978       ??_C@_0BK@IFADNFO@Could?5not?5DOH?9resolve?3?5?$CFs?$AA@ 0045f978     libcurl:doh.obj
 0002:00008994       ??_C@_0BI@CENMKCHB@DOH?3?5?$CFs?5type?5?$CFs?5for?5?$CFs?6?$AA@ 0045f994     libcurl:doh.obj
 0002:000089ac       ??_C@_0BD@FBBLOGDK@DOH?5Host?5name?3?5?$CFs?6?$AA@ 0045f9ac     libcurl:doh.obj
 0002:00008a4c       ??_C@_06BHJPINKK@?$CFc?$CFc?$DN?$DN?$AA@ 0045fa4c     libcurl:base64.obj
 0002:00008a54       ??_C@_07KPHDOBAP@?$CFc?$CFc?$CFc?$DN?$AA@ 0045fa54     libcurl:base64.obj
 0002:00008a60       ??_C@_0GC@KMDLLNFG@NTLM?5handshake?5failure?5?$CIbad?5type@ 0045fa60     libcurl:ntlm.obj
 0002:00008ac4       ??_C@_0CP@KIFOOILK@NTLM?5handshake?5failure?5?$CIempty?5ty@ 0045fac4     libcurl:ntlm.obj
 0002:00008af4       ??_C@_0CN@NILNEGOG@NTLM?5handshake?5failure?5?$CIbad?5type@ 0045faf4     libcurl:ntlm.obj
 0002:00008b24       ??_C@_0DN@EOPIHEDC@NTLMSSP?$CFc?$AB?$CFc?$CFc?$CFc?$CFc?$CFc?$CFc?$CFc?$CFc?$CFc?$CFc?$CFc@ 0045fb24     libcurl:ntlm.obj
 0002:00008b64       ??_C@_0CL@BCOKKCBO@gethostname?$CI?$CJ?5failed?0?5continuing@ 0045fb64     libcurl:ntlm.obj
 0002:00008b90       ??_C@_0HJ@CLKEMMBI@NTLMSSP?$CFc?$AD?$CFc?$CFc?$CFc?$CFc?$CFc?$CFc?$CFc?$CFc?$CFc?$CFc?$CFc@ 0045fb90     libcurl:ntlm.obj
 0002:00008c0c       ??_C@_0BO@JAAKONFE@incoming?5NTLM?5message?5too?5big?$AA@ 0045fc0c     libcurl:ntlm.obj
 0002:00008c2c       ??_C@_0CC@OKCALBLA@user?5?$CL?5domain?5?$CL?5host?5name?5too?5bi@ 0045fc2c     libcurl:ntlm.obj
 0002:00008c50       ??_C@_07NPDBOIDH@aws?3amz?$AA@ 0045fc50     libcurl:http_aws_sigv4.obj
 0002:00008c58       ??_C@_0BP@KLOELJLG@first?5provider?5can?8t?5be?5empty?6?$AA@ 0045fc58     libcurl:http_aws_sigv4.obj
 0002:00008c78       ??_C@_0CA@EAHCMJLP@second?5provider?5can?8t?5be?5empty?6?$AA@ 0045fc78     libcurl:http_aws_sigv4.obj
 0002:00008c98       ??_C@_0BH@GCAPKOHK@region?5can?8t?5be?5empty?6?$AA@ 0045fc98     libcurl:http_aws_sigv4.obj
 0002:00008cb0       ??_C@_0BI@DONEAKFM@service?5can?8t?5be?5empty?6?$AA@ 0045fcb0     libcurl:http_aws_sigv4.obj
 0002:00008cc8       ??_C@_0CL@KGLCCDEP@service?5missing?5in?5parameters?5or@ 0045fcc8     libcurl:http_aws_sigv4.obj
 0002:00008cf4       ??_C@_0CK@MPAFOPCI@region?5missing?5in?5parameters?5or?5@ 0045fcf4     libcurl:http_aws_sigv4.obj
 0002:00008d20       ??_C@_0P@IKNEGPFP@?$CFY?$CFm?$CFdT?$CFH?$CFM?$CFSZ?$AA@ 0045fd20     libcurl:http_aws_sigv4.obj
 0002:00008d30       ??_C@_0CG@LGOKAMLB@content?9type?3?$CFs?6host?3?$CFs?6x?9?$CFs?9dat@ 0045fd30     libcurl:http_aws_sigv4.obj
 0002:00008d58       ??_C@_0BM@KIONJGIN@content?9type?$DLhost?$DLx?9?$CFs?9date?$AA@ 0045fd58     libcurl:http_aws_sigv4.obj
 0002:00008d74       ??_C@_0BG@KFBJEMGA@host?3?$CFs?6x?9?$CFs?9date?3?$CFs?6?$AA@ 0045fd74     libcurl:http_aws_sigv4.obj
 0002:00008d8c       ??_C@_0P@LBLFCGEL@host?$DLx?9?$CFs?9date?$AA@ 0045fd8c     libcurl:http_aws_sigv4.obj
 0002:00008d9c       ??_C@_0BC@PHFFPANB@?$CFs?6?$CFs?6?$CFs?6?$CFs?6?$CFs?6?$CFs?$AA@ 0045fd9c     libcurl:http_aws_sigv4.obj
 0002:00008db0       ??_C@_0M@HICACENB@?$CFs4_request?$AA@ 0045fdb0     libcurl:http_aws_sigv4.obj
 0002:00008dbc       ??_C@_0M@CFLEPOPB@?$CFs?1?$CFs?1?$CFs?1?$CFs?$AA@ 0045fdbc     libcurl:http_aws_sigv4.obj
 0002:00008dc8       ??_C@_0BJ@CMHLPGHN@?$CFs4?9HMAC?9SHA256?6?$CFs?6?$CFs?6?$CFs?$AA@ 0045fdc8     libcurl:http_aws_sigv4.obj
 0002:00008de4       ??_C@_05OCPDJBAO@?$CFs4?$CFs?$AA@ 0045fde4     libcurl:http_aws_sigv4.obj
 0002:00008df0       ??_C@_0GB@FIOPLDOD@Authorization?3?5?$CFs4?9HMAC?9SHA256?5C@ 0045fdf0     libcurl:http_aws_sigv4.obj
 0002:00008e54       ??_C@_0BI@OMBEIMIN@server?5response?5timeout?$AA@ 0045fe54     libcurl:pingpong.obj
 0002:00008e6c       ??_C@_0BC@FLDALOLK@select?1poll?5error?$AA@ 0045fe6c     libcurl:pingpong.obj
 0002:00008e80       ??_C@_0CH@HOGDLIGJ@cached?5response?5data?5too?5big?5to?5@ 0045fe80     libcurl:pingpong.obj
 0002:00008ea8       ??_C@_0BI@KBMAOGBB@response?5reading?5failed?$AA@ 0045fea8     libcurl:pingpong.obj
 0002:00008ec0       ??_C@_0EG@IFEGJIDG@Excessive?5server?5response?5line?5l@ 0045fec0     libcurl:pingpong.obj
 0002:00008f98       ??_C@_05PLHGOPJD@LOGIN?$AA@ 0045ff98     libcurl:curl_sasl.obj
 0002:00008fa0       ??_C@_05ONKJAIHP@PLAIN?$AA@ 0045ffa0     libcurl:curl_sasl.obj
 0002:00008fa8       ??_C@_08DNNNMLKI@CRAM?9MD5?$AA@ 0045ffa8     libcurl:curl_sasl.obj
 0002:00008fb4       ??_C@_0L@ELGHJPGH@DIGEST?9MD5?$AA@ 0045ffb4     libcurl:curl_sasl.obj
 0002:00008fc0       ??_C@_06HIDJEBJA@GSSAPI?$AA@ 0045ffc0     libcurl:curl_sasl.obj
 0002:00008fc8       ??_C@_08JHLDEHEK@EXTERNAL?$AA@ 0045ffc8     libcurl:curl_sasl.obj
 0002:00008fd4       ??_C@_07ENDMEEPL@XOAUTH2?$AA@ 0045ffd4     libcurl:curl_sasl.obj
 0002:00008fdc       ??_C@_0M@CNKKGKLC@OAUTHBEARER?$AA@ 0045ffdc     libcurl:curl_sasl.obj
 0002:00008fe8       ??_C@_0M@NPGGIEFL@SCRAM?9SHA?91?$AA@ 0045ffe8     libcurl:curl_sasl.obj
 0002:00008ff4       ??_C@_0O@KJDAFCA@SCRAM?9SHA?9256?$AA@ 0045fff4     libcurl:curl_sasl.obj
 0002:00009004       ??_C@_04GJKECPKB@AQ?$DN?$DN?$AA@ 00460004     libcurl:curl_sasl.obj
 0002:0000900c       ??_C@_0CK@LABGPHKL@Unsupported?5SASL?5authentication?5@ 0046000c     libcurl:curl_sasl.obj
 0002:00009038       _Curl_DIGEST_MD5           00460038     libcurl:md5.obj
 0002:0000904c       _Curl_HMAC_MD5             0046004c     libcurl:md5.obj
 0002:00009064       ??_C@_04BBDFLMDN@?5?9?$DO?5?$AA@ 00460064     libcurl:ftplistparser.obj
 0002:0000906c       ??_C@_06NIJHKJLJ@total?5?$AA@ 0046006c     libcurl:ftplistparser.obj
 0002:00009074       ??_C@_08IKJPBGEL@rwx?9tTsS?$AA@ 00460074     libcurl:ftplistparser.obj
 0002:00009080       ??_C@_0M@GKMDGLA@0123456789?9?$AA@ 00460080     libcurl:ftplistparser.obj
 0002:0000908c       ??_C@_0P@BIDONHD@APM0123456789?3?$AA@ 0046008c     libcurl:ftplistparser.obj
 0002:0000909c       ??_C@_05FIBHJBBH@?$DMDIR?$DO?$AA@ 0046009c     libcurl:ftplistparser.obj
 0002:000090ac       ??_C@_0CB@NDKGBGMP@?$CFc?$CFc?$CFc?$CFc?$CFc?$CFc?$CFc?$CFc?$CFc?$CFc?$CFc?$CFc?$CFc?$CFc?$CFc?$CFc@ 004600ac     libcurl:curl_ntlm_core.obj
 0002:000090d0       ??_C@_02CAHBHFGK@?4?1?$AA@ 004600d0     libcurl:dotdot.obj
 0002:000090d4       ??_C@_03LOJJKLGJ@?4?4?1?$AA@ 004600d4     libcurl:dotdot.obj
 0002:000090d8       ??_C@_03GCFMMAM@?1?4?1?$AA@ 004600d8     libcurl:dotdot.obj
 0002:000090dc       ??_C@_02DIKICOBM@?1?4?$AA@ 004600dc     libcurl:dotdot.obj
 0002:000090e0       ??_C@_04BKGODLLN@?1?4?4?1?$AA@ 004600e0     libcurl:dotdot.obj
 0002:000090e8       ??_C@_03BPDOPNEN@?1?4?4?$AA@ 004600e8     libcurl:dotdot.obj
 0002:000090ec       ??_C@_02DJGKEECL@?4?4?$AA@ 004600ec     libcurl:dotdot.obj
 0002:000090f0       ??_C@_08ICCJALCC@?$CFs?1?$CFs?$EA?$CFs?$AA@ 004600f0     libcurl:vauth.obj
 0002:000090fc       ??_C@_05GFOLEBJA@?$CFs?1?$CFs?$AA@ 004600fc     libcurl:vauth.obj
 0002:00009104       ??_C@_05GKOKGMF@?$CFs?$EA?$CFs?$AA@ 00460104     libcurl:vauth.obj
 0002:0000910c       _Curl_HMAC_SHA256          0046010c     libcurl:sha256.obj
 0002:00009128       ??_C@_01NEMOKFLO@?$DN?$AA@ 00460128     libcurl:cleartext.obj
 0002:00009130       ??_C@_0EE@GBENNIBO@?$CFs?5?$CF02x?$CF02x?$CF02x?$CF02x?$CF02x?$CF02x?$CF02x?$CF@ 00460130     libcurl:cram.obj
 0002:00009174       ??_C@_0CB@GNAMIMBB@n?0a?$DN?$CFs?0?$ABhost?$DN?$CFs?$ABauth?$DNBearer?5?$CFs?$AB?$AB@ 00460174     libcurl:oauth2.obj
 0002:00009198       ??_C@_0CK@MLPCPAOG@n?0a?$DN?$CFs?0?$ABhost?$DN?$CFs?$ABport?$DN?$CFld?$ABauth?$DNBe@ 00460198     libcurl:oauth2.obj
 0002:000091c4       ??_C@_0BJ@HPFOJHGD@user?$DN?$CFs?$ABauth?$DNBearer?5?$CFs?$AB?$AB?$AA@ 004601c4     libcurl:oauth2.obj
 0002:000091e0       ??_C@_05ODNOIFML@digit?$AA@ 004601e0     libcurl:curl_fnmatch.obj
 0002:000091e8       ??_C@_05IIMHCHIO@alnum?$AA@ 004601e8     libcurl:curl_fnmatch.obj
 0002:000091f0       ??_C@_05IAEKHIAN@alpha?$AA@ 004601f0     libcurl:curl_fnmatch.obj
 0002:000091f8       ??_C@_06BAPHGFFK@xdigit?$AA@ 004601f8     libcurl:curl_fnmatch.obj
 0002:00009200       ??_C@_05IJDJACGD@print?$AA@ 00460200     libcurl:curl_fnmatch.obj
 0002:00009208       ??_C@_05KCJBMLII@graph?$AA@ 00460208     libcurl:curl_fnmatch.obj
 0002:00009210       ??_C@_05OLNILLAB@space?$AA@ 00460210     libcurl:curl_fnmatch.obj
 0002:00009218       ??_C@_05BABJKOGB@blank?$AA@ 00460218     libcurl:curl_fnmatch.obj
 0002:00009220       ??_C@_05NECKJAMC@upper?$AA@ 00460220     libcurl:curl_fnmatch.obj
 0002:00009228       ??_C@_05IPJEPLHL@lower?$AA@ 00460228     libcurl:curl_fnmatch.obj
 0002:00009248       ??_C@_0N@GIPHPLLM@Warcraft?5III@ 00460248     Main.obj
 0002:00009258       ??_C@_0EI@IDOFGHGD@11070123112E8880181D0381091D038@ 00460258     Main.obj
 0002:000092a0       ??_C@_01NOFIACDB@w@        004602a0     Main.obj
 0002:000092a4       ??_C@_07GPDNMNG@CONOUT$@   004602a4     Main.obj
 0002:000092ac       ??_C@_05JLNEMJLN@dummy@    004602ac     Main.obj
 0002:000092b4       ??_C@_0M@CBKKAKMP@Bahnschrift@ 004602b4     Main.obj
 0002:000092c0       ??_C@_0BB@ICFLKOPM@SeDebugPrivilege@ 004602c0     Main.obj
 0002:000092d4       ??_C@_08EPCMHBKI@Game?4dll@ 004602d4     Main.obj
 0002:000092e0       ?colors@@3PAKA             004602e0     Main.obj
 0002:00009310       ?key@@3PBDB                00460310     Main.obj
 0002:00009314       ??_C@_0BC@EOODALEL@Unknown?5exception@ 00460314     protect.obj
 0002:00009328       ??_C@_0BF@KINCDENJ@bad?5array?5new?5length@ 00460328     protect.obj
 0002:00009340       ??_C@_0BA@JFNIOLAK@string?5too?5long@ 00460340     protect.obj
 0002:00009350       ??_C@_0BG@HGEDEDEC@invalid?5stoi?5argument@ 00460350     protect.obj
 0002:00009368       ??_C@_0BL@MFFNMGGC@stoi?5argument?5out?5of?5range@ 00460368     protect.obj
 0002:00009383       ??_C@_00CNPNBAHC@@         00460383     protect.obj
 0002:00009384       ??_C@_04JHBMAIMM@?$CF01X@  00460384     protect.obj
 0002:0000938c       ??_C@_05NADPPHDM@Key?3?5@  0046038c     protect.obj
 0002:00009394       ??_C@_0DP@JMIKLEIH@http?3?1?1showcase?4api?4linx?4twenty@ 00460394     protect.obj
 0002:000093d4       ??_C@_01JLIPDDHJ@?3@       004603d4     protect.obj
 0002:000093d8       ??_C@_01CLKCMJKC@?5@       004603d8     protect.obj
 0002:000093dc       ??_C@_01LFCBOECM@?4@       004603dc     protect.obj
 0002:000093e0       ??_C@_0BI@CFPLBAOH@invalid?5string?5position@ 004603e0     protect.obj
 0002:000093f8       ??_C@_0BH@KOGMOJCH@invalid?5stoll?5argument@ 004603f8     systeminfo.obj
 0002:00009410       ??_C@_0BM@BPCBEBLO@stoll?5argument?5out?5of?5range@ 00460410     systeminfo.obj
 0002:0000942c       ??_C@_08EPJLHIJG@bad?5cast@ 0046042c     systeminfo.obj
 0002:00009438       ??_C@_0FF@ODEOEJDF@wmic?5?1namespace?3?2?2root?2wmi?5PATH@ 00460438     systeminfo.obj
 0002:00009490       ??_C@_06PONDCDME@ERROR?3@  00460490     systeminfo.obj
 0002:00009498       ??_C@_0DN@ILJDKAAO@wmic?5cpu?5get?5?1format?3list?5?$HM?5fin@ 00460498     systeminfo.obj
 0002:000094d8       ??_C@_0BD@PGHEEDII@CurrentClockSpeed?$DN@ 004604d8     systeminfo.obj
 0002:000094ec       ??_C@_05DCIFAFBG@Name?$DN@ 004604ec     systeminfo.obj
 0002:000094f4       ??_C@_0P@BHLKPIPI@NumberOfCores?$DN@ 004604f4     systeminfo.obj
 0002:00009504       ??_C@_0O@HNEOCNDC@Manufacturer?$DN@ 00460504     systeminfo.obj
 0002:00009514       ??_C@_0L@BAIIMEAH@DataWidth?$DN@ 00460514     systeminfo.obj
 0002:00009520       ??_C@_0N@NPABCCND@L2CacheSize?$DN@ 00460520     systeminfo.obj
 0002:00009530       ??_C@_0N@EEKEGOLM@L3CacheSize?$DN@ 00460530     systeminfo.obj
 0002:00009540       ??_C@_02LODOGJEL@KB@       00460540     systeminfo.obj
 0002:00009544       ??_C@_07NBCGADJA@Unknown@  00460544     systeminfo.obj
 0002:0000954c       ??_C@_03BMJMONAH@MHz@      0046054c     systeminfo.obj
 0002:00009550       ??_C@_03NDFEINMN@x86@      00460550     systeminfo.obj
 0002:00009554       ??_C@_06HDPOADAK@x86_64@   00460554     systeminfo.obj
 0002:0000955c       ??_C@_0BL@LFOFMABP@wmic?5cpu?5get?5?1format?3?5list@ 0046055c     systeminfo.obj
 0002:00009578       ??_C@_09KGLINCJH@AssetTag?$DN@ 00460578     systeminfo.obj
 0002:00009584       ??_C@_0N@JEAIMEKG@VoltageCaps?$DN@ 00460584     systeminfo.obj
 0002:00009594       ??_C@_01LIIJDEN@?$AN@      00460594     systeminfo.obj
 0002:00009598       ??_C@_06HLMMPIBG@NVIDIA@   00460598     systeminfo.obj
 0002:000095a0       ??_C@_05OPFLDEAH@INTEL@    004605a0     systeminfo.obj
 0002:000095a8       ??_C@_03BBEEILCJ@AMD@      004605a8     systeminfo.obj
 0002:000095ac       ??_C@_0BG@JEIDHDPM@AdapterCompatibility?$DN@ 004605ac     systeminfo.obj
 0002:000095c4       ??_C@_0M@MFMICOBC@AdapterRAM?$DN@ 004605c4     systeminfo.obj
 0002:000095d0       ??_C@_0BE@HFKIHEFN@CurrentRefreshRate?$DN@ 004605d0     systeminfo.obj
 0002:000095e4       ??_C@_0P@ECEAHKCA@DriverVersion?$DN@ 004605e4     systeminfo.obj
 0002:000095f4       ??_C@_0BD@PJIEMGDB@VideoArchitecture?$DN@ 004605f4     systeminfo.obj
 0002:00009608       ??_C@_0BA@COFLHODM@VideoMemoryType@ 00460608     systeminfo.obj
 0002:00009618       ??_C@_0BG@KAJCOKNL@VideoModeDescription?$DN@ 00460618     systeminfo.obj
 0002:00009630       ??_C@_0BA@IDIFCJOL@VideoProcessor?$DN@ 00460630     systeminfo.obj
 0002:00009640       ??_C@_08EBLFLHLH@Caption?$DN@ 00460640     systeminfo.obj
 0002:0000964c       ??_C@_07IOEJHCEF@?5Bytes?$CJ@ 0046064c     systeminfo.obj
 0002:00009654       ??_C@_04MNLDOMOG@MB?5?$CI@ 00460654     systeminfo.obj
 0002:0000965c       ??_C@_06LFCPCEPB@?5Bytes@  0046065c     systeminfo.obj
 0002:00009664       ??_C@_05BBOGGNLJ@Other@    00460664     systeminfo.obj
 0002:0000966c       ??_C@_03MLKNDCDB@CGA@      0046066c     systeminfo.obj
 0002:00009670       ??_C@_03OOMGGNON@EGA@      00460670     systeminfo.obj
 0002:00009674       ??_C@_03KMGKJFJM@VGA@      00460674     systeminfo.obj
 0002:00009678       ??_C@_04DELPAIIG@SVGA@     00460678     systeminfo.obj
 0002:00009680       ??_C@_03CJDEPLFL@MDA@      00460680     systeminfo.obj
 0002:00009684       ??_C@_03COJKNHLC@HGC@      00460684     systeminfo.obj
 0002:00009688       ??_C@_04IMKIIGMI@MCGA@     00460688     systeminfo.obj
 0002:00009690       ??_C@_05ENECEAKG@8514A@    00460690     systeminfo.obj
 0002:00009698       ??_C@_03EMLFOCKP@XGA@      00460698     systeminfo.obj
 0002:0000969c       ??_C@_0BE@HCJIGBPB@Linear?5Frame?5Buffer@ 0046069c     systeminfo.obj
 0002:000096b0       ??_C@_07BIPCJPON@PC?5?9?598@ 004606b0     systeminfo.obj
 0002:000096b8       ??_C@_04NLAFCDBP@VRAM@     004606b8     systeminfo.obj
 0002:000096c0       ??_C@_04MBCFOHPN@DRAM@     004606c0     systeminfo.obj
 0002:000096c8       ??_C@_04BDOFKMGP@SRAM@     004606c8     systeminfo.obj
 0002:000096d0       ??_C@_04OGGFAKKP@WRAM@     004606d0     systeminfo.obj
 0002:000096d8       ??_C@_07FKCCEMEA@EDO_RAM@  004606d8     systeminfo.obj
 0002:000096e0       ??_C@_0BH@DEHCDIJM@Burst?5Synchronous?5DRAM@ 004606e0     systeminfo.obj
 0002:000096f8       ??_C@_0BF@IJELNNLE@Pipelined?5Burst?5SRAM@ 004606f8     systeminfo.obj
 0002:00009710       ??_C@_05DPAJMJIB@CDRAM@    00460710     systeminfo.obj
 0002:00009718       ??_C@_05DECLMEEA@3DRAM@    00460718     systeminfo.obj
 0002:00009720       ??_C@_05DMNPMLBK@SDRAM@    00460720     systeminfo.obj
 0002:00009728       ??_C@_05HLHPLBMK@SGRAM@    00460728     systeminfo.obj
 0002:00009730       ??_C@_0DC@PMLGMCKE@wmic?5path?5Win32_VideoController@ 00460730     systeminfo.obj
 0002:00009764       ??_C@_0BF@MNNLIBBB@CurrentBitsPerPixel?$DN@ 00460764     systeminfo.obj
 0002:00009780       ??_C@_0EF@JNOHMMK@wmic?5path?5Win32_PnPEntity?5get?5?1@ 00460780     systeminfo.obj
 0002:000097c8       ??_C@_08EKPLPCOK@Product?$DN@ 004607c8     systeminfo.obj
 0002:000097d4       ??_C@_0N@NCLCEBBL@Description?$DN@ 004607d4     systeminfo.obj
 0002:000097e4       ??_C@_07CPHKODAM@Chipset@  004607e4     systeminfo.obj
 0002:000097ec       ??_C@_0O@OFNCEPFA@SerialNumber?$DN@ 004607ec     systeminfo.obj
 0002:000097fc       ??_C@_08KJDCJPOC@Version?$DN@ 004607fc     systeminfo.obj
 0002:00009808       ??_C@_0CB@BDBEEPBD@wmic?5baseboard?5get?5?1format?3?5lis@ 00460808     systeminfo.obj
 0002:0000982c       ??_C@_0BH@BLPEBJGK@RequiresDaughterBoard?$DN@ 0046082c     systeminfo.obj
 0002:00009844       ??_C@_06PNJJNEK@Width?$DN@ 00460844     systeminfo.obj
 0002:0000984c       ??_C@_0BA@HJFKPBCC@OSArchitecture?$DN@ 0046084c     systeminfo.obj
 0002:0000985c       ??_C@_0BA@INGADHEL@RegisteredUser?$DN@ 0046085c     systeminfo.obj
 0002:0000986c       ??_C@_0N@ODOKOKID@InstallDate?$DN@ 0046086c     systeminfo.obj
 0002:0000987c       ??_C@_0N@JEMEBDNJ@BuildNumber?$DN@ 0046087c     systeminfo.obj
 0002:0000988c       ??_C@_0BA@GCBFFF@LastBootUpTime?$DN@ 0046088c     systeminfo.obj
 0002:0000989c       ??_C@_0M@CGJKPCAI@BootDevice?$DN@ 0046089c     systeminfo.obj
 0002:000098a8       ??_C@_0BI@PMGAEKHL@TotalVirtualMemorySize?$DN@ 004608a8     systeminfo.obj
 0002:000098c0       ??_C@_0BI@HLKHBHBJ@TotalVisibleMemorySize?$DN@ 004608c0     systeminfo.obj
 0002:000098d8       ??_C@_0P@GNHCPJKN@TotalSwapSize?$DN@ 004608d8     systeminfo.obj
 0002:000098e8       ??_C@_0BE@DEHHBEC@FreePhysicalMemory?$DN@ 004608e8     systeminfo.obj
 0002:000098fc       ??_C@_0DN@FMHPDIHB@wmic?5os?5get?5?1format?3list?5?$HM?5find@ 004608fc     systeminfo.obj
 0002:0000993c       ??_C@_0BD@LBCHCOMB@FreeVirtualMemory?$DN@ 0046093c     systeminfo.obj
 0002:00009950       ??_C@_0DM@IMOGBFPI@wmic?5os?5get?5?1format?3list?5?$HM?5find@ 00460950     systeminfo.obj
 0002:0000998c       ??_C@_0BI@JAIEFCLJ@FreeSpaceInPagingFiles?$DN@ 0046098c     systeminfo.obj
 0002:000099a8       ??_C@_0EB@OBBKEDCH@wmic?5os?5get?5?1format?3list?5?$HM?5find@ 004609a8     systeminfo.obj
 0002:000099ec       ??_C@_0BJ@FNCKOEAK@SizeStoredInPagingFiles?$DN@ 004609ec     systeminfo.obj
 0002:00009a08       ??_C@_0EC@EKOMMEFI@wmic?5os?5get?5?1format?3list?5?$HM?5find@ 00460a08     systeminfo.obj
 0002:00009a4c       ??_C@_0P@OEDDHIDF@LocalDateTime?$DN@ 00460a4c     systeminfo.obj
 0002:00009a5c       ??_C@_0DI@PPLPAHM@wmic?5os?5get?5?1format?3list?5?$HM?5find@ 00460a5c     systeminfo.obj
 0002:00009a94       ??_C@_04IDFBDOJP@?5KB?$CJ@ 00460a94     systeminfo.obj
 0002:00009a9c       ??_C@_03MAAJMAHL@?5KB@     00460a9c     systeminfo.obj
 0002:00009aa0       ??_C@_0BJ@PEOICEGE@wmic?5os?5get?5?1format?3list@ 00460aa0     systeminfo.obj
 0002:00009abc       ??_C@_0BJ@BADAMLNJ@PortableOperatingSystem?$DN@ 00460abc     systeminfo.obj
 0002:00009ad8       ??_C@_0BC@KMGAAGMI@WindowsDirectory?$DN@ 00460ad8     systeminfo.obj
 0002:00009aec       ??_C@_0P@CLNGFENG@DeviceLocator?$DN@ 00460aec     systeminfo.obj
 0002:00009afc       ??_C@_09GMKGCMGO@Capacity?$DN@ 00460afc     systeminfo.obj
 0002:00009b08       ??_C@_0M@NJBBNODN@FormFactor?$DN@ 00460b08     systeminfo.obj
 0002:00009b14       ??_C@_0M@JCECAJFD@PartNumber?$DN@ 00460b14     systeminfo.obj
 0002:00009b20       ??_C@_0M@BHDFFOOC@MemoryType?$DN@ 00460b20     systeminfo.obj
 0002:00009b2c       ??_C@_0BG@HOKNLHKH@ConfiguredClockSpeed?$DN@ 00460b2c     systeminfo.obj
 0002:00009b44       ??_C@_06DJAAKCE@Speed?$DN@ 00460b44     systeminfo.obj
 0002:00009b4c       ??_C@_0BA@PHEJNBIO@Syncronous?5DRAM@ 00460b4c     systeminfo.obj
 0002:00009b5c       ??_C@_0L@KFMNNBLH@Cache?5DRAM@ 00460b5c     systeminfo.obj
 0002:00009b68       ??_C@_03HCADPODK@EDO@      00460b68     systeminfo.obj
 0002:00009b6c       ??_C@_05OJFACKJM@EDRAM@    00460b6c     systeminfo.obj
 0002:00009b74       ??_C@_03ILDADBHF@RAM@      00460b74     systeminfo.obj
 0002:00009b78       ??_C@_03IBKOBMHP@ROM@      00460b78     systeminfo.obj
 0002:00009b7c       ??_C@_05LDPHIKKB@Flash@    00460b7c     systeminfo.obj
 0002:00009b84       ??_C@_06EMDDBCNH@EEPROM@   00460b84     systeminfo.obj
 0002:00009b8c       ??_C@_06HNNLAIEK@FEPROM@   00460b8c     systeminfo.obj
 0002:00009b94       ??_C@_05HGKODGNE@EPROM@    00460b94     systeminfo.obj
 0002:00009b9c       ??_C@_05PHIDBILP@RDRAM@    00460b9c     systeminfo.obj
 0002:00009ba4       ??_C@_04CJLNMEGN@DDR1@     00460ba4     systeminfo.obj
 0002:00009bac       ??_C@_04CJAJHKO@DDR2@      00460bac     systeminfo.obj
 0002:00009bb4       ??_C@_0O@HNAHBKBC@DDR2?5?9?5FBDIMM@ 00460bb4     systeminfo.obj
 0002:00009bc4       ??_C@_04BLILKGOP@DDR3@     00460bc4     systeminfo.obj
 0002:00009bcc       ??_C@_04EFJAEENA@FBD2@     00460bcc     systeminfo.obj
 0002:00009bd4       ??_C@_03MCPDGLLE@SIP@      00460bd4     systeminfo.obj
 0002:00009bd8       ??_C@_03PDNAEJC@DIP@       00460bd8     systeminfo.obj
 0002:00009bdc       ??_C@_03LPPLCEDO@ZIP@      00460bdc     systeminfo.obj
 0002:00009be0       ??_C@_03HGFDONNN@SOJ@      00460be0     systeminfo.obj
 0002:00009be4       ??_C@_0M@EAHCLNFM@Proprietary@ 00460be4     systeminfo.obj
 0002:00009bf0       ??_C@_04JNOHIFJF@SIMM@     00460bf0     systeminfo.obj
 0002:00009bf8       ??_C@_04EPCHMOAH@DIMM@     00460bf8     systeminfo.obj
 0002:00009c00       ??_C@_04OMILFGAM@TSOP@     00460c00     systeminfo.obj
 0002:00009c08       ??_C@_03IJABMKEA@PGA@      00460c08     systeminfo.obj
 0002:00009c0c       ??_C@_04KAIHKMCF@RIMM@     00460c0c     systeminfo.obj
 0002:00009c14       ??_C@_06PIFKKNPH@SODIMM@   00460c14     systeminfo.obj
 0002:00009c1c       ??_C@_05FNHNIAMC@SRIMM@    00460c1c     systeminfo.obj
 0002:00009c24       ??_C@_03OLFEBEDN@SMD@      00460c24     systeminfo.obj
 0002:00009c28       ??_C@_04FNCPFOHC@SSMP@     00460c28     systeminfo.obj
 0002:00009c30       ??_C@_03ENAIDDFH@QFD@      00460c30     systeminfo.obj
 0002:00009c34       ??_C@_04EJFDKFAI@TQFP@     00460c34     systeminfo.obj
 0002:00009c3c       ??_C@_04CBAGFPBL@SOIC@     00460c3c     systeminfo.obj
 0002:00009c44       ??_C@_03KGPBOIDJ@LCC@      00460c44     systeminfo.obj
 0002:00009c48       ??_C@_04HJIEAPPD@PLCC@     00460c48     systeminfo.obj
 0002:00009c50       ??_C@_03HDBBFFFE@BGA@      00460c50     systeminfo.obj
 0002:00009c54       ??_C@_05CIFANFB@FPBGA@     00460c54     systeminfo.obj
 0002:00009c5c       ??_C@_03JDMOCCGH@LGA@      00460c5c     systeminfo.obj
 0002:00009c60       ??_C@_0CC@FIPGLJJI@wmic?5memorychip?5get?5?1format?3?5li@ 00460c60     systeminfo.obj
 0002:00009c84       ??_C@_04IFFFBHG@2?$DO?$CG1@ 00460c84     systeminfo.obj
 0002:00009c8c       ??_C@_01PPODPGHN@?$DO@     00460c8c     systeminfo.obj
 0002:00009c90       ??_C@_02PCIJFNDE@?$AN?6@   00460c90     systeminfo.obj
 0002:00009c94       ??_C@_02LIIHNNHG@?6?$AN@   00460c94     systeminfo.obj
 0002:00009c98       ??_C@_01EEMJAFIK@?6@       00460c98     systeminfo.obj
 0002:00009c9c       ??_C@_05HIBJACPO@?52?$DO?$CG1@ 00460c9c     systeminfo.obj
 0002:00009ca4       ??_C@_01KDCPPGHE@r@        00460ca4     systeminfo.obj
 0002:00009ca8       ??_C@_01BJJEKLCA@?$CC@     00460ca8     systeminfo.obj
 0002:00009cac       ??_C@_0CD@LHOMMFEI@ERROR?3?5Failed?5to?5execute?5comman@ 00460cac     systeminfo.obj
 0002:00009cd0       ??_C@_0BA@FOIKENOD@vector?5too?5long@ 00460cd0     systeminfo.obj
 0002:00009ce4       ??_7?$basic_filebuf@DU?$char_traits@D@std@@@std@@6B@ 00460ce4     systeminfo.obj
 0002:00009d20       ??_8?$basic_stringstream@DU?$char_traits@D@std@@V?$allocator@D@2@@std@@7B?$basic_ostream@DU?$char_traits@D@std@@@1@@ 00460d20     systeminfo.obj
 0002:00009d2c       ??_7bad_cast@std@@6B@      00460d2c     systeminfo.obj
 0002:00009d38       ??_7?$basic_stringbuf@DU?$char_traits@D@std@@V?$allocator@D@2@@std@@6B@ 00460d38     systeminfo.obj
 0002:00009d94       ??_7?$basic_stringstream@DU?$char_traits@D@std@@V?$allocator@D@2@@std@@6B@ 00460d94     systeminfo.obj
 0002:00009d98       ??_8?$basic_ifstream@DU?$char_traits@D@std@@@std@@7B@ 00460d98     systeminfo.obj
 0002:00009da0       ??_8?$basic_stringstream@DU?$char_traits@D@std@@V?$allocator@D@2@@std@@7B?$basic_istream@DU?$char_traits@D@std@@@1@@ 00460da0     systeminfo.obj
 0002:00009dac       ??_7?$basic_ifstream@DU?$char_traits@D@std@@@std@@6B@ 00460dac     systeminfo.obj
 0002:00009db0       __real@3c23d70a            00460db0     Main.obj
 0002:00009db4       __real@3f000000            00460db4     Main.obj
 0002:00009db8       __real@3faccccd            00460db8     Main.obj
 0002:00009dbc       __real@41c80000            00460dbc     Main.obj
 0002:00009dc0       __real@420a0000            00460dc0     Main.obj
 0002:00009dc4       __real@42480000            00460dc4     Main.obj
 0002:00009dc8       __real@42a00000            00460dc8     Main.obj
 0002:00009e08       __load_config_used         00460e08     MSVCRT:loadcfg.obj
 0002:00009f00       ??_R4type_info@@6B@        00460f00     MSVCRT:std_type_info_static.obj
 0002:00009f14       ??_R3type_info@@8          00460f14     MSVCRT:std_type_info_static.obj
 0002:00009f24       ??_R2type_info@@8          00460f24     MSVCRT:std_type_info_static.obj
 0002:00009f2c       ??_R1A@?0A@EA@type_info@@8 00460f2c     MSVCRT:std_type_info_static.obj
 0002:00009f48       ??_R4exception@std@@6B@    00460f48     protect.obj
 0002:00009f5c       ??_R2bad_array_new_length@std@@8 00460f5c     protect.obj
 0002:00009f6c       ??_R2bad_alloc@std@@8      00460f6c     protect.obj
 0002:00009f78       ??_R1A@?0A@EA@exception@std@@8 00460f78     protect.obj
 0002:00009f94       ??_R1A@?0A@EA@bad_alloc@std@@8 00460f94     protect.obj
 0002:00009fb0       ??_R2exception@std@@8      00460fb0     protect.obj
 0002:00009fb8       ??_R3exception@std@@8      00460fb8     protect.obj
 0002:00009fc8       ??_R4bad_alloc@std@@6B@    00460fc8     protect.obj
 0002:00009fdc       ??_R3bad_array_new_length@std@@8 00460fdc     protect.obj
 0002:00009fec       ??_R3bad_alloc@std@@8      00460fec     protect.obj
 0002:00009ffc       ??_R4bad_array_new_length@std@@6B@ 00460ffc     protect.obj
 0002:0000a010       ??_R1A@?0A@EA@bad_array_new_length@std@@8 00461010     protect.obj
 0002:0000a02c       ??_R3?$_Func_base@V?$basic_string@DU?$char_traits@D@std@@V?$allocator@D@2@@std@@ABV12@@std@@8 0046102c     systeminfo.obj
 0002:0000a03c       ??_R3?$basic_istream@DU?$char_traits@D@std@@@std@@8 0046103c     systeminfo.obj
 0002:0000a04c       ??_R3?$basic_iostream@DU?$char_traits@D@std@@@std@@8 0046104c     systeminfo.obj
 0002:0000a05c       ??_R1A@?0A@EA@?$basic_istream@DU?$char_traits@D@std@@@std@@8 0046105c     systeminfo.obj
 0002:0000a078       ??_R1A@?0A@EA@?$_Func_base@V?$basic_string@DU?$char_traits@D@std@@V?$allocator@D@2@@std@@ABV12@@std@@8 00461078     systeminfo.obj
 0002:0000a094       ??_R1A@?0A@EA@bad_cast@std@@8 00461094     systeminfo.obj
 0002:0000a0b0       ??_R3?$basic_ifstream@DU?$char_traits@D@std@@@std@@8 004610b0     systeminfo.obj
 0002:0000a0c0       ??_R2?$basic_stringbuf@DU?$char_traits@D@std@@V?$allocator@D@2@@std@@8 004610c0     systeminfo.obj
 0002:0000a0cc       ??_R1A@?0A@EA@?$basic_ifstream@DU?$char_traits@D@std@@@std@@8 004610cc     systeminfo.obj
 0002:0000a0e8       ??_R17A@3EA@?$_Iosb@H@std@@8 004610e8     systeminfo.obj
 0002:0000a104       ??_R1A@?0A@EA@?$basic_stringstream@DU?$char_traits@D@std@@V?$allocator@D@2@@std@@8 00461104     systeminfo.obj
 0002:0000a120       ??_R1A@?0A@EA@?$basic_streambuf@DU?$char_traits@D@std@@@std@@8 00461120     systeminfo.obj
 0002:0000a13c       ??_R2?$basic_istream@DU?$char_traits@D@std@@@std@@8 0046113c     systeminfo.obj
 0002:0000a150       ??_R3?$basic_stringbuf@DU?$char_traits@D@std@@V?$allocator@D@2@@std@@8 00461150     systeminfo.obj
 0002:0000a160       ??_R2bad_cast@std@@8       00461160     systeminfo.obj
 0002:0000a16c       ??_R2?$basic_ostream@DU?$char_traits@D@std@@@std@@8 0046116c     systeminfo.obj
 0002:0000a180       ??_R3?$basic_ios@DU?$char_traits@D@std@@@std@@8 00461180     systeminfo.obj
 0002:0000a1a0       ??_R1BA@?0A@EA@?$basic_ostream@DU?$char_traits@D@std@@@std@@8 004611a0     systeminfo.obj
 0002:0000a1bc       ??_R4?$basic_ifstream@DU?$char_traits@D@std@@@std@@6B@ 004611bc     systeminfo.obj
 0002:0000a1d0       ??_R1A@?0A@EA@ios_base@std@@8 004611d0     systeminfo.obj
 0002:0000a1ec       ??_R1A@?0A@EA@?$basic_ostream@DU?$char_traits@D@std@@@std@@8 004611ec     systeminfo.obj
 0002:0000a208       ??_R4?$basic_filebuf@DU?$char_traits@D@std@@@std@@6B@ 00461208     systeminfo.obj
 0002:0000a21c       ??_R2?$basic_streambuf@DU?$char_traits@D@std@@@std@@8 0046121c     systeminfo.obj
 0002:0000a224       ??_R1A@?0A@EA@?$_Iosb@H@std@@8 00461224     systeminfo.obj
 0002:0000a240       ??_R1A@?0A@EA@?$basic_stringbuf@DU?$char_traits@D@std@@V?$allocator@D@2@@std@@8 00461240     systeminfo.obj
 0002:0000a25c       ??_R2?$basic_iostream@DU?$char_traits@D@std@@@std@@8 0046125c     systeminfo.obj
 0002:0000a284       ??_R3bad_cast@std@@8       00461284     systeminfo.obj
 0002:0000a294       ??_R2?$basic_stringstream@DU?$char_traits@D@std@@V?$allocator@D@2@@std@@8 00461294     systeminfo.obj
 0002:0000a2c0       ??_R4bad_cast@std@@6B@     004612c0     systeminfo.obj
 0002:0000a2d4       ??_R4?$basic_stringbuf@DU?$char_traits@D@std@@V?$allocator@D@2@@std@@6B@ 004612d4     systeminfo.obj
 0002:0000a2e8       ??_R4?$basic_stringstream@DU?$char_traits@D@std@@V?$allocator@D@2@@std@@6B@ 004612e8     systeminfo.obj
 0002:0000a2fc       ??_R1A@?0A@EA@?$basic_filebuf@DU?$char_traits@D@std@@@std@@8 004612fc     systeminfo.obj
 0002:0000a318       ??_R1A@A@3FA@?$basic_ios@DU?$char_traits@D@std@@@std@@8 00461318     systeminfo.obj
 0002:0000a334       ??_R3?$basic_filebuf@DU?$char_traits@D@std@@@std@@8 00461334     systeminfo.obj
 0002:0000a344       ??_R2ios_base@std@@8       00461344     systeminfo.obj
 0002:0000a350       ??_R3?$basic_ostream@DU?$char_traits@D@std@@@std@@8 00461350     systeminfo.obj
 0002:0000a360       ??_R1A@?0A@EA@?$basic_iostream@DU?$char_traits@D@std@@@std@@8 00461360     systeminfo.obj
 0002:0000a390       ??_R3ios_base@std@@8       00461390     systeminfo.obj
 0002:0000a3a0       ??_R2?$basic_filebuf@DU?$char_traits@D@std@@@std@@8 004613a0     systeminfo.obj
 0002:0000a3ac       ??_R3?$basic_streambuf@DU?$char_traits@D@std@@@std@@8 004613ac     systeminfo.obj
 0002:0000a3bc       ??_R3?$basic_stringstream@DU?$char_traits@D@std@@V?$allocator@D@2@@std@@8 004613bc     systeminfo.obj
 0002:0000a3cc       ??_R2?$_Iosb@H@std@@8      004613cc     systeminfo.obj
 0002:0000a3e0       ??_R1A@A@3EA@ios_base@std@@8 004613e0     systeminfo.obj
 0002:0000a3fc       ??_R1A@?0A@EA@?$basic_ios@DU?$char_traits@D@std@@@std@@8 004613fc     systeminfo.obj
 0002:0000a418       ??_R2?$basic_ifstream@DU?$char_traits@D@std@@@std@@8 00461418     systeminfo.obj
 0002:0000a430       ??_R3?$_Iosb@H@std@@8      00461430     systeminfo.obj
 0002:0000a45c       ??_R17?0A@EA@?$_Iosb@H@std@@8 0046145c     systeminfo.obj
 0002:0000a478       ??_R2?$_Func_base@V?$basic_string@DU?$char_traits@D@std@@V?$allocator@D@2@@std@@ABV12@@std@@8 00461478     systeminfo.obj
 0002:0000a480       ??_R2?$basic_ios@DU?$char_traits@D@std@@@std@@8 00461480     systeminfo.obj
 0002:0000a490       ___safe_se_handler_table   00461490     <linker-defined>
 0002:0000a838       ___rtc_iaa                 00461838     MSVCRT:initsect.obj
 0002:0000a83c       ___rtc_izz                 0046183c     MSVCRT:initsect.obj
 0002:0000a840       ___rtc_taa                 00461840     MSVCRT:initsect.obj
 0002:0000a844       ___rtc_tzz                 00461844     MSVCRT:initsect.obj
 0002:0000b9fc       __TI2?AVbad_alloc@std@@    004629fc     MSVCRT:throw_bad_alloc.obj
 0002:0000ba0c       __CTA2?AVbad_alloc@std@@   00462a0c     MSVCRT:throw_bad_alloc.obj
 0002:0000ba18       __CTA3?AVbad_array_new_length@std@@ 00462a18     protect.obj
 0002:0000ba28       __CT??_R0?AVbad_alloc@std@@@8??0bad_alloc@std@@QAE@ABV01@@Z12 00462a28     protect.obj
 0002:0000ba44       __CT??_R0?AVexception@std@@@8??0exception@std@@QAE@ABV01@@Z12 00462a44     protect.obj
 0002:0000ba60       __TI3?AVbad_array_new_length@std@@ 00462a60     protect.obj
 0002:0000ba70       __CT??_R0?AVbad_array_new_length@std@@@8??0bad_array_new_length@std@@QAE@ABV01@@Z12 00462a70     protect.obj
 0002:0000ba8c       __CTA2?AVbad_cast@std@@    00462a8c     systeminfo.obj
 0002:0000ba98       __CT??_R0?AVbad_cast@std@@@8??0bad_cast@std@@QAE@ABV01@@Z12 00462a98     systeminfo.obj
 0002:0000bab4       __TI2?AVbad_cast@std@@     00462ab4     systeminfo.obj
 0002:0000bac4       __IMPORT_DESCRIPTOR_KERNEL32 00462ac4     kernel32:KERNEL32.dll
 0002:0000bad8       __IMPORT_DESCRIPTOR_USER32 00462ad8     user32:USER32.dll
 0002:0000baec       __IMPORT_DESCRIPTOR_GDI32  00462aec     gdi32:GDI32.dll
 0002:0000bb00       __IMPORT_DESCRIPTOR_ADVAPI32 00462b00     advapi32:ADVAPI32.dll
 0002:0000bb14       __IMPORT_DESCRIPTOR_MSVCP140 00462b14     msvcprt:MSVCP140.dll
 0002:0000bb28       __IMPORT_DESCRIPTOR_d3d9   00462b28     d3d9:d3d9.dll
 0002:0000bb3c       __IMPORT_DESCRIPTOR_d3dx9_43 00462b3c     d3dx9:d3dx9_43.dll
 0002:0000bb50       __IMPORT_DESCRIPTOR_WS2_32 00462b50     ws2_32:WS2_32.dll
 0002:0000bb64       __IMPORT_DESCRIPTOR_WLDAP32 00462b64     wldap32:WLDAP32.dll
 0002:0000bb78       __IMPORT_DESCRIPTOR_VCRUNTIME140 00462b78     vcruntime:VCRUNTIME140.dll
 0002:0000bb8c       __IMPORT_DESCRIPTOR_api-ms-win-crt-stdio-l1-1-0 00462b8c     ucrt:api-ms-win-crt-stdio-l1-1-0.dll
 0002:0000bba0       __IMPORT_DESCRIPTOR_api-ms-win-crt-runtime-l1-1-0 00462ba0     ucrt:api-ms-win-crt-runtime-l1-1-0.dll
 0002:0000bbb4       __IMPORT_DESCRIPTOR_api-ms-win-crt-convert-l1-1-0 00462bb4     ucrt:api-ms-win-crt-convert-l1-1-0.dll
 0002:0000bbc8       __IMPORT_DESCRIPTOR_api-ms-win-crt-time-l1-1-0 00462bc8     ucrt:api-ms-win-crt-time-l1-1-0.dll
 0002:0000bbdc       __IMPORT_DESCRIPTOR_api-ms-win-crt-filesystem-l1-1-0 00462bdc     ucrt:api-ms-win-crt-filesystem-l1-1-0.dll
 0002:0000bbf0       __IMPORT_DESCRIPTOR_api-ms-win-crt-heap-l1-1-0 00462bf0     ucrt:api-ms-win-crt-heap-l1-1-0.dll
 0002:0000bc04       __IMPORT_DESCRIPTOR_api-ms-win-crt-math-l1-1-0 00462c04     ucrt:api-ms-win-crt-math-l1-1-0.dll
 0002:0000bc18       __IMPORT_DESCRIPTOR_api-ms-win-crt-locale-l1-1-0 00462c18     ucrt:api-ms-win-crt-locale-l1-1-0.dll
 0002:0000bc2c       __IMPORT_DESCRIPTOR_api-ms-win-crt-string-l1-1-0 00462c2c     ucrt:api-ms-win-crt-string-l1-1-0.dll
 0002:0000bc40       __IMPORT_DESCRIPTOR_api-ms-win-crt-utility-l1-1-0 00462c40     ucrt:api-ms-win-crt-utility-l1-1-0.dll
 0002:0000bc54       __IMPORT_DESCRIPTOR_api-ms-win-crt-multibyte-l1-1-0 00462c54     ucrt:api-ms-win-crt-multibyte-l1-1-0.dll
 0002:0000bc68       __NULL_IMPORT_DESCRIPTOR   00462c68     kernel32:KERNEL32.dll
 0003:00000000       ___scrt_native_dllmain_reason 00465000     MSVCRT:utility.obj
 0003:00000004       ___security_cookie_complement 00465004     MSVCRT:gs_cookie.obj
 0003:00000008       ___security_cookie         00465008     MSVCRT:gs_cookie.obj
 0003:00000010       ___isa_enabled             00465010     MSVCRT:cpu_disp.obj
 0003:00000014       ___scrt_default_matherr    00465014     MSVCRT:matherr.obj
 0003:00000018       _Curl_cmalloc              00465018     libcurl:easy.obj
 0003:0000001c       _Curl_cfree                0046501c     libcurl:easy.obj
 0003:00000020       _Curl_crealloc             00465020     libcurl:easy.obj
 0003:00000024       _Curl_cstrdup              00465024     libcurl:easy.obj
 0003:00000028       _Curl_ccalloc              00465028     libcurl:easy.obj
 0003:00000040       __fltused                  00465040     MSVCRT:fltused.obj
 0003:00000050       ___scrt_ucrt_dll_is_in_use 00465050     MSVCRT:ucrt_stubs.obj
 0003:00000054       ?CLOCK_SPEED_IDENTIFIER_STRING@RAMInfo@@0V?$basic_string@DU?$char_traits@D@std@@V?$allocator@D@2@@std@@B 00465054     systeminfo.obj
 0003:0000006c       ?NUMBER_OF_CORES_IDENTIFIER_STRING@CPUInfo@@0V?$basic_string@DU?$char_traits@D@std@@V?$allocator@D@2@@std@@B 0046506c     systeminfo.obj
 0003:00000084       ?VERSION_IDENTIFIER_STRING@OSInfo@@0V?$basic_string@DU?$char_traits@D@std@@V?$allocator@D@2@@std@@B 00465084     systeminfo.obj
 0003:0000009c       ?TOTAL_VISIBLE_MEMORY_SIZE_IDENTIFIER_STRING@OSInfo@@0V?$basic_string@DU?$char_traits@D@std@@V?$allocator@D@2@@std@@B 0046509c     systeminfo.obj
 0003:000000b4       ?MOTHERBOARD_INFO_END_IDENTIFIER_STRING@MotherboardInfoDelegate@@0V?$basic_string@DU?$char_traits@D@std@@V?$allocator@D@2@@std@@B 004650b4     systeminfo.obj
 0003:000000cc       ?ADAPTER_RAM_IDENTIFIER_STRING@GPUInfo@@0V?$basic_string@DU?$char_traits@D@std@@V?$allocator@D@2@@std@@B 004650cc     systeminfo.obj
 0003:000000e4       ?CURRENT_DATE_TIME_QUERY_STRING@OSInfo@@0V?$basic_string@DU?$char_traits@D@std@@V?$allocator@D@2@@std@@B 004650e4     systeminfo.obj
 0003:000000fc       ?FORM_FACTOR_IDENTIFIER_STRING@RAMInfo@@0V?$basic_string@DU?$char_traits@D@std@@V?$allocator@D@2@@std@@B 004650fc     systeminfo.obj
 0003:00000114       ?RAM_INFO_END_IDENTIFIER_STRING@RAMInfoDelegate@@0V?$basic_string@DU?$char_traits@D@std@@V?$allocator@D@2@@std@@B 00465114     systeminfo.obj
 0003:0000012c       ?RAM_INSTANCE_QUERY_STRING@RAMInfoDelegate@@0V?$basic_string@DU?$char_traits@D@std@@V?$allocator@D@2@@std@@B 0046512c     systeminfo.obj
 0003:00000144       ?VIDEO_MODE_DESCRIPTION_IDENTIFIER_STRING@GPUInfo@@0V?$basic_string@DU?$char_traits@D@std@@V?$allocator@D@2@@std@@B 00465144     systeminfo.obj
 0003:0000015c       ?SERIAL_NUMBER_IDENTIFIER_STRING@RAMInfo@@0V?$basic_string@DU?$char_traits@D@std@@V?$allocator@D@2@@std@@B 0046515c     systeminfo.obj
 0003:00000174       ?USED_SPACE_IN_PAGING_FILE_QUERY_STRING@OSInfo@@0V?$basic_string@DU?$char_traits@D@std@@V?$allocator@D@2@@std@@B 00465174     systeminfo.obj
 0003:0000018c       ?FREE_PHYSICAL_MEMORY_QUERY_STRING@OSInfo@@0V?$basic_string@DU?$char_traits@D@std@@V?$allocator@D@2@@std@@B 0046518c     systeminfo.obj
 0003:000001a4       ?CAPTION_INDENTIFIER_STRING@OSInfo@@0V?$basic_string@DU?$char_traits@D@std@@V?$allocator@D@2@@std@@B 004651a4     systeminfo.obj
 0003:000001bc       ?CPU_INSTANCE_QUERY_STRING@CPUInfoDelegate@@0V?$basic_string@DU?$char_traits@D@std@@V?$allocator@D@2@@std@@B 004651bc     systeminfo.obj
 0003:000001d4       ?LAST_BOOT_UP_TIME_IDENTIFIER_STRING@OSInfo@@0V?$basic_string@DU?$char_traits@D@std@@V?$allocator@D@2@@std@@B 004651d4     systeminfo.obj
 0003:000001ec       ?L2_CACHE_SIZE_IDENTIFIER_STRING@CPUInfo@@0V?$basic_string@DU?$char_traits@D@std@@V?$allocator@D@2@@std@@B 004651ec     systeminfo.obj
 0003:00000204       ?CPU_INFO_QUERY_STRING@CPUInfoDelegate@@0V?$basic_string@DU?$char_traits@D@std@@V?$allocator@D@2@@std@@B 00465204     systeminfo.obj
 0003:0000021c       ?FREE_SPACE_IN_PAGING_FILES_IDENTIFIER_STRING@OSInfo@@0V?$basic_string@DU?$char_traits@D@std@@V?$allocator@D@2@@std@@B 0046521c     systeminfo.obj
 0003:00000234       ?MANUFACTURER_IDENTIFIER_STRING@MotherboardInfo@@0V?$basic_string@DU?$char_traits@D@std@@V?$allocator@D@2@@std@@B 00465234     systeminfo.obj
 0003:0000024c       ?MANUFACTURER_IDENTIFIER_STRING@RAMInfo@@0V?$basic_string@DU?$char_traits@D@std@@V?$allocator@D@2@@std@@B 0046524c     systeminfo.obj
 0003:00000264       ?CHIPSET_QUERY_STRING@MotherboardInfo@@0V?$basic_string@DU?$char_traits@D@std@@V?$allocator@D@2@@std@@B 00465264     systeminfo.obj
 0003:0000027c       ?FREE_VIRTUAL_MEMORY_IDENTIFIER_STRING@OSInfo@@0V?$basic_string@DU?$char_traits@D@std@@V?$allocator@D@2@@std@@B 0046527c     systeminfo.obj
 0003:00000294       ?FREE_SPACE_IN_PAGING_FILES_QUERY_STRING@OSInfo@@0V?$basic_string@DU?$char_traits@D@std@@V?$allocator@D@2@@std@@B 00465294     systeminfo.obj
 0003:000002ac       ?TEMPERATURE_QUERY_STRING@CPUInfo@@0V?$basic_string@DU?$char_traits@D@std@@V?$allocator@D@2@@std@@B 004652ac     systeminfo.obj
 0003:000002c4       ?VIDEO_MEMORY_TYPE_IDENTIFIER_STRING@GPUInfo@@0V?$basic_string@DU?$char_traits@D@std@@V?$allocator@D@2@@std@@B 004652c4     systeminfo.obj
 0003:000002dc       ?CHIPSET_END_IDENTIFIER_STRING@MotherboardInfo@@0V?$basic_string@DU?$char_traits@D@std@@V?$allocator@D@2@@std@@B 004652dc     systeminfo.obj
 0003:000002f4       ?BACKUP_CLOCK_SPEED_IDENTIFIER_STRING@RAMInfo@@0V?$basic_string@DU?$char_traits@D@std@@V?$allocator@D@2@@std@@B 004652f4     systeminfo.obj
 0003:0000030c       ?ARCHITECTURE_IDENTIFIER_STRING@CPUInfo@@0V?$basic_string@DU?$char_traits@D@std@@V?$allocator@D@2@@std@@B 0046530c     systeminfo.obj
 0003:00000324       ?USED_SPACE_IN_PAGING_FILE_IDENTIFIER_STRING@OSInfo@@0V?$basic_string@DU?$char_traits@D@std@@V?$allocator@D@2@@std@@B 00465324     systeminfo.obj
 0003:0000033c       ?SERIAL_NUMBER_IDENTIFIER_STRING@OSInfo@@0V?$basic_string@DU?$char_traits@D@std@@V?$allocator@D@2@@std@@B 0046533c     systeminfo.obj
 0003:00000354       ?MOTHERBOARD_INSTANCE_QUERY_STRING@MotherboardInfoDelegate@@0V?$basic_string@DU?$char_traits@D@std@@V?$allocator@D@2@@std@@B 00465354     systeminfo.obj
 0003:0000036c       ?NAME_IDENTIFIER_STRING@GPUInfo@@0V?$basic_string@DU?$char_traits@D@std@@V?$allocator@D@2@@std@@B 0046536c     systeminfo.obj
 0003:00000384       ?MANUFACTURER_IDENTIFIER_STRING@GPUInfo@@0V?$basic_string@DU?$char_traits@D@std@@V?$allocator@D@2@@std@@B 00465384     systeminfo.obj
 0003:0000039c       ?MEMORY_TYPE_IDENTIFIER_STRING@RAMInfo@@0V?$basic_string@DU?$char_traits@D@std@@V?$allocator@D@2@@std@@B 0046539c     systeminfo.obj
 0003:000003b4       ?CAPACITY_IDENTIFIER_STRING@RAMInfo@@0V?$basic_string@DU?$char_traits@D@std@@V?$allocator@D@2@@std@@B 004653b4     systeminfo.obj
 0003:000003cc       ?BOOT_DEVICE_IDENTIFIER_STRING@OSInfo@@0V?$basic_string@DU?$char_traits@D@std@@V?$allocator@D@2@@std@@B 004653cc     systeminfo.obj
 0003:000003e4       ?ARCHITECTURE_IDENTIFIER_STRING@OSInfo@@0V?$basic_string@DU?$char_traits@D@std@@V?$allocator@D@2@@std@@B 004653e4     systeminfo.obj
 0003:000003fc       ?INSTALL_DATE_IDENTIFIER_STRING@OSInfo@@0V?$basic_string@DU?$char_traits@D@std@@V?$allocator@D@2@@std@@B 004653fc     systeminfo.obj
 0003:00000414       ?AMD_IDENTIFIER_STRING@GPUInfo@@0V?$basic_string@DU?$char_traits@D@std@@V?$allocator@D@2@@std@@B 00465414     systeminfo.obj
 0003:0000042c       ?NVIDIA_IDENTIFIER_STRING@GPUInfo@@0V?$basic_string@DU?$char_traits@D@std@@V?$allocator@D@2@@std@@B 0046542c     systeminfo.obj
 0003:00000444       ?VIDEO_PROCESSOR_IDENTIFIER_STRING@GPUInfo@@0V?$basic_string@DU?$char_traits@D@std@@V?$allocator@D@2@@std@@B 00465444     systeminfo.obj
 0003:0000045c       ?NAME_IDENTIFIER_STRING@MotherboardInfo@@0V?$basic_string@DU?$char_traits@D@std@@V?$allocator@D@2@@std@@B 0046545c     systeminfo.obj
 0003:00000474       ?RAM_INFO_QUERY_STRING@RAMInfoDelegate@@0V?$basic_string@DU?$char_traits@D@std@@V?$allocator@D@2@@std@@B 00465474     systeminfo.obj
 0003:0000048c       ?MANUFACTURER_IDENTIFIER_STRING@OSInfo@@0V?$basic_string@DU?$char_traits@D@std@@V?$allocator@D@2@@std@@B 0046548c     systeminfo.obj
 0003:000004a4       ?PART_NUMBER_IDENTIFIER_STRING@RAMInfo@@0V?$basic_string@DU?$char_traits@D@std@@V?$allocator@D@2@@std@@B 004654a4     systeminfo.obj
 0003:000004bc       ?GPU_INFO_END_IDENTIFIER_STRING@GPUInfoDelegate@@0V?$basic_string@DU?$char_traits@D@std@@V?$allocator@D@2@@std@@B 004654bc     systeminfo.obj
 0003:000004d4       ?VERSION_IDENTIFIER_STRING@MotherboardInfo@@0V?$basic_string@DU?$char_traits@D@std@@V?$allocator@D@2@@std@@B 004654d4     systeminfo.obj
 0003:000004ec       ?NAME_IDENTIFIER_STRING@CPUInfo@@0V?$basic_string@DU?$char_traits@D@std@@V?$allocator@D@2@@std@@B 004654ec     systeminfo.obj
 0003:00000504       ?CURRENT_USER_IDENTIFIER_STRING@OSInfo@@0V?$basic_string@DU?$char_traits@D@std@@V?$allocator@D@2@@std@@B 00465504     systeminfo.obj
 0003:0000051c       ?OS_INSTANCE_QUERY_STRING@OSInfoDelegate@@0V?$basic_string@DU?$char_traits@D@std@@V?$allocator@D@2@@std@@B 0046551c     systeminfo.obj
 0003:00000534       ?MANUFACTURER_IDENTIFIER_STRING@CPUInfo@@0V?$basic_string@DU?$char_traits@D@std@@V?$allocator@D@2@@std@@B 00465534     systeminfo.obj
 0003:0000054c       ?FREE_PHYSICAL_MEMORY_IDENTIFIER_STRING@OSInfo@@0V?$basic_string@DU?$char_traits@D@std@@V?$allocator@D@2@@std@@B 0046554c     systeminfo.obj
 0003:00000564       ?CLOCK_SPEED_QUERY_STRING@CPUInfo@@0V?$basic_string@DU?$char_traits@D@std@@V?$allocator@D@2@@std@@B 00465564     systeminfo.obj
 0003:0000057c       ?TEMPERATURE_ERROR_IDENTIFIER_STRING@CPUInfo@@0V?$basic_string@DU?$char_traits@D@std@@V?$allocator@D@2@@std@@B 0046557c     systeminfo.obj
 0003:00000594       ?REFRESH_RATE_IDENTIFIER_STRING@GPUInfo@@0V?$basic_string@DU?$char_traits@D@std@@V?$allocator@D@2@@std@@B 00465594     systeminfo.obj
 0003:000005ac       ?TOTAL_SWAP_SIZE_IDENTIFIER_STRING@OSInfo@@0V?$basic_string@DU?$char_traits@D@std@@V?$allocator@D@2@@std@@B 004655ac     systeminfo.obj
 0003:000005c4       ?CHIPSET_IDENTIFIER_STRING@MotherboardInfo@@0V?$basic_string@DU?$char_traits@D@std@@V?$allocator@D@2@@std@@B 004655c4     systeminfo.obj
 0003:000005dc       ?CAPTION_IDENTIFIER_STRING@GPUInfo@@0V?$basic_string@DU?$char_traits@D@std@@V?$allocator@D@2@@std@@B 004655dc     systeminfo.obj
 0003:000005f4       ?BUILD_NUMBER_IDENTIFIER_STRING@OSInfo@@0V?$basic_string@DU?$char_traits@D@std@@V?$allocator@D@2@@std@@B 004655f4     systeminfo.obj
 0003:0000060c       ?VIDEO_ARCHITECTURE_IDENTIFIER_STRING@GPUInfo@@0V?$basic_string@DU?$char_traits@D@std@@V?$allocator@D@2@@std@@B 0046560c     systeminfo.obj
 0003:00000624       ?CPU_INFO_END_IDENTIFIER_STRING@CPUInfoDelegate@@0V?$basic_string@DU?$char_traits@D@std@@V?$allocator@D@2@@std@@B 00465624     systeminfo.obj
 0003:0000063c       ?GPU_INFO_QUERY_STRING@GPUInfoDelegate@@0V?$basic_string@DU?$char_traits@D@std@@V?$allocator@D@2@@std@@B 0046563c     systeminfo.obj
 0003:00000654       ?TOTAL_VIRTUAL_MEMORY_SIZE_IDENTIFIER_STRING@OSInfo@@0V?$basic_string@DU?$char_traits@D@std@@V?$allocator@D@2@@std@@B 00465654     systeminfo.obj
 0003:0000066c       ?NAME_IDENTIFIER_STRING@OSInfo@@0V?$basic_string@DU?$char_traits@D@std@@V?$allocator@D@2@@std@@B 0046566c     systeminfo.obj
 0003:00000684       ?OS_INFO_END_IDENTIFIER_STRING@OSInfoDelegate@@0V?$basic_string@DU?$char_traits@D@std@@V?$allocator@D@2@@std@@B 00465684     systeminfo.obj
 0003:0000069c       ?FREE_VIRTUAL_MEMORY_QUERY_STRING@OSInfo@@0V?$basic_string@DU?$char_traits@D@std@@V?$allocator@D@2@@std@@B 0046569c     systeminfo.obj
 0003:000006b4       ?INTEL_IDENTIFIER_STRING@GPUInfo@@0V?$basic_string@DU?$char_traits@D@std@@V?$allocator@D@2@@std@@B 004656b4     systeminfo.obj
 0003:000006cc       ?DRIVER_VERSION_IDENTIFIER_STRING@GPUInfo@@0V?$basic_string@DU?$char_traits@D@std@@V?$allocator@D@2@@std@@B 004656cc     systeminfo.obj
 0003:000006e4       ?CURRENT_CLOCK_SPEED_IDENTIFIER_STRING@CPUInfo@@0V?$basic_string@DU?$char_traits@D@std@@V?$allocator@D@2@@std@@B 004656e4     systeminfo.obj
 0003:000006fc       ?OS_INFO_QUERY_STRING@OSInfoDelegate@@0V?$basic_string@DU?$char_traits@D@std@@V?$allocator@D@2@@std@@B 004656fc     systeminfo.obj
 0003:00000714       ?MOTHERBOARD_INFO_QUERY_STRING@MotherboardInfoDelegate@@0V?$basic_string@DU?$char_traits@D@std@@V?$allocator@D@2@@std@@B 00465714     systeminfo.obj
 0003:0000072c       ?SERIAL_NUMBER_IDENTIFIER_STRING@MotherboardInfo@@0V?$basic_string@DU?$char_traits@D@std@@V?$allocator@D@2@@std@@B 0046572c     systeminfo.obj
 0003:00000744       ?NAME_IDENTIFIER_STRING@RAMInfo@@0V?$basic_string@DU?$char_traits@D@std@@V?$allocator@D@2@@std@@B 00465744     systeminfo.obj
 0003:0000075c       ?GPU_INSTANCE_QUERY_STRING@GPUInfoDelegate@@0V?$basic_string@DU?$char_traits@D@std@@V?$allocator@D@2@@std@@B 0046575c     systeminfo.obj
 0003:00000774       ?CURRENT_DATE_TIME_IDENTIFIER_STRING@OSInfo@@0V?$basic_string@DU?$char_traits@D@std@@V?$allocator@D@2@@std@@B 00465774     systeminfo.obj
 0003:0000078c       ?L3_CACHE_SIZE_IDENTIFIER_STRING@CPUInfo@@0V?$basic_string@DU?$char_traits@D@std@@V?$allocator@D@2@@std@@B 0046578c     systeminfo.obj
 0003:000007a4       ??_R0?AVbad_alloc@std@@@8  004657a4     protect.obj
 0003:000007c0       ??_R0?AVexception@std@@@8  004657c0     protect.obj
 0003:000007dc       ??_R0?AVbad_array_new_length@std@@@8 004657dc     protect.obj
 0003:00000804       ??_R0?AVbad_cast@std@@@8   00465804     systeminfo.obj
 0003:00000858       ??_R0?AVtype_info@@@8      00465858     MSVCRT:std_type_info_static.obj
 0003:00000870       ??_R0?AV?$basic_stringstream@DU?$char_traits@D@std@@V?$allocator@D@2@@std@@@8 00465870     systeminfo.obj
 0003:000008c0       ??_R0?AV?$basic_filebuf@DU?$char_traits@D@std@@@std@@@8 004658c0     systeminfo.obj
 0003:000008fc       ??_R0?AV?$basic_ifstream@DU?$char_traits@D@std@@@std@@@8 004658fc     systeminfo.obj
 0003:00000938       ??_R0?AV?$basic_stringbuf@DU?$char_traits@D@std@@V?$allocator@D@2@@std@@@8 00465938     systeminfo.obj
 0003:00000988       ??_R0?AVios_base@std@@@8   00465988     systeminfo.obj
 0003:000009a4       ??_R0?AV?$basic_iostream@DU?$char_traits@D@std@@@std@@@8 004659a4     systeminfo.obj
 0003:000009e0       ??_R0?AV?$_Func_base@V?$basic_string@DU?$char_traits@D@std@@V?$allocator@D@2@@std@@ABV12@@std@@@8 004659e0     systeminfo.obj
 0003:00000ae4       ??_R0?AV?$_Iosb@H@std@@@8  00465ae4     systeminfo.obj
 0003:00000b00       ??_R0?AV?$basic_streambuf@DU?$char_traits@D@std@@@std@@@8 00465b00     systeminfo.obj
 0003:00000b3c       ??_R0?AV?$basic_istream@DU?$char_traits@D@std@@@std@@@8 00465b3c     systeminfo.obj
 0003:00000b78       ??_R0?AV?$basic_ios@DU?$char_traits@D@std@@@std@@@8 00465b78     systeminfo.obj
 0003:00000bb0       ??_R0?AV?$basic_ostream@DU?$char_traits@D@std@@@std@@@8 00465bb0     systeminfo.obj
 0003:00000bf8       ___scrt_current_native_startup_state 00465bf8     MSVCRT:utility.obj
 0003:00000bfc       ___scrt_native_startup_lock 00465bfc     MSVCRT:utility.obj
 0003:00000c1c       ___castguard_check_failure_os_handled_fptr 00465c1c     MSVCRT:guard_support.obj
 0003:00000f3c       ___isa_available           00465f3c     MSVCRT:cpu_disp.obj
 0003:00000f40       ___favor                   00465f40     MSVCRT:cpu_disp.obj
 0003:00000f44       ___scrt_debugger_hook_flag 00465f44     MSVCRT:utility_desktop.obj
 0003:00000f48       ?__type_info_root_node@@3U__type_info_node@@A 00465f48     MSVCRT:tncleanup.obj
 0003:00000f50       ?_OptionsStorage@?1??__local_stdio_scanf_options@@9@4_KA 00465f50     MSVCRT:default_local_stdio_options.obj
 0003:00000f74       _Curl_if_nametoindex       00465f74     libcurl:system_win32.obj
 0003:00000fa0       ?Form@@3UtagRECT@@A        00465fa0     Main.obj
 0003:00000fb0       ?g_hWnd@@3PAUHWND__@@A     00465fb0     Main.obj
 0003:00000fb4       ?g_d3dpp@@3U_D3DPRESENT_PARAMETERS_@@A 00465fb4     Main.obj
 0003:00000fec       ?g_pd3dDevice@@3PAUIDirect3DDevice9@@A 00465fec     Main.obj
 0003:00000ff0       ?g_line@@3PAUID3DXLine@@A  00465ff0     Main.obj
 0003:00000ff4       ?g_pd3d@@3PAUIDirect3D9@@A 00465ff4     Main.obj
 0003:00000ff8       ?g_hProcess@@3PAXA         00465ff8     Main.obj
 0003:00000ffc       ?screen_height@@3MA        00465ffc     Main.obj
 0003:00001000       ?screen_width@@3MA         00466000     Main.obj
 0003:00001004       ?g_game_dll_base@@3KA      00466004     Main.obj
 0003:00001008       ?g_hWarcraftWnd@@3PAUHWND__@@A 00466008     Main.obj
 0003:00001010       ?view_matrix@@3U_D3DXMATRIXA16@@A 00466010     Main.obj
 0003:00001050       ?view_matrix_temp@@3U_D3DXMATRIXA16@@A 00466050     Main.obj
 0003:00001090       ?_OptionsStorage@?1??__local_stdio_printf_options@@9@4_KA 00466090     protect.obj
 0003:00001098       ?_Psave@?$_Facetptr@V?$ctype@D@std@@@std@@2PBVfacet@locale@2@B 00466098     systeminfo.obj
 0003:0000109c       ?_Psave@?$_Facetptr@V?$codecvt@DDU_Mbstatet@@@std@@@std@@2PBVfacet@locale@2@B 0046609c     systeminfo.obj
 0003:000010a0       ?_Stinit@?1??_Init@?$basic_filebuf@DU?$char_traits@D@std@@@std@@IAEXPAU_iobuf@@W4_Initfl@23@@Z@4U_Mbstatet@@A 004660a0     systeminfo.obj
 0003:000010a8       ___dyn_tls_dtor_callback   004660a8     <common>
 0003:000010ac       ___dyn_tls_init_callback   004660ac     <common>
 0003:000010b0       _Curl_isVistaOrGreater     004660b0     <common>
 0003:000010b8       _Curl_freq                 004660b8     <common>

 entry point at        0001:000134ee

 Static symbols

 0001:00000000       ??__Eg_hWarcraftWnd@@YAXXZ 00401000 f   Main.obj
 0001:00000020       ??__E?TEMPERATURE_QUERY_STRING@CPUInfo@@0V?$basic_string@DU?$char_traits@D@std@@V?$allocator@D@2@@std@@B@@YAXXZ 00401020 f   systeminfo.obj
 0001:00000040       ??__E?TEMPERATURE_ERROR_IDENTIFIER_STRING@CPUInfo@@0V?$basic_string@DU?$char_traits@D@std@@V?$allocator@D@2@@std@@B@@YAXXZ 00401040 f   systeminfo.obj
 0001:00000060       ??__E?CLOCK_SPEED_QUERY_STRING@CPUInfo@@0V?$basic_string@DU?$char_traits@D@std@@V?$allocator@D@2@@std@@B@@YAXXZ 00401060 f   systeminfo.obj
 0001:00000080       ??__E?CURRENT_CLOCK_SPEED_IDENTIFIER_STRING@CPUInfo@@0V?$basic_string@DU?$char_traits@D@std@@V?$allocator@D@2@@std@@B@@YAXXZ 00401080 f   systeminfo.obj
 0001:000000a0       ??__E?NAME_IDENTIFIER_STRING@CPUInfo@@0V?$basic_string@DU?$char_traits@D@std@@V?$allocator@D@2@@std@@B@@YAXXZ 004010a0 f   systeminfo.obj
 0001:000000c0       ??__E?NUMBER_OF_CORES_IDENTIFIER_STRING@CPUInfo@@0V?$basic_string@DU?$char_traits@D@std@@V?$allocator@D@2@@std@@B@@YAXXZ 004010c0 f   systeminfo.obj
 0001:000000e0       ??__E?MANUFACTURER_IDENTIFIER_STRING@CPUInfo@@0V?$basic_string@DU?$char_traits@D@std@@V?$allocator@D@2@@std@@B@@YAXXZ 004010e0 f   systeminfo.obj
 0001:00000100       ??__E?ARCHITECTURE_IDENTIFIER_STRING@CPUInfo@@0V?$basic_string@DU?$char_traits@D@std@@V?$allocator@D@2@@std@@B@@YAXXZ 00401100 f   systeminfo.obj
 0001:00000120       ??__E?L2_CACHE_SIZE_IDENTIFIER_STRING@CPUInfo@@0V?$basic_string@DU?$char_traits@D@std@@V?$allocator@D@2@@std@@B@@YAXXZ 00401120 f   systeminfo.obj
 0001:00000140       ??__E?L3_CACHE_SIZE_IDENTIFIER_STRING@CPUInfo@@0V?$basic_string@DU?$char_traits@D@std@@V?$allocator@D@2@@std@@B@@YAXXZ 00401140 f   systeminfo.obj
 0001:00000160       ??__E?CPU_INFO_QUERY_STRING@CPUInfoDelegate@@0V?$basic_string@DU?$char_traits@D@std@@V?$allocator@D@2@@std@@B@@YAXXZ 00401160 f   systeminfo.obj
 0001:00000180       ??__E?CPU_INSTANCE_QUERY_STRING@CPUInfoDelegate@@0V?$basic_string@DU?$char_traits@D@std@@V?$allocator@D@2@@std@@B@@YAXXZ 00401180 f   systeminfo.obj
 0001:000001a0       ??__E?CPU_INFO_END_IDENTIFIER_STRING@CPUInfoDelegate@@0V?$basic_string@DU?$char_traits@D@std@@V?$allocator@D@2@@std@@B@@YAXXZ 004011a0 f   systeminfo.obj
 0001:000001c0       ??__E?NVIDIA_IDENTIFIER_STRING@GPUInfo@@0V?$basic_string@DU?$char_traits@D@std@@V?$allocator@D@2@@std@@B@@YAXXZ 004011c0 f   systeminfo.obj
 0001:000001e0       ??__E?INTEL_IDENTIFIER_STRING@GPUInfo@@0V?$basic_string@DU?$char_traits@D@std@@V?$allocator@D@2@@std@@B@@YAXXZ 004011e0 f   systeminfo.obj
 0001:00000200       ??__E?AMD_IDENTIFIER_STRING@GPUInfo@@0V?$basic_string@DU?$char_traits@D@std@@V?$allocator@D@2@@std@@B@@YAXXZ 00401200 f   systeminfo.obj
 0001:00000220       ??__E?NAME_IDENTIFIER_STRING@GPUInfo@@0V?$basic_string@DU?$char_traits@D@std@@V?$allocator@D@2@@std@@B@@YAXXZ 00401220 f   systeminfo.obj
 0001:00000240       ??__E?MANUFACTURER_IDENTIFIER_STRING@GPUInfo@@0V?$basic_string@DU?$char_traits@D@std@@V?$allocator@D@2@@std@@B@@YAXXZ 00401240 f   systeminfo.obj
 0001:00000260       ??__E?ADAPTER_RAM_IDENTIFIER_STRING@GPUInfo@@0V?$basic_string@DU?$char_traits@D@std@@V?$allocator@D@2@@std@@B@@YAXXZ 00401260 f   systeminfo.obj
 0001:00000280       ??__E?REFRESH_RATE_IDENTIFIER_STRING@GPUInfo@@0V?$basic_string@DU?$char_traits@D@std@@V?$allocator@D@2@@std@@B@@YAXXZ 00401280 f   systeminfo.obj
 0001:000002a0       ??__E?DRIVER_VERSION_IDENTIFIER_STRING@GPUInfo@@0V?$basic_string@DU?$char_traits@D@std@@V?$allocator@D@2@@std@@B@@YAXXZ 004012a0 f   systeminfo.obj
 0001:000002c0       ??__E?VIDEO_ARCHITECTURE_IDENTIFIER_STRING@GPUInfo@@0V?$basic_string@DU?$char_traits@D@std@@V?$allocator@D@2@@std@@B@@YAXXZ 004012c0 f   systeminfo.obj
 0001:000002e0       ??__E?VIDEO_MEMORY_TYPE_IDENTIFIER_STRING@GPUInfo@@0V?$basic_string@DU?$char_traits@D@std@@V?$allocator@D@2@@std@@B@@YAXXZ 004012e0 f   systeminfo.obj
 0001:00000300       ??__E?VIDEO_MODE_DESCRIPTION_IDENTIFIER_STRING@GPUInfo@@0V?$basic_string@DU?$char_traits@D@std@@V?$allocator@D@2@@std@@B@@YAXXZ 00401300 f   systeminfo.obj
 0001:00000320       ??__E?VIDEO_PROCESSOR_IDENTIFIER_STRING@GPUInfo@@0V?$basic_string@DU?$char_traits@D@std@@V?$allocator@D@2@@std@@B@@YAXXZ 00401320 f   systeminfo.obj
 0001:00000340       ??__E?CAPTION_IDENTIFIER_STRING@GPUInfo@@0V?$basic_string@DU?$char_traits@D@std@@V?$allocator@D@2@@std@@B@@YAXXZ 00401340 f   systeminfo.obj
 0001:00000360       ??__E?GPU_INFO_QUERY_STRING@GPUInfoDelegate@@0V?$basic_string@DU?$char_traits@D@std@@V?$allocator@D@2@@std@@B@@YAXXZ 00401360 f   systeminfo.obj
 0001:00000380       ??__E?GPU_INSTANCE_QUERY_STRING@GPUInfoDelegate@@0V?$basic_string@DU?$char_traits@D@std@@V?$allocator@D@2@@std@@B@@YAXXZ 00401380 f   systeminfo.obj
 0001:000003a0       ??__E?GPU_INFO_END_IDENTIFIER_STRING@GPUInfoDelegate@@0V?$basic_string@DU?$char_traits@D@std@@V?$allocator@D@2@@std@@B@@YAXXZ 004013a0 f   systeminfo.obj
 0001:000003c0       ??__E?CHIPSET_QUERY_STRING@MotherboardInfo@@0V?$basic_string@DU?$char_traits@D@std@@V?$allocator@D@2@@std@@B@@YAXXZ 004013c0 f   systeminfo.obj
 0001:000003e0       ??__E?NAME_IDENTIFIER_STRING@MotherboardInfo@@0V?$basic_string@DU?$char_traits@D@std@@V?$allocator@D@2@@std@@B@@YAXXZ 004013e0 f   systeminfo.obj
 0001:00000400       ??__E?MANUFACTURER_IDENTIFIER_STRING@MotherboardInfo@@0V?$basic_string@DU?$char_traits@D@std@@V?$allocator@D@2@@std@@B@@YAXXZ 00401400 f   systeminfo.obj
 0001:00000420       ??__E?CHIPSET_IDENTIFIER_STRING@MotherboardInfo@@0V?$basic_string@DU?$char_traits@D@std@@V?$allocator@D@2@@std@@B@@YAXXZ 00401420 f   systeminfo.obj
 0001:00000440       ??__E?CHIPSET_END_IDENTIFIER_STRING@MotherboardInfo@@0V?$basic_string@DU?$char_traits@D@std@@V?$allocator@D@2@@std@@B@@YAXXZ 00401440 f   systeminfo.obj
 0001:00000460       ??__E?SERIAL_NUMBER_IDENTIFIER_STRING@MotherboardInfo@@0V?$basic_string@DU?$char_traits@D@std@@V?$allocator@D@2@@std@@B@@YAXXZ 00401460 f   systeminfo.obj
 0001:00000480       ??__E?VERSION_IDENTIFIER_STRING@MotherboardInfo@@0V?$basic_string@DU?$char_traits@D@std@@V?$allocator@D@2@@std@@B@@YAXXZ 00401480 f   systeminfo.obj
 0001:000004a0       ??__E?MOTHERBOARD_INFO_QUERY_STRING@MotherboardInfoDelegate@@0V?$basic_string@DU?$char_traits@D@std@@V?$allocator@D@2@@std@@B@@YAXXZ 004014a0 f   systeminfo.obj
 0001:000004c0       ??__E?MOTHERBOARD_INSTANCE_QUERY_STRING@MotherboardInfoDelegate@@0V?$basic_string@DU?$char_traits@D@std@@V?$allocator@D@2@@std@@B@@YAXXZ 004014c0 f   systeminfo.obj
 0001:000004e0       ??__E?MOTHERBOARD_INFO_END_IDENTIFIER_STRING@MotherboardInfoDelegate@@0V?$basic_string@DU?$char_traits@D@std@@V?$allocator@D@2@@std@@B@@YAXXZ 004014e0 f   systeminfo.obj
 0001:00000500       ??__E?ARCHITECTURE_IDENTIFIER_STRING@OSInfo@@0V?$basic_string@DU?$char_traits@D@std@@V?$allocator@D@2@@std@@B@@YAXXZ 00401500 f   systeminfo.obj
 0001:00000520       ??__E?CAPTION_INDENTIFIER_STRING@OSInfo@@0V?$basic_string@DU?$char_traits@D@std@@V?$allocator@D@2@@std@@B@@YAXXZ 00401520 f   systeminfo.obj
 0001:00000540       ??__E?NAME_IDENTIFIER_STRING@OSInfo@@0V?$basic_string@DU?$char_traits@D@std@@V?$allocator@D@2@@std@@B@@YAXXZ 00401540 f   systeminfo.obj
 0001:00000560       ??__E?MANUFACTURER_IDENTIFIER_STRING@OSInfo@@0V?$basic_string@DU?$char_traits@D@std@@V?$allocator@D@2@@std@@B@@YAXXZ 00401560 f   systeminfo.obj
 0001:00000580       ??__E?VERSION_IDENTIFIER_STRING@OSInfo@@0V?$basic_string@DU?$char_traits@D@std@@V?$allocator@D@2@@std@@B@@YAXXZ 00401580 f   systeminfo.obj
 0001:000005a0       ??__E?CURRENT_USER_IDENTIFIER_STRING@OSInfo@@0V?$basic_string@DU?$char_traits@D@std@@V?$allocator@D@2@@std@@B@@YAXXZ 004015a0 f   systeminfo.obj
 0001:000005c0       ??__E?INSTALL_DATE_IDENTIFIER_STRING@OSInfo@@0V?$basic_string@DU?$char_traits@D@std@@V?$allocator@D@2@@std@@B@@YAXXZ 004015c0 f   systeminfo.obj
 0001:000005e0       ??__E?BUILD_NUMBER_IDENTIFIER_STRING@OSInfo@@0V?$basic_string@DU?$char_traits@D@std@@V?$allocator@D@2@@std@@B@@YAXXZ 004015e0 f   systeminfo.obj
 0001:00000600       ??__E?LAST_BOOT_UP_TIME_IDENTIFIER_STRING@OSInfo@@0V?$basic_string@DU?$char_traits@D@std@@V?$allocator@D@2@@std@@B@@YAXXZ 00401600 f   systeminfo.obj
 0001:00000620       ??__E?BOOT_DEVICE_IDENTIFIER_STRING@OSInfo@@0V?$basic_string@DU?$char_traits@D@std@@V?$allocator@D@2@@std@@B@@YAXXZ 00401620 f   systeminfo.obj
 0001:00000640       ??__E?SERIAL_NUMBER_IDENTIFIER_STRING@OSInfo@@0V?$basic_string@DU?$char_traits@D@std@@V?$allocator@D@2@@std@@B@@YAXXZ 00401640 f   systeminfo.obj
 0001:00000660       ??__E?TOTAL_VIRTUAL_MEMORY_SIZE_IDENTIFIER_STRING@OSInfo@@0V?$basic_string@DU?$char_traits@D@std@@V?$allocator@D@2@@std@@B@@YAXXZ 00401660 f   systeminfo.obj
 0001:00000680       ??__E?TOTAL_VISIBLE_MEMORY_SIZE_IDENTIFIER_STRING@OSInfo@@0V?$basic_string@DU?$char_traits@D@std@@V?$allocator@D@2@@std@@B@@YAXXZ 00401680 f   systeminfo.obj
 0001:000006a0       ??__E?TOTAL_SWAP_SIZE_IDENTIFIER_STRING@OSInfo@@0V?$basic_string@DU?$char_traits@D@std@@V?$allocator@D@2@@std@@B@@YAXXZ 004016a0 f   systeminfo.obj
 0001:000006c0       ??__E?FREE_PHYSICAL_MEMORY_IDENTIFIER_STRING@OSInfo@@0V?$basic_string@DU?$char_traits@D@std@@V?$allocator@D@2@@std@@B@@YAXXZ 004016c0 f   systeminfo.obj
 0001:000006e0       ??__E?FREE_PHYSICAL_MEMORY_QUERY_STRING@OSInfo@@0V?$basic_string@DU?$char_traits@D@std@@V?$allocator@D@2@@std@@B@@YAXXZ 004016e0 f   systeminfo.obj
 0001:00000700       ??__E?FREE_VIRTUAL_MEMORY_IDENTIFIER_STRING@OSInfo@@0V?$basic_string@DU?$char_traits@D@std@@V?$allocator@D@2@@std@@B@@YAXXZ 00401700 f   systeminfo.obj
 0001:00000720       ??__E?FREE_VIRTUAL_MEMORY_QUERY_STRING@OSInfo@@0V?$basic_string@DU?$char_traits@D@std@@V?$allocator@D@2@@std@@B@@YAXXZ 00401720 f   systeminfo.obj
 0001:00000740       ??__E?FREE_SPACE_IN_PAGING_FILES_IDENTIFIER_STRING@OSInfo@@0V?$basic_string@DU?$char_traits@D@std@@V?$allocator@D@2@@std@@B@@YAXXZ 00401740 f   systeminfo.obj
 0001:00000760       ??__E?FREE_SPACE_IN_PAGING_FILES_QUERY_STRING@OSInfo@@0V?$basic_string@DU?$char_traits@D@std@@V?$allocator@D@2@@std@@B@@YAXXZ 00401760 f   systeminfo.obj
 0001:00000780       ??__E?USED_SPACE_IN_PAGING_FILE_IDENTIFIER_STRING@OSInfo@@0V?$basic_string@DU?$char_traits@D@std@@V?$allocator@D@2@@std@@B@@YAXXZ 00401780 f   systeminfo.obj
 0001:000007a0       ??__E?USED_SPACE_IN_PAGING_FILE_QUERY_STRING@OSInfo@@0V?$basic_string@DU?$char_traits@D@std@@V?$allocator@D@2@@std@@B@@YAXXZ 004017a0 f   systeminfo.obj
 0001:000007c0       ??__E?CURRENT_DATE_TIME_IDENTIFIER_STRING@OSInfo@@0V?$basic_string@DU?$char_traits@D@std@@V?$allocator@D@2@@std@@B@@YAXXZ 004017c0 f   systeminfo.obj
 0001:000007e0       ??__E?CURRENT_DATE_TIME_QUERY_STRING@OSInfo@@0V?$basic_string@DU?$char_traits@D@std@@V?$allocator@D@2@@std@@B@@YAXXZ 004017e0 f   systeminfo.obj
 0001:00000800       ??__E?OS_INFO_QUERY_STRING@OSInfoDelegate@@0V?$basic_string@DU?$char_traits@D@std@@V?$allocator@D@2@@std@@B@@YAXXZ 00401800 f   systeminfo.obj
 0001:00000820       ??__E?OS_INSTANCE_QUERY_STRING@OSInfoDelegate@@0V?$basic_string@DU?$char_traits@D@std@@V?$allocator@D@2@@std@@B@@YAXXZ 00401820 f   systeminfo.obj
 0001:00000840       ??__E?OS_INFO_END_IDENTIFIER_STRING@OSInfoDelegate@@0V?$basic_string@DU?$char_traits@D@std@@V?$allocator@D@2@@std@@B@@YAXXZ 00401840 f   systeminfo.obj
 0001:00000860       ??__E?NAME_IDENTIFIER_STRING@RAMInfo@@0V?$basic_string@DU?$char_traits@D@std@@V?$allocator@D@2@@std@@B@@YAXXZ 00401860 f   systeminfo.obj
 0001:00000880       ??__E?MANUFACTURER_IDENTIFIER_STRING@RAMInfo@@0V?$basic_string@DU?$char_traits@D@std@@V?$allocator@D@2@@std@@B@@YAXXZ 00401880 f   systeminfo.obj
 0001:000008a0       ??__E?CAPACITY_IDENTIFIER_STRING@RAMInfo@@0V?$basic_string@DU?$char_traits@D@std@@V?$allocator@D@2@@std@@B@@YAXXZ 004018a0 f   systeminfo.obj
 0001:000008c0       ??__E?SERIAL_NUMBER_IDENTIFIER_STRING@RAMInfo@@0V?$basic_string@DU?$char_traits@D@std@@V?$allocator@D@2@@std@@B@@YAXXZ 004018c0 f   systeminfo.obj
 0001:000008e0       ??__E?FORM_FACTOR_IDENTIFIER_STRING@RAMInfo@@0V?$basic_string@DU?$char_traits@D@std@@V?$allocator@D@2@@std@@B@@YAXXZ 004018e0 f   systeminfo.obj
 0001:00000900       ??__E?PART_NUMBER_IDENTIFIER_STRING@RAMInfo@@0V?$basic_string@DU?$char_traits@D@std@@V?$allocator@D@2@@std@@B@@YAXXZ 00401900 f   systeminfo.obj
 0001:00000920       ??__E?MEMORY_TYPE_IDENTIFIER_STRING@RAMInfo@@0V?$basic_string@DU?$char_traits@D@std@@V?$allocator@D@2@@std@@B@@YAXXZ 00401920 f   systeminfo.obj
 0001:00000940       ??__E?CLOCK_SPEED_IDENTIFIER_STRING@RAMInfo@@0V?$basic_string@DU?$char_traits@D@std@@V?$allocator@D@2@@std@@B@@YAXXZ 00401940 f   systeminfo.obj
 0001:00000960       ??__E?BACKUP_CLOCK_SPEED_IDENTIFIER_STRING@RAMInfo@@0V?$basic_string@DU?$char_traits@D@std@@V?$allocator@D@2@@std@@B@@YAXXZ 00401960 f   systeminfo.obj
 0001:00000980       ??__E?RAM_INFO_QUERY_STRING@RAMInfoDelegate@@0V?$basic_string@DU?$char_traits@D@std@@V?$allocator@D@2@@std@@B@@YAXXZ 00401980 f   systeminfo.obj
 0001:000009a0       ??__E?RAM_INSTANCE_QUERY_STRING@RAMInfoDelegate@@0V?$basic_string@DU?$char_traits@D@std@@V?$allocator@D@2@@std@@B@@YAXXZ 004019a0 f   systeminfo.obj
 0001:000009c0       ??__E?RAM_INFO_END_IDENTIFIER_STRING@RAMInfoDelegate@@0V?$basic_string@DU?$char_traits@D@std@@V?$allocator@D@2@@std@@B@@YAXXZ 004019c0 f   systeminfo.obj
 0001:000009dd       ??__F_Fac_tidy_reg@std@@YAXXZ 004019dd f   msvcprt:locale0_implib.obj
 0001:00006025       __catch$??$?6U?$char_traits@D@std@@@std@@YAAAV?$basic_ostream@DU?$char_traits@D@std@@@0@AAV10@PBD@Z$0 00407025 f i protect.obj
 0001:000079e1       __catch$?getArchitecture@CPUInfo@@ABE?AV?$basic_string@DU?$char_traits@D@std@@V?$allocator@D@2@@std@@AAV23@@Z$0 004089e1 f   systeminfo.obj
 0001:000084b3       __catch$??0GPUInfo@@QAE@ABV?$vector@V?$basic_string@DU?$char_traits@D@std@@V?$allocator@D@2@@std@@V?$allocator@V?$basic_string@DU?$char_traits@D@std@@V?$allocator@D@2@@std@@@2@@std@@H@Z$0 004094b3 f   systeminfo.obj
 0001:00008ef8       $LN265                     00409ef8     systeminfo.obj
 0001:00008f30       $LN264                     00409f30     systeminfo.obj
 0001:000091fc       $LN264                     0040a1fc     systeminfo.obj
 0001:0000ad4b       __catch$??0OSInfo@@QAE@ABV?$vector@V?$basic_string@DU?$char_traits@D@std@@V?$allocator@D@2@@std@@V?$allocator@V?$basic_string@DU?$char_traits@D@std@@V?$allocator@D@2@@std@@@2@@std@@H@Z$0 0040bd4b f   systeminfo.obj
 0001:0000b200       __catch$??0OSInfo@@QAE@ABV?$vector@V?$basic_string@DU?$char_traits@D@std@@V?$allocator@D@2@@std@@V?$allocator@V?$basic_string@DU?$char_traits@D@std@@V?$allocator@D@2@@std@@@2@@std@@H@Z$2 0040c200 f   systeminfo.obj
 0001:0000b6af       __catch$??0OSInfo@@QAE@ABV?$vector@V?$basic_string@DU?$char_traits@D@std@@V?$allocator@D@2@@std@@V?$allocator@V?$basic_string@DU?$char_traits@D@std@@V?$allocator@D@2@@std@@@2@@std@@H@Z$4 0040c6af f   systeminfo.obj
 0001:0000c3e6       __catch$??0RAMInfo@@QAE@ABV?$vector@V?$basic_string@DU?$char_traits@D@std@@V?$allocator@D@2@@std@@V?$allocator@V?$basic_string@DU?$char_traits@D@std@@V?$allocator@D@2@@std@@@2@@std@@H@Z$0 0040d3e6 f   systeminfo.obj
 0001:0000cf0e       __catch$?getMemoryType@RAMInfo@@ABE?AV?$basic_string@DU?$char_traits@D@std@@V?$allocator@D@2@@std@@ABV23@@Z$0 0040df0e f   systeminfo.obj
 0001:0000cf60       $LN433                     0040df60     systeminfo.obj
 0001:0000d162       __catch$?getFormFactor@RAMInfo@@ABE?AV?$basic_string@DU?$char_traits@D@std@@V?$allocator@D@2@@std@@ABV23@@Z$0 0040e162 f   systeminfo.obj
 0001:0000d1b4       $LN403                     0040e1b4     systeminfo.obj
 0001:0000e000       ??R<lambda_b5565d269da327e336800d80f472b553>@@QBE?AV?$basic_string@DU?$char_traits@D@std@@V?$allocator@D@2@@std@@ABV12@@Z 0040f000 f   systeminfo.obj
 0001:00010853       __catch$??$_Emplace_reallocate@AAV?$vector@V?$basic_string@DU?$char_traits@D@std@@V?$allocator@D@2@@std@@V?$allocator@V?$basic_string@DU?$char_traits@D@std@@V?$allocator@D@2@@std@@@2@@std@@AAH@?$vector@VCPUInfo@@V?$allocator@VCPUInfo@@@std@@@std@@QAEPAVCPUInfo@@QAV2@AAV?$vector@V?$basic_string@DU?$char_traits@D@std@@V?$allocator@D@2@@std@@V?$allocator@V?$basic_string@DU?$char_traits@D@std@@V?$allocator@D@2@@std@@@2@@1@AAH@Z$0 00411853 f i systeminfo.obj
 0001:00010c41       __catch$??$_Emplace_reallocate@AAV?$vector@V?$basic_string@DU?$char_traits@D@std@@V?$allocator@D@2@@std@@V?$allocator@V?$basic_string@DU?$char_traits@D@std@@V?$allocator@D@2@@std@@@2@@std@@AAH@?$vector@VGPUInfo@@V?$allocator@VGPUInfo@@@std@@@std@@QAEPAVGPUInfo@@QAV2@AAV?$vector@V?$basic_string@DU?$char_traits@D@std@@V?$allocator@D@2@@std@@V?$allocator@V?$basic_string@DU?$char_traits@D@std@@V?$allocator@D@2@@std@@@2@@1@AAH@Z$0 00411c41 f i systeminfo.obj
 0001:00010e6a       __catch$??$_Emplace_reallocate@AAV?$vector@V?$basic_string@DU?$char_traits@D@std@@V?$allocator@D@2@@std@@V?$allocator@V?$basic_string@DU?$char_traits@D@std@@V?$allocator@D@2@@std@@@2@@std@@AAH@?$vector@VMotherboardInfo@@V?$allocator@VMotherboardInfo@@@std@@@std@@QAEPAVMotherboardInfo@@QAV2@AAV?$vector@V?$basic_string@DU?$char_traits@D@std@@V?$allocator@D@2@@std@@V?$allocator@V?$basic_string@DU?$char_traits@D@std@@V?$allocator@D@2@@std@@@2@@1@AAH@Z$0 00411e6a f i systeminfo.obj
 0001:00011111       __catch$??$_Emplace_reallocate@AAV?$vector@V?$basic_string@DU?$char_traits@D@std@@V?$allocator@D@2@@std@@V?$allocator@V?$basic_string@DU?$char_traits@D@std@@V?$allocator@D@2@@std@@@2@@std@@AAH@?$vector@VOSInfo@@V?$allocator@VOSInfo@@@std@@@std@@QAEPAVOSInfo@@QAV2@AAV?$vector@V?$basic_string@DU?$char_traits@D@std@@V?$allocator@D@2@@std@@V?$allocator@V?$basic_string@DU?$char_traits@D@std@@V?$allocator@D@2@@std@@@2@@1@AAH@Z$0 00412111 f i systeminfo.obj
 0001:00011361       __catch$??$_Emplace_reallocate@AAV?$vector@V?$basic_string@DU?$char_traits@D@std@@V?$allocator@D@2@@std@@V?$allocator@V?$basic_string@DU?$char_traits@D@std@@V?$allocator@D@2@@std@@@2@@std@@AAH@?$vector@VRAMInfo@@V?$allocator@VRAMInfo@@@std@@@std@@QAEPAVRAMInfo@@QAV2@AAV?$vector@V?$basic_string@DU?$char_traits@D@std@@V?$allocator@D@2@@std@@V?$allocator@V?$basic_string@DU?$char_traits@D@std@@V?$allocator@D@2@@std@@@2@@1@AAH@Z$0 00412361 f i systeminfo.obj
 0001:000116b4       __catch$??$_Emplace_reallocate@ABV?$basic_string@DU?$char_traits@D@std@@V?$allocator@D@2@@std@@@?$vector@V?$basic_string@DU?$char_traits@D@std@@V?$allocator@D@2@@std@@V?$allocator@V?$basic_string@DU?$char_traits@D@std@@V?$allocator@D@2@@std@@@2@@std@@QAEPAV?$basic_string@DU?$char_traits@D@std@@V?$allocator@D@2@@1@QAV21@ABV21@@Z$0 004126b4 f i systeminfo.obj
 0001:00011c06       __catch$??$_Insert_string@DU?$char_traits@D@std@@I@std@@YAAAV?$basic_ostream@DU?$char_traits@D@std@@@0@AAV10@QBDI@Z$0 00412c06 f i systeminfo.obj
 0001:00012780       ?_Delete_this@?$_Func_impl_no_alloc@V<lambda_b5565d269da327e336800d80f472b553>@@V?$basic_string@DU?$char_traits@D@std@@V?$allocator@D@2@@std@@ABV23@@std@@EAEX_N@Z 00413780 f   systeminfo.obj
 0001:000127a0       ?_Get@?$_Func_impl_no_alloc@V<lambda_b5565d269da327e336800d80f472b553>@@V?$basic_string@DU?$char_traits@D@std@@V?$allocator@D@2@@std@@ABV23@@std@@EBEPBXXZ 004137a0 f   systeminfo.obj
 0001:000127b0       ?_Target_type@?$_Func_impl_no_alloc@V<lambda_b5565d269da327e336800d80f472b553>@@V?$basic_string@DU?$char_traits@D@std@@V?$allocator@D@2@@std@@ABV23@@std@@EBEABVtype_info@@XZ 004137b0 f   systeminfo.obj
 0001:000127c0       ?_Do_call@?$_Func_impl_no_alloc@V<lambda_b5565d269da327e336800d80f472b553>@@V?$basic_string@DU?$char_traits@D@std@@V?$allocator@D@2@@std@@ABV23@@std@@EAE?AV?$basic_string@DU?$char_traits@D@std@@V?$allocator@D@2@@2@ABV32@@Z 004137c0 f   systeminfo.obj
 0001:000127e0       ?_Copy@?$_Func_impl_no_alloc@V<lambda_b5565d269da327e336800d80f472b553>@@V?$basic_string@DU?$char_traits@D@std@@V?$allocator@D@2@@std@@ABV23@@std@@EBEPAV?$_Func_base@V?$basic_string@DU?$char_traits@D@std@@V?$allocator@D@2@@std@@ABV12@@2@PAX@Z 004137e0 f   systeminfo.obj
 0001:000127e0       ?_Move@?$_Func_impl_no_alloc@V<lambda_b5565d269da327e336800d80f472b553>@@V?$basic_string@DU?$char_traits@D@std@@V?$allocator@D@2@@std@@ABV23@@std@@EAEPAV?$_Func_base@V?$basic_string@DU?$char_traits@D@std@@V?$allocator@D@2@@std@@ABV12@@2@PAX@Z 004137e0 f   systeminfo.obj
 0001:00012960       __catch$??$?5DU?$char_traits@D@std@@V?$allocator@D@1@@std@@YAAAV?$basic_istream@DU?$char_traits@D@std@@@0@$$QAV10@AAV?$basic_string@DU?$char_traits@D@std@@V?$allocator@D@2@@0@@Z$0 00413960 f i systeminfo.obj
 0001:0001305c       ?find_pe_section@@YAPAU_IMAGE_SECTION_HEADER@@QAEI@Z 0041405c f   MSVCRT:utility.obj
 0001:000132ad       ?pre_c_initialization@@YAHXZ 004142ad f   MSVCRT:exe_winmain.obj
 0001:00013358       ?post_pgo_initialization@@YAHXZ 00414358 f   MSVCRT:exe_winmain.obj
 0001:00013360       ?pre_cpp_initialization@@YAXXZ 00414360 f   MSVCRT:exe_winmain.obj
 0001:00013372       ?__scrt_common_main_seh@@YAHXZ 00414372 f   MSVCRT:exe_winmain.obj
 0001:00013740       $$000000                   00414740     MSVCRT:sehprolg4.obj
 0001:00013af0       _pop3_dophase_done         00414af0 f   libcurl:pop3.obj
 0001:00013ba0       ___get_entropy             00414ba0 f   MSVCRT:gs_support.obj
 0001:00013db0       _easy_perform              00414db0 f   libcurl:easy.obj
 0001:00013ea0       _easy_transfer             00414ea0 f   libcurl:easy.obj
 0001:00013f20       _global_init               00414f20 f   libcurl:easy.obj
 0001:000165dc       $LN516                     004175dc     libcurl:setopt.obj
 0001:00016720       $LN483                     00417720     libcurl:setopt.obj
 0001:000167f0       $LN517                     004177f0     libcurl:setopt.obj
 0001:0001681c       $LN518                     0041781c     libcurl:setopt.obj
 0001:0001689c       $LN486                     0041789c     libcurl:setopt.obj
 0001:00016900       $LN519                     00417900     libcurl:setopt.obj
 0001:00016a24       $LN487                     00417a24     libcurl:setopt.obj
 0001:00016b04       $LN520                     00417b04     libcurl:setopt.obj
 0001:00016b74       $LN492                     00417b74     libcurl:setopt.obj
 0001:00016bc0       $LN521                     00417bc0     libcurl:setopt.obj
 0001:00016c0c       $LN493                     00417c0c     libcurl:setopt.obj
 0001:00016cdc       $LN522                     00417cdc     libcurl:setopt.obj
 0001:00016cf4       $LN495                     00417cf4     libcurl:setopt.obj
 0001:00016d14       $LN523                     00417d14     libcurl:setopt.obj
 0001:00016d60       _setstropt_userpwd         00417d60 f   libcurl:setopt.obj
 0001:00016ee0       _slist_get_last            00417ee0 f   libcurl:slist.obj
 0001:000174e0       _add_next_timeout          004184e0 f   libcurl:multi.obj
 0001:000175b0       _before_perform            004185b0 f   libcurl:multi.obj
 0001:000175e0       _close_connect_only        004185e0 f   libcurl:multi.obj
 0001:00017dd0       _doing_getsock             00418dd0 f   libcurl:multi.obj
 0001:00017e00       _domore_getsock            00418e00 f   libcurl:multi.obj
 0001:00017e30       _fd_key_compare            00418e30 f   libcurl:multi.obj
 0001:00017e30       _trhash_compare            00418e30 f   libcurl:multi.obj
 0001:00017e50       _hash_fd                   00418e50 f   libcurl:multi.obj
 0001:00017e50       _trhash                    00418e50 f   libcurl:multi.obj
 0001:00017e70       _init_completed            00418e70 f   libcurl:multi.obj
 0001:00017e90       _mstate                    00418e90 f   libcurl:multi.obj
 0001:00017ec0       _multi_addmsg              00418ec0 f   libcurl:multi.obj
 0001:00017ee0       _multi_addtimeout          00418ee0 f   libcurl:multi.obj
 0001:00017f70       _multi_deltimeout          00418f70 f   libcurl:multi.obj
 0001:00017fb0       _multi_do                  00418fb0 f   libcurl:multi.obj
 0001:00017fd0       _multi_do_more             00418fd0 f   libcurl:multi.obj
 0001:00018000       _multi_done                00419000 f   libcurl:multi.obj
 0001:000182f0       _multi_getsock             004192f0 f   libcurl:multi.obj
 0001:0001836c       $LN17                      0041936c     libcurl:multi.obj
 0001:000183a0       _multi_ischanged           004193a0 f   libcurl:multi.obj
 0001:000183c0       _multi_runsingle           004193c0 f   libcurl:multi.obj
 0001:0001917c       $LN247                     0041a17c     libcurl:multi.obj
 0001:000191c0       _multi_timeout             0041a1c0 f   libcurl:multi.obj
 0001:000192c0       _multi_wait                0041a2c0 f   libcurl:multi.obj
 0001:00019760       _process_pending_handles   0041a760 f   libcurl:multi.obj
 0001:000197a0       _protocol_connect          0041a7a0 f   libcurl:multi.obj
 0001:00019860       _protocol_connecting       0041a860 f   libcurl:multi.obj
 0001:000198a0       _protocol_doing            0041a8a0 f   libcurl:multi.obj
 0001:000198e0       _protocol_getsock          0041a8e0 f   libcurl:multi.obj
 0001:00019910       _sh_addentry               0041a910 f   libcurl:multi.obj
 0001:000199a0       _sh_delentry               0041a9a0 f   libcurl:multi.obj
 0001:000199c0       _sh_freeentry              0041a9c0 f   libcurl:multi.obj
 0001:000199d0       _sh_getentry               0041a9d0 f   libcurl:multi.obj
 0001:000199f0       _sh_init                   0041a9f0 f   libcurl:multi.obj
 0001:00019a20       _singlesocket              0041aa20 f   libcurl:multi.obj
 0001:00019d00       _client_close_writer       0041ad00 f   libcurl:content_encoding.obj
 0001:00019d00       _error_close_writer        0041ad00 f   libcurl:content_encoding.obj
 0001:00019d00       _identity_close_writer     0041ad00 f   libcurl:content_encoding.obj
 0001:00019d00       _trhash_dtor               0041ad00 f   libcurl:multi.obj
 0001:00019d10       _waitconnect_getsock       0041ad10 f   libcurl:multi.obj
 0001:00019d70       _waitproxyconnect_getsock  0041ad70 f   libcurl:multi.obj
 0001:0001aaac       $LN309                     0041baac     libcurl:cookie.obj
 0001:0001b0b0       _bad_domain                0041c0b0 f   libcurl:cookie.obj
 0001:0001b0f0       _cookie_hash_domain        0041c0f0 f   libcurl:cookie.obj
 0001:0001b160       _cookie_output             0041c160 f   libcurl:cookie.obj
 0001:0001b3c0       _cookie_sort               0041c3c0 f   libcurl:cookie.obj
 0001:0001b4a0       _cookie_sort_ct            0041c4a0 f   libcurl:cookie.obj
 0001:0001b4d0       _cookiehash                0041c4d0 f   libcurl:cookie.obj
 0001:0001b510       _dup_cookie                0041c510 f   libcurl:cookie.obj
 0001:0001b640       _freecookie                0041c640 f   libcurl:cookie.obj
 0001:0001b6a0       _get_netscape_format       0041c6a0 f   libcurl:cookie.obj
 0001:0001b750       _get_top_domain            0041c750 f   libcurl:cookie.obj
 0001:0001b7b0       _isip                      0041c7b0 f   libcurl:cookie.obj
 0001:0001b810       _pathmatch                 0041c810 f   libcurl:cookie.obj
 0001:0001b910       _remove_expired            0041c910 f   libcurl:cookie.obj
 0001:0001b9a0       _sanitize_cookie_path      0041c9a0 f   libcurl:cookie.obj
 0001:0001ba60       _strstore                  0041ca60 f   libcurl:cookie.obj
 0001:0001ba80       _tailmatch                 0041ca80 f   libcurl:cookie.obj
 0001:0001be40       _conn_thread_sync_data     0041ce40 f   libcurl:asyn-thread.obj
 0001:0001be60       _destroy_async_data        0041ce60 f   libcurl:asyn-thread.obj
 0001:0001bf10       _destroy_thread_sync_data  0041cf10 f   libcurl:asyn-thread.obj
 0001:0001bf70       _getaddrinfo_complete      0041cf70 f   libcurl:asyn-thread.obj
 0001:0001bfa0       _getaddrinfo_thread@4      0041cfa0 f   libcurl:asyn-thread.obj
 0001:0001c080       _init_resolve_thread       0041d080 f   libcurl:asyn-thread.obj
 0001:0001c170       _init_thread_sync_data     0041d170 f   libcurl:asyn-thread.obj
 0001:0001c220       _thread_wait_resolv        0041d220 f   libcurl:asyn-thread.obj
 0001:0001c3d0       _dyn_nappend               0041d3d0 f   libcurl:dynbuf.obj
 0001:0001c4a0       _encoder_nop_read          0041d4a0 f   libcurl:mime.obj
 0001:0001c4f0       _encoder_nop_size          0041d4f0 f   libcurl:mime.obj
 0001:0001c500       _encoder_7bit_read         0041d500 f   libcurl:mime.obj
 0001:0001c560       _encoder_base64_read       0041d560 f   libcurl:mime.obj
 0001:0001c6f0       _encoder_base64_size       0041d6f0 f   libcurl:mime.obj
 0001:0001c760       _encoder_qp_read           0041d760 f   libcurl:mime.obj
 0001:0001c900       _encoder_qp_size           0041d900 f   libcurl:mime.obj
 0001:0001c930       _Curl_basename             0041d930 f   libcurl:mime.obj
 0001:0001cfc0       _add_content_type          0041dfc0 f   libcurl:mime.obj
 0001:0001d000       _cleanup_encoder_state     0041e000 f   libcurl:mime.obj
 0001:0001d020       _cleanup_part_content      0041e020 f   libcurl:mime.obj
 0001:0001d0a0       _content_type_match        0041e0a0 f   libcurl:mime.obj
 0001:0001d0f4       $LN10                      0041e0f4     libcurl:mime.obj
 0001:0001d0fc       $LN8                       0041e0fc     libcurl:mime.obj
 0001:0001d5e0       _escape_string             0041e5e0 f   libcurl:mime.obj
 0001:0001d650       _match_header              0041e650 f   libcurl:mime.obj
 0001:0001d690       _mime_file_free            0041e690 f   libcurl:mime.obj
 0001:0001d6d0       _mime_file_read            0041e6d0 f   libcurl:mime.obj
 0001:0001d710       _mime_file_seek            0041e710 f   libcurl:mime.obj
 0001:0001d760       _mime_mem_free             0041e760 f   libcurl:mime.obj
 0001:0001d780       _mime_mem_read             0041e780 f   libcurl:mime.obj
 0001:0001d7e0       _mime_mem_seek             0041e7e0 f   libcurl:mime.obj
 0001:0001d840       _mime_open_file            0041e840 f   libcurl:mime.obj
 0001:0001d870       _mime_part_rewind          0041e870 f   libcurl:mime.obj
 0001:0001d910       _mime_subparts_free        0041e910 f   libcurl:mime.obj
 0001:0001d940       _mime_subparts_read        0041e940 f   libcurl:mime.obj
 0001:0001daac       $LN35                      0041eaac     libcurl:mime.obj
 0001:0001dad0       _mime_subparts_seek        0041ead0 f   libcurl:mime.obj
 0001:0001db40       _mime_subparts_unbind      0041eb40 f   libcurl:mime.obj
 0001:0001db70       _mimesetstate              0041eb70 f   libcurl:mime.obj
 0001:0001dba0       _multipart_size            0041eba0 f   libcurl:mime.obj
 0001:0001dc20       _qp_lookahead_eol          0041ec20 f   libcurl:mime.obj
 0001:0001dc80       _read_encoded_part_content 0041ec80 f   libcurl:mime.obj
 0001:0001dd80       _read_part_content         0041ed80 f   libcurl:mime.obj
 0001:0001de90       _readback_bytes            0041ee90 f   libcurl:mime.obj
 0001:0001df10       _readback_part             0041ef10 f   libcurl:mime.obj
 0001:0001e0f4       $LN42                      0041f0f4     libcurl:mime.obj
 0001:0001e120       _search_header             0041f120 f   libcurl:mime.obj
 0001:0001e160       _slist_size                0041f160 f   libcurl:mime.obj
 0001:0001e1e0       _strippath                 0041f1e0 f   libcurl:mime.obj
 0001:0001e900       _bundle_add_conn           0041f900 f   libcurl:conncache.obj
 0001:0001e930       _bundle_create             0041f930 f   libcurl:conncache.obj
 0001:0001e980       _bundle_destroy            0041f980 f   libcurl:conncache.obj
 0001:0001e9b0       _bundle_remove_conn        0041f9b0 f   libcurl:conncache.obj
 0001:0001ea00       _conn_llist_dtor           0041fa00 f   libcurl:conncache.obj
 0001:0001ea20       _conncache_add_bundle      0041fa20 f   libcurl:conncache.obj
 0001:0001ea60       _conncache_find_first_connection 0041fa60 f   libcurl:conncache.obj
 0001:0001eab0       _conncache_remove_bundle   0041fab0 f   libcurl:conncache.obj
 0001:0001eb20       _free_bundle_hash_entry    0041fb20 f   libcurl:conncache.obj
 0001:0001eb30       _hashkey                   0041fb30 f   libcurl:conncache.obj
 0001:0001eb90       _ConnectionExists          0041fb90 f   libcurl:url.obj
 0001:00020200       _IsMultiplexingPossible    00421200 f   libcurl:url.obj
 0001:00020250       _SocketIsDead              00421250 f   libcurl:url.obj
 0001:00020280       _allocate_conn             00421280 f   libcurl:url.obj
 0001:00020510       _call_extract_if_dead      00421510 f   libcurl:url.obj
 0001:00020540       _check_noproxy             00421540 f   libcurl:url.obj
 0001:000206c0       _conn_free                 004216c0 f   libcurl:url.obj
 0001:00020870       _conn_maxage               00421870 f   libcurl:url.obj
 0001:000208e0       _conn_reset_all_postponed_data 004218e0 f   libcurl:url.obj
 0001:00020900       _conn_reset_postponed_data 00421900 f   libcurl:url.obj
 0001:00020940       _conn_shutdown             00421940 f   libcurl:url.obj
 0001:000209c0       _create_conn               004219c0 f   libcurl:url.obj
 0001:000211a0       _create_conn_helper_init_proxy 004221a0 f   libcurl:url.obj
 0001:000214a0       _detect_proxy              004224a0 f   libcurl:url.obj
 0001:000215c0       _extract_if_dead           004225c0 f   libcurl:url.obj
 0001:00021670       _findprotocol              00422670 f   libcurl:url.obj
 0001:000216d0       _get_protocol_family       004226d0 f   libcurl:url.obj
 0001:000216e0       _override_login            004226e0 f   libcurl:url.obj
 0001:000218c0       _parse_connect_to_host_port 004228c0 f   libcurl:url.obj
 0001:00021a70       _parse_connect_to_slist    00422a70 f   libcurl:url.obj
 0001:00021c60       _parse_connect_to_string   00422c60 f   libcurl:url.obj
 0001:00021d70       _parse_proxy               00422d70 f   libcurl:url.obj
 0001:00022110       _parse_proxy_auth          00423110 f   libcurl:url.obj
 0001:000221b0       _parse_remote_port         004231b0 f   libcurl:url.obj
 0001:00022240       _parseurlandfillconn       00423240 f   libcurl:url.obj
 0001:00022680       _proxy_info_matches        00423680 f   libcurl:url.obj
 0001:000226c0       _prune_dead_connections    004236c0 f   libcurl:url.obj
 0001:000227e0       _resolve_server            004237e0 f   libcurl:url.obj
 0001:00022a40       _reuse_conn                00423a40 f   libcurl:url.obj
 0001:00022d60       _set_login                 00423d60 f   libcurl:url.obj
 0001:00022de0       _setup_connection_internals 00423de0 f   libcurl:url.obj
 0001:00022e20       _setup_range               00423e20 f   libcurl:url.obj
 0001:00022ee0       _socks_proxy_info_matches  00423ee0 f   libcurl:url.obj
 0001:00022fb0       _strip_trailing_dot        00423fb0 f   libcurl:url.obj
 0001:00022fe0       _up_free                   00423fe0 f   libcurl:url.obj
 0001:000230c0       _zonefrom_url              004240c0 f   libcurl:url.obj
 0001:00023950       _chop_write                00424950 f   libcurl:sendf.obj
 0001:00023b00       _get_pre_recved            00424b00 f   libcurl:sendf.obj
 0001:00023b80       _pausewrite                00424b80 f   libcurl:sendf.obj
 0001:00023c10       _pre_receive_plain         00424c10 f   libcurl:sendf.obj
 0001:00024bf0       _ainext                    00425bf0 f   libcurl:connect.obj
 0001:00024c30       _bindlocal                 00425c30 f   libcurl:connect.obj
 0001:000251d0       _connect_SOCKS             004261d0 f   libcurl:connect.obj
 0001:000252d0       $LN27                      004262d0     libcurl:connect.obj
 0001:000252e0       _post_SOCKS                004262e0 f   libcurl:connect.obj
 0001:00025340       _singleipconnect           00426340 f   libcurl:connect.obj
 0001:000256e0       _tcpkeepalive              004266e0 f   libcurl:connect.obj
 0001:000257c0       _tcpnodelay                004267c0 f   libcurl:connect.obj
 0001:00025840       _trynextip                 00426840 f   libcurl:connect.obj
 0001:000258c0       _verifyconnect             004268c0 f   libcurl:connect.obj
 0001:000265a0       _alpn2alpnid               004275a0 f   libcurl:altsvc.obj
 0001:00026600       _altsvc_add                00427600 f   libcurl:altsvc.obj
 0001:00026700       _altsvc_create             00427700 f   libcurl:altsvc.obj
 0001:00026740       _altsvc_createid           00427740 f   libcurl:altsvc.obj
 0001:000267c0       _altsvc_flush              004277c0 f   libcurl:altsvc.obj
 0001:00026820       _altsvc_free               00427820 f   libcurl:altsvc.obj
 0001:00026850       _altsvc_load               00427850 f   libcurl:altsvc.obj
 0001:00026940       _altsvc_out                00427940 f   libcurl:altsvc.obj
 0001:000269e0       _getalnum                  004279e0 f   libcurl:altsvc.obj
 0001:00026c50       _raw_tolower               00427c50 f   libcurl:strcase.obj
 0001:00026c70       _error_init_writer         00427c70 f   libcurl:content_encoding.obj
 0001:00026c70       _identity_init_writer      00427c70 f   libcurl:content_encoding.obj
 0001:00026c90       _identity_unencode_write   00427c90 f   libcurl:content_encoding.obj
 0001:00026cb0       _client_init_writer        00427cb0 f   libcurl:content_encoding.obj
 0001:00026cd0       _client_unencode_write     00427cd0 f   libcurl:content_encoding.obj
 0001:00026d00       _error_unencode_write      00427d00 f   libcurl:content_encoding.obj
 0001:00026fb0       _find_encoding             00427fb0 f   libcurl:content_encoding.obj
 0001:00027020       _new_unencoding_writer     00428020 f   libcurl:content_encoding.obj
 0001:00027850       _hash_element_dtor         00428850 f   libcurl:hash.obj
 0001:00027890       _mk_hash_element           00428890 f   libcurl:hash.obj
 0001:00028460       _Curl_shuffle_addr         00429460 f   libcurl:hostip.obj
 0001:000285d0       _create_hostcache_id       004295d0 f   libcurl:hostip.obj
 0001:00028630       _fetch_addr                00429630 f   libcurl:hostip.obj
 0001:00028770       _freednsentry              00429770 f   libcurl:hostip.obj
 0001:000287a0       _hostcache_prune           004297a0 f   libcurl:hostip.obj
 0001:000287f0       _hostcache_timestamp_remove 004297f0 f   libcurl:hostip.obj
 0001:00028c60       _http_getsock_do           00429c60 f   libcurl:http.obj
 0001:00028c60       _rtsp_getsock_do           00429c60 f   libcurl:rtsp.obj
 0001:00028c80       _http_setup_conn           00429c80 f   libcurl:http.obj
 0001:0002a854       $LN106                     0042b854     libcurl:http.obj
 0001:0002b704       $LN18                      0042c704     libcurl:http.obj
 0001:0002c790       _add_haproxy_protocol_header 0042d790 f   libcurl:http.obj
 0001:0002c860       _checkhttpprefix           0042d860 f   libcurl:http.obj
 0001:0002c8d0       _checkprefixmax            0042d8d0 f   libcurl:http.obj
 0001:0002c920       _checkprotoprefix          0042d920 f   libcurl:http.obj
 0001:0002c960       _checkrtspprefix           0042d960 f   libcurl:http.obj
 0001:0002c990       _expect100                 0042d990 f   libcurl:http.obj
 0001:0002ca20       _get_http_string           0042da20 f   libcurl:http.obj
 0001:0002ca50       _http_output_basic         0042da50 f   libcurl:http.obj
 0001:0002cb60       _http_output_bearer        0042db60 f   libcurl:http.obj
 0001:0002cba0       _http_perhapsrewind        0042dba0 f   libcurl:http.obj
 0001:0002cd3c       $LN34                      0042dd3c     libcurl:http.obj
 0001:0002cd50       _http_should_fail          0042dd50 f   libcurl:http.obj
 0001:0002cdd0       _output_auth_headers       0042ddd0 f   libcurl:http.obj
 0001:0002cf60       _pickoneauth               0042df60 f   libcurl:http.obj
 0001:0002d030       _readmoredata              0042e030 f   libcurl:http.obj
 0001:0002d140       _use_http_1_1plus          0042e140 f   libcurl:http.obj
 0001:0002d230       _fileinfo_dtor             0042e230 f   libcurl:wildcard.obj
 0001:0002e7e0       _data_pending              0042f7e0 f   libcurl:transfer.obj
 0001:0002e800       _readwrite_data            0042f800 f   libcurl:transfer.obj
 0001:0002ee50       _readwrite_upload          0042fe50 f   libcurl:transfer.obj
 0001:0002f210       _trailers_left             00430210 f   libcurl:transfer.obj
 0001:0002f230       _trailers_read             00430230 f   libcurl:transfer.obj
 0001:0002f290       _win_update_buffer_size    00430290 f   libcurl:transfer.obj
 0001:0002f71c       $LN22                      0043071c     libcurl:progress.obj
 0001:0002f9b0       _max5data                  004309b0 f   libcurl:progress.obj
 0001:0002fba0       _progress_calc             00430ba0 f   libcurl:progress.obj
 0001:0002fec0       _progress_meter            00430ec0 f   libcurl:progress.obj
 0001:00030370       _time2str                  00431370 f   libcurl:progress.obj
 0001:000308f0       _our_select                004318f0 f   libcurl:select.obj
 0001:00030b40       _CONNECT                   00431b40 f   libcurl:http_proxy.obj
 0001:00031400       _CONNECT_host              00432400 f   libcurl:http_proxy.obj
 0001:000316b0       _connect_done              004326b0 f   libcurl:http_proxy.obj
 0001:000316e0       _connect_init              004326e0 f   libcurl:http_proxy.obj
 0001:00031770       _https_proxy_connect       00432770 f   libcurl:http_proxy.obj
 0001:00031770       _imap_perform_upgrade_tls  00432770 f   libcurl:imap.obj
 0001:00031770       _pop3_perform_upgrade_tls  00432770 f   libcurl:pop3.obj
 0001:00031770       _smtp_perform_upgrade_tls  00432770 f   libcurl:smtp.obj
 0001:00031dbc       $LN67                      00432dbc     libcurl:socks.obj
 0001:00031dd8       $LN58                      00432dd8     libcurl:socks.obj
 0001:00031de8       $LN68                      00432de8     libcurl:socks.obj
 0001:00032990       $LN152                     00433990     libcurl:socks.obj
 0001:00032a0c       $LN9                       00433a0c     libcurl:socks.obj
 0001:00032a14       $LN7                       00433a14     libcurl:socks.obj
 0001:00032a30       _socksstate                00433a30 f   libcurl:socks.obj
 0001:00032aa0       _addbyter                  00433aa0 f   libcurl:mprintf.obj
 0001:00032ad0       _alloc_addbyter            00433ad0 f   libcurl:mprintf.obj
 0001:00032c50       _dprintf_DollarString      00433c50 f   libcurl:mprintf.obj
 0001:00032cc0       _dprintf_IsQualifierNoDollar 00433cc0 f   libcurl:mprintf.obj
 0001:00032d14       $LN11                      00433d14     libcurl:mprintf.obj
 0001:00032d1c       $LN9                       00433d1c     libcurl:mprintf.obj
 0001:00032d80       _dprintf_Pass1             00433d80 f   libcurl:mprintf.obj
 0001:000332ec       $LN115                     004342ec     libcurl:mprintf.obj
 0001:00033328       $LN109                     00434328     libcurl:mprintf.obj
 0001:000333a4       $LN116                     004343a4     libcurl:mprintf.obj
 0001:000333e4       $LN110                     004343e4     libcurl:mprintf.obj
 0001:00033418       $LN117                     00434418     libcurl:mprintf.obj
 0001:00033440       _dprintf_formatf           00434440 f   libcurl:mprintf.obj
 0001:00033fb4       $LN368                     00434fb4     libcurl:mprintf.obj
 0001:00034260       _inet_pton4                00435260 f   libcurl:inet_pton.obj
 0001:00034320       _inet_pton6                00435320 f   libcurl:inet_pton.obj
 0001:000345d0       _checkday                  004355d0 f   libcurl:parsedate.obj
 0001:00034630       _checkmonth                00435630 f   libcurl:parsedate.obj
 0001:00034690       _checktz                   00435690 f   libcurl:parsedate.obj
 0001:000346d0       _parsedate                 004356d0 f   libcurl:parsedate.obj
 0001:00034b50       _skip                      00435b50 f   libcurl:parsedate.obj
 0001:00034b80       _time2epoch                00435b80 f   libcurl:parsedate.obj
 0001:00034d60       _randit                    00435d60 f   libcurl:rand.obj
 0001:000354f0       _gopher_do                 004364f0 f   libcurl:gopher.obj
 0001:00035700       _imap_perform_authenticate 00436700 f   libcurl:imap.obj
 0001:00035740       _imap_continue_authenticate 00436740 f   libcurl:imap.obj
 0001:00035740       _pop3_continue_auth        00436740 f   libcurl:pop3.obj
 0001:00035740       _smtp_continue_auth        00436740 f   libcurl:smtp.obj
 0001:00035770       _imap_get_message          00436770 f   libcurl:imap.obj
 0001:00035770       _pop3_get_message          00436770 f   libcurl:pop3.obj
 0001:000357f0       _imap_do                   004367f0 f   libcurl:imap.obj
 0001:00035830       _imap_done                 00436830 f   libcurl:imap.obj
 0001:00035980       _imap_connect              00436980 f   libcurl:imap.obj
 0001:00035a20       _imap_disconnect           00436a20 f   libcurl:imap.obj
 0001:00035ab0       _imap_multi_statemach      00436ab0 f   libcurl:imap.obj
 0001:00035ab0       _pop3_multi_statemach      00436ab0 f   libcurl:pop3.obj
 0001:00035ab0       _smtp_multi_statemach      00436ab0 f   libcurl:smtp.obj
 0001:00035b00       _ftp_getsock               00436b00 f   libcurl:ftp.obj
 0001:00035b00       _imap_getsock              00436b00 f   libcurl:imap.obj
 0001:00035b00       _pop3_getsock              00436b00 f   libcurl:pop3.obj
 0001:00035b00       _smtp_getsock              00436b00 f   libcurl:smtp.obj
 0001:00035b10       _imap_doing                00436b10 f   libcurl:imap.obj
 0001:00035b10       _smtp_doing                00436b10 f   libcurl:smtp.obj
 0001:00035b40       _imap_setup_connection     00436b40 f   libcurl:imap.obj
 0001:00035b60       _imap_atom                 00436b60 f   libcurl:imap.obj
 0001:00035cc0       _imap_block_statemach      00436cc0 f   libcurl:imap.obj
 0001:00035cc0       _pop3_block_statemach      00436cc0 f   libcurl:pop3.obj
 0001:00035cc0       _smtp_block_statemach      00436cc0 f   libcurl:smtp.obj
 0001:00035d10       _imap_dophase_done         00436d10 f   libcurl:imap.obj
 0001:00035d10       _smtp_dophase_done         00436d10 f   libcurl:smtp.obj
 0001:00035d40       _imap_endofresp            00436d40 f   libcurl:imap.obj
 0001:00036080       $LN41                      00437080     libcurl:imap.obj
 0001:00036098       $LN37                      00437098     libcurl:imap.obj
 0001:000360b0       _imap_init                 004370b0 f   libcurl:imap.obj
 0001:000360e0       _imap_is_bchar             004370e0 f   libcurl:imap.obj
 0001:00036108       $LN9                       00437108     libcurl:imap.obj
 0001:00036110       $LN7                       00437110     libcurl:imap.obj
 0001:00036170       _imap_matchresp            00437170 f   libcurl:imap.obj
 0001:00036200       _imap_parse_custom_request 00437200 f   libcurl:imap.obj
 0001:00036280       _imap_parse_url_options    00437280 f   libcurl:imap.obj
 0001:00036350       _imap_parse_url_path       00437350 f   libcurl:imap.obj
 0001:00036620       _imap_perform              00437620 f   libcurl:imap.obj
 0001:00036750       _imap_perform_append       00437750 f   libcurl:imap.obj
 0001:000368b0       _imap_perform_authentication 004378b0 f   libcurl:imap.obj
 0001:00036970       _imap_perform_capability   00437970 f   libcurl:imap.obj
 0001:000369c0       _imap_perform_fetch        004379c0 f   libcurl:imap.obj
 0001:00036a90       _imap_perform_list         00437a90 f   libcurl:imap.obj
 0001:00036b30       _imap_perform_login        00437b30 f   libcurl:imap.obj
 0001:00036bd0       _imap_perform_logout       00437bd0 f   libcurl:imap.obj
 0001:00036c00       _imap_perform_search       00437c00 f   libcurl:imap.obj
 0001:00036c60       _imap_perform_select       00437c60 f   libcurl:imap.obj
 0001:00036d10       _imap_perform_starttls     00437d10 f   libcurl:imap.obj
 0001:00036d40       _imap_regular_transfer     00437d40 f   libcurl:imap.obj
 0001:00036dc0       _imap_sendf                00437dc0 f   libcurl:imap.obj
 0001:00036e60       _imap_state_append_final_resp 00437e60 f   libcurl:imap.obj
 0001:00036e90       _imap_state_append_resp    00437e90 f   libcurl:imap.obj
 0001:00036ee0       _imap_state_auth_resp      00437ee0 f   libcurl:imap.obj
 0001:00036f60       _imap_state_capability_resp 00437f60 f   libcurl:imap.obj
 0001:00037100       _imap_state_fetch_final_resp 00438100 f   libcurl:imap.obj
 0001:00037130       _imap_state_fetch_resp     00438130 f   libcurl:imap.obj
 0001:00037350       _imap_state_listsearch_resp 00438350 f   libcurl:imap.obj
 0001:000373b0       _imap_state_login_resp     004383b0 f   libcurl:imap.obj
 0001:000373f0       _imap_state_select_resp    004383f0 f   libcurl:imap.obj
 0001:00037550       _imap_state_servergreet_resp 00438550 f   libcurl:imap.obj
 0001:000375b0       _imap_state_starttls_resp  004385b0 f   libcurl:imap.obj
 0001:00037600       _imap_statemachine         00438600 f   libcurl:imap.obj
 0001:00037764       $LN44                      00438764     libcurl:imap.obj
 0001:000377a0       _state                     004387a0 f   libcurl:imap.obj
 0001:000377a0       _state                     004387a0 f   libcurl:pop3.obj
 0001:000377a0       _state                     004387a0 f   libcurl:smtp.obj
 0001:000377c0       _pop3_do                   004387c0 f   libcurl:pop3.obj
 0001:00037800       _pop3_done                 00438800 f   libcurl:pop3.obj
 0001:00037860       _pop3_connect              00438860 f   libcurl:pop3.obj
 0001:000378f0       _pop3_disconnect           004388f0 f   libcurl:pop3.obj
 0001:00037960       _pop3_doing                00438960 f   libcurl:pop3.obj
 0001:00037990       _pop3_setup_connection     00438990 f   libcurl:pop3.obj
 0001:000379b0       _pop3_perform_auth         004389b0 f   libcurl:pop3.obj
 0001:000379b0       _smtp_perform_auth         004389b0 f   libcurl:smtp.obj
 0001:00037b70       _pop3_endofresp            00438b70 f   libcurl:pop3.obj
 0001:00037c00       _pop3_init                 00438c00 f   libcurl:pop3.obj
 0001:00037c30       _pop3_parse_custom_request 00438c30 f   libcurl:pop3.obj
 0001:00037c60       _pop3_parse_url_options    00438c60 f   libcurl:pop3.obj
 0001:00037d80       _pop3_parse_url_path       00438d80 f   libcurl:pop3.obj
 0001:00037db0       _pop3_perform              00438db0 f   libcurl:pop3.obj
 0001:00037e00       _pop3_perform_apop         00438e00 f   libcurl:pop3.obj
 0001:00037f40       _pop3_perform_authentication 00438f40 f   libcurl:pop3.obj
 0001:00038010       _pop3_perform_capa         00439010 f   libcurl:pop3.obj
 0001:00038060       _pop3_perform_command      00439060 f   libcurl:pop3.obj
 0001:00038100       _pop3_perform_quit         00439100 f   libcurl:pop3.obj
 0001:00038140       _pop3_perform_starttls     00439140 f   libcurl:pop3.obj
 0001:00038180       _pop3_perform_user         00439180 f   libcurl:pop3.obj
 0001:000381e0       _pop3_regular_transfer     004391e0 f   libcurl:pop3.obj
 0001:00038260       _pop3_state_apop_resp      00439260 f   libcurl:pop3.obj
 0001:000382a0       _pop3_state_auth_resp      004392a0 f   libcurl:pop3.obj
 0001:00038330       _pop3_state_capa_resp      00439330 f   libcurl:pop3.obj
 0001:000384a0       _pop3_state_command_resp   004394a0 f   libcurl:pop3.obj
 0001:00038550       _pop3_state_pass_resp      00439550 f   libcurl:pop3.obj
 0001:00038590       _pop3_state_servergreet_resp 00439590 f   libcurl:pop3.obj
 0001:000386b0       _pop3_state_starttls_resp  004396b0 f   libcurl:pop3.obj
 0001:00038700       _pop3_state_user_resp      00439700 f   libcurl:pop3.obj
 0001:00038770       _pop3_statemachine         00439770 f   libcurl:pop3.obj
 0001:00038890       $LN39                      00439890     libcurl:pop3.obj
 0001:000388c0       _smtp_get_message          004398c0 f   libcurl:smtp.obj
 0001:00038940       _smtp_do                   00439940 f   libcurl:smtp.obj
 0001:00038970       _smtp_done                 00439970 f   libcurl:smtp.obj
 0001:00038af0       _smtp_connect              00439af0 f   libcurl:smtp.obj
 0001:00038b80       _smtp_disconnect           00439b80 f   libcurl:smtp.obj
 0001:00038bf0       _smtp_setup_connection     00439bf0 f   libcurl:smtp.obj
 0001:00038df0       _smtp_endofresp            00439df0 f   libcurl:smtp.obj
 0001:00038f10       _smtp_init                 00439f10 f   libcurl:smtp.obj
 0001:00038f40       _smtp_parse_address        00439f40 f   libcurl:smtp.obj
 0001:00038fc0       _smtp_parse_custom_request 00439fc0 f   libcurl:smtp.obj
 0001:00038ff0       _smtp_parse_url_options    00439ff0 f   libcurl:smtp.obj
 0001:00039090       _smtp_parse_url_path       0043a090 f   libcurl:smtp.obj
 0001:00039110       _smtp_perform              0043a110 f   libcurl:smtp.obj
 0001:000391a0       _smtp_perform_authentication 0043a1a0 f   libcurl:smtp.obj
 0001:00039230       _smtp_perform_command      0043a230 f   libcurl:smtp.obj
 0001:000393c0       _smtp_perform_ehlo         0043a3c0 f   libcurl:smtp.obj
 0001:00039410       _smtp_perform_helo         0043a410 f   libcurl:smtp.obj
 0001:00039450       _smtp_perform_mail         0043a450 f   libcurl:smtp.obj
 0001:00039870       _smtp_perform_quit         0043a870 f   libcurl:smtp.obj
 0001:000398b0       _smtp_perform_rcpt_to      0043a8b0 f   libcurl:smtp.obj
 0001:00039960       _smtp_perform_starttls     0043a960 f   libcurl:smtp.obj
 0001:000399a0       _smtp_regular_transfer     0043a9a0 f   libcurl:smtp.obj
 0001:00039a20       _smtp_state_auth_resp      0043aa20 f   libcurl:smtp.obj
 0001:00039a80       _smtp_state_command_resp   0043aa80 f   libcurl:smtp.obj
 0001:00039b70       _smtp_state_data_resp      0043ab70 f   libcurl:smtp.obj
 0001:00039bd0       _smtp_state_ehlo_resp      0043abd0 f   libcurl:smtp.obj
 0001:00039de0       _smtp_state_helo_resp      0043ade0 f   libcurl:smtp.obj
 0001:00039e20       _smtp_state_mail_resp      0043ae20 f   libcurl:smtp.obj
 0001:00039e60       _smtp_state_postdata_resp  0043ae60 f   libcurl:smtp.obj
 0001:00039e90       _smtp_state_rcpt_resp      0043ae90 f   libcurl:smtp.obj
 0001:00039f60       _smtp_state_servergreet_resp 0043af60 f   libcurl:smtp.obj
 0001:00039fa0       _smtp_state_starttls_resp  0043afa0 f   libcurl:smtp.obj
 0001:00039ff0       _smtp_statemachine         0043aff0 f   libcurl:smtp.obj
 0001:0003a13c       $LN42                      0043b13c     libcurl:smtp.obj
 0001:0003a170       _ftp_do                    0043b170 f   libcurl:ftp.obj
 0001:0003a1e0       _ftp_done                  0043b1e0 f   libcurl:ftp.obj
 0001:0003a6b8       $LN94                      0043b6b8     libcurl:ftp.obj
 0001:0003a6c0       $LN60                      0043b6c0     libcurl:ftp.obj
 0001:0003a710       _ftp_connect               0043b710 f   libcurl:ftp.obj
 0001:0003a790       _ftp_disconnect            0043b790 f   libcurl:ftp.obj
 0001:0003a820       _ftp_do_more               0043b820 f   libcurl:ftp.obj
 0001:0003aa80       _ftp_multi_statemach       0043ba80 f   libcurl:ftp.obj
 0001:0003aab0       _ftp_domore_getsock        0043bab0 f   libcurl:ftp.obj
 0001:0003ab60       _ftp_doing                 0043bb60 f   libcurl:ftp.obj
 0001:0003ab90       _ftp_setup_connection      0043bb90 f   libcurl:ftp.obj
 0001:0003ac50       _AcceptServerConnect       0043bc50 f   libcurl:ftp.obj
 0001:0003ad90       _AllowServerConnect        0043bd90 f   libcurl:ftp.obj
 0001:0003afb0       _InitiateTransfer          0043bfb0 f   libcurl:ftp.obj
 0001:0003b050       _ReceivedServerConnect     0043c050 f   libcurl:ftp.obj
 0001:0003b1a0       __state                    0043c1a0 f   libcurl:ftp.obj
 0001:0003b1c0       _close_secondarysocket     0043c1c0 f   libcurl:ftp.obj
 0001:0003b200       _control_address           0043c200 f   libcurl:ftp.obj
 0001:0003b230       _freedirs                  0043c230 f   libcurl:ftp.obj
 0001:0003b2b0       _ftp_block_statemach       0043c2b0 f   libcurl:ftp.obj
 0001:0003b300       _ftp_dophase_done          0043c300 f   libcurl:ftp.obj
 0001:0003b390       _ftp_endofresp             0043c390 f   libcurl:ftp.obj
 0001:0003b400       _ftp_epsv_disable          0043c400 f   libcurl:ftp.obj
 0001:0003b490       _ftp_nb_type               0043c490 f   libcurl:ftp.obj
 0001:0003b510       _ftp_need_type             0043c510 f   libcurl:ftp.obj
 0001:0003b540       _ftp_parse_url_path        0043c540 f   libcurl:ftp.obj
 0001:0003b850       _ftp_pasv_verbose          0043c850 f   libcurl:ftp.obj
 0001:0003b8b0       _ftp_perform               0043c8b0 f   libcurl:ftp.obj
 0001:0003b920       _ftp_quit                  0043c920 f   libcurl:ftp.obj
 0001:0003b9a0       _ftp_readresp              0043c9a0 f   libcurl:ftp.obj
 0001:0003ba00       _ftp_regular_transfer      0043ca00 f   libcurl:ftp.obj
 0001:0003bab0       _ftp_sendquote             0043cab0 f   libcurl:ftp.obj
 0001:0003bb70       _ftp_state_acct_resp       0043cb70 f   libcurl:ftp.obj
 0001:0003bbb0       _ftp_state_cwd             0043cbb0 f   libcurl:ftp.obj
 0001:0003bc60       _ftp_state_get_resp        0043cc60 f   libcurl:ftp.obj
 0001:0003be80       _ftp_state_list            0043ce80 f   libcurl:ftp.obj
 0001:0003bf90       _ftp_state_loggedin        0043cf90 f   libcurl:ftp.obj
 0001:0003bfe0       _ftp_state_mdtm            0043cfe0 f   libcurl:ftp.obj
 0001:0003c040       _ftp_state_mdtm_resp       0043d040 f   libcurl:ftp.obj
 0001:0003c2f0       _ftp_state_pasv_resp       0043d2f0 f   libcurl:ftp.obj
 0001:0003c7b0       _ftp_state_port_resp       0043d7b0 f   libcurl:ftp.obj
 0001:0003c840       _ftp_state_prepare_transfer 0043d840 f   libcurl:ftp.obj
 0001:0003c910       _ftp_state_pwd             0043d910 f   libcurl:ftp.obj
 0001:0003c950       _ftp_state_quote           0043d950 f   libcurl:ftp.obj
 0001:0003cb10       _ftp_state_rest            0043db10 f   libcurl:ftp.obj
 0001:0003cb70       _ftp_state_rest_resp       0043db70 f   libcurl:ftp.obj
 0001:0003cc60       _ftp_state_retr            0043dc60 f   libcurl:ftp.obj
 0001:0003ce30       _ftp_state_retr_prequote   0043de30 f   libcurl:ftp.obj
 0001:0003ce50       _ftp_state_size            0043de50 f   libcurl:ftp.obj
 0001:0003ceb0       _ftp_state_size_resp       0043deb0 f   libcurl:ftp.obj
 0001:0003d090       _ftp_state_stor_prequote   0043e090 f   libcurl:ftp.obj
 0001:0003d0b0       _ftp_state_stor_resp       0043e0b0 f   libcurl:ftp.obj
 0001:0003d140       _ftp_state_type            0043e140 f   libcurl:ftp.obj
 0001:0003d1b0       _ftp_state_type_resp       0043e1b0 f   libcurl:ftp.obj
 0001:0003d260       _ftp_state_ul_setup        0043e260 f   libcurl:ftp.obj
 0001:0003d4c0       _ftp_state_use_pasv        0043e4c0 f   libcurl:ftp.obj
 0001:0003d540       _ftp_state_use_port        0043e540 f   libcurl:ftp.obj
 0001:0003de80       _ftp_state_user            0043ee80 f   libcurl:ftp.obj
 0001:0003ded0       _ftp_state_user_resp       0043eed0 f   libcurl:ftp.obj
 0001:0003dff0       _ftp_statemachine          0043eff0 f   libcurl:ftp.obj
 0001:0003e7fc       $LN150                     0043f7fc     libcurl:ftp.obj
 0001:0003e880       _ftp_timeleft_accept       0043f880 f   libcurl:ftp.obj
 0001:0003e940       _init_wc_data              0043f940 f   libcurl:ftp.obj
 0001:0003eac0       _wc_data_dtor              0043fac0 f   libcurl:ftp.obj
 0001:0003eaf0       _wc_statemach              0043faf0 f   libcurl:ftp.obj
 0001:0003ed88       $LN38                      0043fd88     libcurl:ftp.obj
 0001:0003edb0       _file_do                   0043fdb0 f   libcurl:file.obj
 0001:0003f270       _file_done                 00440270 f   libcurl:file.obj
 0001:0003f2c0       _file_connect              004402c0 f   libcurl:file.obj
 0001:0003f3c0       _file_disconnect           004403c0 f   libcurl:file.obj
 0001:0003f3e0       _file_setup_connection     004403e0 f   libcurl:file.obj
 0001:0003f410       _file_upload               00440410 f   libcurl:file.obj
 0001:0003f680       _dict_do                   00440680 f   libcurl:dict.obj
 0001:0003f920       _sendf                     00440920 f   libcurl:dict.obj
 0001:0003f9d0       _unescape_word             004409d0 f   libcurl:dict.obj
 0001:0003fa70       _telnet_do                 00440a70 f   libcurl:telnet.obj
 0001:0003fe20       _telnet_done               00440e20 f   libcurl:telnet.obj
 0001:0003fe70       _check_telnet_options      00440e70 f   libcurl:telnet.obj
 0001:00040180       _init_telnet               00441180 f   libcurl:telnet.obj
 0001:00040200       _negotiate                 00441200 f   libcurl:telnet.obj
 0001:00040250       _printoption               00441250 f   libcurl:telnet.obj
 0001:00040350       _printsub                  00441350 f   libcurl:telnet.obj
 0001:00040618       $LN73                      00441618     libcurl:telnet.obj
 0001:00040620       $LN60                      00441620     libcurl:telnet.obj
 0001:00040630       $LN74                      00441630     libcurl:telnet.obj
 0001:00040640       _rec_do                    00441640 f   libcurl:telnet.obj
 0001:00040740       _rec_dont                  00441740 f   libcurl:telnet.obj
 0001:000407e0       _rec_will                  004417e0 f   libcurl:telnet.obj
 0001:000408b0       _rec_wont                  004418b0 f   libcurl:telnet.obj
 0001:00040960       _send_negotiation          00441960 f   libcurl:telnet.obj
 0001:000409c0       _send_telnet_data          004419c0 f   libcurl:telnet.obj
 0001:00040ae0       _sendsuboption             00441ae0 f   libcurl:telnet.obj
 0001:00040c50       _set_local_option          00441c50 f   libcurl:telnet.obj
 0001:00040cf0       _set_remote_option         00441cf0 f   libcurl:telnet.obj
 0001:00040da0       _suboption                 00441da0 f   libcurl:telnet.obj
 0001:00041030       _telrcv                    00442030 f   libcurl:telnet.obj
 0001:0004139c       $LN88                      0044239c     libcurl:telnet.obj
 0001:000413c0       $LN89                      004423c0     libcurl:telnet.obj
 0001:000413e0       _tftp_connect              004423e0 f   libcurl:tftp.obj
 0001:000415c0       _tftp_disconnect           004425c0 f   libcurl:tftp.obj
 0001:00041610       _tftp_do                   00442610 f   libcurl:tftp.obj
 0001:00041670       _tftp_done                 00442670 f   libcurl:tftp.obj
 0001:000416b0       _tftp_setup_connection     004426b0 f   libcurl:tftp.obj
 0001:00041730       _tftp_multi_statemach      00442730 f   libcurl:tftp.obj
 0001:00041840       _tftp_doing                00442840 f   libcurl:tftp.obj
 0001:000418a0       _mqtt_getsock              004428a0 f   libcurl:mqtt.obj
 0001:000418a0       _tftp_getsock              004428a0 f   libcurl:tftp.obj
 0001:000418c0       _getrpacketblock           004428c0 f   libcurl:tftp.obj
 0001:000418e0       _getrpacketevent           004428e0 f   libcurl:tftp.obj
 0001:00041900       _setpacketblock            00442900 f   libcurl:tftp.obj
 0001:00041920       _setpacketevent            00442920 f   libcurl:tftp.obj
 0001:00041940       _tftp_connect_for_rx       00442940 f   libcurl:tftp.obj
 0001:00041980       _tftp_connect_for_tx       00442980 f   libcurl:tftp.obj
 0001:000419c0       _tftp_option_add           004429c0 f   libcurl:tftp.obj
 0001:00041a30       _tftp_option_get           00442a30 f   libcurl:tftp.obj
 0001:00041aa0       _tftp_parse_option_ack     00442aa0 f   libcurl:tftp.obj
 0001:00041cb0       _tftp_perform              00442cb0 f   libcurl:tftp.obj
 0001:00041cf0       _tftp_receive_packet       00442cf0 f   libcurl:tftp.obj
 0001:00041f0c       $LN20                      00442f0c     libcurl:tftp.obj
 0001:00041f20       _tftp_rx                   00442f20 f   libcurl:tftp.obj
 0001:000421dc       $LN28                      004431dc     libcurl:tftp.obj
 0001:000421f0       _tftp_send_first           004431f0 f   libcurl:tftp.obj
 0001:0004260c       $LN40                      0044360c     libcurl:tftp.obj
 0001:00042630       _tftp_set_timeouts         00443630 f   libcurl:tftp.obj
 0001:00042730       _tftp_state_machine        00443730 f   libcurl:tftp.obj
 0001:00042794       $LN25                      00443794     libcurl:tftp.obj
 0001:000427b0       _tftp_state_timeout        004437b0 f   libcurl:tftp.obj
 0001:00042860       _tftp_strnlen              00443860 f   libcurl:tftp.obj
 0001:00042890       _tftp_translate_code       00443890 f   libcurl:tftp.obj
 0001:000428fc       $LN19                      004438fc     libcurl:tftp.obj
 0001:00042924       $LN17                      00443924     libcurl:tftp.obj
 0001:00042990       _tftp_tx                   00443990 f   libcurl:tftp.obj
 0001:00042d08       $LN37                      00443d08     libcurl:tftp.obj
 0001:00042d20       _ldap_do                   00443d20 f   libcurl:ldap.obj
 0001:000433c0       __ldap_free_urldesc        004443c0 f   libcurl:ldap.obj
 0001:00043420       __ldap_url_parse           00444420 f   libcurl:ldap.obj
 0001:00043480       __ldap_url_parse2          00444480 f   libcurl:ldap.obj
 0001:00043730       _ldap_win_bind             00444730 f   libcurl:ldap.obj
 0001:000437b0       _split_str                 004447b0 f   libcurl:ldap.obj
 0001:00043850       _str2scope                 00444850 f   libcurl:ldap.obj
 0001:000438d0       _rtsp_do                   004448d0 f   libcurl:rtsp.obj
 0001:00044034       $LN115                     00445034     libcurl:rtsp.obj
 0001:00044070       _rtsp_done                 00445070 f   libcurl:rtsp.obj
 0001:00044110       _rtsp_connect              00445110 f   libcurl:rtsp.obj
 0001:00044160       _rtsp_disconnect           00445160 f   libcurl:rtsp.obj
 0001:00044190       _rtsp_rtp_readwrite        00445190 f   libcurl:rtsp.obj
 0001:00044360       _rtsp_setup_connection     00445360 f   libcurl:rtsp.obj
 0001:00044390       _rtsp_conncheck            00445390 f   libcurl:rtsp.obj
 0001:00044560       _rtp_client_write          00445560 f   libcurl:rtsp.obj
 0001:00044610       _rtsp_connisdead           00445610 f   libcurl:rtsp.obj
 0001:00044660       _smb_setup_connection      00445660 f   libcurl:smb.obj
 0001:00044690       _smb_connect               00445690 f   libcurl:smb.obj
 0001:00044770       _smb_connection_state      00445770 f   libcurl:smb.obj
 0001:000448b0       _smb_do                    004458b0 f   libcurl:smb.obj
 0001:000448e0       _smb_request_state         004458e0 f   libcurl:smb.obj
 0001:00044cfc       $LN55                      00445cfc     libcurl:smb.obj
 0001:00044d14       $LN56                      00445d14     libcurl:smb.obj
 0001:00044d30       _smb_done                  00445d30 f   libcurl:smb.obj
 0001:00044d60       _smb_disconnect            00445d60 f   libcurl:smb.obj
 0001:00044dc0       _smb_getsock               00445dc0 f   libcurl:smb.obj
 0001:00044de0       _conn_state                00445de0 f   libcurl:smb.obj
 0001:00044e00       _get_posix_time            00445e00 f   libcurl:smb.obj
 0001:00044e30       _request_state             00445e30 f   libcurl:smb.obj
 0001:00044e50       _smb_flush                 00445e50 f   libcurl:smb.obj
 0001:00044eb0       _smb_format_message        00445eb0 f   libcurl:smb.obj
 0001:00044f30       _smb_parse_url_path        00445f30 f   libcurl:smb.obj
 0001:00045010       _smb_pop_message           00446010 f   libcurl:smb.obj
 0001:00045030       _smb_recv_message          00446030 f   libcurl:smb.obj
 0001:000450e0       _smb_send                  004460e0 f   libcurl:smb.obj
 0001:00045130       _smb_send_and_recv         00446130 f   libcurl:smb.obj
 0001:000451e0       _smb_send_close            004461e0 f   libcurl:smb.obj
 0001:00045220       _smb_send_message          00446220 f   libcurl:smb.obj
 0001:00045270       _smb_send_negotiate        00446270 f   libcurl:smb.obj
 0001:00045290       _smb_send_open             00446290 f   libcurl:smb.obj
 0001:000453a0       _smb_send_read             004463a0 f   libcurl:smb.obj
 0001:00045410       _smb_send_setup            00446410 f   libcurl:smb.obj
 0001:00045610       _smb_send_tree_connect     00446610 f   libcurl:smb.obj
 0001:00045770       _smb_send_tree_disconnect  00446770 f   libcurl:smb.obj
 0001:000457a0       _smb_send_write            004467a0 f   libcurl:smb.obj
 0001:00045870       _mqtt_do                   00446870 f   libcurl:mqtt.obj
 0001:000458c0       _mqtt_doing                004468c0 f   libcurl:mqtt.obj
 0001:00045b10       $LN44                      00446b10     libcurl:mqtt.obj
 0001:00045b30       _mqtt_setup_conn           00446b30 f   libcurl:mqtt.obj
 0001:00045b60       _mqstate                   00446b60 f   libcurl:mqtt.obj
 0001:00045b90       _mqtt_connect              00446b90 f   libcurl:mqtt.obj
 0001:00045c50       _mqtt_decode_len           00446c50 f   libcurl:mqtt.obj
 0001:00045ca0       _mqtt_disconnect           00446ca0 f   libcurl:mqtt.obj
 0001:00045cc0       _mqtt_encode_len           00446cc0 f   libcurl:mqtt.obj
 0001:00045cf0       _mqtt_get_topic            00446cf0 f   libcurl:mqtt.obj
 0001:00045d50       _mqtt_publish              00446d50 f   libcurl:mqtt.obj
 0001:00045e60       _mqtt_read_publish         00446e60 f   libcurl:mqtt.obj
 0001:00046028       $LN28                      00447028     libcurl:mqtt.obj
 0001:00046040       _mqtt_send                 00447040 f   libcurl:mqtt.obj
 0001:000460c0       _mqtt_subscribe            004470c0 f   libcurl:mqtt.obj
 0001:000461c0       _mqtt_verify_connack       004471c0 f   libcurl:mqtt.obj
 0001:00046240       _mqtt_verify_suback        00447240 f   libcurl:mqtt.obj
 0001:000462b0       _GetEnv                    004472b0 f   libcurl:getenv.obj
 0001:00046410       _Curl_parse_port           00447410 f   libcurl:urlapi.obj
 0001:00046590       _concat_url                00447590 f   libcurl:urlapi.obj
 0001:00046d88       $LN87                      00447d88     libcurl:urlapi.obj
 0001:000472e0       $LN123                     004482e0     libcurl:urlapi.obj
 0001:0004730c       $LN124                     0044830c     libcurl:urlapi.obj
 0001:00047340       _find_host_sep             00448340 f   libcurl:urlapi.obj
 0001:000473b0       _free_urlhandle            004483b0 f   libcurl:urlapi.obj
 0001:00047430       _hostname_check            00448430 f   libcurl:urlapi.obj
 0001:000475b0       _junkscan                  004485b0 f   libcurl:urlapi.obj
 0001:000475f0       _mv_urlhandle              004485f0 f   libcurl:urlapi.obj
 0001:00047630       _parse_hostname_login      00448630 f   libcurl:urlapi.obj
 0001:00047710       _parseurl                  00448710 f   libcurl:urlapi.obj
 0001:00047750       _seturl                    00448750 f   libcurl:urlapi.obj
 0001:00047d60       _strcpy_url                00448d60 f   libcurl:urlapi.obj
 0001:00047e10       _strlen_url                00448e10 f   libcurl:urlapi.obj
 0001:00047e90       _urlchar_needs_escaping    00448e90 f   libcurl:urlapi.obj
 0001:00048110       _parsenetrc                00449110 f   libcurl:netrc.obj
 0001:000488f0       _blobcmp                   004498f0 f   libcurl:vtls.obj
 0001:00048990       _blobdup                   00449990 f   libcurl:vtls.obj
 0001:00048a18       $LN9                       00449a18     libcurl:escape.obj
 0001:00048a20       $LN7                       00449a20     libcurl:escape.obj
 0001:00049278       $LN95                      0044a278     libcurl:strerror.obj
 0001:00049400       _get_winapi_error          0044a400 f   libcurl:strerror.obj
 0001:000494b0       _get_winsock_error         0044a4b0 f   libcurl:strerror.obj
 0001:000496e8       $LN61                      0044a6e8     libcurl:strerror.obj
 0001:000497a4       $LN58                      0044a7a4     libcurl:strerror.obj
 0001:00049900       _inet_ntop4                0044a900 f   libcurl:inet_ntop.obj
 0001:000499a0       _inet_ntop6                0044a9a0 f   libcurl:inet_ntop.obj
 0001:00049d2c       $LN18                      0044ad2c     libcurl:version_win32.obj
 0001:00049d94       $LN10                      0044ad94     libcurl:digest.obj
 0001:0004a904       $LN33                      0044b904     libcurl:digest.obj
 0001:0004a918       $LN28                      0044b918     libcurl:digest.obj
 0001:0004a970       _auth_create_digest_http_message 0044b970 f   libcurl:digest.obj
 0001:0004ae10       _auth_decode_digest_md5_message 0044be10 f   libcurl:digest.obj
 0001:0004af00       _auth_digest_get_key_value 0044bf00 f   libcurl:digest.obj
 0001:0004af70       _auth_digest_get_qop_values 0044bf70 f   libcurl:digest.obj
 0001:0004b030       _auth_digest_md5_to_ascii  0044c030 f   libcurl:digest.obj
 0001:0004b070       _auth_digest_sha256_to_ascii 0044c070 f   libcurl:digest.obj
 0001:0004b0b0       _auth_digest_string_quoted 0044c0b0 f   libcurl:digest.obj
 0001:0004b164       $LN16                      0044c164     libcurl:http_chunks.obj
 0001:0004b520       $LN74                      0044c520     libcurl:http_chunks.obj
 0001:0004b940       _de_cleanup                0044c940 f   libcurl:doh.obj
 0001:0004b970       _de_init                   0044c970 f   libcurl:doh.obj
 0001:0004b9c0       _doh2ai                    0044c9c0 f   libcurl:doh.obj
 0001:0004bb10       _doh_decode                0044cb10 f   libcurl:doh.obj
 0001:0004be10       _doh_done                  0044ce10 f   libcurl:doh.obj
 0001:0004be90       _doh_encode                0044ce90 f   libcurl:doh.obj
 0001:0004bf90       _doh_strerror              0044cf90 f   libcurl:doh.obj
 0001:0004bfb0       _doh_write_cb              0044cfb0 f   libcurl:doh.obj
 0001:0004bfe0       _dohprobe                  0044cfe0 f   libcurl:doh.obj
 0001:0004c620       _get16bit                  0044d620 f   libcurl:doh.obj
 0001:0004c640       _get32bit                  0044d640 f   libcurl:doh.obj
 0001:0004c670       _rdata                     0044d670 f   libcurl:doh.obj
 0001:0004c6f0       _showdoh                   0044d6f0 f   libcurl:doh.obj
 0001:0004c880       _skipqname                 0044d880 f   libcurl:doh.obj
 0001:0004c8f0       _store_a                   0044d8f0 f   libcurl:doh.obj
 0001:0004c930       _store_aaaa                0044d930 f   libcurl:doh.obj
 0001:0004c970       _store_cname               0044d970 f   libcurl:doh.obj
 0001:0004ca90       _type2name                 0044da90 f   libcurl:doh.obj
 0001:0004cd70       _setname                   0044dd70 f   libcurl:formdata.obj
 0001:0004cf40       _base64_encode             0044df40 f   libcurl:base64.obj
 0001:0004d100       _decodeQuantum             0044e100 f   libcurl:base64.obj
 0001:0004d970       _ntlm_decode_type2_target  0044e970 f   libcurl:ntlm.obj
 0001:0004da20       _ascii_to_unicode_le       0044ea20 f   libcurl:curl_ntlm_core.obj
 0001:0004da20       _unicodecpy                0044ea20 f   libcurl:ntlm.obj
 0001:0004e420       _sha256_to_hex             0044f420 f   libcurl:http_aws_sigv4.obj
 0001:0004f0cc       $LN56                      004500cc     libcurl:curl_sasl.obj
 0001:0004f690       _state                     00450690 f   libcurl:curl_sasl.obj
 0001:0004f6a0       _MD5_Init                  004506a0 f   libcurl:md5.obj
 0001:0004f6e0       _MD4_Update                004506e0 f   libcurl:md4.obj
 0001:0004f6e0       _MD5_Update                004506e0 f   libcurl:md5.obj
 0001:0004f6e0       _SHA256_Update             004506e0 f   libcurl:sha256.obj
 0001:0004f700       _MD4_Final                 00450700 f   libcurl:md4.obj
 0001:0004f700       _MD5_Final                 00450700 f   libcurl:md5.obj
 0001:00050340       $LN287                     00451340     libcurl:ftplistparser.obj
 0001:00050350       $LN288                     00451350     libcurl:ftplistparser.obj
 0001:00050378       $LN289                     00451378     libcurl:ftplistparser.obj
 0001:0005039c       $LN266                     0045139c     libcurl:ftplistparser.obj
 0001:000503e4       $LN290                     004513e4     libcurl:ftplistparser.obj
 0001:000503fc       $LN291                     004513fc     libcurl:ftplistparser.obj
 0001:00050460       _ftp_pl_get_permission     00451460 f   libcurl:ftplistparser.obj
 0001:00050590       _ftp_pl_insert_finfo       00451590 f   libcurl:ftplistparser.obj
 0001:00050c00       _ascii_uppercase_to_unicode_le 00451c00 f   libcurl:curl_ntlm_core.obj
 0001:00050c40       _encrypt_des               00451c40 f   libcurl:curl_ntlm_core.obj
 0001:00050d40       _extend_key_56_to_64       00451d40 f   libcurl:curl_ntlm_core.obj
 0001:00050dd0       _time2filetime             00451dd0 f   libcurl:curl_ntlm_core.obj
 0001:00051150       _SHA256_Init               00452150 f   libcurl:sha256.obj
 0001:00051190       _SHA256_Final              00452190 f   libcurl:sha256.obj
 0001:00051820       _charclass                 00452820 f   libcurl:curl_fnmatch.obj
 0001:00051870       _loop                      00452870 f   libcurl:curl_fnmatch.obj
 0001:00051a84       $LN84                      00452a84     libcurl:curl_fnmatch.obj
 0001:00051a9c       $LN79                      00452a9c     libcurl:curl_fnmatch.obj
 0001:00051b00       _parsekeyword              00452b00 f   libcurl:curl_fnmatch.obj
 0001:00051ee0       _setcharorrange            00452ee0 f   libcurl:curl_fnmatch.obj
 0001:00051f90       _setcharset                00452f90 f   libcurl:curl_fnmatch.obj
 0001:000521a0       _MD4_Init                  004531a0 f   libcurl:md4.obj
 0001:000522d0       $$000000                   004532d0     MSVCRT:lldiv.obj
 0001:000522f1       L1                         004532f1     MSVCRT:lldiv.obj
 0001:0005230d       L2                         0045330d     MSVCRT:lldiv.obj
 0001:00052329       L3                         00453329     MSVCRT:lldiv.obj
 0001:00052337       L5                         00453337     MSVCRT:lldiv.obj
 0001:00052365       L6                         00453365     MSVCRT:lldiv.obj
 0001:00052366       L7                         00453366     MSVCRT:lldiv.obj
 0001:0005236a       L4                         0045336a     MSVCRT:lldiv.obj
 0001:00052374       L8                         00453374     MSVCRT:lldiv.obj
 0001:00052380       $$000000                   00453380     MSVCRT:chkstk.obj
 0001:00052394       cs10                       00453394     MSVCRT:chkstk.obj
 0001:000523a4       cs20                       004533a4     MSVCRT:chkstk.obj
 0001:000523b0       $$000000                   004533b0     MSVCRT:ftol3.obj
 0001:000523ce       _dtol3_default             004533ce     MSVCRT:ftol3.obj
 0001:000523f8       _dtol3_getbits             004533f8     MSVCRT:ftol3.obj
 0001:00052421       _dtol3_trunc               00453421     MSVCRT:ftol3.obj
 0001:00052428       _dtol3_lshift              00453428     MSVCRT:ftol3.obj
 0001:0005242e       _dtol3_notsafe             0045342e     MSVCRT:ftol3.obj
 0001:00052447       _dtol3_large               00453447     MSVCRT:ftol3.obj
 0001:0005244f       _dtol3_NaN                 0045344f     MSVCRT:ftol3.obj
 0001:00052457       _dtol3_retmin              00453457     MSVCRT:ftol3.obj
 0001:00052460       $$000000                   00453460     MSVCRT:ftol3.obj
 0001:0005247a       _ltod3_default             0045347a     MSVCRT:ftol3.obj
 0001:000524b0       $$000000                   004534b0     MSVCRT:lldvrm.obj
 0001:000524d4       L1                         004534d4     MSVCRT:lldvrm.obj
 0001:000524f0       L2                         004534f0     MSVCRT:lldvrm.obj
 0001:0005251c       L3                         0045351c     MSVCRT:lldvrm.obj
 0001:0005252a       L5                         0045352a     MSVCRT:lldvrm.obj
 0001:00052558       L6                         00453558     MSVCRT:lldvrm.obj
 0001:00052561       L7                         00453561     MSVCRT:lldvrm.obj
 0001:00052563       L4                         00453563     MSVCRT:lldvrm.obj
 0001:00052575       L9                         00453575     MSVCRT:lldvrm.obj
 0001:00052589       L8                         00453589     MSVCRT:lldvrm.obj
 0001:00052590       $$000000                   00453590     MSVCRT:llmul.obj
 0001:000525a9       hard                       004535a9     MSVCRT:llmul.obj
 0001:000525d0       $$000000                   004535d0     MSVCRT:llrem.obj
 0001:000525f0       L1                         004535f0     MSVCRT:llrem.obj
 0001:0005260b       L2                         0045360b     MSVCRT:llrem.obj
 0001:0005262a       L3                         0045362a     MSVCRT:llrem.obj
 0001:00052638       L5                         00453638     MSVCRT:llrem.obj
 0001:00052663       L6                         00453663     MSVCRT:llrem.obj
 0001:0005266b       L7                         0045366b     MSVCRT:llrem.obj
 0001:00052676       L4                         00453676     MSVCRT:llrem.obj
 0001:0005267d       L8                         0045367d     MSVCRT:llrem.obj
 0001:00052690       $$000000                   00453690     MSVCRT:ulldvrm.obj
 0001:000526c1       L1                         004536c1     MSVCRT:ulldvrm.obj
 0001:000526cf       L3                         004536cf     MSVCRT:ulldvrm.obj
 0001:000526fd       L4                         004536fd     MSVCRT:ulldvrm.obj
 0001:00052706       L5                         00453706     MSVCRT:ulldvrm.obj
 0001:00052708       L2                         00453708     MSVCRT:ulldvrm.obj
 0001:000527b0       __unwindfunclet$?KEY@@YA?AV?$basic_string@DU?$char_traits@D@std@@V?$allocator@D@2@@std@@XZ$53 004537b0 f   protect.obj
 0001:000527c2       __unwindfunclet$?KEY@@YA?AV?$basic_string@DU?$char_traits@D@std@@V?$allocator@D@2@@std@@XZ$1 004537c2 f   protect.obj
 0001:000527cd       __unwindfunclet$?KEY@@YA?AV?$basic_string@DU?$char_traits@D@std@@V?$allocator@D@2@@std@@XZ$2 004537cd f   protect.obj
 0001:000527d8       __unwindfunclet$?KEY@@YA?AV?$basic_string@DU?$char_traits@D@std@@V?$allocator@D@2@@std@@XZ$3 004537d8 f   protect.obj
 0001:000527fa       __unwindfunclet$?KEY@@YA?AV?$basic_string@DU?$char_traits@D@std@@V?$allocator@D@2@@std@@XZ$73 004537fa f   protect.obj
 0001:0005280c       __unwindfunclet$?KEY@@YA?AV?$basic_string@DU?$char_traits@D@std@@V?$allocator@D@2@@std@@XZ$11 0045380c f   protect.obj
 0001:00052817       __unwindfunclet$?KEY@@YA?AV?$basic_string@DU?$char_traits@D@std@@V?$allocator@D@2@@std@@XZ$12 00453817 f   protect.obj
 0001:00052822       __unwindfunclet$?KEY@@YA?AV?$basic_string@DU?$char_traits@D@std@@V?$allocator@D@2@@std@@XZ$89 00453822 f   protect.obj
 0001:00052834       __unwindfunclet$?KEY@@YA?AV?$basic_string@DU?$char_traits@D@std@@V?$allocator@D@2@@std@@XZ$19 00453834 f   protect.obj
 0001:0005283f       __unwindfunclet$?KEY@@YA?AV?$basic_string@DU?$char_traits@D@std@@V?$allocator@D@2@@std@@XZ$20 0045383f f   protect.obj
 0001:0005284a       __unwindfunclet$?KEY@@YA?AV?$basic_string@DU?$char_traits@D@std@@V?$allocator@D@2@@std@@XZ$109 0045384a f   protect.obj
 0001:0005285c       __unwindfunclet$?KEY@@YA?AV?$basic_string@DU?$char_traits@D@std@@V?$allocator@D@2@@std@@XZ$29 0045385c f   protect.obj
 0001:00052867       __unwindfunclet$?KEY@@YA?AV?$basic_string@DU?$char_traits@D@std@@V?$allocator@D@2@@std@@XZ$30 00453867 f   protect.obj
 0001:00052872       __unwindfunclet$?KEY@@YA?AV?$basic_string@DU?$char_traits@D@std@@V?$allocator@D@2@@std@@XZ$131 00453872 f   protect.obj
 0001:00052884       __unwindfunclet$?KEY@@YA?AV?$basic_string@DU?$char_traits@D@std@@V?$allocator@D@2@@std@@XZ$40 00453884 f   protect.obj
 0001:0005288f       __unwindfunclet$?KEY@@YA?AV?$basic_string@DU?$char_traits@D@std@@V?$allocator@D@2@@std@@XZ$137 0045388f f   protect.obj
 0001:0005289a       __unwindfunclet$?KEY@@YA?AV?$basic_string@DU?$char_traits@D@std@@V?$allocator@D@2@@std@@XZ$41 0045389a f   protect.obj
 0001:000528aa       __ehhandler$?KEY@@YA?AV?$basic_string@DU?$char_traits@D@std@@V?$allocator@D@2@@std@@XZ 004538aa f   protect.obj
 0001:000528e0       __unwindfunclet$?write_to_string@@YAIPAXII0@Z$0 004538e0 f   protect.obj
 0001:000528ed       __ehhandler$?write_to_string@@YAIPAXII0@Z 004538ed f   protect.obj
 0001:00052910       __unwindfunclet$?IsValidTime@@YA_NHHH@Z$0 00453910 f   protect.obj
 0001:00052918       __unwindfunclet$?IsValidTime@@YA_NHHH@Z$1 00453918 f   protect.obj
 0001:00052925       __ehhandler$?IsValidTime@@YA_NHHH@Z 00453925 f   protect.obj
 0001:00052950       __ehhandler$??1sentry@?$basic_ostream@DU?$char_traits@D@std@@@std@@QAE@XZ 00453950 f   protect.obj
 0001:00052970       __ehhandler$??1_Sentry_base@?$basic_ostream@DU?$char_traits@D@std@@@std@@QAE@XZ 00453970 f   protect.obj
 0001:00052970       __ehhandler$??1_Sentry_base@?$basic_istream@DU?$char_traits@D@std@@@std@@QAE@XZ 00453970 f   systeminfo.obj
 0001:00052990       __unwindfunclet$??$?6U?$char_traits@D@std@@@std@@YAAAV?$basic_ostream@DU?$char_traits@D@std@@@0@AAV10@PBD@Z$3 00453990 f   protect.obj
 0001:00052998       __unwindfunclet$??$?6U?$char_traits@D@std@@@std@@YAAAV?$basic_ostream@DU?$char_traits@D@std@@@0@AAV10@PBD@Z$2 00453998 f   protect.obj
 0001:000529a5       __ehhandler$??$?6U?$char_traits@D@std@@@std@@YAAAV?$basic_ostream@DU?$char_traits@D@std@@@0@AAV10@PBD@Z 004539a5 f   protect.obj
 0001:000529d0       __unwindfunclet$??0CPUInfo@@QAE@ABV?$vector@V?$basic_string@DU?$char_traits@D@std@@V?$allocator@D@2@@std@@V?$allocator@V?$basic_string@DU?$char_traits@D@std@@V?$allocator@D@2@@std@@@2@@std@@H@Z$0 004539d0 f   systeminfo.obj
 0001:000529d8       __unwindfunclet$??0CPUInfo@@QAE@ABV?$vector@V?$basic_string@DU?$char_traits@D@std@@V?$allocator@D@2@@std@@V?$allocator@V?$basic_string@DU?$char_traits@D@std@@V?$allocator@D@2@@std@@@2@@std@@H@Z$1 004539d8 f   systeminfo.obj
 0001:000529e3       __unwindfunclet$??0CPUInfo@@QAE@ABV?$vector@V?$basic_string@DU?$char_traits@D@std@@V?$allocator@D@2@@std@@V?$allocator@V?$basic_string@DU?$char_traits@D@std@@V?$allocator@D@2@@std@@@2@@std@@H@Z$2 004539e3 f   systeminfo.obj
 0001:000529ee       __unwindfunclet$??0CPUInfo@@QAE@ABV?$vector@V?$basic_string@DU?$char_traits@D@std@@V?$allocator@D@2@@std@@V?$allocator@V?$basic_string@DU?$char_traits@D@std@@V?$allocator@D@2@@std@@@2@@std@@H@Z$3 004539ee f   systeminfo.obj
 0001:000529f9       __unwindfunclet$??0CPUInfo@@QAE@ABV?$vector@V?$basic_string@DU?$char_traits@D@std@@V?$allocator@D@2@@std@@V?$allocator@V?$basic_string@DU?$char_traits@D@std@@V?$allocator@D@2@@std@@@2@@std@@H@Z$4 004539f9 f   systeminfo.obj
 0001:00052a04       __unwindfunclet$??0CPUInfo@@QAE@ABV?$vector@V?$basic_string@DU?$char_traits@D@std@@V?$allocator@D@2@@std@@V?$allocator@V?$basic_string@DU?$char_traits@D@std@@V?$allocator@D@2@@std@@@2@@std@@H@Z$5 00453a04 f   systeminfo.obj
 0001:00052a0f       __unwindfunclet$??0CPUInfo@@QAE@ABV?$vector@V?$basic_string@DU?$char_traits@D@std@@V?$allocator@D@2@@std@@V?$allocator@V?$basic_string@DU?$char_traits@D@std@@V?$allocator@D@2@@std@@@2@@std@@H@Z$9 00453a0f f   systeminfo.obj
 0001:00052a17       __unwindfunclet$??0CPUInfo@@QAE@ABV?$vector@V?$basic_string@DU?$char_traits@D@std@@V?$allocator@D@2@@std@@V?$allocator@V?$basic_string@DU?$char_traits@D@std@@V?$allocator@D@2@@std@@@2@@std@@H@Z$11 00453a17 f   systeminfo.obj
 0001:00052a1f       __unwindfunclet$??0CPUInfo@@QAE@ABV?$vector@V?$basic_string@DU?$char_traits@D@std@@V?$allocator@D@2@@std@@V?$allocator@V?$basic_string@DU?$char_traits@D@std@@V?$allocator@D@2@@std@@@2@@std@@H@Z$13 00453a1f f   systeminfo.obj
 0001:00052a2c       __ehhandler$??0CPUInfo@@QAE@ABV?$vector@V?$basic_string@DU?$char_traits@D@std@@V?$allocator@D@2@@std@@V?$allocator@V?$basic_string@DU?$char_traits@D@std@@V?$allocator@D@2@@std@@@2@@std@@H@Z 00453a2c f   systeminfo.obj
 0001:00052a60       __ehhandler$?getArchitecture@CPUInfo@@ABE?AV?$basic_string@DU?$char_traits@D@std@@V?$allocator@D@2@@std@@AAV23@@Z 00453a60 f   systeminfo.obj
 0001:00052a90       __unwindfunclet$??0CPUInfoDelegate@@QAE@XZ$0 00453a90 f   systeminfo.obj
 0001:00052a9b       __unwindfunclet$??0CPUInfoDelegate@@QAE@XZ$2 00453a9b f   systeminfo.obj
 0001:00052aae       __unwindfunclet$??0CPUInfoDelegate@@QAE@XZ$7 00453aae f   systeminfo.obj
 0001:00052ab9       __unwindfunclet$??0CPUInfoDelegate@@QAE@XZ$3 00453ab9 f   systeminfo.obj
 0001:00052ac4       __unwindfunclet$??0CPUInfoDelegate@@QAE@XZ$4 00453ac4 f   systeminfo.obj
 0001:00052acc       __unwindfunclet$??0CPUInfoDelegate@@QAE@XZ$5 00453acc f   systeminfo.obj
 0001:00052ad4       __unwindfunclet$??0CPUInfoDelegate@@QAE@XZ$6 00453ad4 f   systeminfo.obj
 0001:00052ae1       __ehhandler$??0CPUInfoDelegate@@QAE@XZ 00453ae1 f   systeminfo.obj
 0001:00052b10       __unwindfunclet$??0GPUInfo@@QAE@ABV?$vector@V?$basic_string@DU?$char_traits@D@std@@V?$allocator@D@2@@std@@V?$allocator@V?$basic_string@DU?$char_traits@D@std@@V?$allocator@D@2@@std@@@2@@std@@H@Z$2 00453b10 f   systeminfo.obj
 0001:00052b18       __unwindfunclet$??0GPUInfo@@QAE@ABV?$vector@V?$basic_string@DU?$char_traits@D@std@@V?$allocator@D@2@@std@@V?$allocator@V?$basic_string@DU?$char_traits@D@std@@V?$allocator@D@2@@std@@@2@@std@@H@Z$3 00453b18 f   systeminfo.obj
 0001:00052b23       __unwindfunclet$??0GPUInfo@@QAE@ABV?$vector@V?$basic_string@DU?$char_traits@D@std@@V?$allocator@D@2@@std@@V?$allocator@V?$basic_string@DU?$char_traits@D@std@@V?$allocator@D@2@@std@@@2@@std@@H@Z$4 00453b23 f   systeminfo.obj
 0001:00052b2e       __unwindfunclet$??0GPUInfo@@QAE@ABV?$vector@V?$basic_string@DU?$char_traits@D@std@@V?$allocator@D@2@@std@@V?$allocator@V?$basic_string@DU?$char_traits@D@std@@V?$allocator@D@2@@std@@@2@@std@@H@Z$5 00453b2e f   systeminfo.obj
 0001:00052b39       __unwindfunclet$??0GPUInfo@@QAE@ABV?$vector@V?$basic_string@DU?$char_traits@D@std@@V?$allocator@D@2@@std@@V?$allocator@V?$basic_string@DU?$char_traits@D@std@@V?$allocator@D@2@@std@@@2@@std@@H@Z$6 00453b39 f   systeminfo.obj
 0001:00052b44       __unwindfunclet$??0GPUInfo@@QAE@ABV?$vector@V?$basic_string@DU?$char_traits@D@std@@V?$allocator@D@2@@std@@V?$allocator@V?$basic_string@DU?$char_traits@D@std@@V?$allocator@D@2@@std@@@2@@std@@H@Z$7 00453b44 f   systeminfo.obj
 0001:00052b4f       __unwindfunclet$??0GPUInfo@@QAE@ABV?$vector@V?$basic_string@DU?$char_traits@D@std@@V?$allocator@D@2@@std@@V?$allocator@V?$basic_string@DU?$char_traits@D@std@@V?$allocator@D@2@@std@@@2@@std@@H@Z$8 00453b4f f   systeminfo.obj
 0001:00052b5d       __unwindfunclet$??0GPUInfo@@QAE@ABV?$vector@V?$basic_string@DU?$char_traits@D@std@@V?$allocator@D@2@@std@@V?$allocator@V?$basic_string@DU?$char_traits@D@std@@V?$allocator@D@2@@std@@@2@@std@@H@Z$9 00453b5d f   systeminfo.obj
 0001:00052b6b       __unwindfunclet$??0GPUInfo@@QAE@ABV?$vector@V?$basic_string@DU?$char_traits@D@std@@V?$allocator@D@2@@std@@V?$allocator@V?$basic_string@DU?$char_traits@D@std@@V?$allocator@D@2@@std@@@2@@std@@H@Z$10 00453b6b f   systeminfo.obj
 0001:00052b79       __unwindfunclet$??0GPUInfo@@QAE@ABV?$vector@V?$basic_string@DU?$char_traits@D@std@@V?$allocator@D@2@@std@@V?$allocator@V?$basic_string@DU?$char_traits@D@std@@V?$allocator@D@2@@std@@@2@@std@@H@Z$11 00453b79 f   systeminfo.obj
 0001:00052b87       __unwindfunclet$??0GPUInfo@@QAE@ABV?$vector@V?$basic_string@DU?$char_traits@D@std@@V?$allocator@D@2@@std@@V?$allocator@V?$basic_string@DU?$char_traits@D@std@@V?$allocator@D@2@@std@@@2@@std@@H@Z$15 00453b87 f   systeminfo.obj
 0001:00052b8f       __unwindfunclet$??0GPUInfo@@QAE@ABV?$vector@V?$basic_string@DU?$char_traits@D@std@@V?$allocator@D@2@@std@@V?$allocator@V?$basic_string@DU?$char_traits@D@std@@V?$allocator@D@2@@std@@@2@@std@@H@Z$16 00453b8f f   systeminfo.obj
 0001:00052b9a       __unwindfunclet$??0GPUInfo@@QAE@ABV?$vector@V?$basic_string@DU?$char_traits@D@std@@V?$allocator@D@2@@std@@V?$allocator@V?$basic_string@DU?$char_traits@D@std@@V?$allocator@D@2@@std@@@2@@std@@H@Z$17 00453b9a f   systeminfo.obj
 0001:00052ba5       __unwindfunclet$??0GPUInfo@@QAE@ABV?$vector@V?$basic_string@DU?$char_traits@D@std@@V?$allocator@D@2@@std@@V?$allocator@V?$basic_string@DU?$char_traits@D@std@@V?$allocator@D@2@@std@@@2@@std@@H@Z$18 00453ba5 f   systeminfo.obj
 0001:00052bb0       __unwindfunclet$??0GPUInfo@@QAE@ABV?$vector@V?$basic_string@DU?$char_traits@D@std@@V?$allocator@D@2@@std@@V?$allocator@V?$basic_string@DU?$char_traits@D@std@@V?$allocator@D@2@@std@@@2@@std@@H@Z$19 00453bb0 f   systeminfo.obj
 0001:00052bb8       __unwindfunclet$??0GPUInfo@@QAE@ABV?$vector@V?$basic_string@DU?$char_traits@D@std@@V?$allocator@D@2@@std@@V?$allocator@V?$basic_string@DU?$char_traits@D@std@@V?$allocator@D@2@@std@@@2@@std@@H@Z$22 00453bb8 f   systeminfo.obj
 0001:00052bc0       __unwindfunclet$??0GPUInfo@@QAE@ABV?$vector@V?$basic_string@DU?$char_traits@D@std@@V?$allocator@D@2@@std@@V?$allocator@V?$basic_string@DU?$char_traits@D@std@@V?$allocator@D@2@@std@@@2@@std@@H@Z$25 00453bc0 f   systeminfo.obj
 0001:00052bc8       __unwindfunclet$??0GPUInfo@@QAE@ABV?$vector@V?$basic_string@DU?$char_traits@D@std@@V?$allocator@D@2@@std@@V?$allocator@V?$basic_string@DU?$char_traits@D@std@@V?$allocator@D@2@@std@@@2@@std@@H@Z$27 00453bc8 f   systeminfo.obj
 0001:00052bd5       __ehhandler$??0GPUInfo@@QAE@ABV?$vector@V?$basic_string@DU?$char_traits@D@std@@V?$allocator@D@2@@std@@V?$allocator@V?$basic_string@DU?$char_traits@D@std@@V?$allocator@D@2@@std@@@2@@std@@H@Z 00453bd5 f   systeminfo.obj
 0001:00052c00       __unwindfunclet$??0GPUInfoDelegate@@QAE@XZ$0 00453c00 f   systeminfo.obj
 0001:00052c0b       __unwindfunclet$??0GPUInfoDelegate@@QAE@XZ$2 00453c0b f   systeminfo.obj
 0001:00052c1e       __unwindfunclet$??0GPUInfoDelegate@@QAE@XZ$7 00453c1e f   systeminfo.obj
 0001:00052c29       __unwindfunclet$??0GPUInfoDelegate@@QAE@XZ$3 00453c29 f   systeminfo.obj
 0001:00052c34       __unwindfunclet$??0GPUInfoDelegate@@QAE@XZ$4 00453c34 f   systeminfo.obj
 0001:00052c3c       __unwindfunclet$??0GPUInfoDelegate@@QAE@XZ$5 00453c3c f   systeminfo.obj
 0001:00052c44       __unwindfunclet$??0GPUInfoDelegate@@QAE@XZ$6 00453c44 f   systeminfo.obj
 0001:00052c51       __ehhandler$??0GPUInfoDelegate@@QAE@XZ 00453c51 f   systeminfo.obj
 0001:00052c80       __unwindfunclet$??0MotherboardInfo@@QAE@ABV?$vector@V?$basic_string@DU?$char_traits@D@std@@V?$allocator@D@2@@std@@V?$allocator@V?$basic_string@DU?$char_traits@D@std@@V?$allocator@D@2@@std@@@2@@std@@H@Z$0 00453c80 f   systeminfo.obj
 0001:00052c88       __unwindfunclet$??0MotherboardInfo@@QAE@ABV?$vector@V?$basic_string@DU?$char_traits@D@std@@V?$allocator@D@2@@std@@V?$allocator@V?$basic_string@DU?$char_traits@D@std@@V?$allocator@D@2@@std@@@2@@std@@H@Z$1 00453c88 f   systeminfo.obj
 0001:00052c93       __unwindfunclet$??0MotherboardInfo@@QAE@ABV?$vector@V?$basic_string@DU?$char_traits@D@std@@V?$allocator@D@2@@std@@V?$allocator@V?$basic_string@DU?$char_traits@D@std@@V?$allocator@D@2@@std@@@2@@std@@H@Z$2 00453c93 f   systeminfo.obj
 0001:00052c9e       __unwindfunclet$??0MotherboardInfo@@QAE@ABV?$vector@V?$basic_string@DU?$char_traits@D@std@@V?$allocator@D@2@@std@@V?$allocator@V?$basic_string@DU?$char_traits@D@std@@V?$allocator@D@2@@std@@@2@@std@@H@Z$3 00453c9e f   systeminfo.obj
 0001:00052ca9       __unwindfunclet$??0MotherboardInfo@@QAE@ABV?$vector@V?$basic_string@DU?$char_traits@D@std@@V?$allocator@D@2@@std@@V?$allocator@V?$basic_string@DU?$char_traits@D@std@@V?$allocator@D@2@@std@@@2@@std@@H@Z$4 00453ca9 f   systeminfo.obj
 0001:00052cb9       __ehhandler$??0MotherboardInfo@@QAE@ABV?$vector@V?$basic_string@DU?$char_traits@D@std@@V?$allocator@D@2@@std@@V?$allocator@V?$basic_string@DU?$char_traits@D@std@@V?$allocator@D@2@@std@@@2@@std@@H@Z 00453cb9 f   systeminfo.obj
 0001:00052ce0       __unwindfunclet$?determineChipset@MotherboardInfo@@AAEXXZ$1 00453ce0 f   systeminfo.obj
 0001:00052cf6       __unwindfunclet$?determineChipset@MotherboardInfo@@AAEXXZ$5 00453cf6 f   systeminfo.obj
 0001:00052d01       __unwindfunclet$?determineChipset@MotherboardInfo@@AAEXXZ$2 00453d01 f   systeminfo.obj
 0001:00052d0c       __unwindfunclet$?determineChipset@MotherboardInfo@@AAEXXZ$3 00453d0c f   systeminfo.obj
 0001:00052d19       __ehhandler$?determineChipset@MotherboardInfo@@AAEXXZ 00453d19 f   systeminfo.obj
 0001:00052d50       __unwindfunclet$??0MotherboardInfoDelegate@@QAE@XZ$0 00453d50 f   systeminfo.obj
 0001:00052d5b       __unwindfunclet$??0MotherboardInfoDelegate@@QAE@XZ$2 00453d5b f   systeminfo.obj
 0001:00052d6e       __unwindfunclet$??0MotherboardInfoDelegate@@QAE@XZ$7 00453d6e f   systeminfo.obj
 0001:00052d79       __unwindfunclet$??0MotherboardInfoDelegate@@QAE@XZ$3 00453d79 f   systeminfo.obj
 0001:00052d84       __unwindfunclet$??0MotherboardInfoDelegate@@QAE@XZ$4 00453d84 f   systeminfo.obj
 0001:00052d8c       __unwindfunclet$??0MotherboardInfoDelegate@@QAE@XZ$5 00453d8c f   systeminfo.obj
 0001:00052d94       __unwindfunclet$??0MotherboardInfoDelegate@@QAE@XZ$6 00453d94 f   systeminfo.obj
 0001:00052da1       __ehhandler$??0MotherboardInfoDelegate@@QAE@XZ 00453da1 f   systeminfo.obj
 0001:00052dd0       __unwindfunclet$??0OSInfo@@QAE@ABV?$vector@V?$basic_string@DU?$char_traits@D@std@@V?$allocator@D@2@@std@@V?$allocator@V?$basic_string@DU?$char_traits@D@std@@V?$allocator@D@2@@std@@@2@@std@@H@Z$6 00453dd0 f   systeminfo.obj
 0001:00052dd8       __unwindfunclet$??0OSInfo@@QAE@ABV?$vector@V?$basic_string@DU?$char_traits@D@std@@V?$allocator@D@2@@std@@V?$allocator@V?$basic_string@DU?$char_traits@D@std@@V?$allocator@D@2@@std@@@2@@std@@H@Z$7 00453dd8 f   systeminfo.obj
 0001:00052de3       __unwindfunclet$??0OSInfo@@QAE@ABV?$vector@V?$basic_string@DU?$char_traits@D@std@@V?$allocator@D@2@@std@@V?$allocator@V?$basic_string@DU?$char_traits@D@std@@V?$allocator@D@2@@std@@@2@@std@@H@Z$8 00453de3 f   systeminfo.obj
 0001:00052dee       __unwindfunclet$??0OSInfo@@QAE@ABV?$vector@V?$basic_string@DU?$char_traits@D@std@@V?$allocator@D@2@@std@@V?$allocator@V?$basic_string@DU?$char_traits@D@std@@V?$allocator@D@2@@std@@@2@@std@@H@Z$9 00453dee f   systeminfo.obj
 0001:00052df9       __unwindfunclet$??0OSInfo@@QAE@ABV?$vector@V?$basic_string@DU?$char_traits@D@std@@V?$allocator@D@2@@std@@V?$allocator@V?$basic_string@DU?$char_traits@D@std@@V?$allocator@D@2@@std@@@2@@std@@H@Z$10 00453df9 f   systeminfo.obj
 0001:00052e04       __unwindfunclet$??0OSInfo@@QAE@ABV?$vector@V?$basic_string@DU?$char_traits@D@std@@V?$allocator@D@2@@std@@V?$allocator@V?$basic_string@DU?$char_traits@D@std@@V?$allocator@D@2@@std@@@2@@std@@H@Z$11 00453e04 f   systeminfo.obj
 0001:00052e0f       __unwindfunclet$??0OSInfo@@QAE@ABV?$vector@V?$basic_string@DU?$char_traits@D@std@@V?$allocator@D@2@@std@@V?$allocator@V?$basic_string@DU?$char_traits@D@std@@V?$allocator@D@2@@std@@@2@@std@@H@Z$12 00453e0f f   systeminfo.obj
 0001:00052e1d       __unwindfunclet$??0OSInfo@@QAE@ABV?$vector@V?$basic_string@DU?$char_traits@D@std@@V?$allocator@D@2@@std@@V?$allocator@V?$basic_string@DU?$char_traits@D@std@@V?$allocator@D@2@@std@@@2@@std@@H@Z$13 00453e1d f   systeminfo.obj
 0001:00052e2b       __unwindfunclet$??0OSInfo@@QAE@ABV?$vector@V?$basic_string@DU?$char_traits@D@std@@V?$allocator@D@2@@std@@V?$allocator@V?$basic_string@DU?$char_traits@D@std@@V?$allocator@D@2@@std@@@2@@std@@H@Z$14 00453e2b f   systeminfo.obj
 0001:00052e39       __unwindfunclet$??0OSInfo@@QAE@ABV?$vector@V?$basic_string@DU?$char_traits@D@std@@V?$allocator@D@2@@std@@V?$allocator@V?$basic_string@DU?$char_traits@D@std@@V?$allocator@D@2@@std@@@2@@std@@H@Z$15 00453e39 f   systeminfo.obj
 0001:00052e47       __unwindfunclet$??0OSInfo@@QAE@ABV?$vector@V?$basic_string@DU?$char_traits@D@std@@V?$allocator@D@2@@std@@V?$allocator@V?$basic_string@DU?$char_traits@D@std@@V?$allocator@D@2@@std@@@2@@std@@H@Z$16 00453e47 f   systeminfo.obj
 0001:00052e55       __unwindfunclet$??0OSInfo@@QAE@ABV?$vector@V?$basic_string@DU?$char_traits@D@std@@V?$allocator@D@2@@std@@V?$allocator@V?$basic_string@DU?$char_traits@D@std@@V?$allocator@D@2@@std@@@2@@std@@H@Z$17 00453e55 f   systeminfo.obj
 0001:00052e63       __unwindfunclet$??0OSInfo@@QAE@ABV?$vector@V?$basic_string@DU?$char_traits@D@std@@V?$allocator@D@2@@std@@V?$allocator@V?$basic_string@DU?$char_traits@D@std@@V?$allocator@D@2@@std@@@2@@std@@H@Z$18 00453e63 f   systeminfo.obj
 0001:00052e71       __unwindfunclet$??0OSInfo@@QAE@ABV?$vector@V?$basic_string@DU?$char_traits@D@std@@V?$allocator@D@2@@std@@V?$allocator@V?$basic_string@DU?$char_traits@D@std@@V?$allocator@D@2@@std@@@2@@std@@H@Z$19 00453e71 f   systeminfo.obj
 0001:00052e7f       __unwindfunclet$??0OSInfo@@QAE@ABV?$vector@V?$basic_string@DU?$char_traits@D@std@@V?$allocator@D@2@@std@@V?$allocator@V?$basic_string@DU?$char_traits@D@std@@V?$allocator@D@2@@std@@@2@@std@@H@Z$31 00453e7f f   systeminfo.obj
 0001:00052e87       __unwindfunclet$??0OSInfo@@QAE@ABV?$vector@V?$basic_string@DU?$char_traits@D@std@@V?$allocator@D@2@@std@@V?$allocator@V?$basic_string@DU?$char_traits@D@std@@V?$allocator@D@2@@std@@@2@@std@@H@Z$32 00453e87 f   systeminfo.obj
 0001:00052e92       __unwindfunclet$??0OSInfo@@QAE@ABV?$vector@V?$basic_string@DU?$char_traits@D@std@@V?$allocator@D@2@@std@@V?$allocator@V?$basic_string@DU?$char_traits@D@std@@V?$allocator@D@2@@std@@@2@@std@@H@Z$33 00453e92 f   systeminfo.obj
 0001:00052e9d       __unwindfunclet$??0OSInfo@@QAE@ABV?$vector@V?$basic_string@DU?$char_traits@D@std@@V?$allocator@D@2@@std@@V?$allocator@V?$basic_string@DU?$char_traits@D@std@@V?$allocator@D@2@@std@@@2@@std@@H@Z$34 00453e9d f   systeminfo.obj
 0001:00052ea8       __unwindfunclet$??0OSInfo@@QAE@ABV?$vector@V?$basic_string@DU?$char_traits@D@std@@V?$allocator@D@2@@std@@V?$allocator@V?$basic_string@DU?$char_traits@D@std@@V?$allocator@D@2@@std@@@2@@std@@H@Z$35 00453ea8 f   systeminfo.obj
 0001:00052eb0       __unwindfunclet$??0OSInfo@@QAE@ABV?$vector@V?$basic_string@DU?$char_traits@D@std@@V?$allocator@D@2@@std@@V?$allocator@V?$basic_string@DU?$char_traits@D@std@@V?$allocator@D@2@@std@@@2@@std@@H@Z$38 00453eb0 f   systeminfo.obj
 0001:00052eb8       __unwindfunclet$??0OSInfo@@QAE@ABV?$vector@V?$basic_string@DU?$char_traits@D@std@@V?$allocator@D@2@@std@@V?$allocator@V?$basic_string@DU?$char_traits@D@std@@V?$allocator@D@2@@std@@@2@@std@@H@Z$39 00453eb8 f   systeminfo.obj
 0001:00052ec3       __unwindfunclet$??0OSInfo@@QAE@ABV?$vector@V?$basic_string@DU?$char_traits@D@std@@V?$allocator@D@2@@std@@V?$allocator@V?$basic_string@DU?$char_traits@D@std@@V?$allocator@D@2@@std@@@2@@std@@H@Z$40 00453ec3 f   systeminfo.obj
 0001:00052ece       __unwindfunclet$??0OSInfo@@QAE@ABV?$vector@V?$basic_string@DU?$char_traits@D@std@@V?$allocator@D@2@@std@@V?$allocator@V?$basic_string@DU?$char_traits@D@std@@V?$allocator@D@2@@std@@@2@@std@@H@Z$41 00453ece f   systeminfo.obj
 0001:00052ed9       __unwindfunclet$??0OSInfo@@QAE@ABV?$vector@V?$basic_string@DU?$char_traits@D@std@@V?$allocator@D@2@@std@@V?$allocator@V?$basic_string@DU?$char_traits@D@std@@V?$allocator@D@2@@std@@@2@@std@@H@Z$42 00453ed9 f   systeminfo.obj
 0001:00052ee1       __unwindfunclet$??0OSInfo@@QAE@ABV?$vector@V?$basic_string@DU?$char_traits@D@std@@V?$allocator@D@2@@std@@V?$allocator@V?$basic_string@DU?$char_traits@D@std@@V?$allocator@D@2@@std@@@2@@std@@H@Z$45 00453ee1 f   systeminfo.obj
 0001:00052ee9       __unwindfunclet$??0OSInfo@@QAE@ABV?$vector@V?$basic_string@DU?$char_traits@D@std@@V?$allocator@D@2@@std@@V?$allocator@V?$basic_string@DU?$char_traits@D@std@@V?$allocator@D@2@@std@@@2@@std@@H@Z$46 00453ee9 f   systeminfo.obj
 0001:00052ef4       __unwindfunclet$??0OSInfo@@QAE@ABV?$vector@V?$basic_string@DU?$char_traits@D@std@@V?$allocator@D@2@@std@@V?$allocator@V?$basic_string@DU?$char_traits@D@std@@V?$allocator@D@2@@std@@@2@@std@@H@Z$47 00453ef4 f   systeminfo.obj
 0001:00052eff       __unwindfunclet$??0OSInfo@@QAE@ABV?$vector@V?$basic_string@DU?$char_traits@D@std@@V?$allocator@D@2@@std@@V?$allocator@V?$basic_string@DU?$char_traits@D@std@@V?$allocator@D@2@@std@@@2@@std@@H@Z$48 00453eff f   systeminfo.obj
 0001:00052f0a       __unwindfunclet$??0OSInfo@@QAE@ABV?$vector@V?$basic_string@DU?$char_traits@D@std@@V?$allocator@D@2@@std@@V?$allocator@V?$basic_string@DU?$char_traits@D@std@@V?$allocator@D@2@@std@@@2@@std@@H@Z$49 00453f0a f   systeminfo.obj
 0001:00052f17       __ehhandler$??0OSInfo@@QAE@ABV?$vector@V?$basic_string@DU?$char_traits@D@std@@V?$allocator@D@2@@std@@V?$allocator@V?$basic_string@DU?$char_traits@D@std@@V?$allocator@D@2@@std@@@2@@std@@H@Z 00453f17 f   systeminfo.obj
 0001:00052f50       __unwindfunclet$??0OSInfoDelegate@@QAE@XZ$0 00453f50 f   systeminfo.obj
 0001:00052f5b       __unwindfunclet$??0OSInfoDelegate@@QAE@XZ$2 00453f5b f   systeminfo.obj
 0001:00052f6e       __unwindfunclet$??0OSInfoDelegate@@QAE@XZ$7 00453f6e f   systeminfo.obj
 0001:00052f79       __unwindfunclet$??0OSInfoDelegate@@QAE@XZ$3 00453f79 f   systeminfo.obj
 0001:00052f84       __unwindfunclet$??0OSInfoDelegate@@QAE@XZ$4 00453f84 f   systeminfo.obj
 0001:00052f8c       __unwindfunclet$??0OSInfoDelegate@@QAE@XZ$5 00453f8c f   systeminfo.obj
 0001:00052f94       __unwindfunclet$??0OSInfoDelegate@@QAE@XZ$6 00453f94 f   systeminfo.obj
 0001:00052fa1       __ehhandler$??0OSInfoDelegate@@QAE@XZ 00453fa1 f   systeminfo.obj
 0001:00052fd0       __unwindfunclet$??0RAMInfo@@QAE@ABV?$vector@V?$basic_string@DU?$char_traits@D@std@@V?$allocator@D@2@@std@@V?$allocator@V?$basic_string@DU?$char_traits@D@std@@V?$allocator@D@2@@std@@@2@@std@@H@Z$2 00453fd0 f   systeminfo.obj
 0001:00052fdb       __unwindfunclet$??0RAMInfo@@QAE@ABV?$vector@V?$basic_string@DU?$char_traits@D@std@@V?$allocator@D@2@@std@@V?$allocator@V?$basic_string@DU?$char_traits@D@std@@V?$allocator@D@2@@std@@@2@@std@@H@Z$3 00453fdb f   systeminfo.obj
 0001:00052fe9       __unwindfunclet$??0RAMInfo@@QAE@ABV?$vector@V?$basic_string@DU?$char_traits@D@std@@V?$allocator@D@2@@std@@V?$allocator@V?$basic_string@DU?$char_traits@D@std@@V?$allocator@D@2@@std@@@2@@std@@H@Z$4 00453fe9 f   systeminfo.obj
 0001:00052ff7       __unwindfunclet$??0RAMInfo@@QAE@ABV?$vector@V?$basic_string@DU?$char_traits@D@std@@V?$allocator@D@2@@std@@V?$allocator@V?$basic_string@DU?$char_traits@D@std@@V?$allocator@D@2@@std@@@2@@std@@H@Z$5 00453ff7 f   systeminfo.obj
 0001:00053005       __unwindfunclet$??0RAMInfo@@QAE@ABV?$vector@V?$basic_string@DU?$char_traits@D@std@@V?$allocator@D@2@@std@@V?$allocator@V?$basic_string@DU?$char_traits@D@std@@V?$allocator@D@2@@std@@@2@@std@@H@Z$6 00454005 f   systeminfo.obj
 0001:00053013       __unwindfunclet$??0RAMInfo@@QAE@ABV?$vector@V?$basic_string@DU?$char_traits@D@std@@V?$allocator@D@2@@std@@V?$allocator@V?$basic_string@DU?$char_traits@D@std@@V?$allocator@D@2@@std@@@2@@std@@H@Z$7 00454013 f   systeminfo.obj
 0001:00053021       __unwindfunclet$??0RAMInfo@@QAE@ABV?$vector@V?$basic_string@DU?$char_traits@D@std@@V?$allocator@D@2@@std@@V?$allocator@V?$basic_string@DU?$char_traits@D@std@@V?$allocator@D@2@@std@@@2@@std@@H@Z$8 00454021 f   systeminfo.obj
 0001:00053032       __unwindfunclet$??0RAMInfo@@QAE@ABV?$vector@V?$basic_string@DU?$char_traits@D@std@@V?$allocator@D@2@@std@@V?$allocator@V?$basic_string@DU?$char_traits@D@std@@V?$allocator@D@2@@std@@@2@@std@@H@Z$9 00454032 f   systeminfo.obj
 0001:00053043       __unwindfunclet$??0RAMInfo@@QAE@ABV?$vector@V?$basic_string@DU?$char_traits@D@std@@V?$allocator@D@2@@std@@V?$allocator@V?$basic_string@DU?$char_traits@D@std@@V?$allocator@D@2@@std@@@2@@std@@H@Z$10 00454043 f   systeminfo.obj
 0001:0005304b       __unwindfunclet$??0RAMInfo@@QAE@ABV?$vector@V?$basic_string@DU?$char_traits@D@std@@V?$allocator@D@2@@std@@V?$allocator@V?$basic_string@DU?$char_traits@D@std@@V?$allocator@D@2@@std@@@2@@std@@H@Z$13 0045404b f   systeminfo.obj
 0001:00053053       __unwindfunclet$??0RAMInfo@@QAE@ABV?$vector@V?$basic_string@DU?$char_traits@D@std@@V?$allocator@D@2@@std@@V?$allocator@V?$basic_string@DU?$char_traits@D@std@@V?$allocator@D@2@@std@@@2@@std@@H@Z$14 00454053 f   systeminfo.obj
 0001:0005305e       __unwindfunclet$??0RAMInfo@@QAE@ABV?$vector@V?$basic_string@DU?$char_traits@D@std@@V?$allocator@D@2@@std@@V?$allocator@V?$basic_string@DU?$char_traits@D@std@@V?$allocator@D@2@@std@@@2@@std@@H@Z$15 0045405e f   systeminfo.obj
 0001:00053069       __unwindfunclet$??0RAMInfo@@QAE@ABV?$vector@V?$basic_string@DU?$char_traits@D@std@@V?$allocator@D@2@@std@@V?$allocator@V?$basic_string@DU?$char_traits@D@std@@V?$allocator@D@2@@std@@@2@@std@@H@Z$16 00454069 f   systeminfo.obj
 0001:00053074       __unwindfunclet$??0RAMInfo@@QAE@ABV?$vector@V?$basic_string@DU?$char_traits@D@std@@V?$allocator@D@2@@std@@V?$allocator@V?$basic_string@DU?$char_traits@D@std@@V?$allocator@D@2@@std@@@2@@std@@H@Z$17 00454074 f   systeminfo.obj
 0001:0005307c       __unwindfunclet$??0RAMInfo@@QAE@ABV?$vector@V?$basic_string@DU?$char_traits@D@std@@V?$allocator@D@2@@std@@V?$allocator@V?$basic_string@DU?$char_traits@D@std@@V?$allocator@D@2@@std@@@2@@std@@H@Z$21 0045407c f   systeminfo.obj
 0001:00053084       __unwindfunclet$??0RAMInfo@@QAE@ABV?$vector@V?$basic_string@DU?$char_traits@D@std@@V?$allocator@D@2@@std@@V?$allocator@V?$basic_string@DU?$char_traits@D@std@@V?$allocator@D@2@@std@@@2@@std@@H@Z$24 00454084 f   systeminfo.obj
 0001:0005308c       __unwindfunclet$??0RAMInfo@@QAE@ABV?$vector@V?$basic_string@DU?$char_traits@D@std@@V?$allocator@D@2@@std@@V?$allocator@V?$basic_string@DU?$char_traits@D@std@@V?$allocator@D@2@@std@@@2@@std@@H@Z$26 0045408c f   systeminfo.obj
 0001:00053094       __unwindfunclet$??0RAMInfo@@QAE@ABV?$vector@V?$basic_string@DU?$char_traits@D@std@@V?$allocator@D@2@@std@@V?$allocator@V?$basic_string@DU?$char_traits@D@std@@V?$allocator@D@2@@std@@@2@@std@@H@Z$28 00454094 f   systeminfo.obj
 0001:000530a1       __ehhandler$??0RAMInfo@@QAE@ABV?$vector@V?$basic_string@DU?$char_traits@D@std@@V?$allocator@D@2@@std@@V?$allocator@V?$basic_string@DU?$char_traits@D@std@@V?$allocator@D@2@@std@@@2@@std@@H@Z 004540a1 f   systeminfo.obj
 0001:000530d0       __ehhandler$?getMemoryType@RAMInfo@@ABE?AV?$basic_string@DU?$char_traits@D@std@@V?$allocator@D@2@@std@@ABV23@@Z 004540d0 f   systeminfo.obj
 0001:00053100       __ehhandler$?getFormFactor@RAMInfo@@ABE?AV?$basic_string@DU?$char_traits@D@std@@V?$allocator@D@2@@std@@ABV23@@Z 00454100 f   systeminfo.obj
 0001:00053130       __unwindfunclet$??0RAMInfoDelegate@@QAE@XZ$0 00454130 f   systeminfo.obj
 0001:0005313b       __unwindfunclet$??0RAMInfoDelegate@@QAE@XZ$2 0045413b f   systeminfo.obj
 0001:0005314e       __unwindfunclet$??0RAMInfoDelegate@@QAE@XZ$7 0045414e f   systeminfo.obj
 0001:00053159       __unwindfunclet$??0RAMInfoDelegate@@QAE@XZ$3 00454159 f   systeminfo.obj
 0001:00053164       __unwindfunclet$??0RAMInfoDelegate@@QAE@XZ$4 00454164 f   systeminfo.obj
 0001:0005316c       __unwindfunclet$??0RAMInfoDelegate@@QAE@XZ$5 0045416c f   systeminfo.obj
 0001:00053174       __unwindfunclet$??0RAMInfoDelegate@@QAE@XZ$6 00454174 f   systeminfo.obj
 0001:00053181       __ehhandler$??0RAMInfoDelegate@@QAE@XZ 00454181 f   systeminfo.obj
 0001:000531b0       __unwindfunclet$?stripAllFromString@SystemCommand@@AAE?AV?$basic_string@DU?$char_traits@D@std@@V?$allocator@D@2@@std@@ABV23@0@Z$0 004541b0 f   systeminfo.obj
 0001:000531bd       __ehhandler$?stripAllFromString@SystemCommand@@AAE?AV?$basic_string@DU?$char_traits@D@std@@V?$allocator@D@2@@std@@ABV23@0@Z 004541bd f   systeminfo.obj
 0001:000531f0       __unwindfunclet$?stripFromString@SystemCommand@@AAE?AV?$basic_string@DU?$char_traits@D@std@@V?$allocator@D@2@@std@@ABV23@0@Z$0 004541f0 f   systeminfo.obj
 0001:000531f8       __unwindfunclet$?stripFromString@SystemCommand@@AAE?AV?$basic_string@DU?$char_traits@D@std@@V?$allocator@D@2@@std@@ABV23@0@Z$4 004541f8 f   systeminfo.obj
 0001:00053200       __unwindfunclet$?stripFromString@SystemCommand@@AAE?AV?$basic_string@DU?$char_traits@D@std@@V?$allocator@D@2@@std@@ABV23@0@Z$5 00454200 f   systeminfo.obj
 0001:0005320d       __ehhandler$?stripFromString@SystemCommand@@AAE?AV?$basic_string@DU?$char_traits@D@std@@V?$allocator@D@2@@std@@ABV23@0@Z 0045420d f   systeminfo.obj
 0001:00053240       __unwindfunclet$?stripPipeFromCommand@SystemCommand@@AAEXXZ$0 00454240 f   systeminfo.obj
 0001:00053248       __unwindfunclet$?stripPipeFromCommand@SystemCommand@@AAEXXZ$2 00454248 f   systeminfo.obj
 0001:00053255       __ehhandler$?stripPipeFromCommand@SystemCommand@@AAEXXZ 00454255 f   systeminfo.obj
 0001:00053280       __unwindfunclet$?systemCommandLaunch@SystemCommand@@AAEX_N@Z$0 00454280 f   systeminfo.obj
 0001:0005328b       __unwindfunclet$?systemCommandLaunch@SystemCommand@@AAEX_N@Z$2 0045428b f   systeminfo.obj
 0001:00053296       __unwindfunclet$?systemCommandLaunch@SystemCommand@@AAEX_N@Z$3 00454296 f   systeminfo.obj
 0001:000532a1       __unwindfunclet$?systemCommandLaunch@SystemCommand@@AAEX_N@Z$12 004542a1 f   systeminfo.obj
 0001:000532b1       __ehhandler$?systemCommandLaunch@SystemCommand@@AAEX_N@Z 004542b1 f   systeminfo.obj
 0001:000532e0       __unwindfunclet$??R<lambda_b5565d269da327e336800d80f472b553>@@QBE?AV?$basic_string@DU?$char_traits@D@std@@V?$allocator@D@2@@std@@ABV12@@Z$0 004542e0 f   systeminfo.obj
 0001:000532f9       __unwindfunclet$??R<lambda_b5565d269da327e336800d80f472b553>@@QBE?AV?$basic_string@DU?$char_traits@D@std@@V?$allocator@D@2@@std@@ABV12@@Z$1 004542f9 f   systeminfo.obj
 0001:00053304       __unwindfunclet$??R<lambda_b5565d269da327e336800d80f472b553>@@QBE?AV?$basic_string@DU?$char_traits@D@std@@V?$allocator@D@2@@std@@ABV12@@Z$2 00454304 f   systeminfo.obj
 0001:0005330c       __unwindfunclet$??R<lambda_b5565d269da327e336800d80f472b553>@@QBE?AV?$basic_string@DU?$char_traits@D@std@@V?$allocator@D@2@@std@@ABV12@@Z$4 0045430c f   systeminfo.obj
 0001:00053322       __unwindfunclet$??R<lambda_b5565d269da327e336800d80f472b553>@@QBE?AV?$basic_string@DU?$char_traits@D@std@@V?$allocator@D@2@@std@@ABV12@@Z$13 00454322 f   systeminfo.obj
 0001:0005332a       __unwindfunclet$??R<lambda_b5565d269da327e336800d80f472b553>@@QBE?AV?$basic_string@DU?$char_traits@D@std@@V?$allocator@D@2@@std@@ABV12@@Z$14 0045432a f   systeminfo.obj
 0001:00053332       __unwindfunclet$??R<lambda_b5565d269da327e336800d80f472b553>@@QBE?AV?$basic_string@DU?$char_traits@D@std@@V?$allocator@D@2@@std@@ABV12@@Z$5 00454332 f   systeminfo.obj
 0001:0005333f       __ehhandler$??R<lambda_b5565d269da327e336800d80f472b553>@@QBE?AV?$basic_string@DU?$char_traits@D@std@@V?$allocator@D@2@@std@@ABV12@@Z 0045433f f   systeminfo.obj
 0001:00053370       __unwindfunclet$??0?$vector@VRAMInfo@@V?$allocator@VRAMInfo@@@std@@@std@@QAE@ABV01@@Z$0 00454370 f   systeminfo.obj
 0001:00053378       __unwindfunclet$??0?$vector@VRAMInfo@@V?$allocator@VRAMInfo@@@std@@@std@@QAE@ABV01@@Z$1 00454378 f   systeminfo.obj
 0001:00053380       __unwindfunclet$??0?$vector@VRAMInfo@@V?$allocator@VRAMInfo@@@std@@@std@@QAE@ABV01@@Z$2 00454380 f   systeminfo.obj
 0001:00053388       __unwindfunclet$??0?$vector@VRAMInfo@@V?$allocator@VRAMInfo@@@std@@@std@@QAE@ABV01@@Z$3 00454388 f   systeminfo.obj
 0001:00053393       __unwindfunclet$??0?$vector@VRAMInfo@@V?$allocator@VRAMInfo@@@std@@@std@@QAE@ABV01@@Z$4 00454393 f   systeminfo.obj
 0001:0005339e       __unwindfunclet$??0?$vector@VRAMInfo@@V?$allocator@VRAMInfo@@@std@@@std@@QAE@ABV01@@Z$5 0045439e f   systeminfo.obj
 0001:000533a9       __unwindfunclet$??0?$vector@VRAMInfo@@V?$allocator@VRAMInfo@@@std@@@std@@QAE@ABV01@@Z$6 004543a9 f   systeminfo.obj
 0001:000533b4       __unwindfunclet$??0?$vector@VRAMInfo@@V?$allocator@VRAMInfo@@@std@@@std@@QAE@ABV01@@Z$7 004543b4 f   systeminfo.obj
 0001:000533bf       __unwindfunclet$??0?$vector@VRAMInfo@@V?$allocator@VRAMInfo@@@std@@@std@@QAE@ABV01@@Z$8 004543bf f   systeminfo.obj
 0001:000533d2       __ehhandler$??0?$vector@VRAMInfo@@V?$allocator@VRAMInfo@@@std@@@std@@QAE@ABV01@@Z 004543d2 f   systeminfo.obj
 0001:00053400       __unwindfunclet$??0?$vector@VMotherboardInfo@@V?$allocator@VMotherboardInfo@@@std@@@std@@QAE@ABV01@@Z$0 00454400 f   systeminfo.obj
 0001:00053408       __unwindfunclet$??0?$vector@VMotherboardInfo@@V?$allocator@VMotherboardInfo@@@std@@@std@@QAE@ABV01@@Z$1 00454408 f   systeminfo.obj
 0001:00053410       __unwindfunclet$??0?$vector@VMotherboardInfo@@V?$allocator@VMotherboardInfo@@@std@@@std@@QAE@ABV01@@Z$2 00454410 f   systeminfo.obj
 0001:00053418       __unwindfunclet$??0?$vector@VMotherboardInfo@@V?$allocator@VMotherboardInfo@@@std@@@std@@QAE@ABV01@@Z$3 00454418 f   systeminfo.obj
 0001:00053423       __unwindfunclet$??0?$vector@VMotherboardInfo@@V?$allocator@VMotherboardInfo@@@std@@@std@@QAE@ABV01@@Z$4 00454423 f   systeminfo.obj
 0001:0005342e       __unwindfunclet$??0?$vector@VMotherboardInfo@@V?$allocator@VMotherboardInfo@@@std@@@std@@QAE@ABV01@@Z$5 0045442e f   systeminfo.obj
 0001:0005343e       __ehhandler$??0?$vector@VMotherboardInfo@@V?$allocator@VMotherboardInfo@@@std@@@std@@QAE@ABV01@@Z 0045443e f   systeminfo.obj
 0001:00053470       __unwindfunclet$??0?$vector@VGPUInfo@@V?$allocator@VGPUInfo@@@std@@@std@@QAE@ABV01@@Z$0 00454470 f   systeminfo.obj
 0001:00053478       __unwindfunclet$??0?$vector@VGPUInfo@@V?$allocator@VGPUInfo@@@std@@@std@@QAE@ABV01@@Z$1 00454478 f   systeminfo.obj
 0001:00053480       __unwindfunclet$??0?$vector@VGPUInfo@@V?$allocator@VGPUInfo@@@std@@@std@@QAE@ABV01@@Z$2 00454480 f   systeminfo.obj
 0001:00053488       __unwindfunclet$??0?$vector@VGPUInfo@@V?$allocator@VGPUInfo@@@std@@@std@@QAE@ABV01@@Z$3 00454488 f   systeminfo.obj
 0001:00053493       __unwindfunclet$??0?$vector@VGPUInfo@@V?$allocator@VGPUInfo@@@std@@@std@@QAE@ABV01@@Z$4 00454493 f   systeminfo.obj
 0001:0005349e       __unwindfunclet$??0?$vector@VGPUInfo@@V?$allocator@VGPUInfo@@@std@@@std@@QAE@ABV01@@Z$5 0045449e f   systeminfo.obj
 0001:000534a9       __unwindfunclet$??0?$vector@VGPUInfo@@V?$allocator@VGPUInfo@@@std@@@std@@QAE@ABV01@@Z$6 004544a9 f   systeminfo.obj
 0001:000534b4       __unwindfunclet$??0?$vector@VGPUInfo@@V?$allocator@VGPUInfo@@@std@@@std@@QAE@ABV01@@Z$7 004544b4 f   systeminfo.obj
 0001:000534bf       __unwindfunclet$??0?$vector@VGPUInfo@@V?$allocator@VGPUInfo@@@std@@@std@@QAE@ABV01@@Z$8 004544bf f   systeminfo.obj
 0001:000534cd       __unwindfunclet$??0?$vector@VGPUInfo@@V?$allocator@VGPUInfo@@@std@@@std@@QAE@ABV01@@Z$9 004544cd f   systeminfo.obj
 0001:000534db       __unwindfunclet$??0?$vector@VGPUInfo@@V?$allocator@VGPUInfo@@@std@@@std@@QAE@ABV01@@Z$10 004544db f   systeminfo.obj
 0001:000534ee       __ehhandler$??0?$vector@VGPUInfo@@V?$allocator@VGPUInfo@@@std@@@std@@QAE@ABV01@@Z 004544ee f   systeminfo.obj
 0001:00053520       __unwindfunclet$??0?$vector@VCPUInfo@@V?$allocator@VCPUInfo@@@std@@@std@@QAE@ABV01@@Z$0 00454520 f   systeminfo.obj
 0001:00053528       __unwindfunclet$??0?$vector@VCPUInfo@@V?$allocator@VCPUInfo@@@std@@@std@@QAE@ABV01@@Z$1 00454528 f   systeminfo.obj
 0001:00053530       __unwindfunclet$??0?$vector@VCPUInfo@@V?$allocator@VCPUInfo@@@std@@@std@@QAE@ABV01@@Z$2 00454530 f   systeminfo.obj
 0001:00053538       __unwindfunclet$??0?$vector@VCPUInfo@@V?$allocator@VCPUInfo@@@std@@@std@@QAE@ABV01@@Z$3 00454538 f   systeminfo.obj
 0001:00053543       __unwindfunclet$??0?$vector@VCPUInfo@@V?$allocator@VCPUInfo@@@std@@@std@@QAE@ABV01@@Z$4 00454543 f   systeminfo.obj
 0001:0005354e       __unwindfunclet$??0?$vector@VCPUInfo@@V?$allocator@VCPUInfo@@@std@@@std@@QAE@ABV01@@Z$5 0045454e f   systeminfo.obj
 0001:00053559       __unwindfunclet$??0?$vector@VCPUInfo@@V?$allocator@VCPUInfo@@@std@@@std@@QAE@ABV01@@Z$6 00454559 f   systeminfo.obj
 0001:00053569       __ehhandler$??0?$vector@VCPUInfo@@V?$allocator@VCPUInfo@@@std@@@std@@QAE@ABV01@@Z 00454569 f   systeminfo.obj
 0001:00053590       __unwindfunclet$??0?$vector@V?$basic_string@DU?$char_traits@D@std@@V?$allocator@D@2@@std@@V?$allocator@V?$basic_string@DU?$char_traits@D@std@@V?$allocator@D@2@@std@@@2@@std@@QAE@ABV01@@Z$0 00454590 f   systeminfo.obj
 0001:00053598       __unwindfunclet$??0?$vector@V?$basic_string@DU?$char_traits@D@std@@V?$allocator@D@2@@std@@V?$allocator@V?$basic_string@DU?$char_traits@D@std@@V?$allocator@D@2@@std@@@2@@std@@QAE@ABV01@@Z$1 00454598 f   systeminfo.obj
 0001:000535a5       __ehhandler$??0?$vector@V?$basic_string@DU?$char_traits@D@std@@V?$allocator@D@2@@std@@V?$allocator@V?$basic_string@DU?$char_traits@D@std@@V?$allocator@D@2@@std@@@2@@std@@QAE@ABV01@@Z 004545a5 f   systeminfo.obj
 0001:000535d0       __unwindfunclet$?imbue@?$basic_filebuf@DU?$char_traits@D@std@@@std@@MAEXABVlocale@2@@Z$0 004545d0 f   systeminfo.obj
 0001:000535d9       __unwindfunclet$?imbue@?$basic_filebuf@DU?$char_traits@D@std@@@std@@MAEXABVlocale@2@@Z$1 004545d9 f   systeminfo.obj
 0001:000535e6       __ehhandler$?imbue@?$basic_filebuf@DU?$char_traits@D@std@@@std@@MAEXABVlocale@2@@Z 004545e6 f   systeminfo.obj
 0001:00053610       __unwindfunclet$?uflow@?$basic_filebuf@DU?$char_traits@D@std@@@std@@MAEHXZ$0 00454610 f   systeminfo.obj
 0001:0005361d       __ehhandler$?uflow@?$basic_filebuf@DU?$char_traits@D@std@@@std@@MAEHXZ 0045461d f   systeminfo.obj
 0001:00053650       __ehhandler$??1?$basic_filebuf@DU?$char_traits@D@std@@@std@@UAE@XZ 00454650 f   systeminfo.obj
 0001:00053670       __unwindfunclet$??0?$basic_ifstream@DU?$char_traits@D@std@@@std@@QAE@XZ$0 00454670 f   systeminfo.obj
 0001:0005368d       __unwindfunclet$??0?$basic_ifstream@DU?$char_traits@D@std@@@std@@QAE@XZ$1 0045468d f   systeminfo.obj
 0001:00053699       __unwindfunclet$??0?$basic_ifstream@DU?$char_traits@D@std@@@std@@QAE@XZ$3 00454699 f   systeminfo.obj
 0001:000536a7       __ehhandler$??0?$basic_ifstream@DU?$char_traits@D@std@@@std@@QAE@XZ 004546a7 f   systeminfo.obj
 0001:000536d0       __unwindfunclet$??$use_facet@V?$ctype@D@std@@@std@@YAABV?$ctype@D@0@ABVlocale@0@@Z$0 004546d0 f   systeminfo.obj
 0001:000536d9       __unwindfunclet$??$use_facet@V?$ctype@D@std@@@std@@YAABV?$ctype@D@0@ABVlocale@0@@Z$1 004546d9 f   systeminfo.obj
 0001:000536e6       __ehhandler$??$use_facet@V?$ctype@D@std@@@std@@YAABV?$ctype@D@0@ABVlocale@0@@Z 004546e6 f   systeminfo.obj
 0001:00053710       __ehhandler$??$_Emplace_reallocate@AAV?$vector@V?$basic_string@DU?$char_traits@D@std@@V?$allocator@D@2@@std@@V?$allocator@V?$basic_string@DU?$char_traits@D@std@@V?$allocator@D@2@@std@@@2@@std@@AAH@?$vector@VCPUInfo@@V?$allocator@VCPUInfo@@@std@@@std@@QAEPAVCPUInfo@@QAV2@AAV?$vector@V?$basic_string@DU?$char_traits@D@std@@V?$allocator@D@2@@std@@V?$allocator@V?$basic_string@DU?$char_traits@D@std@@V?$allocator@D@2@@std@@@2@@1@AAH@Z 00454710 f   systeminfo.obj
 0001:00053730       __unwindfunclet$??$toString@_J@GPUInfo@@ABE?AV?$basic_string@DU?$char_traits@D@std@@V?$allocator@D@2@@std@@AB_J@Z$2 00454730 f   systeminfo.obj
 0001:00053730       __unwindfunclet$??$toString@_J@OSInfo@@ABE?AV?$basic_string@DU?$char_traits@D@std@@V?$allocator@D@2@@std@@AB_J@Z$2 00454730 f   systeminfo.obj
 0001:00053730       __unwindfunclet$??$toString@_J@RAMInfo@@ABE?AV?$basic_string@DU?$char_traits@D@std@@V?$allocator@D@2@@std@@AB_J@Z$2 00454730 f   systeminfo.obj
 0001:00053750       __unwindfunclet$??$toString@_J@GPUInfo@@ABE?AV?$basic_string@DU?$char_traits@D@std@@V?$allocator@D@2@@std@@AB_J@Z$3 00454750 f   systeminfo.obj
 0001:00053750       __unwindfunclet$??$toString@_J@OSInfo@@ABE?AV?$basic_string@DU?$char_traits@D@std@@V?$allocator@D@2@@std@@AB_J@Z$3 00454750 f   systeminfo.obj
 0001:00053750       __unwindfunclet$??$toString@_J@RAMInfo@@ABE?AV?$basic_string@DU?$char_traits@D@std@@V?$allocator@D@2@@std@@AB_J@Z$3 00454750 f   systeminfo.obj
 0001:0005375c       __unwindfunclet$??$toString@_J@GPUInfo@@ABE?AV?$basic_string@DU?$char_traits@D@std@@V?$allocator@D@2@@std@@AB_J@Z$0 0045475c f   systeminfo.obj
 0001:0005375c       __unwindfunclet$??$toString@_J@OSInfo@@ABE?AV?$basic_string@DU?$char_traits@D@std@@V?$allocator@D@2@@std@@AB_J@Z$0 0045475c f   systeminfo.obj
 0001:0005375c       __unwindfunclet$??$toString@_J@RAMInfo@@ABE?AV?$basic_string@DU?$char_traits@D@std@@V?$allocator@D@2@@std@@AB_J@Z$0 0045475c f   systeminfo.obj
 0001:00053767       __unwindfunclet$??$toString@_J@GPUInfo@@ABE?AV?$basic_string@DU?$char_traits@D@std@@V?$allocator@D@2@@std@@AB_J@Z$1 00454767 f   systeminfo.obj
 0001:00053767       __unwindfunclet$??$toString@_J@OSInfo@@ABE?AV?$basic_string@DU?$char_traits@D@std@@V?$allocator@D@2@@std@@AB_J@Z$1 00454767 f   systeminfo.obj
 0001:00053767       __unwindfunclet$??$toString@_J@RAMInfo@@ABE?AV?$basic_string@DU?$char_traits@D@std@@V?$allocator@D@2@@std@@AB_J@Z$1 00454767 f   systeminfo.obj
 0001:0005378e       __ehhandler$??$toString@_J@GPUInfo@@ABE?AV?$basic_string@DU?$char_traits@D@std@@V?$allocator@D@2@@std@@AB_J@Z 0045478e f   systeminfo.obj
 0001:0005378e       __ehhandler$??$toString@_J@OSInfo@@ABE?AV?$basic_string@DU?$char_traits@D@std@@V?$allocator@D@2@@std@@AB_J@Z 0045478e f   systeminfo.obj
 0001:0005378e       __ehhandler$??$toString@_J@RAMInfo@@ABE?AV?$basic_string@DU?$char_traits@D@std@@V?$allocator@D@2@@std@@AB_J@Z 0045478e f   systeminfo.obj
 0001:000537c0       __ehhandler$??$_Emplace_reallocate@AAV?$vector@V?$basic_string@DU?$char_traits@D@std@@V?$allocator@D@2@@std@@V?$allocator@V?$basic_string@DU?$char_traits@D@std@@V?$allocator@D@2@@std@@@2@@std@@AAH@?$vector@VGPUInfo@@V?$allocator@VGPUInfo@@@std@@@std@@QAEPAVGPUInfo@@QAV2@AAV?$vector@V?$basic_string@DU?$char_traits@D@std@@V?$allocator@D@2@@std@@V?$allocator@V?$basic_string@DU?$char_traits@D@std@@V?$allocator@D@2@@std@@@2@@1@AAH@Z 004547c0 f   systeminfo.obj
 0001:000537e0       __ehhandler$??$_Emplace_reallocate@AAV?$vector@V?$basic_string@DU?$char_traits@D@std@@V?$allocator@D@2@@std@@V?$allocator@V?$basic_string@DU?$char_traits@D@std@@V?$allocator@D@2@@std@@@2@@std@@AAH@?$vector@VMotherboardInfo@@V?$allocator@VMotherboardInfo@@@std@@@std@@QAEPAVMotherboardInfo@@QAV2@AAV?$vector@V?$basic_string@DU?$char_traits@D@std@@V?$allocator@D@2@@std@@V?$allocator@V?$basic_string@DU?$char_traits@D@std@@V?$allocator@D@2@@std@@@2@@1@AAH@Z 004547e0 f   systeminfo.obj
 0001:00053800       __ehhandler$??$_Emplace_reallocate@AAV?$vector@V?$basic_string@DU?$char_traits@D@std@@V?$allocator@D@2@@std@@V?$allocator@V?$basic_string@DU?$char_traits@D@std@@V?$allocator@D@2@@std@@@2@@std@@AAH@?$vector@VOSInfo@@V?$allocator@VOSInfo@@@std@@@std@@QAEPAVOSInfo@@QAV2@AAV?$vector@V?$basic_string@DU?$char_traits@D@std@@V?$allocator@D@2@@std@@V?$allocator@V?$basic_string@DU?$char_traits@D@std@@V?$allocator@D@2@@std@@@2@@1@AAH@Z 00454800 f   systeminfo.obj
 0001:00053820       __ehhandler$??$_Emplace_reallocate@AAV?$vector@V?$basic_string@DU?$char_traits@D@std@@V?$allocator@D@2@@std@@V?$allocator@V?$basic_string@DU?$char_traits@D@std@@V?$allocator@D@2@@std@@@2@@std@@AAH@?$vector@VRAMInfo@@V?$allocator@VRAMInfo@@@std@@@std@@QAEPAVRAMInfo@@QAV2@AAV?$vector@V?$basic_string@DU?$char_traits@D@std@@V?$allocator@D@2@@std@@V?$allocator@V?$basic_string@DU?$char_traits@D@std@@V?$allocator@D@2@@std@@@2@@1@AAH@Z 00454820 f   systeminfo.obj
 0001:00053840       __ehhandler$??$_Emplace_reallocate@ABV?$basic_string@DU?$char_traits@D@std@@V?$allocator@D@2@@std@@@?$vector@V?$basic_string@DU?$char_traits@D@std@@V?$allocator@D@2@@std@@V?$allocator@V?$basic_string@DU?$char_traits@D@std@@V?$allocator@D@2@@std@@@2@@std@@QAEPAV?$basic_string@DU?$char_traits@D@std@@V?$allocator@D@2@@1@QAV21@ABV21@@Z 00454840 f   systeminfo.obj
 0001:00053860       __unwindfunclet$??$_Insert_string@DU?$char_traits@D@std@@I@std@@YAAAV?$basic_ostream@DU?$char_traits@D@std@@@0@AAV10@QBDI@Z$3 00454860 f   systeminfo.obj
 0001:00053868       __unwindfunclet$??$_Insert_string@DU?$char_traits@D@std@@I@std@@YAAAV?$basic_ostream@DU?$char_traits@D@std@@@0@AAV10@QBDI@Z$2 00454868 f   systeminfo.obj
 0001:00053875       __ehhandler$??$_Insert_string@DU?$char_traits@D@std@@I@std@@YAAAV?$basic_ostream@DU?$char_traits@D@std@@@0@AAV10@QBDI@Z 00454875 f   systeminfo.obj
 0001:000538a0       __unwindfunclet$??$_Uninitialized_copy@PAVOSInfo@@V?$allocator@VOSInfo@@@std@@@std@@YAPAVOSInfo@@QAV1@0PAV1@AAV?$allocator@VOSInfo@@@0@@Z$0 004548a0 f   systeminfo.obj
 0001:000538a8       __unwindfunclet$??$_Uninitialized_copy@PAVOSInfo@@V?$allocator@VOSInfo@@@std@@@std@@YAPAVOSInfo@@QAV1@0PAV1@AAV?$allocator@VOSInfo@@@0@@Z$1 004548a8 f   systeminfo.obj
 0001:000538b0       __unwindfunclet$??$_Uninitialized_copy@PAVOSInfo@@V?$allocator@VOSInfo@@@std@@@std@@YAPAVOSInfo@@QAV1@0PAV1@AAV?$allocator@VOSInfo@@@0@@Z$2 004548b0 f   systeminfo.obj
 0001:000538bb       __unwindfunclet$??$_Uninitialized_copy@PAVOSInfo@@V?$allocator@VOSInfo@@@std@@@std@@YAPAVOSInfo@@QAV1@0PAV1@AAV?$allocator@VOSInfo@@@0@@Z$3 004548bb f   systeminfo.obj
 0001:000538c6       __unwindfunclet$??$_Uninitialized_copy@PAVOSInfo@@V?$allocator@VOSInfo@@@std@@@std@@YAPAVOSInfo@@QAV1@0PAV1@AAV?$allocator@VOSInfo@@@0@@Z$4 004548c6 f   systeminfo.obj
 0001:000538d1       __unwindfunclet$??$_Uninitialized_copy@PAVOSInfo@@V?$allocator@VOSInfo@@@std@@@std@@YAPAVOSInfo@@QAV1@0PAV1@AAV?$allocator@VOSInfo@@@0@@Z$5 004548d1 f   systeminfo.obj
 0001:000538dc       __unwindfunclet$??$_Uninitialized_copy@PAVOSInfo@@V?$allocator@VOSInfo@@@std@@@std@@YAPAVOSInfo@@QAV1@0PAV1@AAV?$allocator@VOSInfo@@@0@@Z$6 004548dc f   systeminfo.obj
 0001:000538e7       __unwindfunclet$??$_Uninitialized_copy@PAVOSInfo@@V?$allocator@VOSInfo@@@std@@@std@@YAPAVOSInfo@@QAV1@0PAV1@AAV?$allocator@VOSInfo@@@0@@Z$7 004548e7 f   systeminfo.obj
 0001:000538f5       __unwindfunclet$??$_Uninitialized_copy@PAVOSInfo@@V?$allocator@VOSInfo@@@std@@@std@@YAPAVOSInfo@@QAV1@0PAV1@AAV?$allocator@VOSInfo@@@0@@Z$8 004548f5 f   systeminfo.obj
 0001:00053903       __unwindfunclet$??$_Uninitialized_copy@PAVOSInfo@@V?$allocator@VOSInfo@@@std@@@std@@YAPAVOSInfo@@QAV1@0PAV1@AAV?$allocator@VOSInfo@@@0@@Z$9 00454903 f   systeminfo.obj
 0001:00053911       __unwindfunclet$??$_Uninitialized_copy@PAVOSInfo@@V?$allocator@VOSInfo@@@std@@@std@@YAPAVOSInfo@@QAV1@0PAV1@AAV?$allocator@VOSInfo@@@0@@Z$10 00454911 f   systeminfo.obj
 0001:0005391f       __unwindfunclet$??$_Uninitialized_copy@PAVOSInfo@@V?$allocator@VOSInfo@@@std@@@std@@YAPAVOSInfo@@QAV1@0PAV1@AAV?$allocator@VOSInfo@@@0@@Z$11 0045491f f   systeminfo.obj
 0001:0005392d       __unwindfunclet$??$_Uninitialized_copy@PAVOSInfo@@V?$allocator@VOSInfo@@@std@@@std@@YAPAVOSInfo@@QAV1@0PAV1@AAV?$allocator@VOSInfo@@@0@@Z$12 0045492d f   systeminfo.obj
 0001:0005393b       __unwindfunclet$??$_Uninitialized_copy@PAVOSInfo@@V?$allocator@VOSInfo@@@std@@@std@@YAPAVOSInfo@@QAV1@0PAV1@AAV?$allocator@VOSInfo@@@0@@Z$13 0045493b f   systeminfo.obj
 0001:0005394e       __ehhandler$??$_Uninitialized_copy@PAVOSInfo@@V?$allocator@VOSInfo@@@std@@@std@@YAPAVOSInfo@@QAV1@0PAV1@AAV?$allocator@VOSInfo@@@0@@Z 0045494e f   systeminfo.obj
 0001:00053980       __unwindfunclet$??$?5DU?$char_traits@D@std@@V?$allocator@D@1@@std@@YAAAV?$basic_istream@DU?$char_traits@D@std@@@0@$$QAV10@AAV?$basic_string@DU?$char_traits@D@std@@V?$allocator@D@2@@0@@Z$4 00454980 f   systeminfo.obj
 0001:00053988       __unwindfunclet$??$?5DU?$char_traits@D@std@@V?$allocator@D@1@@std@@YAAAV?$basic_istream@DU?$char_traits@D@std@@@0@$$QAV10@AAV?$basic_string@DU?$char_traits@D@std@@V?$allocator@D@2@@0@@Z$2 00454988 f   systeminfo.obj
 0001:00053990       __unwindfunclet$??$?5DU?$char_traits@D@std@@V?$allocator@D@1@@std@@YAAAV?$basic_istream@DU?$char_traits@D@std@@@0@$$QAV10@AAV?$basic_string@DU?$char_traits@D@std@@V?$allocator@D@2@@0@@Z$3 00454990 f   systeminfo.obj
 0001:0005399d       __ehhandler$??$?5DU?$char_traits@D@std@@V?$allocator@D@1@@std@@YAAAV?$basic_istream@DU?$char_traits@D@std@@@0@$$QAV10@AAV?$basic_string@DU?$char_traits@D@std@@V?$allocator@D@2@@0@@Z 0045499d f   systeminfo.obj
 0001:000539c0       __ehhandler$??1sentry@?$basic_istream@DU?$char_traits@D@std@@@std@@QAE@XZ 004549c0 f   systeminfo.obj
 0001:000539e0       ??__F?TEMPERATURE_QUERY_STRING@CPUInfo@@0V?$basic_string@DU?$char_traits@D@std@@V?$allocator@D@2@@std@@B@@YAXXZ 004549e0 f   systeminfo.obj
 0001:00053a40       ??__F?TEMPERATURE_ERROR_IDENTIFIER_STRING@CPUInfo@@0V?$basic_string@DU?$char_traits@D@std@@V?$allocator@D@2@@std@@B@@YAXXZ 00454a40 f   systeminfo.obj
 0001:00053aa0       ??__F?CLOCK_SPEED_QUERY_STRING@CPUInfo@@0V?$basic_string@DU?$char_traits@D@std@@V?$allocator@D@2@@std@@B@@YAXXZ 00454aa0 f   systeminfo.obj
 0001:00053b00       ??__F?CURRENT_CLOCK_SPEED_IDENTIFIER_STRING@CPUInfo@@0V?$basic_string@DU?$char_traits@D@std@@V?$allocator@D@2@@std@@B@@YAXXZ 00454b00 f   systeminfo.obj
 0001:00053b60       ??__F?NAME_IDENTIFIER_STRING@CPUInfo@@0V?$basic_string@DU?$char_traits@D@std@@V?$allocator@D@2@@std@@B@@YAXXZ 00454b60 f   systeminfo.obj
 0001:00053bc0       ??__F?NUMBER_OF_CORES_IDENTIFIER_STRING@CPUInfo@@0V?$basic_string@DU?$char_traits@D@std@@V?$allocator@D@2@@std@@B@@YAXXZ 00454bc0 f   systeminfo.obj
 0001:00053c20       ??__F?MANUFACTURER_IDENTIFIER_STRING@CPUInfo@@0V?$basic_string@DU?$char_traits@D@std@@V?$allocator@D@2@@std@@B@@YAXXZ 00454c20 f   systeminfo.obj
 0001:00053c80       ??__F?ARCHITECTURE_IDENTIFIER_STRING@CPUInfo@@0V?$basic_string@DU?$char_traits@D@std@@V?$allocator@D@2@@std@@B@@YAXXZ 00454c80 f   systeminfo.obj
 0001:00053ce0       ??__F?L2_CACHE_SIZE_IDENTIFIER_STRING@CPUInfo@@0V?$basic_string@DU?$char_traits@D@std@@V?$allocator@D@2@@std@@B@@YAXXZ 00454ce0 f   systeminfo.obj
 0001:00053d40       ??__F?L3_CACHE_SIZE_IDENTIFIER_STRING@CPUInfo@@0V?$basic_string@DU?$char_traits@D@std@@V?$allocator@D@2@@std@@B@@YAXXZ 00454d40 f   systeminfo.obj
 0001:00053da0       ??__F?CPU_INFO_QUERY_STRING@CPUInfoDelegate@@0V?$basic_string@DU?$char_traits@D@std@@V?$allocator@D@2@@std@@B@@YAXXZ 00454da0 f   systeminfo.obj
 0001:00053e00       ??__F?CPU_INSTANCE_QUERY_STRING@CPUInfoDelegate@@0V?$basic_string@DU?$char_traits@D@std@@V?$allocator@D@2@@std@@B@@YAXXZ 00454e00 f   systeminfo.obj
 0001:00053e60       ??__F?CPU_INFO_END_IDENTIFIER_STRING@CPUInfoDelegate@@0V?$basic_string@DU?$char_traits@D@std@@V?$allocator@D@2@@std@@B@@YAXXZ 00454e60 f   systeminfo.obj
 0001:00053ec0       ??__F?NVIDIA_IDENTIFIER_STRING@GPUInfo@@0V?$basic_string@DU?$char_traits@D@std@@V?$allocator@D@2@@std@@B@@YAXXZ 00454ec0 f   systeminfo.obj
 0001:00053f20       ??__F?INTEL_IDENTIFIER_STRING@GPUInfo@@0V?$basic_string@DU?$char_traits@D@std@@V?$allocator@D@2@@std@@B@@YAXXZ 00454f20 f   systeminfo.obj
 0001:00053f80       ??__F?AMD_IDENTIFIER_STRING@GPUInfo@@0V?$basic_string@DU?$char_traits@D@std@@V?$allocator@D@2@@std@@B@@YAXXZ 00454f80 f   systeminfo.obj
 0001:00053fe0       ??__F?NAME_IDENTIFIER_STRING@GPUInfo@@0V?$basic_string@DU?$char_traits@D@std@@V?$allocator@D@2@@std@@B@@YAXXZ 00454fe0 f   systeminfo.obj
 0001:00054040       ??__F?MANUFACTURER_IDENTIFIER_STRING@GPUInfo@@0V?$basic_string@DU?$char_traits@D@std@@V?$allocator@D@2@@std@@B@@YAXXZ 00455040 f   systeminfo.obj
 0001:000540a0       ??__F?ADAPTER_RAM_IDENTIFIER_STRING@GPUInfo@@0V?$basic_string@DU?$char_traits@D@std@@V?$allocator@D@2@@std@@B@@YAXXZ 004550a0 f   systeminfo.obj
 0001:00054100       ??__F?REFRESH_RATE_IDENTIFIER_STRING@GPUInfo@@0V?$basic_string@DU?$char_traits@D@std@@V?$allocator@D@2@@std@@B@@YAXXZ 00455100 f   systeminfo.obj
 0001:00054160       ??__F?DRIVER_VERSION_IDENTIFIER_STRING@GPUInfo@@0V?$basic_string@DU?$char_traits@D@std@@V?$allocator@D@2@@std@@B@@YAXXZ 00455160 f   systeminfo.obj
 0001:000541c0       ??__F?VIDEO_ARCHITECTURE_IDENTIFIER_STRING@GPUInfo@@0V?$basic_string@DU?$char_traits@D@std@@V?$allocator@D@2@@std@@B@@YAXXZ 004551c0 f   systeminfo.obj
 0001:00054220       ??__F?VIDEO_MEMORY_TYPE_IDENTIFIER_STRING@GPUInfo@@0V?$basic_string@DU?$char_traits@D@std@@V?$allocator@D@2@@std@@B@@YAXXZ 00455220 f   systeminfo.obj
 0001:00054280       ??__F?VIDEO_MODE_DESCRIPTION_IDENTIFIER_STRING@GPUInfo@@0V?$basic_string@DU?$char_traits@D@std@@V?$allocator@D@2@@std@@B@@YAXXZ 00455280 f   systeminfo.obj
 0001:000542e0       ??__F?VIDEO_PROCESSOR_IDENTIFIER_STRING@GPUInfo@@0V?$basic_string@DU?$char_traits@D@std@@V?$allocator@D@2@@std@@B@@YAXXZ 004552e0 f   systeminfo.obj
 0001:00054340       ??__F?CAPTION_IDENTIFIER_STRING@GPUInfo@@0V?$basic_string@DU?$char_traits@D@std@@V?$allocator@D@2@@std@@B@@YAXXZ 00455340 f   systeminfo.obj
 0001:000543a0       ??__F?GPU_INFO_QUERY_STRING@GPUInfoDelegate@@0V?$basic_string@DU?$char_traits@D@std@@V?$allocator@D@2@@std@@B@@YAXXZ 004553a0 f   systeminfo.obj
 0001:00054400       ??__F?GPU_INSTANCE_QUERY_STRING@GPUInfoDelegate@@0V?$basic_string@DU?$char_traits@D@std@@V?$allocator@D@2@@std@@B@@YAXXZ 00455400 f   systeminfo.obj
 0001:00054460       ??__F?GPU_INFO_END_IDENTIFIER_STRING@GPUInfoDelegate@@0V?$basic_string@DU?$char_traits@D@std@@V?$allocator@D@2@@std@@B@@YAXXZ 00455460 f   systeminfo.obj
 0001:000544c0       ??__F?CHIPSET_QUERY_STRING@MotherboardInfo@@0V?$basic_string@DU?$char_traits@D@std@@V?$allocator@D@2@@std@@B@@YAXXZ 004554c0 f   systeminfo.obj
 0001:00054520       ??__F?NAME_IDENTIFIER_STRING@MotherboardInfo@@0V?$basic_string@DU?$char_traits@D@std@@V?$allocator@D@2@@std@@B@@YAXXZ 00455520 f   systeminfo.obj
 0001:00054580       ??__F?MANUFACTURER_IDENTIFIER_STRING@MotherboardInfo@@0V?$basic_string@DU?$char_traits@D@std@@V?$allocator@D@2@@std@@B@@YAXXZ 00455580 f   systeminfo.obj
 0001:000545e0       ??__F?CHIPSET_IDENTIFIER_STRING@MotherboardInfo@@0V?$basic_string@DU?$char_traits@D@std@@V?$allocator@D@2@@std@@B@@YAXXZ 004555e0 f   systeminfo.obj
 0001:00054640       ??__F?CHIPSET_END_IDENTIFIER_STRING@MotherboardInfo@@0V?$basic_string@DU?$char_traits@D@std@@V?$allocator@D@2@@std@@B@@YAXXZ 00455640 f   systeminfo.obj
 0001:000546a0       ??__F?SERIAL_NUMBER_IDENTIFIER_STRING@MotherboardInfo@@0V?$basic_string@DU?$char_traits@D@std@@V?$allocator@D@2@@std@@B@@YAXXZ 004556a0 f   systeminfo.obj
 0001:00054700       ??__F?VERSION_IDENTIFIER_STRING@MotherboardInfo@@0V?$basic_string@DU?$char_traits@D@std@@V?$allocator@D@2@@std@@B@@YAXXZ 00455700 f   systeminfo.obj
 0001:00054760       ??__F?MOTHERBOARD_INFO_QUERY_STRING@MotherboardInfoDelegate@@0V?$basic_string@DU?$char_traits@D@std@@V?$allocator@D@2@@std@@B@@YAXXZ 00455760 f   systeminfo.obj
 0001:000547c0       ??__F?MOTHERBOARD_INSTANCE_QUERY_STRING@MotherboardInfoDelegate@@0V?$basic_string@DU?$char_traits@D@std@@V?$allocator@D@2@@std@@B@@YAXXZ 004557c0 f   systeminfo.obj
 0001:00054820       ??__F?MOTHERBOARD_INFO_END_IDENTIFIER_STRING@MotherboardInfoDelegate@@0V?$basic_string@DU?$char_traits@D@std@@V?$allocator@D@2@@std@@B@@YAXXZ 00455820 f   systeminfo.obj
 0001:00054880       ??__F?ARCHITECTURE_IDENTIFIER_STRING@OSInfo@@0V?$basic_string@DU?$char_traits@D@std@@V?$allocator@D@2@@std@@B@@YAXXZ 00455880 f   systeminfo.obj
 0001:000548e0       ??__F?CAPTION_INDENTIFIER_STRING@OSInfo@@0V?$basic_string@DU?$char_traits@D@std@@V?$allocator@D@2@@std@@B@@YAXXZ 004558e0 f   systeminfo.obj
 0001:00054940       ??__F?NAME_IDENTIFIER_STRING@OSInfo@@0V?$basic_string@DU?$char_traits@D@std@@V?$allocator@D@2@@std@@B@@YAXXZ 00455940 f   systeminfo.obj
 0001:000549a0       ??__F?MANUFACTURER_IDENTIFIER_STRING@OSInfo@@0V?$basic_string@DU?$char_traits@D@std@@V?$allocator@D@2@@std@@B@@YAXXZ 004559a0 f   systeminfo.obj
 0001:00054a00       ??__F?VERSION_IDENTIFIER_STRING@OSInfo@@0V?$basic_string@DU?$char_traits@D@std@@V?$allocator@D@2@@std@@B@@YAXXZ 00455a00 f   systeminfo.obj
 0001:00054a60       ??__F?CURRENT_USER_IDENTIFIER_STRING@OSInfo@@0V?$basic_string@DU?$char_traits@D@std@@V?$allocator@D@2@@std@@B@@YAXXZ 00455a60 f   systeminfo.obj
 0001:00054ac0       ??__F?INSTALL_DATE_IDENTIFIER_STRING@OSInfo@@0V?$basic_string@DU?$char_traits@D@std@@V?$allocator@D@2@@std@@B@@YAXXZ 00455ac0 f   systeminfo.obj
 0001:00054b20       ??__F?BUILD_NUMBER_IDENTIFIER_STRING@OSInfo@@0V?$basic_string@DU?$char_traits@D@std@@V?$allocator@D@2@@std@@B@@YAXXZ 00455b20 f   systeminfo.obj
 0001:00054b80       ??__F?LAST_BOOT_UP_TIME_IDENTIFIER_STRING@OSInfo@@0V?$basic_string@DU?$char_traits@D@std@@V?$allocator@D@2@@std@@B@@YAXXZ 00455b80 f   systeminfo.obj
 0001:00054be0       ??__F?BOOT_DEVICE_IDENTIFIER_STRING@OSInfo@@0V?$basic_string@DU?$char_traits@D@std@@V?$allocator@D@2@@std@@B@@YAXXZ 00455be0 f   systeminfo.obj
 0001:00054c40       ??__F?SERIAL_NUMBER_IDENTIFIER_STRING@OSInfo@@0V?$basic_string@DU?$char_traits@D@std@@V?$allocator@D@2@@std@@B@@YAXXZ 00455c40 f   systeminfo.obj
 0001:00054ca0       ??__F?TOTAL_VIRTUAL_MEMORY_SIZE_IDENTIFIER_STRING@OSInfo@@0V?$basic_string@DU?$char_traits@D@std@@V?$allocator@D@2@@std@@B@@YAXXZ 00455ca0 f   systeminfo.obj
 0001:00054d00       ??__F?TOTAL_VISIBLE_MEMORY_SIZE_IDENTIFIER_STRING@OSInfo@@0V?$basic_string@DU?$char_traits@D@std@@V?$allocator@D@2@@std@@B@@YAXXZ 00455d00 f   systeminfo.obj
 0001:00054d60       ??__F?TOTAL_SWAP_SIZE_IDENTIFIER_STRING@OSInfo@@0V?$basic_string@DU?$char_traits@D@std@@V?$allocator@D@2@@std@@B@@YAXXZ 00455d60 f   systeminfo.obj
 0001:00054dc0       ??__F?FREE_PHYSICAL_MEMORY_IDENTIFIER_STRING@OSInfo@@0V?$basic_string@DU?$char_traits@D@std@@V?$allocator@D@2@@std@@B@@YAXXZ 00455dc0 f   systeminfo.obj
 0001:00054e20       ??__F?FREE_PHYSICAL_MEMORY_QUERY_STRING@OSInfo@@0V?$basic_string@DU?$char_traits@D@std@@V?$allocator@D@2@@std@@B@@YAXXZ 00455e20 f   systeminfo.obj
 0001:00054e80       ??__F?FREE_VIRTUAL_MEMORY_IDENTIFIER_STRING@OSInfo@@0V?$basic_string@DU?$char_traits@D@std@@V?$allocator@D@2@@std@@B@@YAXXZ 00455e80 f   systeminfo.obj
 0001:00054ee0       ??__F?FREE_VIRTUAL_MEMORY_QUERY_STRING@OSInfo@@0V?$basic_string@DU?$char_traits@D@std@@V?$allocator@D@2@@std@@B@@YAXXZ 00455ee0 f   systeminfo.obj
 0001:00054f40       ??__F?FREE_SPACE_IN_PAGING_FILES_IDENTIFIER_STRING@OSInfo@@0V?$basic_string@DU?$char_traits@D@std@@V?$allocator@D@2@@std@@B@@YAXXZ 00455f40 f   systeminfo.obj
 0001:00054fa0       ??__F?FREE_SPACE_IN_PAGING_FILES_QUERY_STRING@OSInfo@@0V?$basic_string@DU?$char_traits@D@std@@V?$allocator@D@2@@std@@B@@YAXXZ 00455fa0 f   systeminfo.obj
 0001:00055000       ??__F?USED_SPACE_IN_PAGING_FILE_IDENTIFIER_STRING@OSInfo@@0V?$basic_string@DU?$char_traits@D@std@@V?$allocator@D@2@@std@@B@@YAXXZ 00456000 f   systeminfo.obj
 0001:00055060       ??__F?USED_SPACE_IN_PAGING_FILE_QUERY_STRING@OSInfo@@0V?$basic_string@DU?$char_traits@D@std@@V?$allocator@D@2@@std@@B@@YAXXZ 00456060 f   systeminfo.obj
 0001:000550c0       ??__F?CURRENT_DATE_TIME_IDENTIFIER_STRING@OSInfo@@0V?$basic_string@DU?$char_traits@D@std@@V?$allocator@D@2@@std@@B@@YAXXZ 004560c0 f   systeminfo.obj
 0001:00055120       ??__F?CURRENT_DATE_TIME_QUERY_STRING@OSInfo@@0V?$basic_string@DU?$char_traits@D@std@@V?$allocator@D@2@@std@@B@@YAXXZ 00456120 f   systeminfo.obj
 0001:00055180       ??__F?OS_INFO_QUERY_STRING@OSInfoDelegate@@0V?$basic_string@DU?$char_traits@D@std@@V?$allocator@D@2@@std@@B@@YAXXZ 00456180 f   systeminfo.obj
 0001:000551e0       ??__F?OS_INSTANCE_QUERY_STRING@OSInfoDelegate@@0V?$basic_string@DU?$char_traits@D@std@@V?$allocator@D@2@@std@@B@@YAXXZ 004561e0 f   systeminfo.obj
 0001:00055240       ??__F?OS_INFO_END_IDENTIFIER_STRING@OSInfoDelegate@@0V?$basic_string@DU?$char_traits@D@std@@V?$allocator@D@2@@std@@B@@YAXXZ 00456240 f   systeminfo.obj
 0001:000552a0       ??__F?NAME_IDENTIFIER_STRING@RAMInfo@@0V?$basic_string@DU?$char_traits@D@std@@V?$allocator@D@2@@std@@B@@YAXXZ 004562a0 f   systeminfo.obj
 0001:00055300       ??__F?MANUFACTURER_IDENTIFIER_STRING@RAMInfo@@0V?$basic_string@DU?$char_traits@D@std@@V?$allocator@D@2@@std@@B@@YAXXZ 00456300 f   systeminfo.obj
 0001:00055360       ??__F?CAPACITY_IDENTIFIER_STRING@RAMInfo@@0V?$basic_string@DU?$char_traits@D@std@@V?$allocator@D@2@@std@@B@@YAXXZ 00456360 f   systeminfo.obj
 0001:000553c0       ??__F?SERIAL_NUMBER_IDENTIFIER_STRING@RAMInfo@@0V?$basic_string@DU?$char_traits@D@std@@V?$allocator@D@2@@std@@B@@YAXXZ 004563c0 f   systeminfo.obj
 0001:00055420       ??__F?FORM_FACTOR_IDENTIFIER_STRING@RAMInfo@@0V?$basic_string@DU?$char_traits@D@std@@V?$allocator@D@2@@std@@B@@YAXXZ 00456420 f   systeminfo.obj
 0001:00055480       ??__F?PART_NUMBER_IDENTIFIER_STRING@RAMInfo@@0V?$basic_string@DU?$char_traits@D@std@@V?$allocator@D@2@@std@@B@@YAXXZ 00456480 f   systeminfo.obj
 0001:000554e0       ??__F?MEMORY_TYPE_IDENTIFIER_STRING@RAMInfo@@0V?$basic_string@DU?$char_traits@D@std@@V?$allocator@D@2@@std@@B@@YAXXZ 004564e0 f   systeminfo.obj
 0001:00055540       ??__F?CLOCK_SPEED_IDENTIFIER_STRING@RAMInfo@@0V?$basic_string@DU?$char_traits@D@std@@V?$allocator@D@2@@std@@B@@YAXXZ 00456540 f   systeminfo.obj
 0001:000555a0       ??__F?BACKUP_CLOCK_SPEED_IDENTIFIER_STRING@RAMInfo@@0V?$basic_string@DU?$char_traits@D@std@@V?$allocator@D@2@@std@@B@@YAXXZ 004565a0 f   systeminfo.obj
 0001:00055600       ??__F?RAM_INFO_QUERY_STRING@RAMInfoDelegate@@0V?$basic_string@DU?$char_traits@D@std@@V?$allocator@D@2@@std@@B@@YAXXZ 00456600 f   systeminfo.obj
 0001:00055660       ??__F?RAM_INSTANCE_QUERY_STRING@RAMInfoDelegate@@0V?$basic_string@DU?$char_traits@D@std@@V?$allocator@D@2@@std@@B@@YAXXZ 00456660 f   systeminfo.obj
 0001:000556c0       ??__F?RAM_INFO_END_IDENTIFIER_STRING@RAMInfoDelegate@@0V?$basic_string@DU?$char_traits@D@std@@V?$allocator@D@2@@std@@B@@YAXXZ 004566c0 f   systeminfo.obj
 0001:00055717       ??__F_Fac_tidy_reg@std@@YAXXZ 00456717 f   msvcprt:locale0_implib.obj
 0002:000004b0       ?pre_cpp_initializer@@3P6AXXZA 004574b0     MSVCRT:exe_winmain.obj
 0002:000004b4       ?_Fac_tidy_reg$initializer$@std@@3P6AXXZA 004574b4     msvcprt:locale0_implib.obj
 0002:000004b8       ?g_hWarcraftWnd$initializer$@@3P6AXXZA 004574b8     Main.obj
 0002:000004bc       ??TEMPERATURE_QUERY_STRING$initializer$@CPUInfo@@0P6AXXZA@@3P6AXXZA 004574bc     systeminfo.obj
 0002:000004c0       ??TEMPERATURE_ERROR_IDENTIFIER_STRING$initializer$@CPUInfo@@0P6AXXZA@@3P6AXXZA 004574c0     systeminfo.obj
 0002:000004c4       ??CLOCK_SPEED_QUERY_STRING$initializer$@CPUInfo@@0P6AXXZA@@3P6AXXZA 004574c4     systeminfo.obj
 0002:000004c8       ??CURRENT_CLOCK_SPEED_IDENTIFIER_STRING$initializer$@CPUInfo@@0P6AXXZA@@3P6AXXZA 004574c8     systeminfo.obj
 0002:000004cc       ??NAME_IDENTIFIER_STRING$initializer$@CPUInfo@@0P6AXXZA@@3P6AXXZA 004574cc     systeminfo.obj
 0002:000004d0       ??NUMBER_OF_CORES_IDENTIFIER_STRING$initializer$@CPUInfo@@0P6AXXZA@@3P6AXXZA 004574d0     systeminfo.obj
 0002:000004d4       ??MANUFACTURER_IDENTIFIER_STRING$initializer$@CPUInfo@@0P6AXXZA@@3P6AXXZA 004574d4     systeminfo.obj
 0002:000004d8       ??ARCHITECTURE_IDENTIFIER_STRING$initializer$@CPUInfo@@0P6AXXZA@@3P6AXXZA 004574d8     systeminfo.obj
 0002:000004dc       ??L2_CACHE_SIZE_IDENTIFIER_STRING$initializer$@CPUInfo@@0P6AXXZA@@3P6AXXZA 004574dc     systeminfo.obj
 0002:000004e0       ??L3_CACHE_SIZE_IDENTIFIER_STRING$initializer$@CPUInfo@@0P6AXXZA@@3P6AXXZA 004574e0     systeminfo.obj
 0002:000004e4       ??CPU_INFO_QUERY_STRING$initializer$@CPUInfoDelegate@@0P6AXXZA@@3P6AXXZA 004574e4     systeminfo.obj
 0002:000004e8       ??CPU_INSTANCE_QUERY_STRING$initializer$@CPUInfoDelegate@@0P6AXXZA@@3P6AXXZA 004574e8     systeminfo.obj
 0002:000004ec       ??CPU_INFO_END_IDENTIFIER_STRING$initializer$@CPUInfoDelegate@@0P6AXXZA@@3P6AXXZA 004574ec     systeminfo.obj
 0002:000004f0       ??NVIDIA_IDENTIFIER_STRING$initializer$@GPUInfo@@0P6AXXZA@@3P6AXXZA 004574f0     systeminfo.obj
 0002:000004f4       ??INTEL_IDENTIFIER_STRING$initializer$@GPUInfo@@0P6AXXZA@@3P6AXXZA 004574f4     systeminfo.obj
 0002:000004f8       ??AMD_IDENTIFIER_STRING$initializer$@GPUInfo@@0P6AXXZA@@3P6AXXZA 004574f8     systeminfo.obj
 0002:000004fc       ??NAME_IDENTIFIER_STRING$initializer$@GPUInfo@@0P6AXXZA@@3P6AXXZA 004574fc     systeminfo.obj
 0002:00000500       ??MANUFACTURER_IDENTIFIER_STRING$initializer$@GPUInfo@@0P6AXXZA@@3P6AXXZA 00457500     systeminfo.obj
 0002:00000504       ??ADAPTER_RAM_IDENTIFIER_STRING$initializer$@GPUInfo@@0P6AXXZA@@3P6AXXZA 00457504     systeminfo.obj
 0002:00000508       ??REFRESH_RATE_IDENTIFIER_STRING$initializer$@GPUInfo@@0P6AXXZA@@3P6AXXZA 00457508     systeminfo.obj
 0002:0000050c       ??DRIVER_VERSION_IDENTIFIER_STRING$initializer$@GPUInfo@@0P6AXXZA@@3P6AXXZA 0045750c     systeminfo.obj
 0002:00000510       ??VIDEO_ARCHITECTURE_IDENTIFIER_STRING$initializer$@GPUInfo@@0P6AXXZA@@3P6AXXZA 00457510     systeminfo.obj
 0002:00000514       ??VIDEO_MEMORY_TYPE_IDENTIFIER_STRING$initializer$@GPUInfo@@0P6AXXZA@@3P6AXXZA 00457514     systeminfo.obj
 0002:00000518       ??VIDEO_MODE_DESCRIPTION_IDENTIFIER_STRING$initializer$@GPUInfo@@0P6AXXZA@@3P6AXXZA 00457518     systeminfo.obj
 0002:0000051c       ??VIDEO_PROCESSOR_IDENTIFIER_STRING$initializer$@GPUInfo@@0P6AXXZA@@3P6AXXZA 0045751c     systeminfo.obj
 0002:00000520       ??CAPTION_IDENTIFIER_STRING$initializer$@GPUInfo@@0P6AXXZA@@3P6AXXZA 00457520     systeminfo.obj
 0002:00000524       ??GPU_INFO_QUERY_STRING$initializer$@GPUInfoDelegate@@0P6AXXZA@@3P6AXXZA 00457524     systeminfo.obj
 0002:00000528       ??GPU_INSTANCE_QUERY_STRING$initializer$@GPUInfoDelegate@@0P6AXXZA@@3P6AXXZA 00457528     systeminfo.obj
 0002:0000052c       ??GPU_INFO_END_IDENTIFIER_STRING$initializer$@GPUInfoDelegate@@0P6AXXZA@@3P6AXXZA 0045752c     systeminfo.obj
 0002:00000530       ??CHIPSET_QUERY_STRING$initializer$@MotherboardInfo@@0P6AXXZA@@3P6AXXZA 00457530     systeminfo.obj
 0002:00000534       ??NAME_IDENTIFIER_STRING$initializer$@MotherboardInfo@@0P6AXXZA@@3P6AXXZA 00457534     systeminfo.obj
 0002:00000538       ??MANUFACTURER_IDENTIFIER_STRING$initializer$@MotherboardInfo@@0P6AXXZA@@3P6AXXZA 00457538     systeminfo.obj
 0002:0000053c       ??CHIPSET_IDENTIFIER_STRING$initializer$@MotherboardInfo@@0P6AXXZA@@3P6AXXZA 0045753c     systeminfo.obj
 0002:00000540       ??CHIPSET_END_IDENTIFIER_STRING$initializer$@MotherboardInfo@@0P6AXXZA@@3P6AXXZA 00457540     systeminfo.obj
 0002:00000544       ??SERIAL_NUMBER_IDENTIFIER_STRING$initializer$@MotherboardInfo@@0P6AXXZA@@3P6AXXZA 00457544     systeminfo.obj
 0002:00000548       ??VERSION_IDENTIFIER_STRING$initializer$@MotherboardInfo@@0P6AXXZA@@3P6AXXZA 00457548     systeminfo.obj
 0002:0000054c       ??MOTHERBOARD_INFO_QUERY_STRING$initializer$@MotherboardInfoDelegate@@0P6AXXZA@@3P6AXXZA 0045754c     systeminfo.obj
 0002:00000550       ??MOTHERBOARD_INSTANCE_QUERY_STRING$initializer$@MotherboardInfoDelegate@@0P6AXXZA@@3P6AXXZA 00457550     systeminfo.obj
 0002:00000554       ??MOTHERBOARD_INFO_END_IDENTIFIER_STRING$initializer$@MotherboardInfoDelegate@@0P6AXXZA@@3P6AXXZA 00457554     systeminfo.obj
 0002:00000558       ??ARCHITECTURE_IDENTIFIER_STRING$initializer$@OSInfo@@0P6AXXZA@@3P6AXXZA 00457558     systeminfo.obj
 0002:0000055c       ??CAPTION_INDENTIFIER_STRING$initializer$@OSInfo@@0P6AXXZA@@3P6AXXZA 0045755c     systeminfo.obj
 0002:00000560       ??NAME_IDENTIFIER_STRING$initializer$@OSInfo@@0P6AXXZA@@3P6AXXZA 00457560     systeminfo.obj
 0002:00000564       ??MANUFACTURER_IDENTIFIER_STRING$initializer$@OSInfo@@0P6AXXZA@@3P6AXXZA 00457564     systeminfo.obj
 0002:00000568       ??VERSION_IDENTIFIER_STRING$initializer$@OSInfo@@0P6AXXZA@@3P6AXXZA 00457568     systeminfo.obj
 0002:0000056c       ??CURRENT_USER_IDENTIFIER_STRING$initializer$@OSInfo@@0P6AXXZA@@3P6AXXZA 0045756c     systeminfo.obj
 0002:00000570       ??INSTALL_DATE_IDENTIFIER_STRING$initializer$@OSInfo@@0P6AXXZA@@3P6AXXZA 00457570     systeminfo.obj
 0002:00000574       ??BUILD_NUMBER_IDENTIFIER_STRING$initializer$@OSInfo@@0P6AXXZA@@3P6AXXZA 00457574     systeminfo.obj
 0002:00000578       ??LAST_BOOT_UP_TIME_IDENTIFIER_STRING$initializer$@OSInfo@@0P6AXXZA@@3P6AXXZA 00457578     systeminfo.obj
 0002:0000057c       ??BOOT_DEVICE_IDENTIFIER_STRING$initializer$@OSInfo@@0P6AXXZA@@3P6AXXZA 0045757c     systeminfo.obj
 0002:00000580       ??SERIAL_NUMBER_IDENTIFIER_STRING$initializer$@OSInfo@@0P6AXXZA@@3P6AXXZA 00457580     systeminfo.obj
 0002:00000584       ??TOTAL_VIRTUAL_MEMORY_SIZE_IDENTIFIER_STRING$initializer$@OSInfo@@0P6AXXZA@@3P6AXXZA 00457584     systeminfo.obj
 0002:00000588       ??TOTAL_VISIBLE_MEMORY_SIZE_IDENTIFIER_STRING$initializer$@OSInfo@@0P6AXXZA@@3P6AXXZA 00457588     systeminfo.obj
 0002:0000058c       ??TOTAL_SWAP_SIZE_IDENTIFIER_STRING$initializer$@OSInfo@@0P6AXXZA@@3P6AXXZA 0045758c     systeminfo.obj
 0002:00000590       ??FREE_PHYSICAL_MEMORY_IDENTIFIER_STRING$initializer$@OSInfo@@0P6AXXZA@@3P6AXXZA 00457590     systeminfo.obj
 0002:00000594       ??FREE_PHYSICAL_MEMORY_QUERY_STRING$initializer$@OSInfo@@0P6AXXZA@@3P6AXXZA 00457594     systeminfo.obj
 0002:00000598       ??FREE_VIRTUAL_MEMORY_IDENTIFIER_STRING$initializer$@OSInfo@@0P6AXXZA@@3P6AXXZA 00457598     systeminfo.obj
 0002:0000059c       ??FREE_VIRTUAL_MEMORY_QUERY_STRING$initializer$@OSInfo@@0P6AXXZA@@3P6AXXZA 0045759c     systeminfo.obj
 0002:000005a0       ??FREE_SPACE_IN_PAGING_FILES_IDENTIFIER_STRING$initializer$@OSInfo@@0P6AXXZA@@3P6AXXZA 004575a0     systeminfo.obj
 0002:000005a4       ??FREE_SPACE_IN_PAGING_FILES_QUERY_STRING$initializer$@OSInfo@@0P6AXXZA@@3P6AXXZA 004575a4     systeminfo.obj
 0002:000005a8       ??USED_SPACE_IN_PAGING_FILE_IDENTIFIER_STRING$initializer$@OSInfo@@0P6AXXZA@@3P6AXXZA 004575a8     systeminfo.obj
 0002:000005ac       ??USED_SPACE_IN_PAGING_FILE_QUERY_STRING$initializer$@OSInfo@@0P6AXXZA@@3P6AXXZA 004575ac     systeminfo.obj
 0002:000005b0       ??CURRENT_DATE_TIME_IDENTIFIER_STRING$initializer$@OSInfo@@0P6AXXZA@@3P6AXXZA 004575b0     systeminfo.obj
 0002:000005b4       ??CURRENT_DATE_TIME_QUERY_STRING$initializer$@OSInfo@@0P6AXXZA@@3P6AXXZA 004575b4     systeminfo.obj
 0002:000005b8       ??OS_INFO_QUERY_STRING$initializer$@OSInfoDelegate@@0P6AXXZA@@3P6AXXZA 004575b8     systeminfo.obj
 0002:000005bc       ??OS_INSTANCE_QUERY_STRING$initializer$@OSInfoDelegate@@0P6AXXZA@@3P6AXXZA 004575bc     systeminfo.obj
 0002:000005c0       ??OS_INFO_END_IDENTIFIER_STRING$initializer$@OSInfoDelegate@@0P6AXXZA@@3P6AXXZA 004575c0     systeminfo.obj
 0002:000005c4       ??NAME_IDENTIFIER_STRING$initializer$@RAMInfo@@0P6AXXZA@@3P6AXXZA 004575c4     systeminfo.obj
 0002:000005c8       ??MANUFACTURER_IDENTIFIER_STRING$initializer$@RAMInfo@@0P6AXXZA@@3P6AXXZA 004575c8     systeminfo.obj
 0002:000005cc       ??CAPACITY_IDENTIFIER_STRING$initializer$@RAMInfo@@0P6AXXZA@@3P6AXXZA 004575cc     systeminfo.obj
 0002:000005d0       ??SERIAL_NUMBER_IDENTIFIER_STRING$initializer$@RAMInfo@@0P6AXXZA@@3P6AXXZA 004575d0     systeminfo.obj
 0002:000005d4       ??FORM_FACTOR_IDENTIFIER_STRING$initializer$@RAMInfo@@0P6AXXZA@@3P6AXXZA 004575d4     systeminfo.obj
 0002:000005d8       ??PART_NUMBER_IDENTIFIER_STRING$initializer$@RAMInfo@@0P6AXXZA@@3P6AXXZA 004575d8     systeminfo.obj
 0002:000005dc       ??MEMORY_TYPE_IDENTIFIER_STRING$initializer$@RAMInfo@@0P6AXXZA@@3P6AXXZA 004575dc     systeminfo.obj
 0002:000005e0       ??CLOCK_SPEED_IDENTIFIER_STRING$initializer$@RAMInfo@@0P6AXXZA@@3P6AXXZA 004575e0     systeminfo.obj
 0002:000005e4       ??BACKUP_CLOCK_SPEED_IDENTIFIER_STRING$initializer$@RAMInfo@@0P6AXXZA@@3P6AXXZA 004575e4     systeminfo.obj
 0002:000005e8       ??RAM_INFO_QUERY_STRING$initializer$@RAMInfoDelegate@@0P6AXXZA@@3P6AXXZA 004575e8     systeminfo.obj
 0002:000005ec       ??RAM_INSTANCE_QUERY_STRING$initializer$@RAMInfoDelegate@@0P6AXXZA@@3P6AXXZA 004575ec     systeminfo.obj
 0002:000005f0       ??RAM_INFO_END_IDENTIFIER_STRING$initializer$@RAMInfoDelegate@@0P6AXXZA@@3P6AXXZA 004575f0     systeminfo.obj
 0002:000005fc       ?pre_c_initializer@@3P6AHXZA 004575fc     MSVCRT:exe_winmain.obj
 0002:00000600       ?post_pgo_initializer@@3P6AHXZA 00457600     MSVCRT:exe_winmain.obj
 0002:00000628       _GS_ExceptionPointers      00457628     MSVCRT:gs_report.obj
 0002:000006b8       ?finit@?1??mstate@@9@9     004576b8     libcurl:multi.obj
 0002:00000700       ?none@?3??Curl_update_timer@@9@9 00457700     libcurl:multi.obj
 0002:00000ba0       ?ctts@?1??Curl_mime_contenttype@@9@9 00457ba0     libcurl:mime.obj
 0002:00000bf0       _encoders                  00457bf0     libcurl:mime.obj
 0002:00000c38       _base64                    00457c38     libcurl:mime.obj
 0002:00000c80       _qp_class                  00457c80     libcurl:mime.obj
 0002:00000d80       _aschex                    00457d80     libcurl:mime.obj
 0002:00001040       _protocols                 00458040     libcurl:url.obj
 0002:00001080       _Curl_handler_dummy        00458080     libcurl:url.obj
 0002:000017e8       ?s_infotype@?2??Curl_debug@@9@9 004587e8     libcurl:sendf.obj
 0002:00001e38       _identity_encoding         00458e38     libcurl:content_encoding.obj
 0002:00001e50       _encodings                 00458e50     libcurl:content_encoding.obj
 0002:00001e58       _client_encoding           00458e58     libcurl:content_encoding.obj
 0002:00001e70       _error_encoding            00458e70     libcurl:content_encoding.obj
 0002:000020a8       ?KEY_NOTUSED@?1??Curl_splayinsert@@9@9 004590a8     libcurl:splay.obj
 0002:00003b94       ?lookup@?DF@??Curl_SOCKS5@@9@9 0045ab94     libcurl:socks.obj
 0002:000040c0       _lower_digits              0045b0c0     libcurl:mprintf.obj
 0002:000040e8       _upper_digits              0045b0e8     libcurl:mprintf.obj
 0002:00004110       ?null@?CE@??dprintf_formatf@@9@9 0045b110     libcurl:mprintf.obj
 0002:00004118       ?strnil@?DA@??dprintf_formatf@@9@9 0045b118     libcurl:mprintf.obj
 0002:00004140       ?digits@?1??inet_pton4@@9@9 0045b140     libcurl:inet_pton.obj
 0002:0000414c       ?xdigits_l@?1??inet_pton6@@9@9 0045b14c     libcurl:inet_pton.obj
 0002:00004160       ?xdigits_u@?1??inet_pton6@@9@9 0045b160     libcurl:inet_pton.obj
 0002:000041c4       _weekday                   0045b1c4     libcurl:parsedate.obj
 0002:000041e0       _tz                        0045b1e0     libcurl:parsedate.obj
 0002:0000451c       ?month_days_cumulative@?1??time2epoch@@9@9 0045b51c     libcurl:parsedate.obj
 0002:000046f0       _saslimap                  0045b6f0     libcurl:imap.obj
 0002:00004bb0       _saslpop3                  0045bbb0     libcurl:pop3.obj
 0002:00004ce8       _saslsmtp                  0045bce8     libcurl:smtp.obj
 0002:00005218       ?ftpauth@?1??ftp_statemachine@@9@9 0045c218     libcurl:ftp.obj
 0002:0000526c       ?mode@?1??ftp_state_use_port@@9@9 0045c26c     libcurl:ftp.obj
 0002:00005278       ?mode@?1??ftp_state_use_pasv@@9@9 0045c278     libcurl:ftp.obj
 0002:00006058       _telnetoptions             0045d058     libcurl:telnet.obj
 0002:000060f8       _telnetcmds                0045d0f8     libcurl:telnet.obj
 0002:000071cc       ?badbytes@?2??junkscan@@9@9 0045e1cc     libcurl:urlapi.obj
 0002:000072f8       _ascii                     0045e2f8     libcurl:curl_ctype.obj
 0002:000087b4       _errors                    0045f7b4     libcurl:doh.obj
 0002:000089c0       _base64                    0045f9c0     libcurl:base64.obj
 0002:00008a08       _base64url                 0045fa08     libcurl:base64.obj
 0002:00008a5c       ?type2_marker@?1??Curl_auth_decode_ntlm_type2_message@@9@9 0045fa5c     libcurl:ntlm.obj
 0002:00008f08       _mechtable                 0045ff08     libcurl:curl_sasl.obj
 0002:000090a4       ?magic@?1??Curl_ntlm_core_mk_lm_hash@@9@9 004600a4     libcurl:curl_ntlm_core.obj
 0002:00009124       _hmac_ipad                 00460124     libcurl:hmac.obj
 0002:00009125       _hmac_opad                 00460125     libcurl:hmac.obj
 0002:00009230       _NaN                       00460230     MSVCRT:ftol3.obj
 0002:00009234       _onept5                    00460234     MSVCRT:ftol3.obj
 0002:00009238       _DP2to32                   00460238     MSVCRT:ftol3.obj
 0002:00009238       _Int32ToUInt32             00460238     MSVCRT:ftol3.obj
 0002:00009d78       ??_7?$_Func_impl_no_alloc@V<lambda_b5565d269da327e336800d80f472b553>@@V?$basic_string@DU?$char_traits@D@std@@V?$allocator@D@2@@std@@ABV23@@std@@6B@ 00460d78     systeminfo.obj
 0002:0000a190       ??_R3?$_Func_impl_no_alloc@V<lambda_b5565d269da327e336800d80f472b553>@@V?$basic_string@DU?$char_traits@D@std@@V?$allocator@D@2@@std@@ABV23@@std@@8 00461190     systeminfo.obj
 0002:0000a37c       ??_R4?$_Func_impl_no_alloc@V<lambda_b5565d269da327e336800d80f472b553>@@V?$basic_string@DU?$char_traits@D@std@@V?$allocator@D@2@@std@@ABV23@@std@@6B@ 0046137c     systeminfo.obj
 0002:0000a3d4       ??_R2?$_Func_impl_no_alloc@V<lambda_b5565d269da327e336800d80f472b553>@@V?$basic_string@DU?$char_traits@D@std@@V?$allocator@D@2@@std@@ABV23@@std@@8 004613d4     systeminfo.obj
 0002:0000a440       ??_R1A@?0A@EA@?$_Func_impl_no_alloc@V<lambda_b5565d269da327e336800d80f472b553>@@V?$basic_string@DU?$char_traits@D@std@@V?$allocator@D@2@@std@@ABV23@@std@@8 00461440     systeminfo.obj
 0002:0000a848       __ehfuncinfo$?KEY@@YA?AV?$basic_string@DU?$char_traits@D@std@@V?$allocator@D@2@@std@@XZ 00461848     protect.obj
 0002:0000a870       __unwindtable$?KEY@@YA?AV?$basic_string@DU?$char_traits@D@std@@V?$allocator@D@2@@std@@XZ 00461870     protect.obj
 0002:0000a8f8       __ehfuncinfo$?write_to_string@@YAIPAXII0@Z 004618f8     protect.obj
 0002:0000a91c       __unwindtable$?write_to_string@@YAIPAXII0@Z 0046191c     protect.obj
 0002:0000a924       __ehfuncinfo$?IsValidTime@@YA_NHHH@Z 00461924     protect.obj
 0002:0000a948       __unwindtable$?IsValidTime@@YA_NHHH@Z 00461948     protect.obj
 0002:0000a958       __ehfuncinfo$??1sentry@?$basic_ostream@DU?$char_traits@D@std@@@std@@QAE@XZ 00461958     protect.obj
 0002:0000a958       __ehfuncinfo$??1sentry@?$basic_istream@DU?$char_traits@D@std@@@std@@QAE@XZ 00461958     systeminfo.obj
 0002:0000a97c       __unwindtable$??1sentry@?$basic_ostream@DU?$char_traits@D@std@@@std@@QAE@XZ 0046197c     protect.obj
 0002:0000a97c       __unwindtable$??1sentry@?$basic_istream@DU?$char_traits@D@std@@@std@@QAE@XZ 0046197c     systeminfo.obj
 0002:0000a984       __ehfuncinfo$??1_Sentry_base@?$basic_ostream@DU?$char_traits@D@std@@@std@@QAE@XZ 00461984     protect.obj
 0002:0000a984       __ehfuncinfo$??1?$basic_filebuf@DU?$char_traits@D@std@@@std@@UAE@XZ 00461984     systeminfo.obj
 0002:0000a984       __ehfuncinfo$??1_Sentry_base@?$basic_istream@DU?$char_traits@D@std@@@std@@QAE@XZ 00461984     systeminfo.obj
 0002:0000a9a8       __ehfuncinfo$??$?6U?$char_traits@D@std@@@std@@YAAAV?$basic_ostream@DU?$char_traits@D@std@@@0@AAV10@PBD@Z 004619a8     protect.obj
 0002:0000a9cc       __unwindtable$??$?6U?$char_traits@D@std@@@std@@YAAAV?$basic_ostream@DU?$char_traits@D@std@@@0@AAV10@PBD@Z 004619cc     protect.obj
 0002:0000a9fc       __tryblocktable$??$?6U?$char_traits@D@std@@@std@@YAAAV?$basic_ostream@DU?$char_traits@D@std@@@0@AAV10@PBD@Z 004619fc     protect.obj
 0002:0000aa10       __catchsym$??$?6U?$char_traits@D@std@@@std@@YAAAV?$basic_ostream@DU?$char_traits@D@std@@@0@AAV10@PBD@Z$6 00461a10     protect.obj
 0002:0000aa20       __ehfuncinfo$??0CPUInfo@@QAE@ABV?$vector@V?$basic_string@DU?$char_traits@D@std@@V?$allocator@D@2@@std@@V?$allocator@V?$basic_string@DU?$char_traits@D@std@@V?$allocator@D@2@@std@@@2@@std@@H@Z 00461a20     systeminfo.obj
 0002:0000aa48       __unwindtable$??0CPUInfo@@QAE@ABV?$vector@V?$basic_string@DU?$char_traits@D@std@@V?$allocator@D@2@@std@@V?$allocator@V?$basic_string@DU?$char_traits@D@std@@V?$allocator@D@2@@std@@@2@@std@@H@Z 00461a48     systeminfo.obj
 0002:0000aa90       __ehfuncinfo$?getArchitecture@CPUInfo@@ABE?AV?$basic_string@DU?$char_traits@D@std@@V?$allocator@D@2@@std@@AAV23@@Z 00461a90     systeminfo.obj
 0002:0000aab4       __unwindtable$?getArchitecture@CPUInfo@@ABE?AV?$basic_string@DU?$char_traits@D@std@@V?$allocator@D@2@@std@@AAV23@@Z 00461ab4     systeminfo.obj
 0002:0000aac4       __tryblocktable$?getArchitecture@CPUInfo@@ABE?AV?$basic_string@DU?$char_traits@D@std@@V?$allocator@D@2@@std@@AAV23@@Z 00461ac4     systeminfo.obj
 0002:0000aad8       __catchsym$?getArchitecture@CPUInfo@@ABE?AV?$basic_string@DU?$char_traits@D@std@@V?$allocator@D@2@@std@@AAV23@@Z$11 00461ad8     systeminfo.obj
 0002:0000aae8       __ehfuncinfo$??0CPUInfoDelegate@@QAE@XZ 00461ae8     systeminfo.obj
 0002:0000ab10       __unwindtable$??0CPUInfoDelegate@@QAE@XZ 00461b10     systeminfo.obj
 0002:0000ab50       __ehfuncinfo$??0GPUInfo@@QAE@ABV?$vector@V?$basic_string@DU?$char_traits@D@std@@V?$allocator@D@2@@std@@V?$allocator@V?$basic_string@DU?$char_traits@D@std@@V?$allocator@D@2@@std@@@2@@std@@H@Z 00461b50     systeminfo.obj
 0002:0000ab74       __tryblocktable$??0GPUInfo@@QAE@ABV?$vector@V?$basic_string@DU?$char_traits@D@std@@V?$allocator@D@2@@std@@V?$allocator@V?$basic_string@DU?$char_traits@D@std@@V?$allocator@D@2@@std@@@2@@std@@H@Z 00461b74     systeminfo.obj
 0002:0000ab88       __unwindtable$??0GPUInfo@@QAE@ABV?$vector@V?$basic_string@DU?$char_traits@D@std@@V?$allocator@D@2@@std@@V?$allocator@V?$basic_string@DU?$char_traits@D@std@@V?$allocator@D@2@@std@@@2@@std@@H@Z 00461b88     systeminfo.obj
 0002:0000ac28       __catchsym$??0GPUInfo@@QAE@ABV?$vector@V?$basic_string@DU?$char_traits@D@std@@V?$allocator@D@2@@std@@V?$allocator@V?$basic_string@DU?$char_traits@D@std@@V?$allocator@D@2@@std@@@2@@std@@H@Z$112 00461c28     systeminfo.obj
 0002:0000ac38       __ehfuncinfo$??0GPUInfoDelegate@@QAE@XZ 00461c38     systeminfo.obj
 0002:0000ac60       __unwindtable$??0GPUInfoDelegate@@QAE@XZ 00461c60     systeminfo.obj
 0002:0000aca0       __ehfuncinfo$??0MotherboardInfo@@QAE@ABV?$vector@V?$basic_string@DU?$char_traits@D@std@@V?$allocator@D@2@@std@@V?$allocator@V?$basic_string@DU?$char_traits@D@std@@V?$allocator@D@2@@std@@@2@@std@@H@Z 00461ca0     systeminfo.obj
 0002:0000acc4       __unwindtable$??0MotherboardInfo@@QAE@ABV?$vector@V?$basic_string@DU?$char_traits@D@std@@V?$allocator@D@2@@std@@V?$allocator@V?$basic_string@DU?$char_traits@D@std@@V?$allocator@D@2@@std@@@2@@std@@H@Z 00461cc4     systeminfo.obj
 0002:0000acec       __ehfuncinfo$?determineChipset@MotherboardInfo@@AAEXXZ 00461cec     systeminfo.obj
 0002:0000ad10       __unwindtable$?determineChipset@MotherboardInfo@@AAEXXZ 00461d10     systeminfo.obj
 0002:0000ad38       __ehfuncinfo$??0MotherboardInfoDelegate@@QAE@XZ 00461d38     systeminfo.obj
 0002:0000ad60       __unwindtable$??0MotherboardInfoDelegate@@QAE@XZ 00461d60     systeminfo.obj
 0002:0000ada0       __ehfuncinfo$??0OSInfo@@QAE@ABV?$vector@V?$basic_string@DU?$char_traits@D@std@@V?$allocator@D@2@@std@@V?$allocator@V?$basic_string@DU?$char_traits@D@std@@V?$allocator@D@2@@std@@@2@@std@@H@Z 00461da0     systeminfo.obj
 0002:0000adc4       __tryblocktable$??0OSInfo@@QAE@ABV?$vector@V?$basic_string@DU?$char_traits@D@std@@V?$allocator@D@2@@std@@V?$allocator@V?$basic_string@DU?$char_traits@D@std@@V?$allocator@D@2@@std@@@2@@std@@H@Z 00461dc4     systeminfo.obj
 0002:0000ae00       __unwindtable$??0OSInfo@@QAE@ABV?$vector@V?$basic_string@DU?$char_traits@D@std@@V?$allocator@D@2@@std@@V?$allocator@V?$basic_string@DU?$char_traits@D@std@@V?$allocator@D@2@@std@@@2@@std@@H@Z 00461e00     systeminfo.obj
 0002:0000af18       __catchsym$??0OSInfo@@QAE@ABV?$vector@V?$basic_string@DU?$char_traits@D@std@@V?$allocator@D@2@@std@@V?$allocator@V?$basic_string@DU?$char_traits@D@std@@V?$allocator@D@2@@std@@@2@@std@@H@Z$181 00461f18     systeminfo.obj
 0002:0000af28       __catchsym$??0OSInfo@@QAE@ABV?$vector@V?$basic_string@DU?$char_traits@D@std@@V?$allocator@D@2@@std@@V?$allocator@V?$basic_string@DU?$char_traits@D@std@@V?$allocator@D@2@@std@@@2@@std@@H@Z$182 00461f28     systeminfo.obj
 0002:0000af38       __catchsym$??0OSInfo@@QAE@ABV?$vector@V?$basic_string@DU?$char_traits@D@std@@V?$allocator@D@2@@std@@V?$allocator@V?$basic_string@DU?$char_traits@D@std@@V?$allocator@D@2@@std@@@2@@std@@H@Z$183 00461f38     systeminfo.obj
 0002:0000af48       __ehfuncinfo$??0OSInfoDelegate@@QAE@XZ 00461f48     systeminfo.obj
 0002:0000af70       __unwindtable$??0OSInfoDelegate@@QAE@XZ 00461f70     systeminfo.obj
 0002:0000afb0       __ehfuncinfo$??0RAMInfo@@QAE@ABV?$vector@V?$basic_string@DU?$char_traits@D@std@@V?$allocator@D@2@@std@@V?$allocator@V?$basic_string@DU?$char_traits@D@std@@V?$allocator@D@2@@std@@@2@@std@@H@Z 00461fb0     systeminfo.obj
 0002:0000afd4       __tryblocktable$??0RAMInfo@@QAE@ABV?$vector@V?$basic_string@DU?$char_traits@D@std@@V?$allocator@D@2@@std@@V?$allocator@V?$basic_string@DU?$char_traits@D@std@@V?$allocator@D@2@@std@@@2@@std@@H@Z 00461fd4     systeminfo.obj
 0002:0000afe8       __unwindtable$??0RAMInfo@@QAE@ABV?$vector@V?$basic_string@DU?$char_traits@D@std@@V?$allocator@D@2@@std@@V?$allocator@V?$basic_string@DU?$char_traits@D@std@@V?$allocator@D@2@@std@@@2@@std@@H@Z 00461fe8     systeminfo.obj
 0002:0000b088       __catchsym$??0RAMInfo@@QAE@ABV?$vector@V?$basic_string@DU?$char_traits@D@std@@V?$allocator@D@2@@std@@V?$allocator@V?$basic_string@DU?$char_traits@D@std@@V?$allocator@D@2@@std@@@2@@std@@H@Z$112 00462088     systeminfo.obj
 0002:0000b098       __ehfuncinfo$?getMemoryType@RAMInfo@@ABE?AV?$basic_string@DU?$char_traits@D@std@@V?$allocator@D@2@@std@@ABV23@@Z 00462098     systeminfo.obj
 0002:0000b0bc       __unwindtable$?getMemoryType@RAMInfo@@ABE?AV?$basic_string@DU?$char_traits@D@std@@V?$allocator@D@2@@std@@ABV23@@Z 004620bc     systeminfo.obj
 0002:0000b0cc       __tryblocktable$?getMemoryType@RAMInfo@@ABE?AV?$basic_string@DU?$char_traits@D@std@@V?$allocator@D@2@@std@@ABV23@@Z 004620cc     systeminfo.obj
 0002:0000b0e0       __catchsym$?getMemoryType@RAMInfo@@ABE?AV?$basic_string@DU?$char_traits@D@std@@V?$allocator@D@2@@std@@ABV23@@Z$57 004620e0     systeminfo.obj
 0002:0000b0f0       __ehfuncinfo$?getFormFactor@RAMInfo@@ABE?AV?$basic_string@DU?$char_traits@D@std@@V?$allocator@D@2@@std@@ABV23@@Z 004620f0     systeminfo.obj
 0002:0000b114       __unwindtable$?getFormFactor@RAMInfo@@ABE?AV?$basic_string@DU?$char_traits@D@std@@V?$allocator@D@2@@std@@ABV23@@Z 00462114     systeminfo.obj
 0002:0000b124       __tryblocktable$?getFormFactor@RAMInfo@@ABE?AV?$basic_string@DU?$char_traits@D@std@@V?$allocator@D@2@@std@@ABV23@@Z 00462124     systeminfo.obj
 0002:0000b138       __catchsym$?getFormFactor@RAMInfo@@ABE?AV?$basic_string@DU?$char_traits@D@std@@V?$allocator@D@2@@std@@ABV23@@Z$53 00462138     systeminfo.obj
 0002:0000b148       __ehfuncinfo$??0RAMInfoDelegate@@QAE@XZ 00462148     systeminfo.obj
 0002:0000b170       __unwindtable$??0RAMInfoDelegate@@QAE@XZ 00462170     systeminfo.obj
 0002:0000b1b0       __ehfuncinfo$?stripAllFromString@SystemCommand@@AAE?AV?$basic_string@DU?$char_traits@D@std@@V?$allocator@D@2@@std@@ABV23@0@Z 004621b0     systeminfo.obj
 0002:0000b1d4       __unwindtable$?stripAllFromString@SystemCommand@@AAE?AV?$basic_string@DU?$char_traits@D@std@@V?$allocator@D@2@@std@@ABV23@0@Z 004621d4     systeminfo.obj
 0002:0000b1dc       __ehfuncinfo$?stripFromString@SystemCommand@@AAE?AV?$basic_string@DU?$char_traits@D@std@@V?$allocator@D@2@@std@@ABV23@0@Z 004621dc     systeminfo.obj
 0002:0000b200       __unwindtable$?stripFromString@SystemCommand@@AAE?AV?$basic_string@DU?$char_traits@D@std@@V?$allocator@D@2@@std@@ABV23@0@Z 00462200     systeminfo.obj
 0002:0000b218       __ehfuncinfo$?stripPipeFromCommand@SystemCommand@@AAEXXZ 00462218     systeminfo.obj
 0002:0000b23c       __unwindtable$?stripPipeFromCommand@SystemCommand@@AAEXXZ 0046223c     systeminfo.obj
 0002:0000b24c       __ehfuncinfo$?systemCommandLaunch@SystemCommand@@AAEX_N@Z 0046224c     systeminfo.obj
 0002:0000b270       __unwindtable$?systemCommandLaunch@SystemCommand@@AAEX_N@Z 00462270     systeminfo.obj
 0002:0000b290       __ehfuncinfo$??R<lambda_b5565d269da327e336800d80f472b553>@@QBE?AV?$basic_string@DU?$char_traits@D@std@@V?$allocator@D@2@@std@@ABV12@@Z 00462290     systeminfo.obj
 0002:0000b2b8       __unwindtable$??R<lambda_b5565d269da327e336800d80f472b553>@@QBE?AV?$basic_string@DU?$char_traits@D@std@@V?$allocator@D@2@@std@@ABV12@@Z 004622b8     systeminfo.obj
 0002:0000b2f8       __ehfuncinfo$??0?$vector@VRAMInfo@@V?$allocator@VRAMInfo@@@std@@@std@@QAE@ABV01@@Z 004622f8     systeminfo.obj
 0002:0000b320       __unwindtable$??0?$vector@VRAMInfo@@V?$allocator@VRAMInfo@@@std@@@std@@QAE@ABV01@@Z 00462320     systeminfo.obj
 0002:0000b368       __ehfuncinfo$??0?$vector@VMotherboardInfo@@V?$allocator@VMotherboardInfo@@@std@@@std@@QAE@ABV01@@Z 00462368     systeminfo.obj
 0002:0000b38c       __unwindtable$??0?$vector@VMotherboardInfo@@V?$allocator@VMotherboardInfo@@@std@@@std@@QAE@ABV01@@Z 0046238c     systeminfo.obj
 0002:0000b3c0       __ehfuncinfo$??0?$vector@VGPUInfo@@V?$allocator@VGPUInfo@@@std@@@std@@QAE@ABV01@@Z 004623c0     systeminfo.obj
 0002:0000b3e8       __unwindtable$??0?$vector@VGPUInfo@@V?$allocator@VGPUInfo@@@std@@@std@@QAE@ABV01@@Z 004623e8     systeminfo.obj
 0002:0000b440       __ehfuncinfo$??0?$vector@VCPUInfo@@V?$allocator@VCPUInfo@@@std@@@std@@QAE@ABV01@@Z 00462440     systeminfo.obj
 0002:0000b464       __unwindtable$??0?$vector@VCPUInfo@@V?$allocator@VCPUInfo@@@std@@@std@@QAE@ABV01@@Z 00462464     systeminfo.obj
 0002:0000b49c       __ehfuncinfo$??0?$vector@V?$basic_string@DU?$char_traits@D@std@@V?$allocator@D@2@@std@@V?$allocator@V?$basic_string@DU?$char_traits@D@std@@V?$allocator@D@2@@std@@@2@@std@@QAE@ABV01@@Z 0046249c     systeminfo.obj
 0002:0000b4c0       __unwindtable$??0?$vector@V?$basic_string@DU?$char_traits@D@std@@V?$allocator@D@2@@std@@V?$allocator@V?$basic_string@DU?$char_traits@D@std@@V?$allocator@D@2@@std@@@2@@std@@QAE@ABV01@@Z 004624c0     systeminfo.obj
 0002:0000b4d0       __ehfuncinfo$?imbue@?$basic_filebuf@DU?$char_traits@D@std@@@std@@MAEXABVlocale@2@@Z 004624d0     systeminfo.obj
 0002:0000b4f4       __unwindtable$?imbue@?$basic_filebuf@DU?$char_traits@D@std@@@std@@MAEXABVlocale@2@@Z 004624f4     systeminfo.obj
 0002:0000b504       __ehfuncinfo$?uflow@?$basic_filebuf@DU?$char_traits@D@std@@@std@@MAEHXZ 00462504     systeminfo.obj
 0002:0000b528       __unwindtable$?uflow@?$basic_filebuf@DU?$char_traits@D@std@@@std@@MAEHXZ 00462528     systeminfo.obj
 0002:0000b530       __ehfuncinfo$??0?$basic_ifstream@DU?$char_traits@D@std@@@std@@QAE@XZ 00462530     systeminfo.obj
 0002:0000b554       __unwindtable$??0?$basic_ifstream@DU?$char_traits@D@std@@@std@@QAE@XZ 00462554     systeminfo.obj
 0002:0000b56c       __ehfuncinfo$??$use_facet@V?$ctype@D@std@@@std@@YAABV?$ctype@D@0@ABVlocale@0@@Z 0046256c     systeminfo.obj
 0002:0000b590       __unwindtable$??$use_facet@V?$ctype@D@std@@@std@@YAABV?$ctype@D@0@ABVlocale@0@@Z 00462590     systeminfo.obj
 0002:0000b5a0       __ehfuncinfo$??$_Emplace_reallocate@AAV?$vector@V?$basic_string@DU?$char_traits@D@std@@V?$allocator@D@2@@std@@V?$allocator@V?$basic_string@DU?$char_traits@D@std@@V?$allocator@D@2@@std@@@2@@std@@AAH@?$vector@VCPUInfo@@V?$allocator@VCPUInfo@@@std@@@std@@QAEPAVCPUInfo@@QAV2@AAV?$vector@V?$basic_string@DU?$char_traits@D@std@@V?$allocator@D@2@@std@@V?$allocator@V?$basic_string@DU?$char_traits@D@std@@V?$allocator@D@2@@std@@@2@@1@AAH@Z 004625a0     systeminfo.obj
 0002:0000b5c4       __unwindtable$??$_Emplace_reallocate@AAV?$vector@V?$basic_string@DU?$char_traits@D@std@@V?$allocator@D@2@@std@@V?$allocator@V?$basic_string@DU?$char_traits@D@std@@V?$allocator@D@2@@std@@@2@@std@@AAH@?$vector@VCPUInfo@@V?$allocator@VCPUInfo@@@std@@@std@@QAEPAVCPUInfo@@QAV2@AAV?$vector@V?$basic_string@DU?$char_traits@D@std@@V?$allocator@D@2@@std@@V?$allocator@V?$basic_string@DU?$char_traits@D@std@@V?$allocator@D@2@@std@@@2@@1@AAH@Z 004625c4     systeminfo.obj
 0002:0000b5d4       __tryblocktable$??$_Emplace_reallocate@AAV?$vector@V?$basic_string@DU?$char_traits@D@std@@V?$allocator@D@2@@std@@V?$allocator@V?$basic_string@DU?$char_traits@D@std@@V?$allocator@D@2@@std@@@2@@std@@AAH@?$vector@VCPUInfo@@V?$allocator@VCPUInfo@@@std@@@std@@QAEPAVCPUInfo@@QAV2@AAV?$vector@V?$basic_string@DU?$char_traits@D@std@@V?$allocator@D@2@@std@@V?$allocator@V?$basic_string@DU?$char_traits@D@std@@V?$allocator@D@2@@std@@@2@@1@AAH@Z 004625d4     systeminfo.obj
 0002:0000b5e8       __catchsym$??$_Emplace_reallocate@AAV?$vector@V?$basic_string@DU?$char_traits@D@std@@V?$allocator@D@2@@std@@V?$allocator@V?$basic_string@DU?$char_traits@D@std@@V?$allocator@D@2@@std@@@2@@std@@AAH@?$vector@VCPUInfo@@V?$allocator@VCPUInfo@@@std@@@std@@QAEPAVCPUInfo@@QAV2@AAV?$vector@V?$basic_string@DU?$char_traits@D@std@@V?$allocator@D@2@@std@@V?$allocator@V?$basic_string@DU?$char_traits@D@std@@V?$allocator@D@2@@std@@@2@@1@AAH@Z$2 004625e8     systeminfo.obj
 0002:0000b5f8       __ehfuncinfo$??$toString@_J@GPUInfo@@ABE?AV?$basic_string@DU?$char_traits@D@std@@V?$allocator@D@2@@std@@AB_J@Z 004625f8     systeminfo.obj
 0002:0000b5f8       __ehfuncinfo$??$toString@_J@OSInfo@@ABE?AV?$basic_string@DU?$char_traits@D@std@@V?$allocator@D@2@@std@@AB_J@Z 004625f8     systeminfo.obj
 0002:0000b5f8       __ehfuncinfo$??$toString@_J@RAMInfo@@ABE?AV?$basic_string@DU?$char_traits@D@std@@V?$allocator@D@2@@std@@AB_J@Z 004625f8     systeminfo.obj
 0002:0000b61c       __unwindtable$??$toString@_J@GPUInfo@@ABE?AV?$basic_string@DU?$char_traits@D@std@@V?$allocator@D@2@@std@@AB_J@Z 0046261c     systeminfo.obj
 0002:0000b61c       __unwindtable$??$toString@_J@OSInfo@@ABE?AV?$basic_string@DU?$char_traits@D@std@@V?$allocator@D@2@@std@@AB_J@Z 0046261c     systeminfo.obj
 0002:0000b61c       __unwindtable$??$toString@_J@RAMInfo@@ABE?AV?$basic_string@DU?$char_traits@D@std@@V?$allocator@D@2@@std@@AB_J@Z 0046261c     systeminfo.obj
 0002:0000b63c       __ehfuncinfo$??$_Emplace_reallocate@AAV?$vector@V?$basic_string@DU?$char_traits@D@std@@V?$allocator@D@2@@std@@V?$allocator@V?$basic_string@DU?$char_traits@D@std@@V?$allocator@D@2@@std@@@2@@std@@AAH@?$vector@VGPUInfo@@V?$allocator@VGPUInfo@@@std@@@std@@QAEPAVGPUInfo@@QAV2@AAV?$vector@V?$basic_string@DU?$char_traits@D@std@@V?$allocator@D@2@@std@@V?$allocator@V?$basic_string@DU?$char_traits@D@std@@V?$allocator@D@2@@std@@@2@@1@AAH@Z 0046263c     systeminfo.obj
 0002:0000b660       __unwindtable$??$_Emplace_reallocate@AAV?$vector@V?$basic_string@DU?$char_traits@D@std@@V?$allocator@D@2@@std@@V?$allocator@V?$basic_string@DU?$char_traits@D@std@@V?$allocator@D@2@@std@@@2@@std@@AAH@?$vector@VGPUInfo@@V?$allocator@VGPUInfo@@@std@@@std@@QAEPAVGPUInfo@@QAV2@AAV?$vector@V?$basic_string@DU?$char_traits@D@std@@V?$allocator@D@2@@std@@V?$allocator@V?$basic_string@DU?$char_traits@D@std@@V?$allocator@D@2@@std@@@2@@1@AAH@Z 00462660     systeminfo.obj
 0002:0000b670       __tryblocktable$??$_Emplace_reallocate@AAV?$vector@V?$basic_string@DU?$char_traits@D@std@@V?$allocator@D@2@@std@@V?$allocator@V?$basic_string@DU?$char_traits@D@std@@V?$allocator@D@2@@std@@@2@@std@@AAH@?$vector@VGPUInfo@@V?$allocator@VGPUInfo@@@std@@@std@@QAEPAVGPUInfo@@QAV2@AAV?$vector@V?$basic_string@DU?$char_traits@D@std@@V?$allocator@D@2@@std@@V?$allocator@V?$basic_string@DU?$char_traits@D@std@@V?$allocator@D@2@@std@@@2@@1@AAH@Z 00462670     systeminfo.obj
 0002:0000b684       __catchsym$??$_Emplace_reallocate@AAV?$vector@V?$basic_string@DU?$char_traits@D@std@@V?$allocator@D@2@@std@@V?$allocator@V?$basic_string@DU?$char_traits@D@std@@V?$allocator@D@2@@std@@@2@@std@@AAH@?$vector@VGPUInfo@@V?$allocator@VGPUInfo@@@std@@@std@@QAEPAVGPUInfo@@QAV2@AAV?$vector@V?$basic_string@DU?$char_traits@D@std@@V?$allocator@D@2@@std@@V?$allocator@V?$basic_string@DU?$char_traits@D@std@@V?$allocator@D@2@@std@@@2@@1@AAH@Z$2 00462684     systeminfo.obj
 0002:0000b694       __ehfuncinfo$??$_Emplace_reallocate@AAV?$vector@V?$basic_string@DU?$char_traits@D@std@@V?$allocator@D@2@@std@@V?$allocator@V?$basic_string@DU?$char_traits@D@std@@V?$allocator@D@2@@std@@@2@@std@@AAH@?$vector@VMotherboardInfo@@V?$allocator@VMotherboardInfo@@@std@@@std@@QAEPAVMotherboardInfo@@QAV2@AAV?$vector@V?$basic_string@DU?$char_traits@D@std@@V?$allocator@D@2@@std@@V?$allocator@V?$basic_string@DU?$char_traits@D@std@@V?$allocator@D@2@@std@@@2@@1@AAH@Z 00462694     systeminfo.obj
 0002:0000b6b8       __unwindtable$??$_Emplace_reallocate@AAV?$vector@V?$basic_string@DU?$char_traits@D@std@@V?$allocator@D@2@@std@@V?$allocator@V?$basic_string@DU?$char_traits@D@std@@V?$allocator@D@2@@std@@@2@@std@@AAH@?$vector@VMotherboardInfo@@V?$allocator@VMotherboardInfo@@@std@@@std@@QAEPAVMotherboardInfo@@QAV2@AAV?$vector@V?$basic_string@DU?$char_traits@D@std@@V?$allocator@D@2@@std@@V?$allocator@V?$basic_string@DU?$char_traits@D@std@@V?$allocator@D@2@@std@@@2@@1@AAH@Z 004626b8     systeminfo.obj
 0002:0000b6c8       __tryblocktable$??$_Emplace_reallocate@AAV?$vector@V?$basic_string@DU?$char_traits@D@std@@V?$allocator@D@2@@std@@V?$allocator@V?$basic_string@DU?$char_traits@D@std@@V?$allocator@D@2@@std@@@2@@std@@AAH@?$vector@VMotherboardInfo@@V?$allocator@VMotherboardInfo@@@std@@@std@@QAEPAVMotherboardInfo@@QAV2@AAV?$vector@V?$basic_string@DU?$char_traits@D@std@@V?$allocator@D@2@@std@@V?$allocator@V?$basic_string@DU?$char_traits@D@std@@V?$allocator@D@2@@std@@@2@@1@AAH@Z 004626c8     systeminfo.obj
 0002:0000b6dc       __catchsym$??$_Emplace_reallocate@AAV?$vector@V?$basic_string@DU?$char_traits@D@std@@V?$allocator@D@2@@std@@V?$allocator@V?$basic_string@DU?$char_traits@D@std@@V?$allocator@D@2@@std@@@2@@std@@AAH@?$vector@VMotherboardInfo@@V?$allocator@VMotherboardInfo@@@std@@@std@@QAEPAVMotherboardInfo@@QAV2@AAV?$vector@V?$basic_string@DU?$char_traits@D@std@@V?$allocator@D@2@@std@@V?$allocator@V?$basic_string@DU?$char_traits@D@std@@V?$allocator@D@2@@std@@@2@@1@AAH@Z$2 004626dc     systeminfo.obj
 0002:0000b6ec       __ehfuncinfo$??$_Emplace_reallocate@AAV?$vector@V?$basic_string@DU?$char_traits@D@std@@V?$allocator@D@2@@std@@V?$allocator@V?$basic_string@DU?$char_traits@D@std@@V?$allocator@D@2@@std@@@2@@std@@AAH@?$vector@VOSInfo@@V?$allocator@VOSInfo@@@std@@@std@@QAEPAVOSInfo@@QAV2@AAV?$vector@V?$basic_string@DU?$char_traits@D@std@@V?$allocator@D@2@@std@@V?$allocator@V?$basic_string@DU?$char_traits@D@std@@V?$allocator@D@2@@std@@@2@@1@AAH@Z 004626ec     systeminfo.obj
 0002:0000b710       __unwindtable$??$_Emplace_reallocate@AAV?$vector@V?$basic_string@DU?$char_traits@D@std@@V?$allocator@D@2@@std@@V?$allocator@V?$basic_string@DU?$char_traits@D@std@@V?$allocator@D@2@@std@@@2@@std@@AAH@?$vector@VOSInfo@@V?$allocator@VOSInfo@@@std@@@std@@QAEPAVOSInfo@@QAV2@AAV?$vector@V?$basic_string@DU?$char_traits@D@std@@V?$allocator@D@2@@std@@V?$allocator@V?$basic_string@DU?$char_traits@D@std@@V?$allocator@D@2@@std@@@2@@1@AAH@Z 00462710     systeminfo.obj
 0002:0000b720       __tryblocktable$??$_Emplace_reallocate@AAV?$vector@V?$basic_string@DU?$char_traits@D@std@@V?$allocator@D@2@@std@@V?$allocator@V?$basic_string@DU?$char_traits@D@std@@V?$allocator@D@2@@std@@@2@@std@@AAH@?$vector@VOSInfo@@V?$allocator@VOSInfo@@@std@@@std@@QAEPAVOSInfo@@QAV2@AAV?$vector@V?$basic_string@DU?$char_traits@D@std@@V?$allocator@D@2@@std@@V?$allocator@V?$basic_string@DU?$char_traits@D@std@@V?$allocator@D@2@@std@@@2@@1@AAH@Z 00462720     systeminfo.obj
 0002:0000b734       __catchsym$??$_Emplace_reallocate@AAV?$vector@V?$basic_string@DU?$char_traits@D@std@@V?$allocator@D@2@@std@@V?$allocator@V?$basic_string@DU?$char_traits@D@std@@V?$allocator@D@2@@std@@@2@@std@@AAH@?$vector@VOSInfo@@V?$allocator@VOSInfo@@@std@@@std@@QAEPAVOSInfo@@QAV2@AAV?$vector@V?$basic_string@DU?$char_traits@D@std@@V?$allocator@D@2@@std@@V?$allocator@V?$basic_string@DU?$char_traits@D@std@@V?$allocator@D@2@@std@@@2@@1@AAH@Z$2 00462734     systeminfo.obj
 0002:0000b744       __ehfuncinfo$??$_Emplace_reallocate@AAV?$vector@V?$basic_string@DU?$char_traits@D@std@@V?$allocator@D@2@@std@@V?$allocator@V?$basic_string@DU?$char_traits@D@std@@V?$allocator@D@2@@std@@@2@@std@@AAH@?$vector@VRAMInfo@@V?$allocator@VRAMInfo@@@std@@@std@@QAEPAVRAMInfo@@QAV2@AAV?$vector@V?$basic_string@DU?$char_traits@D@std@@V?$allocator@D@2@@std@@V?$allocator@V?$basic_string@DU?$char_traits@D@std@@V?$allocator@D@2@@std@@@2@@1@AAH@Z 00462744     systeminfo.obj
 0002:0000b768       __unwindtable$??$_Emplace_reallocate@AAV?$vector@V?$basic_string@DU?$char_traits@D@std@@V?$allocator@D@2@@std@@V?$allocator@V?$basic_string@DU?$char_traits@D@std@@V?$allocator@D@2@@std@@@2@@std@@AAH@?$vector@VRAMInfo@@V?$allocator@VRAMInfo@@@std@@@std@@QAEPAVRAMInfo@@QAV2@AAV?$vector@V?$basic_string@DU?$char_traits@D@std@@V?$allocator@D@2@@std@@V?$allocator@V?$basic_string@DU?$char_traits@D@std@@V?$allocator@D@2@@std@@@2@@1@AAH@Z 00462768     systeminfo.obj
 0002:0000b778       __tryblocktable$??$_Emplace_reallocate@AAV?$vector@V?$basic_string@DU?$char_traits@D@std@@V?$allocator@D@2@@std@@V?$allocator@V?$basic_string@DU?$char_traits@D@std@@V?$allocator@D@2@@std@@@2@@std@@AAH@?$vector@VRAMInfo@@V?$allocator@VRAMInfo@@@std@@@std@@QAEPAVRAMInfo@@QAV2@AAV?$vector@V?$basic_string@DU?$char_traits@D@std@@V?$allocator@D@2@@std@@V?$allocator@V?$basic_string@DU?$char_traits@D@std@@V?$allocator@D@2@@std@@@2@@1@AAH@Z 00462778     systeminfo.obj
 0002:0000b78c       __catchsym$??$_Emplace_reallocate@AAV?$vector@V?$basic_string@DU?$char_traits@D@std@@V?$allocator@D@2@@std@@V?$allocator@V?$basic_string@DU?$char_traits@D@std@@V?$allocator@D@2@@std@@@2@@std@@AAH@?$vector@VRAMInfo@@V?$allocator@VRAMInfo@@@std@@@std@@QAEPAVRAMInfo@@QAV2@AAV?$vector@V?$basic_string@DU?$char_traits@D@std@@V?$allocator@D@2@@std@@V?$allocator@V?$basic_string@DU?$char_traits@D@std@@V?$allocator@D@2@@std@@@2@@1@AAH@Z$2 0046278c     systeminfo.obj
 0002:0000b79c       __ehfuncinfo$??$_Emplace_reallocate@ABV?$basic_string@DU?$char_traits@D@std@@V?$allocator@D@2@@std@@@?$vector@V?$basic_string@DU?$char_traits@D@std@@V?$allocator@D@2@@std@@V?$allocator@V?$basic_string@DU?$char_traits@D@std@@V?$allocator@D@2@@std@@@2@@std@@QAEPAV?$basic_string@DU?$char_traits@D@std@@V?$allocator@D@2@@1@QAV21@ABV21@@Z 0046279c     systeminfo.obj
 0002:0000b7c0       __unwindtable$??$_Emplace_reallocate@ABV?$basic_string@DU?$char_traits@D@std@@V?$allocator@D@2@@std@@@?$vector@V?$basic_string@DU?$char_traits@D@std@@V?$allocator@D@2@@std@@V?$allocator@V?$basic_string@DU?$char_traits@D@std@@V?$allocator@D@2@@std@@@2@@std@@QAEPAV?$basic_string@DU?$char_traits@D@std@@V?$allocator@D@2@@1@QAV21@ABV21@@Z 004627c0     systeminfo.obj
 0002:0000b7d0       __tryblocktable$??$_Emplace_reallocate@ABV?$basic_string@DU?$char_traits@D@std@@V?$allocator@D@2@@std@@@?$vector@V?$basic_string@DU?$char_traits@D@std@@V?$allocator@D@2@@std@@V?$allocator@V?$basic_string@DU?$char_traits@D@std@@V?$allocator@D@2@@std@@@2@@std@@QAEPAV?$basic_string@DU?$char_traits@D@std@@V?$allocator@D@2@@1@QAV21@ABV21@@Z 004627d0     systeminfo.obj
 0002:0000b7e4       __catchsym$??$_Emplace_reallocate@ABV?$basic_string@DU?$char_traits@D@std@@V?$allocator@D@2@@std@@@?$vector@V?$basic_string@DU?$char_traits@D@std@@V?$allocator@D@2@@std@@V?$allocator@V?$basic_string@DU?$char_traits@D@std@@V?$allocator@D@2@@std@@@2@@std@@QAEPAV?$basic_string@DU?$char_traits@D@std@@V?$allocator@D@2@@1@QAV21@ABV21@@Z$2 004627e4     systeminfo.obj
 0002:0000b7f4       __ehfuncinfo$??$_Insert_string@DU?$char_traits@D@std@@I@std@@YAAAV?$basic_ostream@DU?$char_traits@D@std@@@0@AAV10@QBDI@Z 004627f4     systeminfo.obj
 0002:0000b818       __unwindtable$??$_Insert_string@DU?$char_traits@D@std@@I@std@@YAAAV?$basic_ostream@DU?$char_traits@D@std@@@0@AAV10@QBDI@Z 00462818     systeminfo.obj
 0002:0000b848       __tryblocktable$??$_Insert_string@DU?$char_traits@D@std@@I@std@@YAAAV?$basic_ostream@DU?$char_traits@D@std@@@0@AAV10@QBDI@Z 00462848     systeminfo.obj
 0002:0000b85c       __catchsym$??$_Insert_string@DU?$char_traits@D@std@@I@std@@YAAAV?$basic_ostream@DU?$char_traits@D@std@@@0@AAV10@QBDI@Z$6 0046285c     systeminfo.obj
 0002:0000b870       __ehfuncinfo$??$_Uninitialized_copy@PAVOSInfo@@V?$allocator@VOSInfo@@@std@@@std@@YAPAVOSInfo@@QAV1@0PAV1@AAV?$allocator@VOSInfo@@@0@@Z 00462870     systeminfo.obj
 0002:0000b898       __unwindtable$??$_Uninitialized_copy@PAVOSInfo@@V?$allocator@VOSInfo@@@std@@@std@@YAPAVOSInfo@@QAV1@0PAV1@AAV?$allocator@VOSInfo@@@0@@Z 00462898     systeminfo.obj
 0002:0000b908       __ehfuncinfo$??$?5DU?$char_traits@D@std@@V?$allocator@D@1@@std@@YAAAV?$basic_istream@DU?$char_traits@D@std@@@0@$$QAV10@AAV?$basic_string@DU?$char_traits@D@std@@V?$allocator@D@2@@0@@Z 00462908     systeminfo.obj
 0002:0000b92c       __unwindtable$??$?5DU?$char_traits@D@std@@V?$allocator@D@1@@std@@YAAAV?$basic_istream@DU?$char_traits@D@std@@@0@$$QAV10@AAV?$basic_string@DU?$char_traits@D@std@@V?$allocator@D@2@@0@@Z 0046292c     systeminfo.obj
 0002:0000b95c       __tryblocktable$??$?5DU?$char_traits@D@std@@V?$allocator@D@1@@std@@YAAAV?$basic_istream@DU?$char_traits@D@std@@@0@$$QAV10@AAV?$basic_string@DU?$char_traits@D@std@@V?$allocator@D@2@@0@@Z 0046295c     systeminfo.obj
 0002:0000b970       __catchsym$??$?5DU?$char_traits@D@std@@V?$allocator@D@1@@std@@YAAAV?$basic_istream@DU?$char_traits@D@std@@@0@$$QAV10@AAV?$basic_string@DU?$char_traits@D@std@@V?$allocator@D@2@@0@@Z$7 00462970     systeminfo.obj
 0002:0000b980       __sehtable$??_M@YGXPAXIIP6EX0@Z@Z 00462980     MSVCRT:ehvecdtr.obj
 0002:0000b9a0       __sehtable$?__ArrayUnwind@@YGXPAXIIP6EX0@Z@Z 004629a0     MSVCRT:ehvecdtr.obj
 0002:0000b9c0       __sehtable$___scrt_is_nonwritable_in_current_image 004629c0     MSVCRT:utility.obj
 0002:0000b9e0       __sehtable$?__scrt_common_main_seh@@YAHXZ 004629e0     MSVCRT:exe_winmain.obj
 0002:0000c1aa       .idata$6                   004631aa     kernel32:KERNEL32.dll
 0002:0000c2f6       .idata$6                   004632f6     user32:USER32.dll
 0002:0000c316       .idata$6                   00463316     gdi32:GDI32.dll
 0002:0000c364       .idata$6                   00463364     advapi32:ADVAPI32.dll
 0002:0000cf2e       .idata$6                   00463f2e     msvcprt:MSVCP140.dll
 0002:0000cf4e       .idata$6                   00463f4e     d3d9:d3d9.dll
 0002:0000cf7c       .idata$6                   00463f7c     d3dx9:d3dx9_43.dll
 0002:0000d000       .idata$6                   00464000     ws2_32:WS2_32.dll
 0002:0000d00c       .idata$6                   0046400c     wldap32:WLDAP32.dll
 0002:0000d11c       .idata$6                   0046411c     vcruntime:VCRUNTIME140.dll
 0002:0000d594       .idata$6                   00464594     ucrt:api-ms-win-crt-stdio-l1-1-0.dll
 0002:0000d5b4       .idata$6                   004645b4     ucrt:api-ms-win-crt-runtime-l1-1-0.dll
 0002:0000d5d6       .idata$6                   004645d6     ucrt:api-ms-win-crt-convert-l1-1-0.dll
 0002:0000d5f8       .idata$6                   004645f8     ucrt:api-ms-win-crt-time-l1-1-0.dll
 0002:0000d618       .idata$6                   00464618     ucrt:api-ms-win-crt-filesystem-l1-1-0.dll
 0002:0000d63e       .idata$6                   0046463e     ucrt:api-ms-win-crt-heap-l1-1-0.dll
 0002:0000d65e       .idata$6                   0046465e     ucrt:api-ms-win-crt-math-l1-1-0.dll
 0002:0000d67e       .idata$6                   0046467e     ucrt:api-ms-win-crt-locale-l1-1-0.dll
 0002:0000d6a0       .idata$6                   004646a0     ucrt:api-ms-win-crt-string-l1-1-0.dll
 0002:0000d6c2       .idata$6                   004646c2     ucrt:api-ms-win-crt-utility-l1-1-0.dll
 0002:0000d6e4       .idata$6                   004646e4     ucrt:api-ms-win-crt-multibyte-l1-1-0.dll
 0003:0000002c       ?if_prefix@?2??bindlocal@@9@9 0046502c     libcurl:connect.obj
 0003:00000030       ?host_prefix@?2??bindlocal@@9@9 00465030     libcurl:connect.obj
 0003:00000820       ??_R0?AV<lambda_b5565d269da327e336800d80f472b553>@@@8 00465820     systeminfo.obj
 0003:00000a48       ??_R0?AV?$_Func_impl_no_alloc@V<lambda_b5565d269da327e336800d80f472b553>@@V?$basic_string@DU?$char_traits@D@std@@V?$allocator@D@2@@std@@ABV23@@std@@@8 00465a48     systeminfo.obj
 0003:00000bf0       ?_Fac_head@std@@3PAU_Fac_node@1@A 00465bf0     msvcprt:locale0_implib.obj
 0003:00000bf4       ?_Fac_tidy_reg@std@@3U_Fac_tidy_reg_t@1@B 00465bf4     msvcprt:locale0_implib.obj
 0003:00000c00       ?is_initialized_as_dll@@3_NA 00465c00     MSVCRT:utility.obj
 0003:00000c01       ?module_local_atexit_table_initialized@@3_NA 00465c01     MSVCRT:utility.obj
 0003:00000c04       ?module_local_atexit_table@@3U_onexit_table_t@@A 00465c04     MSVCRT:utility.obj
 0003:00000c10       ?module_local_at_quick_exit_table@@3U_onexit_table_t@@A 00465c10     MSVCRT:utility.obj
 0003:00000c20       _GS_ExceptionRecord        00465c20     MSVCRT:gs_report.obj
 0003:00000c70       _GS_ContextRecord          00465c70     MSVCRT:gs_report.obj
 0003:00000f58       _initialized               00465f58     libcurl:easy.obj
 0003:00000f5c       _init_flags                00465f5c     libcurl:easy.obj
 0003:00000f60       ?tv_zero@?1??multi_timeout@@9@9 00465f60     libcurl:multi.obj
 0003:00000f70       ?detectOsState@?1??Curl_sndbufset@@9@9 00465f70     libcurl:connect.obj
 0003:00000f78       _s_hIpHlpApiDll            00465f78     libcurl:system_win32.obj
 0003:00000f80       ?tv_zero@?1??Curl_splaygetbest@@9@9 00465f80     libcurl:splay.obj
 0003:00000f90       ?randseed@?1??randit@@9@9  00465f90     libcurl:rand.obj
 0003:00000f94       ?seeded@?1??randit@@9@9    00465f94     libcurl:rand.obj
 0004:00000060       $R000000                   00467060     * linker generated manifest res *
