 Warcraft III - External MapHack

 Timestamp is 6091d5b5 (Wed May  5 02:16:05 2021)

 Preferred load address is 00400000

 Start         Length     Name                   Class
 0001:00000000 00000a20H .text$di                CODE
 0001:00000a20 0004f700H .text$mn                CODE
 0001:00050120 00001320H .text$x                 CODE
 0001:00051440 00001d91H .text$yd                CODE
 0002:00000000 000004b8H .idata$5                DATA
 0002:000004b8 00000004H .00cfg                  DATA
 0002:000004bc 00000004H .CRT$XCA                DATA
 0002:000004c0 00000004H .CRT$XCAA               DATA
 0002:000004c4 00000004H .CRT$XCL                DATA
 0002:000004c8 00000140H .CRT$XCU                DATA
 0002:00000608 00000004H .CRT$XCZ                DATA
 0002:0000060c 00000004H .CRT$XIA                DATA
 0002:00000610 00000004H .CRT$XIAA               DATA
 0002:00000614 00000004H .CRT$XIAC               DATA
 0002:00000618 00000004H .CRT$XIZ                DATA
 0002:0000061c 00000004H .CRT$XPA                DATA
 0002:00000620 00000004H .CRT$XPZ                DATA
 0002:00000624 00000004H .CRT$XTA                DATA
 0002:00000628 00000008H .CRT$XTZ                DATA
 0002:0000062c 00000000H .gfids$y                DATA
 0002:00000630 000098d0H .rdata                  DATA
 0002:00009f00 00000000H .rdata$CastGuardVftablesA DATA
 0002:00009f00 00000000H .rdata$CastGuardVftablesC DATA
 0002:00009f00 00000590H .rdata$r                DATA
 0002:0000a490 000000ccH .rdata$sxdata           DATA
 0002:0000a55c 000002ecH .rdata$zzzdbg           DATA
 0002:0000a848 00000004H .rtc$IAA                DATA
 0002:0000a84c 00000004H .rtc$IZZ                DATA
 0002:0000a850 00000004H .rtc$TAA                DATA
 0002:0000a854 00000004H .rtc$TZZ                DATA
 0002:0000a858 000012f4H .xdata$x                DATA
 0002:0000bb4c 00000000H .edata                  DATA
 0002:0000bb4c 000001a4H .idata$2                DATA
 0002:0000bcf0 00000014H .idata$3                DATA
 0002:0000bd04 000004b8H .idata$4                DATA
 0002:0000c1bc 00001a82H .idata$6                DATA
 0003:00000000 00000794H .data                   DATA
 0003:00000794 000000b4H .data$r                 DATA
 0003:00000848 00000398H .data$rs                DATA
 0003:00000be0 000004d8H .bss                    DATA
 0004:00000000 00000060H .rsrc$01                DATA
 0004:00000060 00000188H .rsrc$02                DATA

  Address         Publics by Value              Rva+Base       Lib:Object

 0000:00000000       ___x64_code_ranges_to_entry_points 00000000     <absolute>
 0000:00000000       ___guard_eh_cont_count     00000000     <absolute>
 0000:00000000       ___hybrid_code_map         00000000     <absolute>
 0000:00000000       ___arm64x_redirection_metadata 00000000     <absolute>
 0000:00000000       ___arm64x_extra_rfe_table  00000000     <absolute>
 0000:00000000       ___volatile_metadata       00000000     <absolute>
 0000:00000000       ___guard_longjmp_table     00000000     <absolute>
 0000:00000000       ___arm64x_extra_rfe_table_size 00000000     <absolute>
 0000:00000000       ___enclave_config          00000000     <absolute>
 0000:00000000       ___arm64x_redirection_metadata_count 00000000     <absolute>
 0000:00000000       ___guard_check_icall_a64n_fptr 00000000     <absolute>
 0000:00000000       ___arm64x_native_entrypoint 00000000     <absolute>
 0000:00000000       ___guard_fids_count        00000000     <absolute>
 0000:00000000       ___guard_fids_table        00000000     <absolute>
 0000:00000000       ___hybrid_code_map_count   00000000     <absolute>
 0000:00000000       ___guard_eh_cont_table     00000000     <absolute>
 0000:00000000       ___guard_longjmp_count     00000000     <absolute>
 0000:00000000       ___guard_iat_count         00000000     <absolute>
 0000:00000000       ___hybrid_auxiliary_iat    00000000     <absolute>
 0000:00000000       ___dynamic_value_reloc_table 00000000     <absolute>
 0000:00000000       ___x64_code_ranges_to_entry_points_count 00000000     <absolute>
 0000:00000000       ___AbsoluteZero            00000000     <absolute>
 0000:00000000       ___hybrid_auxiliary_iat_copy 00000000     <absolute>
 0000:00000000       ___guard_iat_table         00000000     <absolute>
 0000:00000033       ___safe_se_handler_count   00000033     <absolute>
 0000:00000100       ___guard_flags             00000100     <absolute>
 0000:00000000       ___ImageBase               00400000     <linker-defined>
 0001:00000a20       ??0exception@std@@QAE@ABV01@@Z 00401a20 f i Main.obj
 0001:00000a50       ?what@exception@std@@UBEPBDXZ 00401a50 f i Main.obj
 0001:00000a60       ??_Gexception@std@@UAEPAXI@Z 00401a60 f i Main.obj
 0001:00000a60       ??_Ebad_alloc@std@@UAEPAXI@Z 00401a60 f i * CIL library *:* CIL module *
 0001:00000a60       ??_Gbad_cast@std@@UAEPAXI@Z 00401a60 f i Main.obj
 0001:00000a60       ??_Ebad_cast@std@@UAEPAXI@Z 00401a60 f i * CIL library *:* CIL module *
 0001:00000a60       ??_Eexception@std@@UAEPAXI@Z 00401a60 f i * CIL library *:* CIL module *
 0001:00000a60       ??_Ebad_array_new_length@std@@UAEPAXI@Z 00401a60 f i * CIL library *:* CIL module *
 0001:00000a60       ??_Gbad_array_new_length@std@@UAEPAXI@Z 00401a60 f i Main.obj
 0001:00000a60       ??_Gbad_alloc@std@@UAEPAXI@Z 00401a60 f i Main.obj
 0001:00000aa0       ??1bad_alloc@std@@UAE@XZ   00401aa0 f i Main.obj
 0001:00000aa0       ??1bad_array_new_length@std@@UAE@XZ 00401aa0 f i Main.obj
 0001:00000aa0       ??1bad_cast@std@@UAE@XZ    00401aa0 f i Main.obj
 0001:00000ac0       ??0bad_array_new_length@std@@QAE@XZ 00401ac0 f i Main.obj
 0001:00000ae0       ?__scrt_throw_std_bad_array_new_length@@YAXXZ 00401ae0 f i MSVCRT:throw_bad_alloc.obj
 0001:00000ae0       ?_Throw_bad_array_new_length@std@@YAXXZ 00401ae0 f i Main.obj
 0001:00000b00       ??0bad_array_new_length@std@@QAE@ABV01@@Z 00401b00 f i Main.obj
 0001:00000b40       ??0bad_alloc@std@@QAE@ABV01@@Z 00401b40 f i Main.obj
 0001:00000b80       ?_Xlen_string@std@@YAXXZ   00401b80 f i Main.obj
 0001:00000b90       ??0bad_cast@std@@QAE@XZ    00401b90 f i Main.obj
 0001:00000bb0       ?_Throw_bad_cast@std@@YAXXZ 00401bb0 f i Main.obj
 0001:00000bd0       ??0bad_cast@std@@QAE@ABV01@@Z 00401bd0 f i Main.obj
 0001:00000c10       ??1locale@std@@QAE@XZ      00401c10 f i Main.obj
 0001:00000c30       ?_Throw_tree_length_error@std@@YAXXZ 00401c30 f i Main.obj
 0001:00000c50       _WinMain@16                00401c50 f   Main.obj
 0001:00001100       ?Render@@YAXXZ             00402100 f   Main.obj
 0001:00001910       ?WndProc@@YGJPAUHWND__@@IIJ@Z 00402910 f   Main.obj
 0001:00001960       ?ReadNames@@YAXXZ          00402960 f   Main.obj
 0001:00001ce0       ??_D?$basic_ifstream@DU?$char_traits@D@std@@@std@@QAEXXZ 00402ce0 f i Main.obj
 0001:00001da0       ?imbue@?$basic_filebuf@DU?$char_traits@D@std@@@std@@MAEXABVlocale@2@@Z 00402da0 f i Main.obj
 0001:00001de0       ?sync@?$basic_filebuf@DU?$char_traits@D@std@@@std@@MAEHXZ 00402de0 f i Main.obj
 0001:00001e10       ?setbuf@?$basic_filebuf@DU?$char_traits@D@std@@@std@@MAEPAV?$basic_streambuf@DU?$char_traits@D@std@@@2@PAD_J@Z 00402e10 f i Main.obj
 0001:00001f00       ?seekpos@?$basic_filebuf@DU?$char_traits@D@std@@@std@@MAE?AV?$fpos@U_Mbstatet@@@2@V32@H@Z 00402f00 f i Main.obj
 0001:00001fe0       ?seekoff@?$basic_filebuf@DU?$char_traits@D@std@@@std@@MAE?AV?$fpos@U_Mbstatet@@@2@_JHH@Z 00402fe0 f i Main.obj
 0001:00002100       ?xsputn@?$basic_filebuf@DU?$char_traits@D@std@@@std@@MAE_JPBD_J@Z 00403100 f i Main.obj
 0001:000021f0       ?xsgetn@?$basic_filebuf@DU?$char_traits@D@std@@@std@@MAE_JPAD_J@Z 004031f0 f i Main.obj
 0001:00002320       ?uflow@?$basic_filebuf@DU?$char_traits@D@std@@@std@@MAEHXZ 00403320 f i Main.obj
 0001:00002570       ?underflow@?$basic_filebuf@DU?$char_traits@D@std@@@std@@MAEHXZ 00403570 f i Main.obj
 0001:000025b0       ?pbackfail@?$basic_filebuf@DU?$char_traits@D@std@@@std@@MAEHH@Z 004035b0 f i Main.obj
 0001:00002660       ?overflow@?$basic_filebuf@DU?$char_traits@D@std@@@std@@MAEHH@Z 00403660 f i Main.obj
 0001:000027b0       ?_Unlock@?$basic_filebuf@DU?$char_traits@D@std@@@std@@UAEXXZ 004037b0 f i Main.obj
 0001:000027c0       ?_Lock@?$basic_filebuf@DU?$char_traits@D@std@@@std@@UAEXXZ 004037c0 f i Main.obj
 0001:000027d0       ??1?$basic_filebuf@DU?$char_traits@D@std@@@std@@UAE@XZ 004037d0 f i Main.obj
 0001:00002850       ??0?$basic_ifstream@DU?$char_traits@D@std@@@std@@QAE@PBDHH@Z 00403850 f i Main.obj
 0001:00002a40       ??A?$map@IPBDU?$less@I@std@@V?$allocator@U?$pair@$$CBIPBD@std@@@2@@std@@QAEAAPBD$$QAI@Z 00403a40 f i Main.obj
 0001:00002b30       ??1?$basic_string@DU?$char_traits@D@std@@V?$allocator@D@2@@std@@QAE@XZ 00403b30 f i Main.obj
 0001:00002b80       ??_G?$basic_filebuf@DU?$char_traits@D@std@@@std@@UAEPAXI@Z 00403b80 f i Main.obj
 0001:00002b80       ??_E?$basic_filebuf@DU?$char_traits@D@std@@@std@@UAEPAXI@Z 00403b80 f i * CIL library *:* CIL module *
 0001:00002c20       ??_E?$basic_ifstream@DU?$char_traits@D@std@@@std@@UAEPAXI@Z 00403c20 f i * CIL library *:* CIL module *
 0001:00002c20       ??_G?$basic_ifstream@DU?$char_traits@D@std@@@std@@UAEPAXI@Z 00403c20 f i Main.obj
 0001:00002c50       ?_Endwrite@?$basic_filebuf@DU?$char_traits@D@std@@@std@@IAE_NXZ 00403c50 f i Main.obj
 0001:00002d20       ?close@?$basic_filebuf@DU?$char_traits@D@std@@@std@@QAEPAV12@XZ 00403d20 f i Main.obj
 0001:00002d80       ?_Xran@?$_String_val@U?$_Simple_types@D@std@@@std@@SAXXZ 00403d80 f i Main.obj
 0001:00002d90       ??$use_facet@V?$codecvt@DDU_Mbstatet@@@std@@@std@@YAABV?$codecvt@DDU_Mbstatet@@@0@ABVlocale@0@@Z 00403d90 f i Main.obj
 0001:00002e80       ??$_Reallocate_grow_by@V<lambda_15711c68e099a15a58f4d77303cb286d>@@D@?$basic_string@DU?$char_traits@D@std@@V?$allocator@D@2@@std@@AAEAAV01@IV<lambda_15711c68e099a15a58f4d77303cb286d>@@D@Z 00403e80 f i Main.obj
 0001:00002fc0       ??1?$unique_ptr@V_Facet_base@std@@U?$default_delete@V_Facet_base@std@@@2@@std@@QAE@XZ 00403fc0 f i Main.obj
 0001:00002fd0       ?_Insert_node@?$_Tree_val@U?$_Tree_simple_types@U?$pair@$$CBIPBD@std@@@std@@@std@@QAEPAU?$_Tree_node@U?$pair@$$CBIPBD@std@@PAX@2@U?$_Tree_id@PAU?$_Tree_node@U?$pair@$$CBIPBD@std@@PAX@std@@@2@QAU32@@Z 00403fd0 f i Main.obj
 0001:000031e0       ??1?$_Alloc_construct_ptr@V?$allocator@U?$_Tree_node@U?$pair@$$CBIPBD@std@@PAX@std@@@std@@@std@@QAE@XZ 004041e0 f i Main.obj
 0001:00003200       ??$_Erase_tree@V?$allocator@U?$_Tree_node@U?$pair@$$CBIPBD@std@@PAX@std@@@std@@@?$_Tree_val@U?$_Tree_simple_types@U?$pair@$$CBIPBD@std@@@std@@@std@@QAEXAAV?$allocator@U?$_Tree_node@U?$pair@$$CBIPBD@std@@PAX@std@@@1@PAU?$_Tree_node@U?$pair@$$CBIPBD@std@@PAX@1@@Z 00404200 f i Main.obj
 0001:0000323b       ??_E?$basic_ifstream@DU?$char_traits@D@std@@@std@@$4PPPPPPPM@A@AEPAXI@Z 0040423b f i Main.obj
 0001:00003250       ___local_stdio_printf_options 00404250 f i protect.obj
 0001:00003260       __vsnprintf_l              00404260 f i protect.obj
 0001:000032a0       _sprintf                   004042a0 f i protect.obj
 0001:000032c0       ?KEY@@YA?AV?$basic_string@DU?$char_traits@D@std@@V?$allocator@D@2@@std@@XZ 004042c0 f   protect.obj
 0001:00003bb0       ?write_to_string@@YAIPAXII0@Z 00404bb0 f   protect.obj
 0001:00003cc0       ?IsValidTime@@YA_NHHH@Z    00404cc0 f   protect.obj
 0001:00003f60       ??1?$unique_ptr@VOSInfoDelegate@@U?$default_delete@VOSInfoDelegate@@@std@@@std@@QAE@XZ 00404f60 f i protect.obj
 0001:00003f80       ??1?$unique_ptr@VGPUInfoDelegate@@U?$default_delete@VGPUInfoDelegate@@@std@@@std@@QAE@XZ 00404f80 f i protect.obj
 0001:00003fa0       ??1?$unique_ptr@VRAMInfoDelegate@@U?$default_delete@VRAMInfoDelegate@@@std@@@std@@QAE@XZ 00404fa0 f i protect.obj
 0001:00003fc0       ??1?$unique_ptr@VMotherboardInfoDelegate@@U?$default_delete@VMotherboardInfoDelegate@@@std@@@std@@QAE@XZ 00404fc0 f i protect.obj
 0001:00003fe0       ??1?$unique_ptr@VCPUInfoDelegate@@U?$default_delete@VCPUInfoDelegate@@@std@@@std@@QAE@XZ 00404fe0 f i protect.obj
 0001:00004000       ??1?$vector@VRAMInfo@@V?$allocator@VRAMInfo@@@std@@@std@@QAE@XZ 00405000 f i protect.obj
 0001:00004010       ??1?$vector@VOSInfo@@V?$allocator@VOSInfo@@@std@@@std@@QAE@XZ 00405010 f i protect.obj
 0001:00004020       ??1?$vector@VMotherboardInfo@@V?$allocator@VMotherboardInfo@@@std@@@std@@QAE@XZ 00405020 f i protect.obj
 0001:00004030       ??1?$vector@VGPUInfo@@V?$allocator@VGPUInfo@@@std@@@std@@QAE@XZ 00405030 f i protect.obj
 0001:00004040       ??1?$vector@VCPUInfo@@V?$allocator@VCPUInfo@@@std@@@std@@QAE@XZ 00405040 f i protect.obj
 0001:00004050       ??1sentry@?$basic_ostream@DU?$char_traits@D@std@@@std@@QAE@XZ 00405050 f i protect.obj
 0001:000040c0       ?_Tidy@?$vector@VRAMInfo@@V?$allocator@VRAMInfo@@@std@@@std@@AAEXXZ 004050c0 f i protect.obj
 0001:00004150       ?_Tidy@?$vector@VOSInfo@@V?$allocator@VOSInfo@@@std@@@std@@AAEXXZ 00405150 f i protect.obj
 0001:000041e0       ?_Tidy@?$vector@VMotherboardInfo@@V?$allocator@VMotherboardInfo@@@std@@@std@@AAEXXZ 004051e0 f i protect.obj
 0001:00004260       ?_Tidy@?$vector@VGPUInfo@@V?$allocator@VGPUInfo@@@std@@@std@@AAEXXZ 00405260 f i protect.obj
 0001:000042f0       ?_Tidy@?$vector@VCPUInfo@@V?$allocator@VCPUInfo@@@std@@@std@@AAEXXZ 004052f0 f i protect.obj
 0001:00004380       ?assign@?$basic_string@DU?$char_traits@D@std@@V?$allocator@D@2@@std@@QAEAAV12@QBDI@Z 00405380 f i protect.obj
 0001:000044c0       ??1_Sentry_base@?$basic_ostream@DU?$char_traits@D@std@@@std@@QAE@XZ 004054c0 f i protect.obj
 0001:000044c0       ??1_Sentry_base@?$basic_istream@DU?$char_traits@D@std@@@std@@QAE@XZ 004054c0 f i systeminfo.obj
 0001:00004510       ?_Destroy@?$vector@VRAMInfo@@V?$allocator@VRAMInfo@@@std@@@std@@AAEXPAVRAMInfo@@0@Z 00405510 f i protect.obj
 0001:00004540       ?deallocate@?$allocator@VRAMInfo@@@std@@QAEXQAVRAMInfo@@I@Z 00405540 f i protect.obj
 0001:00004580       ?_Destroy@?$vector@VOSInfo@@V?$allocator@VOSInfo@@@std@@@std@@AAEXPAVOSInfo@@0@Z 00405580 f i protect.obj
 0001:000045b0       ?deallocate@?$allocator@VOSInfo@@@std@@QAEXQAVOSInfo@@I@Z 004055b0 f i protect.obj
 0001:000045f0       ?_Destroy@?$vector@VMotherboardInfo@@V?$allocator@VMotherboardInfo@@@std@@@std@@AAEXPAVMotherboardInfo@@0@Z 004055f0 f i protect.obj
 0001:00004620       ?deallocate@?$allocator@VMotherboardInfo@@@std@@QAEXQAVMotherboardInfo@@I@Z 00405620 f i protect.obj
 0001:00004660       ?_Destroy@?$vector@VGPUInfo@@V?$allocator@VGPUInfo@@@std@@@std@@AAEXPAVGPUInfo@@0@Z 00405660 f i protect.obj
 0001:00004690       ?deallocate@?$allocator@VGPUInfo@@@std@@QAEXQAVGPUInfo@@I@Z 00405690 f i protect.obj
 0001:000046d0       ?_Destroy@?$vector@VCPUInfo@@V?$allocator@VCPUInfo@@@std@@@std@@AAEXPAVCPUInfo@@0@Z 004056d0 f i protect.obj
 0001:00004700       ?deallocate@?$allocator@VCPUInfo@@@std@@QAEXQAVCPUInfo@@I@Z 00405700 f i protect.obj
 0001:00004740       ??$?6U?$char_traits@D@std@@@std@@YAAAV?$basic_ostream@DU?$char_traits@D@std@@@0@AAV10@PBD@Z 00405740 f i protect.obj
 0001:00004980       ??$endl@DU?$char_traits@D@std@@@std@@YAAAV?$basic_ostream@DU?$char_traits@D@std@@@0@AAV10@@Z 00405980 f i protect.obj
 0001:000049b0       ??$_Reallocate_grow_by@V<lambda_ab246b20b9526e2ef7792587e4298a77>@@PBDI@?$basic_string@DU?$char_traits@D@std@@V?$allocator@D@2@@std@@AAEAAV01@IV<lambda_ab246b20b9526e2ef7792587e4298a77>@@PBDI@Z 004059b0 f i protect.obj
 0001:00004b10       ??1RAMInfo@@QAE@XZ         00405b10 f i protect.obj
 0001:00004d70       ??1OSInfo@@QAE@XZ          00405d70 f i protect.obj
 0001:000051d0       ??1MotherboardInfo@@QAE@XZ 004061d0 f i protect.obj
 0001:00005330       ??1GPUInfo@@QAE@XZ         00406330 f i protect.obj
 0001:00005640       ??1CPUInfo@@QAE@XZ         00406640 f i protect.obj
 0001:000057f0       ??0CPUInfo@@QAE@ABV?$vector@V?$basic_string@DU?$char_traits@D@std@@V?$allocator@D@2@@std@@V?$allocator@V?$basic_string@DU?$char_traits@D@std@@V?$allocator@D@2@@std@@@2@@std@@H@Z 004067f0 f   systeminfo.obj
 0001:000060a0       ??1SystemCommand@@QAE@XZ   004070a0 f i systeminfo.obj
 0001:00006110       ?getArchitecture@CPUInfo@@ABE?AV?$basic_string@DU?$char_traits@D@std@@V?$allocator@D@2@@std@@AAV23@@Z 00407110 f   systeminfo.obj
 0001:00006230       ??0CPUInfoDelegate@@QAE@XZ 00407230 f   systeminfo.obj
 0001:00006500       ??0GPUInfo@@QAE@ABV?$vector@V?$basic_string@DU?$char_traits@D@std@@V?$allocator@D@2@@std@@V?$allocator@V?$basic_string@DU?$char_traits@D@std@@V?$allocator@D@2@@std@@@2@@std@@H@Z 00407500 f   systeminfo.obj
 0001:000074c0       ?getVideoArchitecture@GPUInfo@@ABE?AV?$basic_string@DU?$char_traits@D@std@@V?$allocator@D@2@@std@@ABV23@@Z 004084c0 f   systeminfo.obj
 0001:000077d0       ?getVideoMemoryType@GPUInfo@@ABE?AV?$basic_string@DU?$char_traits@D@std@@V?$allocator@D@2@@std@@ABV23@@Z 004087d0 f   systeminfo.obj
 0001:00007a30       ??0GPUInfoDelegate@@QAE@XZ 00408a30 f   systeminfo.obj
 0001:00007d10       ??0MotherboardInfo@@QAE@ABV?$vector@V?$basic_string@DU?$char_traits@D@std@@V?$allocator@D@2@@std@@V?$allocator@V?$basic_string@DU?$char_traits@D@std@@V?$allocator@D@2@@std@@@2@@std@@H@Z 00408d10 f   systeminfo.obj
 0001:00008140       ?determineChipset@MotherboardInfo@@AAEXXZ 00409140 f   systeminfo.obj
 0001:000083b0       ??0MotherboardInfoDelegate@@QAE@XZ 004093b0 f   systeminfo.obj
 0001:00008680       ??0OSInfo@@QAE@ABV?$vector@V?$basic_string@DU?$char_traits@D@std@@V?$allocator@D@2@@std@@V?$allocator@V?$basic_string@DU?$char_traits@D@std@@V?$allocator@D@2@@std@@@2@@std@@H@Z 00409680 f   systeminfo.obj
 0001:0000a1a0       ??0OSInfoDelegate@@QAE@XZ  0040b1a0 f   systeminfo.obj
 0001:0000a470       ??0RAMInfo@@QAE@ABV?$vector@V?$basic_string@DU?$char_traits@D@std@@V?$allocator@D@2@@std@@V?$allocator@V?$basic_string@DU?$char_traits@D@std@@V?$allocator@D@2@@std@@@2@@std@@H@Z 0040b470 f   systeminfo.obj
 0001:0000b540       ?getMemoryType@RAMInfo@@ABE?AV?$basic_string@DU?$char_traits@D@std@@V?$allocator@D@2@@std@@ABV23@@Z 0040c540 f   systeminfo.obj
 0001:0000b7a0       ?getFormFactor@RAMInfo@@ABE?AV?$basic_string@DU?$char_traits@D@std@@V?$allocator@D@2@@std@@ABV23@@Z 0040c7a0 f   systeminfo.obj
 0001:0000b9f0       ??0RAMInfoDelegate@@QAE@XZ 0040c9f0 f   systeminfo.obj
 0001:0000bcc0       ?stripAllFromString@SystemCommand@@AAE?AV?$basic_string@DU?$char_traits@D@std@@V?$allocator@D@2@@std@@ABV23@0@Z 0040ccc0 f   systeminfo.obj
 0001:0000be50       ?stripFromString@SystemCommand@@AAE?AV?$basic_string@DU?$char_traits@D@std@@V?$allocator@D@2@@std@@ABV23@0@Z 0040ce50 f   systeminfo.obj
 0001:0000c110       ?stripPipeFromCommand@SystemCommand@@AAEXXZ 0040d110 f   systeminfo.obj
 0001:0000c2c0       ?systemCommandLaunch@SystemCommand@@AAEX_N@Z 0040d2c0 f   systeminfo.obj
 0001:0000ca10       ??1?$function@$$A6A?AV?$basic_string@DU?$char_traits@D@std@@V?$allocator@D@2@@std@@ABV12@@Z@std@@QAE@XZ 0040da10 f i systeminfo.obj
 0001:0000ca40       ??0?$vector@VRAMInfo@@V?$allocator@VRAMInfo@@@std@@@std@@QAE@ABV01@@Z 0040da40 f i systeminfo.obj
 0001:0000cc20       ??0?$vector@VMotherboardInfo@@V?$allocator@VMotherboardInfo@@@std@@@std@@QAE@ABV01@@Z 0040dc20 f i systeminfo.obj
 0001:0000cdc0       ??0?$vector@VGPUInfo@@V?$allocator@VGPUInfo@@@std@@@std@@QAE@ABV01@@Z 0040ddc0 f i systeminfo.obj
 0001:0000cfd0       ??0?$vector@VCPUInfo@@V?$allocator@VCPUInfo@@@std@@@std@@QAE@ABV01@@Z 0040dfd0 f i systeminfo.obj
 0001:0000d180       ?seekpos@?$basic_stringbuf@DU?$char_traits@D@std@@V?$allocator@D@2@@std@@MAE?AV?$fpos@U_Mbstatet@@@2@V32@H@Z 0040e180 f i systeminfo.obj
 0001:0000d290       ?seekoff@?$basic_stringbuf@DU?$char_traits@D@std@@V?$allocator@D@2@@std@@MAE?AV?$fpos@U_Mbstatet@@@2@_JHH@Z 0040e290 f i systeminfo.obj
 0001:0000d420       ?underflow@?$basic_stringbuf@DU?$char_traits@D@std@@V?$allocator@D@2@@std@@MAEHXZ 0040e420 f i systeminfo.obj
 0001:0000d480       ?pbackfail@?$basic_stringbuf@DU?$char_traits@D@std@@V?$allocator@D@2@@std@@MAEHH@Z 0040e480 f i systeminfo.obj
 0001:0000d4e0       ?overflow@?$basic_stringbuf@DU?$char_traits@D@std@@V?$allocator@D@2@@std@@MAEHH@Z 0040e4e0 f i systeminfo.obj
 0001:0000d6a0       ??1?$basic_stringbuf@DU?$char_traits@D@std@@V?$allocator@D@2@@std@@UAE@XZ 0040e6a0 f i systeminfo.obj
 0001:0000d750       ??1?$vector@V?$basic_string@DU?$char_traits@D@std@@V?$allocator@D@2@@std@@V?$allocator@V?$basic_string@DU?$char_traits@D@std@@V?$allocator@D@2@@std@@@2@@std@@QAE@XZ 0040e750 f i systeminfo.obj
 0001:0000d760       ??0?$vector@V?$basic_string@DU?$char_traits@D@std@@V?$allocator@D@2@@std@@V?$allocator@V?$basic_string@DU?$char_traits@D@std@@V?$allocator@D@2@@std@@@2@@std@@QAE@ABV01@@Z 0040e760 f i systeminfo.obj
 0001:0000d860       ??0?$basic_ifstream@DU?$char_traits@D@std@@@std@@QAE@XZ 0040e860 f i systeminfo.obj
 0001:0000d940       ?find@?$basic_string@DU?$char_traits@D@std@@V?$allocator@D@2@@std@@QBEIABV12@I@Z 0040e940 f i systeminfo.obj
 0001:0000da60       ??4?$basic_string@DU?$char_traits@D@std@@V?$allocator@D@2@@std@@QAEAAV01@$$QAV01@@Z 0040ea60 f i systeminfo.obj
 0001:0000dae0       ??0?$basic_string@DU?$char_traits@D@std@@V?$allocator@D@2@@std@@QAE@ABV01@@Z 0040eae0 f i systeminfo.obj
 0001:0000dbb0       ??_E?$basic_stringbuf@DU?$char_traits@D@std@@V?$allocator@D@2@@std@@UAEPAXI@Z 0040ebb0 f i * CIL library *:* CIL module *
 0001:0000dbb0       ??_G?$basic_stringbuf@DU?$char_traits@D@std@@V?$allocator@D@2@@std@@UAEPAXI@Z 0040ebb0 f i systeminfo.obj
 0001:0000dbe0       ??_E?$basic_stringstream@DU?$char_traits@D@std@@V?$allocator@D@2@@std@@UAEPAXI@Z 0040ebe0 f i * CIL library *:* CIL module *
 0001:0000dbe0       ??_G?$basic_stringstream@DU?$char_traits@D@std@@V?$allocator@D@2@@std@@UAEPAXI@Z 0040ebe0 f i systeminfo.obj
 0001:0000dc40       ??_D?$basic_stringstream@DU?$char_traits@D@std@@V?$allocator@D@2@@std@@QAEXXZ 0040ec40 f i systeminfo.obj
 0001:0000dc80       ??1?$_Tidy_guard@V?$vector@V?$basic_string@DU?$char_traits@D@std@@V?$allocator@D@2@@std@@V?$allocator@V?$basic_string@DU?$char_traits@D@std@@V?$allocator@D@2@@std@@@2@@std@@@std@@QAE@XZ 0040ec80 f i systeminfo.obj
 0001:0000dc90       ??1?$_Tidy_guard@V?$vector@VCPUInfo@@V?$allocator@VCPUInfo@@@std@@@std@@@std@@QAE@XZ 0040ec90 f i systeminfo.obj
 0001:0000dca0       ??1?$_Tidy_guard@V?$vector@VGPUInfo@@V?$allocator@VGPUInfo@@@std@@@std@@@std@@QAE@XZ 0040eca0 f i systeminfo.obj
 0001:0000dcb0       ??1?$_Tidy_guard@V?$vector@VMotherboardInfo@@V?$allocator@VMotherboardInfo@@@std@@@std@@@std@@QAE@XZ 0040ecb0 f i systeminfo.obj
 0001:0000dcc0       ??1?$_Tidy_guard@V?$vector@VOSInfo@@V?$allocator@VOSInfo@@@std@@@std@@@std@@QAE@XZ 0040ecc0 f i systeminfo.obj
 0001:0000dcd0       ??1?$_Tidy_guard@V?$vector@VRAMInfo@@V?$allocator@VRAMInfo@@@std@@@std@@@std@@QAE@XZ 0040ecd0 f i systeminfo.obj
 0001:0000dce0       ?_Tidy@?$vector@V?$basic_string@DU?$char_traits@D@std@@V?$allocator@D@2@@std@@V?$allocator@V?$basic_string@DU?$char_traits@D@std@@V?$allocator@D@2@@std@@@2@@std@@AAEXXZ 0040ece0 f i systeminfo.obj
 0001:0000dd60       ?_Destroy@?$vector@V?$basic_string@DU?$char_traits@D@std@@V?$allocator@D@2@@std@@V?$allocator@V?$basic_string@DU?$char_traits@D@std@@V?$allocator@D@2@@std@@@2@@std@@AAEXPAV?$basic_string@DU?$char_traits@D@std@@V?$allocator@D@2@@2@0@Z 0040ed60 f i systeminfo.obj
 0001:0000dd80       ?allocate@?$allocator@V?$basic_string@DU?$char_traits@D@std@@V?$allocator@D@2@@std@@@std@@QAEPAV?$basic_string@DU?$char_traits@D@std@@V?$allocator@D@2@@2@I@Z 0040ed80 f i systeminfo.obj
 0001:0000dde0       ?deallocate@?$allocator@V?$basic_string@DU?$char_traits@D@std@@V?$allocator@D@2@@std@@@std@@QAEXQAV?$basic_string@DU?$char_traits@D@std@@V?$allocator@D@2@@2@I@Z 0040ede0 f i systeminfo.obj
 0001:0000de20       ??$use_facet@V?$ctype@D@std@@@std@@YAABV?$ctype@D@0@ABVlocale@0@@Z 0040ee20 f i systeminfo.obj
 0001:0000df20       ??$?HDU?$char_traits@D@std@@V?$allocator@D@1@@std@@YA?AV?$basic_string@DU?$char_traits@D@std@@V?$allocator@D@2@@0@ABV10@QBD@Z 0040ef20 f i systeminfo.obj
 0001:0000e040       ??$?8DU?$char_traits@D@std@@V?$allocator@D@1@@std@@YA_NABV?$basic_string@DU?$char_traits@D@std@@V?$allocator@D@2@@0@QBD@Z 0040f040 f i systeminfo.obj
 0001:0000e0d0       ??$_Emplace_reallocate@AAV?$vector@V?$basic_string@DU?$char_traits@D@std@@V?$allocator@D@2@@std@@V?$allocator@V?$basic_string@DU?$char_traits@D@std@@V?$allocator@D@2@@std@@@2@@std@@AAH@?$vector@VCPUInfo@@V?$allocator@VCPUInfo@@@std@@@std@@QAEPAVCPUInfo@@QAV2@AAV?$vector@V?$basic_string@DU?$char_traits@D@std@@V?$allocator@D@2@@std@@V?$allocator@V?$basic_string@DU?$char_traits@D@std@@V?$allocator@D@2@@std@@@2@@1@AAH@Z 0040f0d0 f i systeminfo.obj
 0001:0000e320       ??$toString@_J@OSInfo@@ABE?AV?$basic_string@DU?$char_traits@D@std@@V?$allocator@D@2@@std@@AB_J@Z 0040f320 f i systeminfo.obj
 0001:0000e320       ??$toString@_J@RAMInfo@@ABE?AV?$basic_string@DU?$char_traits@D@std@@V?$allocator@D@2@@std@@AB_J@Z 0040f320 f i systeminfo.obj
 0001:0000e320       ??$toString@_J@GPUInfo@@ABE?AV?$basic_string@DU?$char_traits@D@std@@V?$allocator@D@2@@std@@AB_J@Z 0040f320 f i systeminfo.obj
 0001:0000e4c0       ??$_Emplace_reallocate@AAV?$vector@V?$basic_string@DU?$char_traits@D@std@@V?$allocator@D@2@@std@@V?$allocator@V?$basic_string@DU?$char_traits@D@std@@V?$allocator@D@2@@std@@@2@@std@@AAH@?$vector@VGPUInfo@@V?$allocator@VGPUInfo@@@std@@@std@@QAEPAVGPUInfo@@QAV2@AAV?$vector@V?$basic_string@DU?$char_traits@D@std@@V?$allocator@D@2@@std@@V?$allocator@V?$basic_string@DU?$char_traits@D@std@@V?$allocator@D@2@@std@@@2@@1@AAH@Z 0040f4c0 f i systeminfo.obj
 0001:0000e710       ??$_Emplace_reallocate@AAV?$vector@V?$basic_string@DU?$char_traits@D@std@@V?$allocator@D@2@@std@@V?$allocator@V?$basic_string@DU?$char_traits@D@std@@V?$allocator@D@2@@std@@@2@@std@@AAH@?$vector@VMotherboardInfo@@V?$allocator@VMotherboardInfo@@@std@@@std@@QAEPAVMotherboardInfo@@QAV2@AAV?$vector@V?$basic_string@DU?$char_traits@D@std@@V?$allocator@D@2@@std@@V?$allocator@V?$basic_string@DU?$char_traits@D@std@@V?$allocator@D@2@@std@@@2@@1@AAH@Z 0040f710 f i systeminfo.obj
 0001:0000e930       ??$_Emplace_reallocate@AAV?$vector@V?$basic_string@DU?$char_traits@D@std@@V?$allocator@D@2@@std@@V?$allocator@V?$basic_string@DU?$char_traits@D@std@@V?$allocator@D@2@@std@@@2@@std@@AAH@?$vector@VOSInfo@@V?$allocator@VOSInfo@@@std@@@std@@QAEPAVOSInfo@@QAV2@AAV?$vector@V?$basic_string@DU?$char_traits@D@std@@V?$allocator@D@2@@std@@V?$allocator@V?$basic_string@DU?$char_traits@D@std@@V?$allocator@D@2@@std@@@2@@1@AAH@Z 0040f930 f i systeminfo.obj
 0001:0000ebe0       ??$_Emplace_reallocate@AAV?$vector@V?$basic_string@DU?$char_traits@D@std@@V?$allocator@D@2@@std@@V?$allocator@V?$basic_string@DU?$char_traits@D@std@@V?$allocator@D@2@@std@@@2@@std@@AAH@?$vector@VRAMInfo@@V?$allocator@VRAMInfo@@@std@@@std@@QAEPAVRAMInfo@@QAV2@AAV?$vector@V?$basic_string@DU?$char_traits@D@std@@V?$allocator@D@2@@std@@V?$allocator@V?$basic_string@DU?$char_traits@D@std@@V?$allocator@D@2@@std@@@2@@1@AAH@Z 0040fbe0 f i systeminfo.obj
 0001:0000ee30       ??$_Emplace_reallocate@V?$basic_string@DU?$char_traits@D@std@@V?$allocator@D@2@@std@@@?$vector@V?$basic_string@DU?$char_traits@D@std@@V?$allocator@D@2@@std@@V?$allocator@V?$basic_string@DU?$char_traits@D@std@@V?$allocator@D@2@@std@@@2@@std@@QAEPAV?$basic_string@DU?$char_traits@D@std@@V?$allocator@D@2@@1@QAV21@$$QAV21@@Z 0040fe30 f i systeminfo.obj
 0001:0000efc0       ??$_Emplace_reallocate@ABV?$basic_string@DU?$char_traits@D@std@@V?$allocator@D@2@@std@@@?$vector@V?$basic_string@DU?$char_traits@D@std@@V?$allocator@D@2@@std@@V?$allocator@V?$basic_string@DU?$char_traits@D@std@@V?$allocator@D@2@@std@@@2@@std@@QAEPAV?$basic_string@DU?$char_traits@D@std@@V?$allocator@D@2@@1@QAV21@ABV21@@Z 0040ffc0 f i systeminfo.obj
 0001:0000f180       ??$_Destroy_range@V?$allocator@V?$basic_string@DU?$char_traits@D@std@@V?$allocator@D@2@@std@@@std@@@std@@YAXPAV?$basic_string@DU?$char_traits@D@std@@V?$allocator@D@2@@0@QAV10@AAV?$allocator@V?$basic_string@DU?$char_traits@D@std@@V?$allocator@D@2@@std@@@0@@Z 00410180 f i systeminfo.obj
 0001:0000f1f0       ?_Xlength@?$vector@V?$basic_string@DU?$char_traits@D@std@@V?$allocator@D@2@@std@@V?$allocator@V?$basic_string@DU?$char_traits@D@std@@V?$allocator@D@2@@std@@@2@@std@@CAXXZ 004101f0 f i systeminfo.obj
 0001:0000f1f0       ?_Xlength@?$vector@VOSInfo@@V?$allocator@VOSInfo@@@std@@@std@@CAXXZ 004101f0 f i systeminfo.obj
 0001:0000f1f0       ?_Xlength@?$vector@VRAMInfo@@V?$allocator@VRAMInfo@@@std@@@std@@CAXXZ 004101f0 f i systeminfo.obj
 0001:0000f1f0       ?_Xlength@?$vector@VCPUInfo@@V?$allocator@VCPUInfo@@@std@@@std@@CAXXZ 004101f0 f i systeminfo.obj
 0001:0000f1f0       ?_Xlength@?$vector@VGPUInfo@@V?$allocator@VGPUInfo@@@std@@@std@@CAXXZ 004101f0 f i systeminfo.obj
 0001:0000f1f0       ?_Xlength@?$vector@VMotherboardInfo@@V?$allocator@VMotherboardInfo@@@std@@@std@@CAXXZ 004101f0 f i systeminfo.obj
 0001:0000f200       ??0?$basic_string@DU?$char_traits@D@std@@V?$allocator@D@2@@std@@QAE@U_String_constructor_concat_tag@1@AAV01@1@Z 00410200 f i systeminfo.obj
 0001:0000f3e0       ??$_Insert_string@DU?$char_traits@D@std@@I@std@@YAAAV?$basic_ostream@DU?$char_traits@D@std@@@0@AAV10@QBDI@Z 004103e0 f i systeminfo.obj
 0001:0000f5e0       ??$_Uninitialized_copy@PAVOSInfo@@V?$allocator@VOSInfo@@@std@@@std@@YAPAVOSInfo@@QAV1@0PAV1@AAV?$allocator@VOSInfo@@@0@@Z 004105e0 f i systeminfo.obj
 0001:0000f790       ??$_Uninitialized_move@PAVRAMInfo@@V?$allocator@VRAMInfo@@@std@@@std@@YAPAVRAMInfo@@QAV1@0PAV1@AAV?$allocator@VRAMInfo@@@0@@Z 00410790 f i systeminfo.obj
 0001:0000f9e0       ??$_Uninitialized_move@PAVMotherboardInfo@@V?$allocator@VMotherboardInfo@@@std@@@std@@YAPAVMotherboardInfo@@QAV1@0PAV1@AAV?$allocator@VMotherboardInfo@@@0@@Z 004109e0 f i systeminfo.obj
 0001:0000fb40       ??$_Uninitialized_move@PAVGPUInfo@@V?$allocator@VGPUInfo@@@std@@@std@@YAPAVGPUInfo@@QAV1@0PAV1@AAV?$allocator@VGPUInfo@@@0@@Z 00410b40 f i systeminfo.obj
 0001:0000fdb0       ??$_Uninitialized_move@PAVCPUInfo@@V?$allocator@VCPUInfo@@@std@@@std@@YAPAVCPUInfo@@QAV1@0PAV1@AAV?$allocator@VCPUInfo@@@0@@Z 00410db0 f i systeminfo.obj
 0001:0000ff70       ??$_Uninitialized_move@PAV?$basic_string@DU?$char_traits@D@std@@V?$allocator@D@2@@std@@V?$allocator@V?$basic_string@DU?$char_traits@D@std@@V?$allocator@D@2@@std@@@2@@std@@YAPAV?$basic_string@DU?$char_traits@D@std@@V?$allocator@D@2@@0@QAV10@0PAV10@AAV?$allocator@V?$basic_string@DU?$char_traits@D@std@@V?$allocator@D@2@@std@@@0@@Z 00410f70 f i systeminfo.obj
 0001:0000ffd0       ??1?$_Uninitialized_backout_al@V?$allocator@V?$basic_string@DU?$char_traits@D@std@@V?$allocator@D@2@@std@@@std@@@std@@QAE@XZ 00410fd0 f i systeminfo.obj
 0001:0000ffe0       ??1?$_Uninitialized_backout_al@V?$allocator@VCPUInfo@@@std@@@std@@QAE@XZ 00410fe0 f i systeminfo.obj
 0001:00010010       ??1?$_Uninitialized_backout_al@V?$allocator@VGPUInfo@@@std@@@std@@QAE@XZ 00411010 f i systeminfo.obj
 0001:00010040       ??1?$_Uninitialized_backout_al@V?$allocator@VMotherboardInfo@@@std@@@std@@QAE@XZ 00411040 f i systeminfo.obj
 0001:00010070       ??1?$_Uninitialized_backout_al@V?$allocator@VOSInfo@@@std@@@std@@QAE@XZ 00411070 f i systeminfo.obj
 0001:000100a0       ??1?$_Uninitialized_backout_al@V?$allocator@VRAMInfo@@@std@@@std@@QAE@XZ 004110a0 f i systeminfo.obj
 0001:00010140       ??$?5DU?$char_traits@D@std@@V?$allocator@D@1@@std@@YAAAV?$basic_istream@DU?$char_traits@D@std@@@0@$$QAV10@AAV?$basic_string@DU?$char_traits@D@std@@V?$allocator@D@2@@0@@Z 00411140 f i systeminfo.obj
 0001:00010340       ??1sentry@?$basic_istream@DU?$char_traits@D@std@@@std@@QAE@XZ 00411340 f i systeminfo.obj
 0001:000103a0       ??0OSInfo@@QAE@$$QAV0@@Z   004113a0 f i systeminfo.obj
 0001:0001075b       ??_E?$basic_stringstream@DU?$char_traits@D@std@@V?$allocator@D@2@@std@@$4PPPPPPPM@A@AEPAXI@Z 0041175b f i systeminfo.obj
 0001:00010763       ??1_Fac_node@std@@QAE@XZ   00411763 f i msvcprt:locale0_implib.obj
 0001:00010794       ??1_Fac_tidy_reg_t@std@@QAE@XZ 00411794 f i msvcprt:locale0_implib.obj
 0001:000107bb       ?_Facet_Register@std@@YAXPAV_Facet_base@1@@Z 004117bb f   msvcprt:locale0_implib.obj
 0001:000107e7       ?showmanyc@?$basic_streambuf@DU?$char_traits@D@std@@@std@@MAE_JXZ 004117e7 f   msvcprt:MSVCP140.dll
 0001:000107ed       ?xsgetn@?$basic_streambuf@DU?$char_traits@D@std@@@std@@MAE_JPAD_J@Z 004117ed f   msvcprt:MSVCP140.dll
 0001:000107f3       ?xsputn@?$basic_streambuf@DU?$char_traits@D@std@@@std@@MAE_JPBD_J@Z 004117f3 f   msvcprt:MSVCP140.dll
 0001:000107f9       ?_Lock@?$basic_streambuf@DU?$char_traits@D@std@@@std@@UAEXXZ 004117f9 f   msvcprt:MSVCP140.dll
 0001:000107ff       ?_Unlock@?$basic_streambuf@DU?$char_traits@D@std@@@std@@UAEXXZ 004117ff f   msvcprt:MSVCP140.dll
 0001:00010805       ?uflow@?$basic_streambuf@DU?$char_traits@D@std@@@std@@MAEHXZ 00411805 f   msvcprt:MSVCP140.dll
 0001:0001080b       ?setbuf@?$basic_streambuf@DU?$char_traits@D@std@@@std@@MAEPAV12@PAD_J@Z 0041180b f   msvcprt:MSVCP140.dll
 0001:00010811       ?sync@?$basic_streambuf@DU?$char_traits@D@std@@@std@@MAEHXZ 00411811 f   msvcprt:MSVCP140.dll
 0001:00010817       ?imbue@?$basic_streambuf@DU?$char_traits@D@std@@@std@@MAEXABVlocale@2@@Z 00411817 f   msvcprt:MSVCP140.dll
 0001:0001081d       @__security_check_cookie@4 0041181d f   MSVCRT:secchk.obj
 0001:0001082e       ??_V@YAXPAX@Z              0041182e f   MSVCRT:delete_array.obj
 0001:00010833       ??2@YAPAXI@Z               00411833 f   MSVCRT:new_scalar.obj
 0001:000108a7       ___scrt_acquire_startup_lock 004118a7 f   MSVCRT:utility.obj
 0001:000108d9       ___scrt_initialize_crt     004118d9 f   MSVCRT:utility.obj
 0001:00010912       ___scrt_initialize_onexit_tables 00411912 f   MSVCRT:utility.obj
 0001:00010999       ___scrt_is_nonwritable_in_current_image 00411999 f   MSVCRT:utility.obj
 0001:00010a2d       ___scrt_release_startup_lock 00411a2d f   MSVCRT:utility.obj
 0001:00010a4a       ___scrt_uninitialize_crt   00411a4a f   MSVCRT:utility.obj
 0001:00010a72       __onexit                   00411a72 f   MSVCRT:utility.obj
 0001:00010a9f       _atexit                    00411a9f f   MSVCRT:utility.obj
 0001:00010ab4       ??3@YAXPAXI@Z              00411ab4 f   MSVCRT:delete_scalar_size.obj
 0001:00010ac2       ??_U@YAPAXI@Z              00411ac2 f   MSVCRT:new_array.obj
 0001:00010acb       ??_Etype_info@@UAEPAXI@Z   00411acb f i MSVCRT:std_type_info_static.obj
 0001:00010acb       ??_Gtype_info@@UAEPAXI@Z   00411acb f i MSVCRT:std_type_info_static.obj
 0001:00010aee       ??_M@YGXPAXIIP6EX0@Z@Z     00411aee f   MSVCRT:ehvecdtr.obj
 0001:00010b73       ?__ArrayUnwind@@YGXPAXIIP6EX0@Z@Z 00411b73 f   MSVCRT:ehvecdtr.obj
 0001:00010e44       _WinMainCRTStartup         00411e44 f   MSVCRT:exe_winmain.obj
 0001:00010e4e       __initialize_denormal_control 00411e4e f i MSVCRT:denormal_control.obj
 0001:00010e4e       @_guard_check_icall_nop@4  00411e4e f i MSVCRT:guard_support.obj
 0001:00010e4e       __initialize_invalid_parameter_handler 00411e4e f i MSVCRT:invalid_parameter_handler.obj
 0001:00010e51       ___raise_securityfailure   00411e51 f   MSVCRT:gs_report.obj
 0001:00010e79       ___report_gsfailure        00411e79 f   MSVCRT:gs_report.obj
 0001:00010f73       ___report_rangecheckfailure 00411f73 f   MSVCRT:gs_report.obj
 0001:00010f7f       ___report_securityfailure  00411f7f f   MSVCRT:gs_report.obj
 0001:0001104e       ??3@YAXPAX@Z               0041204e f   MSVCRT:delete_scalar.obj
 0001:00011053       ??0bad_alloc@std@@QAE@XZ   00412053 f i MSVCRT:throw_bad_alloc.obj
 0001:0001106b       ?__scrt_throw_std_bad_alloc@@YAXXZ 0041206b f   MSVCRT:throw_bad_alloc.obj
 0001:00011088       ___isa_available_init      00412088 f   MSVCRT:cpu_disp.obj
 0001:00011259       __get_startup_argv_mode    00412259 f   MSVCRT:argv_mode.obj
 0001:0001125d       ___scrt_is_ucrt_dll_in_use 0041225d f   MSVCRT:ucrt_detection.obj
 0001:00011269       ___scrt_fastfail           00412269 f   MSVCRT:utility_desktop.obj
 0001:00011384       ___scrt_get_show_window_mode 00412384 f   MSVCRT:utility_desktop.obj
 0001:000113b5       ___scrt_initialize_mta     004123b5 f   MSVCRT:utility_desktop.obj
 0001:000113c0       _Curl_ssl_backend          004123c0 f   libcurl:vtls.obj
 0001:000113c0       ___scrt_stub_for_initialize_mta 004123c0 f   MSVCRT:utility_desktop.obj
 0001:000113c0       _Curl_if2ip                004123c0 f   libcurl:if2ip.obj
 0001:000113c0       ___scrt_exe_initialize_mta 004123c0 f   MSVCRT:utility_desktop.obj
 0001:000113c0       _Curl_posttransfer         004123c0 f   libcurl:transfer.obj
 0001:000113c0       __matherr                  004123c0 f   MSVCRT:matherr.obj
 0001:000113c0       _Curl_resolver_global_init 004123c0 f   libcurl:asyn-thread.obj
 0001:000113c0       ___scrt_initialize_winrt   004123c0 f   MSVCRT:utility_desktop.obj
 0001:000113c0       __get_startup_thread_locale_mode 004123c0 f   MSVCRT:thread_locale.obj
 0001:000113c0       __get_startup_new_mode     004123c0 f   MSVCRT:new_mode.obj
 0001:000113c0       __get_startup_commit_mode  004123c0 f   MSVCRT:commit_mode.obj
 0001:000113c3       ___scrt_is_managed_app     004123c3 f   MSVCRT:utility_desktop.obj
 0001:00011406       ___scrt_set_unhandled_exception_filter 00412406 f   MSVCRT:utility_desktop.obj
 0001:00011412       ___scrt_unhandled_exception_filter@4 00412412 f   MSVCRT:utility_desktop.obj
 0001:00011468       __crt_debugger_hook        00412468 f   MSVCRT:utility_desktop.obj
 0001:00011470       __SEH_prolog4              00412470 f   MSVCRT:sehprolg4.obj
 0001:000114b6       __except_handler4          004124b6 f   MSVCRT:chandler4gs.obj
 0001:00011532       ___security_init_cookie    00412532 f   MSVCRT:gs_support.obj
 0001:0001157d       __get_startup_file_mode    0041257d f   MSVCRT:file_mode.obj
 0001:00011583       ?__scrt_initialize_type_info@@YAXXZ 00412583 f   MSVCRT:tncleanup.obj
 0001:00011590       ___vcrt_initialize         00412590 f   MSVCRT:ucrt_stubs.obj
 0001:00011590       _Curl_auth_is_digest_supported 00412590 f   libcurl:digest.obj
 0001:00011590       __should_initialize_environment 00412590 f   MSVCRT:env_mode.obj
 0001:00011590       ___acrt_initialize         00412590 f   MSVCRT:ucrt_stubs.obj
 0001:00011590       ___scrt_stub_for_acrt_initialize 00412590 f   MSVCRT:ucrt_stubs.obj
 0001:00011590       _Curl_auth_is_ntlm_supported 00412590 f   libcurl:ntlm.obj
 0001:00011590       ___vcrt_uninitialize       00412590 f   MSVCRT:ucrt_stubs.obj
 0001:00011590       ___scrt_stub_for_acrt_uninitialize 00412590 f   MSVCRT:ucrt_stubs.obj
 0001:00011590       ___acrt_uninitialize       00412590 f   MSVCRT:ucrt_stubs.obj
 0001:00011593       __initialize_default_precision 00412593 f   MSVCRT:default_precision.obj
 0001:000115b4       ___local_stdio_scanf_options 004125b4 f i MSVCRT:default_local_stdio_options.obj
 0001:000115ba       ___scrt_initialize_default_local_stdio_options 004125ba f   MSVCRT:default_local_stdio_options.obj
 0001:000115d7       ___scrt_is_user_matherr_present 004125d7 f   MSVCRT:matherr_detection.obj
 0001:000115e3       ___scrt_get_dyn_tls_init_callback 004125e3 f   MSVCRT:dyn_tls_init.obj
 0001:000115e9       ___scrt_get_dyn_tls_dtor_callback 004125e9 f   MSVCRT:dyn_tls_dtor.obj
 0001:000115ef       __RTC_Initialize           004125ef f   MSVCRT:initsect.obj
 0001:0001161b       __RTC_Terminate            0041261b f   MSVCRT:initsect.obj
 0001:00011650       _curl_easy_cleanup         00412650 f   libcurl:easy.obj
 0001:00011670       _curl_easy_init            00412670 f   libcurl:easy.obj
 0001:000116b0       _curl_easy_perform         004126b0 f   libcurl:easy.obj
 0001:000116d0       _curl_global_init          004126d0 f   libcurl:easy.obj
 0001:000118f0       _Curl_setblobopt           004128f0 f   libcurl:setopt.obj
 0001:00011990       _Curl_setstropt            00412990 f   libcurl:setopt.obj
 0001:00011a00       _Curl_vsetopt              00412a00 f   libcurl:setopt.obj
 0001:00014670       _curl_easy_setopt          00415670 f   libcurl:setopt.obj
 0001:00014760       _Curl_slist_append_nodup   00415760 f   libcurl:slist.obj
 0001:000147a0       _curl_slist_append         004157a0 f   libcurl:slist.obj
 0001:000147e0       _curl_slist_free_all       004157e0 f   libcurl:slist.obj
 0001:00014840       _Curl_attach_connnection   00415840 f   libcurl:multi.obj
 0001:00014870       _Curl_detach_connnection   00415870 f   libcurl:multi.obj
 0001:000148a0       _Curl_expire               004158a0 f   libcurl:multi.obj
 0001:00014a00       _Curl_expire_clear         00415a00 f   libcurl:multi.obj
 0001:00014aa0       _Curl_expire_done          00415aa0 f   libcurl:multi.obj
 0001:00014ab0       _Curl_multi_closed         00415ab0 f   libcurl:multi.obj
 0001:00014b10       _Curl_multi_handle         00415b10 f   libcurl:multi.obj
 0001:00014c60       _Curl_multi_max_host_connections 00415c60 f   libcurl:multi.obj
 0001:00014c80       _Curl_multi_max_total_connections 00415c80 f   libcurl:multi.obj
 0001:00014ca0       _Curl_multiplex_wanted     00415ca0 f   libcurl:multi.obj
 0001:00014cc0       _Curl_preconnect           00415cc0 f   libcurl:multi.obj
 0001:00014d00       _Curl_set_in_callback      00415d00 f   libcurl:multi.obj
 0001:00014d30       _Curl_update_timer         00415d30 f   libcurl:multi.obj
 0001:00014f60       _curl_multi_add_handle     00415f60 f   libcurl:multi.obj
 0001:000150f0       _curl_multi_cleanup        004160f0 f   libcurl:multi.obj
 0001:000151f0       _curl_multi_info_read      004161f0 f   libcurl:multi.obj
 0001:00015260       _curl_multi_perform        00416260 f   libcurl:multi.obj
 0001:00015370       _curl_multi_poll           00416370 f   libcurl:multi.obj
 0001:00015390       _curl_multi_remove_handle  00416390 f   libcurl:multi.obj
 0001:00015560       _curl_multi_setopt         00416560 f   libcurl:multi.obj
 0001:000156d0       _curl_multi_timeout        004166d0 f   libcurl:multi.obj
 0001:00017300       _Curl_resolver_cleanup     00418300 f   libcurl:asyn-thread.obj
 0001:00017640       _Curl_free_idnconverted_hostname 00418640 f   libcurl:url.obj
 0001:000176e0       _Curl_cookie_add           004186e0 f   libcurl:cookie.obj
 0001:00018410       _Curl_cookie_cleanup       00419410 f   libcurl:cookie.obj
 0001:00018460       _Curl_cookie_clearall      00419460 f   libcurl:cookie.obj
 0001:000184a0       _Curl_cookie_clearsess     004194a0 f   libcurl:cookie.obj
 0001:00018520       _Curl_cookie_freelist      00419520 f   libcurl:cookie.obj
 0001:00018550       _Curl_cookie_getlist       00419550 f   libcurl:cookie.obj
 0001:000186c0       _Curl_cookie_init          004196c0 f   libcurl:cookie.obj
 0001:000188a0       _Curl_cookie_loadfiles     004198a0 f   libcurl:cookie.obj
 0001:00018920       _Curl_flush_cookies        00419920 f   libcurl:cookie.obj
 0001:00019370       _sscanf                    0041a370 f i libcurl:cookie.obj
 0001:00019420       _Curl_resolver_cancel      0041a420 f   libcurl:asyn-thread.obj
 0001:00019430       _Curl_resolver_getaddrinfo 0041a430 f   libcurl:asyn-thread.obj
 0001:000194f0       _Curl_resolver_getsock     0041a4f0 f   libcurl:asyn-thread.obj
 0001:000195b0       _Curl_resolver_init        0041a5b0 f   libcurl:asyn-thread.obj
 0001:000195e0       _Curl_resolver_is_resolved 0041a5e0 f   libcurl:asyn-thread.obj
 0001:00019730       _Curl_resolver_kill        0041a730 f   libcurl:asyn-thread.obj
 0001:00019760       _Curl_resolver_wait_resolv 0041a760 f   libcurl:asyn-thread.obj
 0001:00019bf0       _Curl_dyn_add              0041abf0 f   libcurl:dynbuf.obj
 0001:00019c20       _Curl_dyn_addf             0041ac20 f   libcurl:dynbuf.obj
 0001:00019c40       _Curl_dyn_addn             0041ac40 f   libcurl:dynbuf.obj
 0001:00019c50       _Curl_dyn_free             0041ac50 f   libcurl:dynbuf.obj
 0001:00019c80       _Curl_dyn_init             0041ac80 f   libcurl:dynbuf.obj
 0001:00019cb0       _Curl_dyn_len              0041acb0 f   libcurl:dynbuf.obj
 0001:00019cc0       _Curl_dyn_uptr             0041acc0 f   libcurl:dynbuf.obj
 0001:00019cc0       _Curl_dyn_ptr              0041acc0 f   libcurl:dynbuf.obj
 0001:00019cd0       _Curl_dyn_reset            0041acd0 f   libcurl:dynbuf.obj
 0001:00019cf0       _Curl_dyn_vaddf            0041acf0 f   libcurl:dynbuf.obj
 0001:0001a2c0       _Curl_mime_add_header      0041b2c0 f   libcurl:mime.obj
 0001:0001a320       _Curl_mime_cleanpart       0041b320 f   libcurl:mime.obj
 0001:0001a390       _Curl_mime_contenttype     0041b390 f   libcurl:mime.obj
 0001:0001a400       _Curl_mime_initpart        0041b400 f   libcurl:mime.obj
 0001:0001a440       _Curl_mime_prepare_headers 0041b440 f   libcurl:mime.obj
 0001:0001a750       _Curl_mime_read            0041b750 f   libcurl:mime.obj
 0001:0001a780       _Curl_mime_rewind          0041b780 f   libcurl:mime.obj
 0001:0001a7a0       _Curl_mime_set_subparts    0041b7a0 f   libcurl:mime.obj
 0001:0001a870       _Curl_mime_size            0041b870 f   libcurl:mime.obj
 0001:0001aa80       _curl_mime_addpart         0041ba80 f   libcurl:mime.obj
 0001:0001aae0       _curl_mime_data            0041bae0 f   libcurl:mime.obj
 0001:0001ab80       _curl_mime_data_cb         0041bb80 f   libcurl:mime.obj
 0001:0001abd0       _curl_mime_filedata        0041bbd0 f   libcurl:mime.obj
 0001:0001acf0       _curl_mime_filename        0041bcf0 f   libcurl:mime.obj
 0001:0001ad40       _curl_mime_free            0041bd40 f   libcurl:mime.obj
 0001:0001ad90       _curl_mime_headers         0041bd90 f   libcurl:mime.obj
 0001:0001ade0       _curl_mime_init            0041bde0 f   libcurl:mime.obj
 0001:0001ae60       _curl_mime_name            0041be60 f   libcurl:mime.obj
 0001:0001aeb0       _curl_mime_subparts        0041beb0 f   libcurl:mime.obj
 0001:0001aed0       _curl_mime_type            0041bed0 f   libcurl:mime.obj
 0001:0001bb60       _Curl_conncache_add_conn   0041cb60 f   libcurl:conncache.obj
 0001:0001bc60       _Curl_conncache_close_all_connections 0041cc60 f   libcurl:conncache.obj
 0001:0001bd10       _Curl_conncache_destroy    0041cd10 f   libcurl:conncache.obj
 0001:0001bd30       _Curl_conncache_extract_bundle 0041cd30 f   libcurl:conncache.obj
 0001:0001bde0       _Curl_conncache_extract_oldest 0041cde0 f   libcurl:conncache.obj
 0001:0001bf10       _Curl_conncache_find_bundle 0041cf10 f   libcurl:conncache.obj
 0001:0001bfb0       _Curl_conncache_foreach    0041cfb0 f   libcurl:conncache.obj
 0001:0001c080       _Curl_conncache_init       0041d080 f   libcurl:conncache.obj
 0001:0001c0f0       _Curl_conncache_remove_conn 0041d0f0 f   libcurl:conncache.obj
 0001:0001c180       _Curl_conncache_return_conn 0041d180 f   libcurl:conncache.obj
 0001:0001c200       _Curl_conncache_size       0041d200 f   libcurl:conncache.obj
 0001:0001ccc0       _Curl_builtin_scheme       0041dcc0 f   libcurl:url.obj
 0001:0001cd00       _Curl_close                0041dd00 f   libcurl:url.obj
 0001:0001d080       _Curl_connect              0041e080 f   libcurl:url.obj
 0001:0001d140       _Curl_disconnect           0041e140 f   libcurl:url.obj
 0001:0001d1d0       _Curl_free_request_state   0041e1d0 f   libcurl:url.obj
 0001:0001d240       _Curl_freeset              0041e240 f   libcurl:url.obj
 0001:0001d310       _Curl_idnconvert_hostname  0041e310 f   libcurl:url.obj
 0001:0001d340       _Curl_init_do              0041e340 f   libcurl:url.obj
 0001:0001d410       _Curl_init_userdefined     0041e410 f   libcurl:url.obj
 0001:0001d660       _Curl_is_ASCII_name        0041e660 f   libcurl:url.obj
 0001:0001d690       _Curl_open                 0041e690 f   libcurl:url.obj
 0001:0001d770       _Curl_parse_login_details  0041e770 f   libcurl:url.obj
 0001:0001d990       _Curl_setup_conn           0041e990 f   libcurl:url.obj
 0001:0001da90       _Curl_uc_to_curlcode       0041ea90 f   libcurl:url.obj
 0001:0001dad0       _Curl_verboseconnect       0041ead0 f   libcurl:url.obj
 0001:00020ac0       _Curl_initinfo             00421ac0 f   libcurl:getinfo.obj
 0001:00020c60       _Curl_memdup               00421c60 f   libcurl:strdup.obj
 0001:00020c90       _Curl_saferealloc          00421c90 f   libcurl:strdup.obj
 0001:00020cc0       _Curl_client_write         00421cc0 f   libcurl:sendf.obj
 0001:00020cf0       _Curl_debug                00421cf0 f   libcurl:sendf.obj
 0001:00020d80       _Curl_failf                00421d80 f   libcurl:sendf.obj
 0001:00020e40       _Curl_infof                00421e40 f   libcurl:sendf.obj
 0001:00020f00       _Curl_read                 00421f00 f   libcurl:sendf.obj
 0001:00020f70       _Curl_read_plain           00421f70 f   libcurl:sendf.obj
 0001:00020fc0       _Curl_recv_has_postponed_data 00421fc0 f   libcurl:sendf.obj
 0001:00020ff0       _Curl_recv_plain           00421ff0 f   libcurl:sendf.obj
 0001:000210f0       _Curl_send_plain           004220f0 f   libcurl:sendf.obj
 0001:000211e0       _Curl_write                004221e0 f   libcurl:sendf.obj
 0001:00021250       _Curl_write_plain          00422250 f   libcurl:sendf.obj
 0001:00021610       _Curl_addr2string          00422610 f   libcurl:connect.obj
 0001:000216b0       _Curl_closesocket          004226b0 f   libcurl:connect.obj
 0001:00021730       _Curl_conn_data_pending    00422730 f   libcurl:connect.obj
 0001:00021780       _Curl_connalive            00422780 f   libcurl:connect.obj
 0001:000217c0       _Curl_conncontrol          004227c0 f   libcurl:connect.obj
 0001:00021810       _Curl_connecthost          00422810 f   libcurl:connect.obj
 0001:00021980       _Curl_conninfo_local       00422980 f   libcurl:connect.obj
 0001:00021a60       _Curl_conninfo_remote      00422a60 f   libcurl:connect.obj
 0001:00021b60       _Curl_is_connected         00422b60 f   libcurl:connect.obj
 0001:00022090       _Curl_persistconninfo      00423090 f   libcurl:connect.obj
 0001:00022160       _Curl_sndbufset            00423160 f   libcurl:connect.obj
 0001:00022200       _Curl_socket               00423200 f   libcurl:connect.obj
 0001:00022320       _Curl_timeleft             00423320 f   libcurl:connect.obj
 0001:000224a0       _Curl_updateconninfo       004234a0 f   libcurl:connect.obj
 0001:00023270       _curlx_read                00424270 f   libcurl:warnless.obj
 0001:00023290       _curlx_uztosi              00424290 f   libcurl:warnless.obj
 0001:00023290       _curlx_sltosi              00424290 f   libcurl:warnless.obj
 0001:00023290       _curlx_uztosz              00424290 f   libcurl:warnless.obj
 0001:000232a0       _curlx_sltoui              004242a0 f   libcurl:warnless.obj
 0001:000232a0       _curlx_sotouz              004242a0 f   libcurl:warnless.obj
 0001:000232a0       _curlx_uztoui              004242a0 f   libcurl:warnless.obj
 0001:000232b0       _curlx_uitous              004242b0 f   libcurl:warnless.obj
 0001:000232b0       _curlx_ultous              004242b0 f   libcurl:warnless.obj
 0001:000232b0       _curlx_sltous              004242b0 f   libcurl:warnless.obj
 0001:000232c0       _curlx_ultouc              004242c0 f   libcurl:warnless.obj
 0001:000232d0       _curlx_write               004242d0 f   libcurl:warnless.obj
 0001:000232f0       _Curl_http_auth_cleanup_digest 004242f0 f   libcurl:http_digest.obj
 0001:00023320       _Curl_input_digest         00424320 f   libcurl:http_digest.obj
 0001:00023390       _Curl_output_digest        00424390 f   libcurl:http_digest.obj
 0001:000234f0       _Curl_load_library         004244f0 f   libcurl:system_win32.obj
 0001:00023640       _Curl_win32_init           00424640 f   libcurl:system_win32.obj
 0001:00023700       _Curl_alpnid2str           00424700 f   libcurl:altsvc.obj
 0001:00023730       _Curl_altsvc_cleanup       00424730 f   libcurl:altsvc.obj
 0001:00023780       _Curl_altsvc_ctrl          00424780 f   libcurl:altsvc.obj
 0001:000237a0       _Curl_altsvc_init          004247a0 f   libcurl:altsvc.obj
 0001:000237d0       _Curl_altsvc_load          004247d0 f   libcurl:altsvc.obj
 0001:000237e0       _Curl_altsvc_lookup        004247e0 f   libcurl:altsvc.obj
 0001:00023880       _Curl_altsvc_parse         00424880 f   libcurl:altsvc.obj
 0001:00023d60       _Curl_altsvc_save          00424d60 f   libcurl:altsvc.obj
 0001:000243a0       _Curl_raw_toupper          004253a0 f   libcurl:strcase.obj
 0001:000243c0       _Curl_safe_strcasecompare  004253c0 f   libcurl:strcase.obj
 0001:000243f0       _Curl_strcasecompare       004253f0 f   libcurl:strcase.obj
 0001:00024460       _Curl_strncasecompare      00425460 f   libcurl:strcase.obj
 0001:000244f0       _Curl_strntolower          004254f0 f   libcurl:strcase.obj
 0001:00024530       _Curl_strntoupper          00425530 f   libcurl:strcase.obj
 0001:00024570       _curl_strequal             00425570 f   libcurl:strcase.obj
 0001:00024580       _curl_strnequal            00425580 f   libcurl:strcase.obj
 0001:00024680       _Curl_all_content_encodings 00425680 f   libcurl:content_encoding.obj
 0001:00024780       _Curl_build_unencoding_stack 00425780 f   libcurl:content_encoding.obj
 0001:00024890       _Curl_unencode_cleanup     00425890 f   libcurl:content_encoding.obj
 0001:000248d0       _Curl_unencode_write       004258d0 f   libcurl:content_encoding.obj
 0001:000249b0       _Curl_share_lock           004259b0 f   libcurl:share.obj
 0001:000249f0       _Curl_share_unlock         004259f0 f   libcurl:share.obj
 0001:00024a30       _Curl_now                  00425a30 f   libcurl:timeval.obj
 0001:00024ad0       _Curl_timediff             00425ad0 f   libcurl:timeval.obj
 0001:00024b60       _Curl_timediff_us          00425b60 f   libcurl:timeval.obj
 0001:00024bd0       _Curl_llist_count          00425bd0 f   libcurl:llist.obj
 0001:00024bd0       _Curl_ftp_parselist_geterror 00425bd0 f   libcurl:ftplistparser.obj
 0001:00024be0       _Curl_llist_destroy        00425be0 f   libcurl:llist.obj
 0001:00024c10       _Curl_llist_init           00425c10 f   libcurl:llist.obj
 0001:00024c40       _Curl_llist_insert_next    00425c40 f   libcurl:llist.obj
 0001:00024cc0       _Curl_llist_remove         00425cc0 f   libcurl:llist.obj
 0001:00024d40       _Curl_hash_add             00425d40 f   libcurl:hash.obj
 0001:00024dd0       _Curl_hash_clean           00425dd0 f   libcurl:hash.obj
 0001:00024df0       _Curl_hash_clean_with_criterium 00425df0 f   libcurl:hash.obj
 0001:00024e70       _Curl_hash_delete          00425e70 f   libcurl:hash.obj
 0001:00024ef0       _Curl_hash_destroy         00425ef0 f   libcurl:hash.obj
 0001:00024f40       _Curl_hash_init            00425f40 f   libcurl:hash.obj
 0001:00024fd0       _Curl_hash_next_element    00425fd0 f   libcurl:hash.obj
 0001:00025040       _Curl_hash_pick            00426040 f   libcurl:hash.obj
 0001:000250b0       _Curl_hash_start_iterate   004260b0 f   libcurl:hash.obj
 0001:000250d0       _Curl_hash_str             004260d0 f   libcurl:hash.obj
 0001:00025120       _Curl_str_key_compare      00426120 f   libcurl:hash.obj
 0001:00025210       _Curl_ipv6works            00426210 f   libcurl:hostip6.obj
 0001:00025260       _Curl_ipvalid              00426260 f   libcurl:hostip6.obj
 0001:00025280       _Curl_cache_addr           00426280 f   libcurl:hostip.obj
 0001:000253a0       _Curl_fetch_addr           004263a0 f   libcurl:hostip.obj
 0001:000253f0       _Curl_hostcache_clean      004263f0 f   libcurl:hostip.obj
 0001:00025440       _Curl_hostcache_prune      00426440 f   libcurl:hostip.obj
 0001:000254b0       _Curl_loadhostpairs        004264b0 f   libcurl:hostip.obj
 0001:00025940       _Curl_mk_dnscache          00426940 f   libcurl:hostip.obj
 0001:00025970       _Curl_num_addresses        00426970 f   libcurl:hostip.obj
 0001:00025990       _Curl_once_resolved        00426990 f   libcurl:hostip.obj
 0001:000259f0       _Curl_printable_address    004269f0 f   libcurl:hostip.obj
 0001:00025a40       _Curl_resolv               00426a40 f   libcurl:hostip.obj
 0001:00025c70       _Curl_resolv_check         00426c70 f   libcurl:hostip.obj
 0001:00025ca0       _Curl_resolv_getsock       00426ca0 f   libcurl:hostip.obj
 0001:00025cc0       _Curl_resolv_timeout       00426cc0 f   libcurl:hostip.obj
 0001:00025d00       _Curl_resolv_unlock        00426d00 f   libcurl:hostip.obj
 0001:00025d50       _Curl_resolver_error       00426d50 f   libcurl:hostip.obj
 0001:00026170       _Curl_splay                00427170 f   libcurl:splay.obj
 0001:000262d0       _Curl_splaygetbest         004272d0 f   libcurl:splay.obj
 0001:00026380       _Curl_splayinsert          00427380 f   libcurl:splay.obj
 0001:00026480       _Curl_splayremove          00427480 f   libcurl:splay.obj
 0001:00026640       _Curl_http                 00427640 f   libcurl:http.obj
 0001:00026c10       _Curl_http_done            00427c10 f   libcurl:http.obj
 0001:00026cf0       _Curl_http_connect         00427cf0 f   libcurl:http.obj
 0001:00026d70       _Curl_add_custom_headers   00427d70 f   libcurl:http.obj
 0001:000270a0       _Curl_add_timecondition    004280a0 f   libcurl:http.obj
 0001:000271e0       _Curl_buffer_send          004281e0 f   libcurl:http.obj
 0001:00027460       _Curl_checkProxyheaders    00428460 f   libcurl:http.obj
 0001:000274e0       _Curl_compareheader        004284e0 f   libcurl:http.obj
 0001:000275b0       _Curl_copy_header_value    004285b0 f   libcurl:http.obj
 0001:00027680       _Curl_http_auth_act        00428680 f   libcurl:http.obj
 0001:00027890       _Curl_http_body            00428890 f   libcurl:http.obj
 0001:00027a70       _Curl_http_bodysend        00428a70 f   libcurl:http.obj
 0001:000281b0       _Curl_http_compile_trailers 004291b0 f   libcurl:http.obj
 0001:00028240       _Curl_http_cookies         00429240 f   libcurl:http.obj
 0001:000283d0       _Curl_http_firstwrite      004293d0 f   libcurl:http.obj
 0001:000284e0       _Curl_http_header          004294e0 f   libcurl:http.obj
 0001:00028bb0       _Curl_http_host            00429bb0 f   libcurl:http.obj
 0001:00028de0       _Curl_http_input_auth      00429de0 f   libcurl:http.obj
 0001:00028fb0       _Curl_http_method          00429fb0 f   libcurl:http.obj
 0001:00029060       _Curl_http_output_auth     0042a060 f   libcurl:http.obj
 0001:000291b0       _Curl_http_range           0042a1b0 f   libcurl:http.obj
 0001:000292f0       _Curl_http_readwrite_headers 0042a2f0 f   libcurl:http.obj
 0001:00029b90       _Curl_http_resume          0042ab90 f   libcurl:http.obj
 0001:00029d80       _Curl_http_statusline      0042ad80 f   libcurl:http.obj
 0001:00029ea0       _Curl_http_target          0042aea0 f   libcurl:http.obj
 0001:0002a090       _Curl_http_useragent       0042b090 f   libcurl:http.obj
 0001:0002aad0       _Curl_wildcard_dtor        0042bad0 f   libcurl:wildcard.obj
 0001:0002ab40       _Curl_wildcard_init        0042bb40 f   libcurl:wildcard.obj
 0001:0002ab80       _Curl_socketpair           0042bb80 f   libcurl:socketpair.obj
 0001:0002ad70       _Curl_checkheaders         0042bd70 f   libcurl:transfer.obj
 0001:0002add0       _Curl_done_sending         0042bdd0 f   libcurl:transfer.obj
 0001:0002ae00       _Curl_fillreadbuffer       0042be00 f   libcurl:transfer.obj
 0001:0002b1c0       _Curl_follow               0042c1c0 f   libcurl:transfer.obj
 0001:0002b520       _Curl_get_upload_buffer    0042c520 f   libcurl:transfer.obj
 0001:0002b560       _Curl_init_CONNECT         0042c560 f   libcurl:transfer.obj
 0001:0002b580       _Curl_meets_timecondition  0042c580 f   libcurl:transfer.obj
 0001:0002b5f0       _Curl_pretransfer          0042c5f0 f   libcurl:transfer.obj
 0001:0002b910       _Curl_readrewind           0042c910 f   libcurl:transfer.obj
 0001:0002ba80       _Curl_readwrite            0042ca80 f   libcurl:transfer.obj
 0001:0002bda0       _Curl_retry_request        0042cda0 f   libcurl:transfer.obj
 0001:0002bf00       _Curl_setup_transfer       0042cf00 f   libcurl:transfer.obj
 0001:0002c0a0       _Curl_single_getsock       0042d0a0 f   libcurl:transfer.obj
 0001:0002cc20       _curlx_nonblock            0042dc20 f   libcurl:nonblock.obj
 0001:0002cc50       _Curl_pgrsDone             0042dc50 f   libcurl:progress.obj
 0001:0002ccb0       _Curl_pgrsLimitWaitTime    0042dcb0 f   libcurl:progress.obj
 0001:0002cd80       _Curl_pgrsResetTransferSizes 0042dd80 f   libcurl:progress.obj
 0001:0002cda0       _Curl_pgrsSetDownloadCounter 0042dda0 f   libcurl:progress.obj
 0001:0002cdc0       _Curl_pgrsSetDownloadSize  0042ddc0 f   libcurl:progress.obj
 0001:0002ce10       _Curl_pgrsSetUploadCounter 0042de10 f   libcurl:progress.obj
 0001:0002ce30       _Curl_pgrsSetUploadSize    0042de30 f   libcurl:progress.obj
 0001:0002ce80       _Curl_pgrsStartNow         0042de80 f   libcurl:progress.obj
 0001:0002cf20       _Curl_pgrsTime             0042df20 f   libcurl:progress.obj
 0001:0002d090       _Curl_pgrsUpdate           0042e090 f   libcurl:progress.obj
 0001:0002d220       _Curl_ratelimit            0042e220 f   libcurl:progress.obj
 0001:0002de20       _Curl_poll                 0042ee20 f   libcurl:select.obj
 0001:0002e0d0       _Curl_socket_check         0042f0d0 f   libcurl:select.obj
 0001:0002e1e0       _Curl_wait_ms              0042f1e0 f   libcurl:select.obj
 0001:0002e360       _Curl_speedcheck           0042f360 f   libcurl:speedcheck.obj
 0001:0002e460       _Curl_speedinit            0042f460 f   libcurl:speedcheck.obj
 0001:0002edf0       _Curl_connect_complete     0042fdf0 f   libcurl:http_proxy.obj
 0001:0002ee10       _Curl_connect_free         0042fe10 f   libcurl:http_proxy.obj
 0001:0002ee40       _Curl_connect_ongoing      0042fe40 f   libcurl:http_proxy.obj
 0001:0002ee60       _Curl_proxyCONNECT         0042fe60 f   libcurl:http_proxy.obj
 0001:0002eec0       _Curl_proxy_connect        0042fec0 f   libcurl:http_proxy.obj
 0001:0002f0c0       _Curl_SOCKS4               004300c0 f   libcurl:socks.obj
 0001:0002f740       _Curl_SOCKS5               00430740 f   libcurl:socks.obj
 0001:00030310       _Curl_SOCKS_getsock        00431310 f   libcurl:socks.obj
 0001:00030390       _Curl_dyn_vprintf          00431390 f   libcurl:mprintf.obj
 0001:00030450       _curl_maprintf             00431450 f   libcurl:mprintf.obj
 0001:00030470       _curl_mfprintf             00431470 f   libcurl:mprintf.obj
 0001:00030490       _curl_msnprintf            00431490 f   libcurl:mprintf.obj
 0001:000304b0       _curl_mvaprintf            004314b0 f   libcurl:mprintf.obj
 0001:00030530       _curl_mvsnprintf           00431530 f   libcurl:mprintf.obj
 0001:00031910       _curlx_win32_access        00432910 f   libcurl:curl_multibyte.obj
 0001:00031920       _curlx_win32_fopen         00432920 f   libcurl:curl_multibyte.obj
 0001:00031930       _curlx_win32_open          00432930 f   libcurl:curl_multibyte.obj
 0001:00031960       _curlx_win32_stat          00432960 f   libcurl:curl_multibyte.obj
 0001:00031970       _Curl_strtok_r             00432970 f   libcurl:strtok.obj
 0001:000319f0       _curlx_strtoofft           004329f0 f   libcurl:strtoofft.obj
 0001:00031ab0       _Curl_get_line             00432ab0 f   libcurl:curl_get_line.obj
 0001:00031b20       _Curl_memrchr              00432b20 f   libcurl:curl_memrchr.obj
 0001:00031b50       _Curl_inet_pton            00432b50 f   libcurl:inet_pton.obj
 0001:00031e60       _Curl_getdate_capped       00432e60 f   libcurl:parsedate.obj
 0001:00031ed0       _Curl_gmtime               00432ed0 f   libcurl:parsedate.obj
 0001:00032590       _Curl_rand                 00433590 f   libcurl:rand.obj
 0001:000325f0       _Curl_rand_hex             004335f0 f   libcurl:rand.obj
 0001:00032730       _Curl_rename               00433730 f   libcurl:rename.obj
 0001:00032810       _Curl_freeaddrinfo         00433810 f   libcurl:curl_addrinfo.obj
 0001:00032840       _Curl_getaddrinfo_ex       00433840 f   libcurl:curl_addrinfo.obj
 0001:000329d0       _Curl_he2ai                004339d0 f   libcurl:curl_addrinfo.obj
 0001:00032b10       _Curl_ip2addr              00433b10 f   libcurl:curl_addrinfo.obj
 0001:00032be0       _Curl_str2addr             00433be0 f   libcurl:curl_addrinfo.obj
 0001:00032c70       _Curl_unix2addr            00433c70 f   libcurl:curl_addrinfo.obj
 0001:00032d20       _Curl_addrinfo_callback    00433d20 f   libcurl:hostasyn.obj
 0001:00032db0       _Curl_getaddrinfo          00433db0 f   libcurl:hostasyn.obj
 0001:00032dc0       _Curl_thread_create        00433dc0 f   libcurl:curl_threads.obj
 0001:00032df0       _Curl_thread_destroy       00433df0 f   libcurl:curl_threads.obj
 0001:00032e00       _Curl_thread_join          00433e00 f   libcurl:curl_threads.obj
 0001:00035330       _Curl_pop3_write           00436330 f   libcurl:pop3.obj
 0001:00036550       _Curl_smtp_escape_eob      00437550 f   libcurl:smtp.obj
 0001:00038790       _Curl_GetFTPResponse       00439790 f   libcurl:ftp.obj
 0001:00041d20       _Curl_rtsp_parseheader     00442d20 f   libcurl:rtsp.obj
 0001:00043cb0       _curl_getenv               00444cb0 f   libcurl:getenv.obj
 0001:00043cc0       _Curl_is_absolute_url      00444cc0 f   libcurl:urlapi.obj
 0001:000440e0       _curl_url                  004450e0 f   libcurl:urlapi.obj
 0001:000440f0       _curl_url_cleanup          004450f0 f   libcurl:urlapi.obj
 0001:00044110       _curl_url_dup              00445110 f   libcurl:urlapi.obj
 0001:00044230       _curl_url_get              00445230 f   libcurl:urlapi.obj
 0001:00044740       _curl_url_set              00445740 f   libcurl:urlapi.obj
 0001:00045850       _Curl_isalnum              00446850 f   libcurl:curl_ctype.obj
 0001:00045870       _Curl_isalpha              00446870 f   libcurl:curl_ctype.obj
 0001:00045890       _Curl_iscntrl              00446890 f   libcurl:curl_ctype.obj
 0001:000458b0       _Curl_isdigit              004468b0 f   libcurl:curl_ctype.obj
 0001:000458d0       _Curl_isgraph              004468d0 f   libcurl:curl_ctype.obj
 0001:000458f0       _Curl_islower              004468f0 f   libcurl:curl_ctype.obj
 0001:00045910       _Curl_isprint              00446910 f   libcurl:curl_ctype.obj
 0001:00045930       _Curl_isspace              00446930 f   libcurl:curl_ctype.obj
 0001:00045950       _Curl_isupper              00446950 f   libcurl:curl_ctype.obj
 0001:00045970       _Curl_isxdigit             00446970 f   libcurl:curl_ctype.obj
 0001:00045990       _Curl_parsenetrc           00446990 f   libcurl:netrc.obj
 0001:00045ef0       _Curl_clone_primary_ssl_config 00446ef0 f   libcurl:vtls.obj
 0001:00046090       _Curl_free_primary_ssl_config 00447090 f   libcurl:vtls.obj
 0001:00046140       _Curl_ssl_config_matches   00447140 f   libcurl:vtls.obj
 0001:00046360       _Curl_isunreserved         00447360 f   libcurl:escape.obj
 0001:000463f0       _Curl_urldecode            004473f0 f   libcurl:escape.obj
 0001:00046510       _Curl_http_auth_cleanup_ntlm 00447510 f   libcurl:http_ntlm.obj
 0001:00046540       _Curl_input_ntlm           00447540 f   libcurl:http_ntlm.obj
 0001:00046650       _Curl_output_ntlm          00447650 f   libcurl:http_ntlm.obj
 0001:00046860       _Curl_strerror             00447860 f   libcurl:strerror.obj
 0001:00046960       _curl_easy_strerror        00447960 f   libcurl:strerror.obj
 0001:00047180       _Curl_ipv6_scope           00448180 f   libcurl:if2ip.obj
 0001:00047220       _Curl_inet_ntop            00448220 f   libcurl:inet_ntop.obj
 0001:00047550       _curlx_verify_windows_version 00448550 f   libcurl:version_win32.obj
 0001:000476b0       _Curl_auth_create_digest_http_message 004486b0 f   libcurl:digest.obj
 0001:00047720       _Curl_auth_create_digest_md5_message 00448720 f   libcurl:digest.obj
 0001:00047c70       _Curl_auth_decode_digest_http_message 00448c70 f   libcurl:digest.obj
 0001:00048130       _Curl_auth_digest_cleanup  00449130 f   libcurl:digest.obj
 0001:000481b0       _Curl_auth_digest_get_pair 004491b0 f   libcurl:digest.obj
 0001:00048a90       _Curl_chunked_strerror     00449a90 f   libcurl:http_chunks.obj
 0001:00048af0       _Curl_httpchunk_init       00449af0 f   libcurl:http_chunks.obj
 0001:00048b20       _Curl_httpchunk_read       00449b20 f   libcurl:http_chunks.obj
 0001:00048eb0       _Curl_doh                  00449eb0 f   libcurl:doh.obj
 0001:00048fd0       _Curl_doh_is_resolved      00449fd0 f   libcurl:doh.obj
 0001:0004a420       _Curl_getformdata          0044b420 f   libcurl:formdata.obj
 0001:0004a750       _Curl_base64_decode        0044b750 f   libcurl:base64.obj
 0001:0004a850       _Curl_base64_encode        0044b850 f   libcurl:base64.obj
 0001:0004a880       _Curl_base64url_encode     0044b880 f   libcurl:base64.obj
 0001:0004ab20       _Curl_auth_cleanup_ntlm    0044bb20 f   libcurl:ntlm.obj
 0001:0004ab50       _Curl_auth_create_ntlm_type1_message 0044bb50 f   libcurl:ntlm.obj
 0001:0004ac00       _Curl_auth_create_ntlm_type3_message 0044bc00 f   libcurl:ntlm.obj
 0001:0004b1a0       _Curl_auth_decode_ntlm_type2_message 0044c1a0 f   libcurl:ntlm.obj
 0001:0004b3c0       _Curl_output_aws_sigv4     0044c3c0 f   libcurl:http_aws_sigv4.obj
 0001:0004bdd0       _Curl_fileinfo_alloc       0044cdd0 f   libcurl:fileinfo.obj
 0001:0004bde0       _Curl_fileinfo_cleanup     0044cde0 f   libcurl:fileinfo.obj
 0001:0004be10       _Curl_pp_disconnect        0044ce10 f   libcurl:pingpong.obj
 0001:0004be40       _Curl_pp_flushsend         0044ce40 f   libcurl:pingpong.obj
 0001:0004bec0       _Curl_pp_getsock           0044cec0 f   libcurl:pingpong.obj
 0001:0004bef0       _Curl_pp_init              0044cef0 f   libcurl:pingpong.obj
 0001:0004bf30       _Curl_pp_moredata          0044cf30 f   libcurl:pingpong.obj
 0001:0004bf60       _Curl_pp_readresp          0044cf60 f   libcurl:pingpong.obj
 0001:0004c220       _Curl_pp_sendf             0044d220 f   libcurl:pingpong.obj
 0001:0004c240       _Curl_pp_setup             0044d240 f   libcurl:pingpong.obj
 0001:0004c260       _Curl_pp_state_timeout     0044d260 f   libcurl:pingpong.obj
 0001:0004c330       _Curl_pp_statemach         0044d330 f   libcurl:pingpong.obj
 0001:0004c480       _Curl_pp_vsendf            0044d480 f   libcurl:pingpong.obj
 0001:0004c580       _Curl_sasl_can_authenticate 0044d580 f   libcurl:curl_sasl.obj
 0001:0004c5b0       _Curl_sasl_cleanup         0044d5b0 f   libcurl:curl_sasl.obj
 0001:0004c5d0       _Curl_sasl_continue        0044d5d0 f   libcurl:curl_sasl.obj
 0001:0004ca80       _Curl_sasl_decode_mech     0044da80 f   libcurl:curl_sasl.obj
 0001:0004cb80       _Curl_sasl_init            0044db80 f   libcurl:curl_sasl.obj
 0001:0004cbc0       _Curl_sasl_parse_url_auth_option 0044dbc0 f   libcurl:curl_sasl.obj
 0001:0004cc40       _Curl_sasl_start           0044dc40 f   libcurl:curl_sasl.obj
 0001:0004d0d0       _Curl_MD5_final            0044e0d0 f   libcurl:md5.obj
 0001:0004d100       _Curl_MD5_init             0044e100 f   libcurl:md5.obj
 0001:0004d150       _Curl_HMAC_update          0044e150 f   libcurl:hmac.obj
 0001:0004d150       _Curl_MD5_update           0044e150 f   libcurl:md5.obj
 0001:0004d170       _Curl_md5it                0044e170 f   libcurl:md5.obj
 0001:0004d1b0       _Curl_gethostname          0044e1b0 f   libcurl:curl_gethostname.obj
 0001:0004d1f0       _Curl_ftp_parselist        0044e1f0 f   libcurl:ftplistparser.obj
 0001:0004dd90       _Curl_ftp_parselist_data_alloc 0044ed90 f   libcurl:ftplistparser.obj
 0001:0004dda0       _Curl_ftp_parselist_data_free 0044eda0 f   libcurl:ftplistparser.obj
 0001:0004e020       _Curl_range                0044f020 f   libcurl:curl_range.obj
 0001:0004e180       _Curl_ntlm_core_lm_resp    0044f180 f   libcurl:curl_ntlm_core.obj
 0001:0004e1c0       _Curl_ntlm_core_mk_lm_hash 0044f1c0 f   libcurl:curl_ntlm_core.obj
 0001:0004e270       _Curl_ntlm_core_mk_lmv2_resp 0044f270 f   libcurl:curl_ntlm_core.obj
 0001:0004e2f0       _Curl_ntlm_core_mk_nt_hash 0044f2f0 f   libcurl:curl_ntlm_core.obj
 0001:0004e380       _Curl_ntlm_core_mk_ntlmv2_hash 0044f380 f   libcurl:curl_ntlm_core.obj
 0001:0004e410       _Curl_ntlm_core_mk_ntlmv2_resp 0044f410 f   libcurl:curl_ntlm_core.obj
 0001:0004e770       _Curl_read16_be            0044f770 f   libcurl:curl_endian.obj
 0001:0004e790       _Curl_read16_le            0044f790 f   libcurl:curl_endian.obj
 0001:0004e7b0       _Curl_read32_le            0044f7b0 f   libcurl:curl_endian.obj
 0001:0004e7e0       _Curl_dedotdotify          0044f7e0 f   libcurl:dotdot.obj
 0001:0004ea60       _Curl_auth_build_spn       0044fa60 f   libcurl:vauth.obj
 0001:0004eb60       _Curl_sha256it             0044fb60 f   libcurl:sha256.obj
 0001:0004eba0       _Curl_HMAC_final           0044fba0 f   libcurl:hmac.obj
 0001:0004ebf0       _Curl_HMAC_init            0044fbf0 f   libcurl:hmac.obj
 0001:0004ed00       _Curl_hmacit               0044fd00 f   libcurl:hmac.obj
 0001:0004ed50       _Curl_auth_create_external_message 0044fd50 f   libcurl:cleartext.obj
 0001:0004ed60       _Curl_auth_create_login_message 0044fd60 f   libcurl:cleartext.obj
 0001:0004edd0       _Curl_auth_create_plain_message 0044fdd0 f   libcurl:cleartext.obj
 0001:0004eee0       _Curl_auth_create_cram_md5_message 0044fee0 f   libcurl:cram.obj
 0001:0004f030       _Curl_auth_decode_cram_md5_message 00450030 f   libcurl:cram.obj
 0001:0004f080       _Curl_auth_create_oauth_bearer_message 00450080 f   libcurl:oauth2.obj
 0001:0004f100       _Curl_auth_create_xoauth_bearer_message 00450100 f   libcurl:oauth2.obj
 0001:0004f160       _Curl_fnmatch              00450160 f   libcurl:curl_fnmatch.obj
 0001:0004fa80       _Curl_des_set_odd_parity   00450a80 f   libcurl:curl_des.obj
 0001:0004fad0       _Curl_md4it                00450ad0 f   libcurl:md4.obj
 0001:0004fb53       ___WSAFDIsSet@8            00450b53 f   ws2_32:WS2_32.dll
 0001:0004fb59       ___CxxFrameHandler3        00450b59 f   vcruntime:VCRUNTIME140.dll
 0001:0004fb5f       ___std_terminate           00450b5f f   vcruntime:VCRUNTIME140.dll
 0001:0004fb65       ___current_exception       00450b65 f   vcruntime:VCRUNTIME140.dll
 0001:0004fb6b       ___current_exception_context 00450b6b f   vcruntime:VCRUNTIME140.dll
 0001:0004fb71       __CxxThrowException@8      00450b71 f   vcruntime:VCRUNTIME140.dll
 0001:0004fb77       _memset                    00450b77 f   vcruntime:VCRUNTIME140.dll
 0001:0004fb7d       __except_handler4_common   00450b7d f   vcruntime:VCRUNTIME140.dll
 0001:0004fb83       _memcpy                    00450b83 f   vcruntime:VCRUNTIME140.dll
 0001:0004fb89       _memmove                   00450b89 f   vcruntime:VCRUNTIME140.dll
 0001:0004fb8f       _memchr                    00450b8f f   vcruntime:VCRUNTIME140.dll
 0001:0004fb95       __callnewh                 00450b95 f   ucrt:api-ms-win-crt-heap-l1-1-0.dll
 0001:0004fb9b       _malloc                    00450b9b f   ucrt:api-ms-win-crt-heap-l1-1-0.dll
 0001:0004fba1       __configure_narrow_argv    00450ba1 f   ucrt:api-ms-win-crt-runtime-l1-1-0.dll
 0001:0004fba7       __initialize_narrow_environment 00450ba7 f   ucrt:api-ms-win-crt-runtime-l1-1-0.dll
 0001:0004fbad       __initialize_onexit_table  00450bad f   ucrt:api-ms-win-crt-runtime-l1-1-0.dll
 0001:0004fbb3       __register_onexit_function 00450bb3 f   ucrt:api-ms-win-crt-runtime-l1-1-0.dll
 0001:0004fbb9       __crt_atexit               00450bb9 f   ucrt:api-ms-win-crt-runtime-l1-1-0.dll
 0001:0004fbbf       __cexit                    00450bbf f   ucrt:api-ms-win-crt-runtime-l1-1-0.dll
 0001:0004fbc5       _terminate                 00450bc5 f   ucrt:api-ms-win-crt-runtime-l1-1-0.dll
 0001:0004fbcb       __seh_filter_exe           00450bcb f   ucrt:api-ms-win-crt-runtime-l1-1-0.dll
 0001:0004fbd1       __set_app_type             00450bd1 f   ucrt:api-ms-win-crt-runtime-l1-1-0.dll
 0001:0004fbd7       ___setusermatherr          00450bd7 f   ucrt:api-ms-win-crt-math-l1-1-0.dll
 0001:0004fbdd       __get_narrow_winmain_command_line 00450bdd f   ucrt:api-ms-win-crt-runtime-l1-1-0.dll
 0001:0004fbe3       __initterm                 00450be3 f   ucrt:api-ms-win-crt-runtime-l1-1-0.dll
 0001:0004fbe9       __initterm_e               00450be9 f   ucrt:api-ms-win-crt-runtime-l1-1-0.dll
 0001:0004fbef       _exit                      00450bef f   ucrt:api-ms-win-crt-runtime-l1-1-0.dll
 0001:0004fbf5       __exit                     00450bf5 f   ucrt:api-ms-win-crt-runtime-l1-1-0.dll
 0001:0004fbfb       __set_fmode                00450bfb f   ucrt:api-ms-win-crt-stdio-l1-1-0.dll
 0001:0004fc01       __c_exit                   00450c01 f   ucrt:api-ms-win-crt-runtime-l1-1-0.dll
 0001:0004fc07       __register_thread_local_exe_atexit_callback 00450c07 f   ucrt:api-ms-win-crt-runtime-l1-1-0.dll
 0001:0004fc0d       __configthreadlocale       00450c0d f   ucrt:api-ms-win-crt-locale-l1-1-0.dll
 0001:0004fc13       __set_new_mode             00450c13 f   ucrt:api-ms-win-crt-heap-l1-1-0.dll
 0001:0004fc19       ___p__commode              00450c19 f   ucrt:api-ms-win-crt-stdio-l1-1-0.dll
 0001:0004fc1f       _free                      00450c1f f   ucrt:api-ms-win-crt-heap-l1-1-0.dll
 0001:0004fc25       __controlfp_s              00450c25 f   ucrt:api-ms-win-crt-runtime-l1-1-0.dll
 0001:0004fc2b       _realloc                   00450c2b f   ucrt:api-ms-win-crt-heap-l1-1-0.dll
 0001:0004fc31       _calloc                    00450c31 f   ucrt:api-ms-win-crt-heap-l1-1-0.dll
 0001:0004fc40       __alldiv                   00450c40 f   MSVCRT:lldiv.obj
 0001:0004fcf0       __alloca_probe             00450cf0 f   MSVCRT:chkstk.obj
 0001:0004fcf0       __chkstk                   00450cf0 f   MSVCRT:chkstk.obj
 0001:0004fd20       __dtol3                    00450d20 f   MSVCRT:ftol3.obj
 0001:0004fdd0       __ltod3                    00450dd0 f   MSVCRT:ftol3.obj
 0001:0004fe20       __alldvrm                  00450e20 f   MSVCRT:lldvrm.obj
 0001:0004ff00       __allmul                   00450f00 f   MSVCRT:llmul.obj
 0001:0004ff40       __allrem                   00450f40 f   MSVCRT:llrem.obj
 0001:00050000       __aulldvrm                 00451000 f   MSVCRT:ulldvrm.obj
 0001:00050095       _strdup                    00451095 f   ucrt:api-ms-win-crt-string-l1-1-0.dll
 0001:00050095       __strdup                   00451095 f   ucrt:api-ms-win-crt-string-l1-1-0.dll
 0001:0005009b       __filter_x86_sse2_floating_point_exception_default 0045109b f   MSVCRT:x86_exception_filter.obj
 0001:0005009b       __filter_x86_sse2_floating_point_exception 0045109b f   MSVCRT:x86_exception_filter.obj
 0002:00000000       __imp__AdjustTokenPrivileges@24 00455000     advapi32:ADVAPI32.dll
 0002:00000004       __imp__CryptImportKey@24   00455004     advapi32:ADVAPI32.dll
 0002:00000008       __imp__CryptDestroyKey@4   00455008     advapi32:ADVAPI32.dll
 0002:0000000c       __imp__CryptDestroyHash@4  0045500c     advapi32:ADVAPI32.dll
 0002:00000010       __imp__CryptHashData@16    00455010     advapi32:ADVAPI32.dll
 0002:00000014       __imp__CryptCreateHash@20  00455014     advapi32:ADVAPI32.dll
 0002:00000018       __imp__CryptGetHashParam@20 00455018     advapi32:ADVAPI32.dll
 0002:0000001c       __imp__CryptReleaseContext@8 0045501c     advapi32:ADVAPI32.dll
 0002:00000020       __imp__CryptAcquireContextA@20 00455020     advapi32:ADVAPI32.dll
 0002:00000024       __imp__CryptEncrypt@28     00455024     advapi32:ADVAPI32.dll
 0002:00000028       __imp__LookupPrivilegeValueA@12 00455028     advapi32:ADVAPI32.dll
 0002:0000002c       __imp__OpenProcessToken@12 0045502c     advapi32:ADVAPI32.dll
 0002:00000030       \177ADVAPI32_NULL_THUNK_DATA 00455030     advapi32:ADVAPI32.dll
 0002:00000034       __imp__CreateSolidBrush@4  00455034     gdi32:GDI32.dll
 0002:00000038       \177GDI32_NULL_THUNK_DATA  00455038     gdi32:GDI32.dll
 0002:0000003c       __imp__GetCurrentThreadId@0 0045503c     kernel32:KERNEL32.dll
 0002:00000040       __imp__GetSystemTimeAsFileTime@4 00455040     kernel32:KERNEL32.dll
 0002:00000044       __imp__InitializeSListHead@4 00455044     kernel32:KERNEL32.dll
 0002:00000048       __imp__EnterCriticalSection@4 00455048     kernel32:KERNEL32.dll
 0002:0000004c       __imp__LeaveCriticalSection@4 0045504c     kernel32:KERNEL32.dll
 0002:00000050       __imp__GetCurrentProcessId@0 00455050     kernel32:KERNEL32.dll
 0002:00000054       __imp__DeleteCriticalSection@4 00455054     kernel32:KERNEL32.dll
 0002:00000058       __imp__SleepEx@8           00455058     kernel32:KERNEL32.dll
 0002:0000005c       __imp__QueryPerformanceFrequency@4 0045505c     kernel32:KERNEL32.dll
 0002:00000060       __imp__GetSystemDirectoryA@8 00455060     kernel32:KERNEL32.dll
 0002:00000064       __imp__QueryPerformanceCounter@4 00455064     kernel32:KERNEL32.dll
 0002:00000068       __imp__InitializeCriticalSectionEx@12 00455068     kernel32:KERNEL32.dll
 0002:0000006c       __imp__GetStartupInfoW@4   0045506c     kernel32:KERNEL32.dll
 0002:00000070       __imp__IsDebuggerPresent@0 00455070     kernel32:KERNEL32.dll
 0002:00000074       __imp__IsProcessorFeaturePresent@4 00455074     kernel32:KERNEL32.dll
 0002:00000078       __imp__GetModuleHandleW@4  00455078     kernel32:KERNEL32.dll
 0002:0000007c       __imp__GetModuleHandleA@4  0045507c     kernel32:KERNEL32.dll
 0002:00000080       __imp__GetProcAddress@8    00455080     kernel32:KERNEL32.dll
 0002:00000084       __imp__LoadLibraryA@4      00455084     kernel32:KERNEL32.dll
 0002:00000088       __imp__GetTickCount@0      00455088     kernel32:KERNEL32.dll
 0002:0000008c       __imp__Sleep@4             0045508c     kernel32:KERNEL32.dll
 0002:00000090       __imp__MoveFileExA@12      00455090     kernel32:KERNEL32.dll
 0002:00000094       __imp__WaitForSingleObjectEx@12 00455094     kernel32:KERNEL32.dll
 0002:00000098       __imp__GetStdHandle@4      00455098     kernel32:KERNEL32.dll
 0002:0000009c       __imp__GetFileType@4       0045509c     kernel32:KERNEL32.dll
 0002:000000a0       __imp__ReadFile@20         004550a0     kernel32:KERNEL32.dll
 0002:000000a4       __imp__PeekNamedPipe@24    004550a4     kernel32:KERNEL32.dll
 0002:000000a8       __imp__WaitForMultipleObjects@16 004550a8     kernel32:KERNEL32.dll
 0002:000000ac       __imp__GetEnvironmentVariableA@12 004550ac     kernel32:KERNEL32.dll
 0002:000000b0       __imp__GetLastError@0      004550b0     kernel32:KERNEL32.dll
 0002:000000b4       __imp__SetLastError@4      004550b4     kernel32:KERNEL32.dll
 0002:000000b8       __imp__FormatMessageW@28   004550b8     kernel32:KERNEL32.dll
 0002:000000bc       __imp__VerSetConditionMask@16 004550bc     kernel32:KERNEL32.dll
 0002:000000c0       __imp__VerifyVersionInfoA@16 004550c0     kernel32:KERNEL32.dll
 0002:000000c4       __imp__TerminateProcess@8  004550c4     kernel32:KERNEL32.dll
 0002:000000c8       __imp__SetUnhandledExceptionFilter@4 004550c8     kernel32:KERNEL32.dll
 0002:000000cc       __imp__AllocConsole@0      004550cc     kernel32:KERNEL32.dll
 0002:000000d0       __imp__K32EnumProcessModules@16 004550d0     kernel32:KERNEL32.dll
 0002:000000d4       __imp__ReadProcessMemory@20 004550d4     kernel32:KERNEL32.dll
 0002:000000d8       __imp__CloseHandle@4       004550d8     kernel32:KERNEL32.dll
 0002:000000dc       __imp__K32GetModuleFileNameExA@16 004550dc     kernel32:KERNEL32.dll
 0002:000000e0       __imp__OpenProcess@12      004550e0     kernel32:KERNEL32.dll
 0002:000000e4       __imp__GetCurrentProcess@0 004550e4     kernel32:KERNEL32.dll
 0002:000000e8       __imp__UnhandledExceptionFilter@4 004550e8     kernel32:KERNEL32.dll
 0002:000000ec       \177KERNEL32_NULL_THUNK_DATA 004550ec     kernel32:KERNEL32.dll
 0002:000000f0       __imp_??0?$basic_istream@DU?$char_traits@D@std@@@std@@QAE@PAV?$basic_streambuf@DU?$char_traits@D@std@@@1@_N@Z 004550f0     msvcprt:MSVCP140.dll
 0002:000000f4       __imp_??1?$basic_streambuf@DU?$char_traits@D@std@@@std@@UAE@XZ 004550f4     msvcprt:MSVCP140.dll
 0002:000000f8       __imp_?showmanyc@?$basic_streambuf@DU?$char_traits@D@std@@@std@@MAE_JXZ 004550f8     msvcprt:MSVCP140.dll
 0002:000000fc       __imp_?xsgetn@?$basic_streambuf@DU?$char_traits@D@std@@@std@@MAE_JPAD_J@Z 004550fc     msvcprt:MSVCP140.dll
 0002:00000100       __imp_?xsputn@?$basic_streambuf@DU?$char_traits@D@std@@@std@@MAE_JPBD_J@Z 00455100     msvcprt:MSVCP140.dll
 0002:00000104       __imp_??1?$basic_ios@DU?$char_traits@D@std@@@std@@UAE@XZ 00455104     msvcprt:MSVCP140.dll
 0002:00000108       __imp_??1?$basic_istream@DU?$char_traits@D@std@@@std@@UAE@XZ 00455108     msvcprt:MSVCP140.dll
 0002:0000010c       __imp_?getline@?$basic_istream@DU?$char_traits@D@std@@@std@@QAEAAV12@PAD_J@Z 0045510c     msvcprt:MSVCP140.dll
 0002:00000110       __imp_?always_noconv@codecvt_base@std@@QBE_NXZ 00455110     msvcprt:MSVCP140.dll
 0002:00000114       __imp_??Bid@locale@std@@QAEIXZ 00455114     msvcprt:MSVCP140.dll
 0002:00000118       __imp_?cout@std@@3V?$basic_ostream@DU?$char_traits@D@std@@@1@A 00455118     msvcprt:MSVCP140.dll
 0002:0000011c       __imp_?uncaught_exception@std@@YA_NXZ 0045511c     msvcprt:MSVCP140.dll
 0002:00000120       __imp_?_Xinvalid_argument@std@@YAXPBD@Z 00455120     msvcprt:MSVCP140.dll
 0002:00000124       __imp_?sputn@?$basic_streambuf@DU?$char_traits@D@std@@@std@@QAE_JPBD_J@Z 00455124     msvcprt:MSVCP140.dll
 0002:00000128       __imp_?widen@?$basic_ios@DU?$char_traits@D@std@@@std@@QBEDD@Z 00455128     msvcprt:MSVCP140.dll
 0002:0000012c       __imp_?put@?$basic_ostream@DU?$char_traits@D@std@@@std@@QAEAAV12@D@Z 0045512c     msvcprt:MSVCP140.dll
 0002:00000130       __imp_?sputc@?$basic_streambuf@DU?$char_traits@D@std@@@std@@QAEHD@Z 00455130     msvcprt:MSVCP140.dll
 0002:00000134       __imp_?_Osfx@?$basic_ostream@DU?$char_traits@D@std@@@std@@QAEXXZ 00455134     msvcprt:MSVCP140.dll
 0002:00000138       __imp_?flush@?$basic_ostream@DU?$char_traits@D@std@@@std@@QAEAAV12@XZ 00455138     msvcprt:MSVCP140.dll
 0002:0000013c       __imp_??6?$basic_ostream@DU?$char_traits@D@std@@@std@@QAEAAV01@P6AAAV01@AAV01@@Z@Z 0045513c     msvcprt:MSVCP140.dll
 0002:00000140       __imp_??6?$basic_ostream@DU?$char_traits@D@std@@@std@@QAEAAV01@H@Z 00455140     msvcprt:MSVCP140.dll
 0002:00000144       __imp_?id@?$ctype@D@std@@2V0locale@2@A 00455144     msvcprt:MSVCP140.dll
 0002:00000148       __imp_?_Ipfx@?$basic_istream@DU?$char_traits@D@std@@@std@@QAE_N_N@Z 00455148     msvcprt:MSVCP140.dll
 0002:0000014c       __imp_?snextc@?$basic_streambuf@DU?$char_traits@D@std@@@std@@QAEHXZ 0045514c     msvcprt:MSVCP140.dll
 0002:00000150       __imp_?setstate@?$basic_ios@DU?$char_traits@D@std@@@std@@QAEXH_N@Z 00455150     msvcprt:MSVCP140.dll
 0002:00000154       __imp_??6?$basic_ostream@DU?$char_traits@D@std@@@std@@QAEAAV01@_J@Z 00455154     msvcprt:MSVCP140.dll
 0002:00000158       __imp_?sgetc@?$basic_streambuf@DU?$char_traits@D@std@@@std@@QAEHXZ 00455158     msvcprt:MSVCP140.dll
 0002:0000015c       __imp_?_Lock@?$basic_streambuf@DU?$char_traits@D@std@@@std@@UAEXXZ 0045515c     msvcprt:MSVCP140.dll
 0002:00000160       __imp_?_Unlock@?$basic_streambuf@DU?$char_traits@D@std@@@std@@UAEXXZ 00455160     msvcprt:MSVCP140.dll
 0002:00000164       __imp_?uflow@?$basic_streambuf@DU?$char_traits@D@std@@@std@@MAEHXZ 00455164     msvcprt:MSVCP140.dll
 0002:00000168       __imp_?setbuf@?$basic_streambuf@DU?$char_traits@D@std@@@std@@MAEPAV12@PAD_J@Z 00455168     msvcprt:MSVCP140.dll
 0002:0000016c       __imp_?sync@?$basic_streambuf@DU?$char_traits@D@std@@@std@@MAEHXZ 0045516c     msvcprt:MSVCP140.dll
 0002:00000170       __imp_?imbue@?$basic_streambuf@DU?$char_traits@D@std@@@std@@MAEXABVlocale@2@@Z 00455170     msvcprt:MSVCP140.dll
 0002:00000174       __imp_??1?$basic_iostream@DU?$char_traits@D@std@@@std@@UAE@XZ 00455174     msvcprt:MSVCP140.dll
 0002:00000178       __imp_?getloc@ios_base@std@@QBE?AVlocale@2@XZ 00455178     msvcprt:MSVCP140.dll
 0002:0000017c       __imp_?_Getcat@?$ctype@D@std@@SAIPAPBVfacet@locale@2@PBV42@@Z 0045517c     msvcprt:MSVCP140.dll
 0002:00000180       __imp_??0?$basic_ios@DU?$char_traits@D@std@@@std@@IAE@XZ 00455180     msvcprt:MSVCP140.dll
 0002:00000184       __imp_?_Pninc@?$basic_streambuf@DU?$char_traits@D@std@@@std@@IAEPADXZ 00455184     msvcprt:MSVCP140.dll
 0002:00000188       __imp_?out@?$codecvt@DDU_Mbstatet@@@std@@QBEHAAU_Mbstatet@@PBD1AAPBDPAD3AAPAD@Z 00455188     msvcprt:MSVCP140.dll
 0002:0000018c       __imp_?in@?$codecvt@DDU_Mbstatet@@@std@@QBEHAAU_Mbstatet@@PBD1AAPBDPAD3AAPAD@Z 0045518c     msvcprt:MSVCP140.dll
 0002:00000190       __imp_?_Init@?$basic_streambuf@DU?$char_traits@D@std@@@std@@IAEXXZ 00455190     msvcprt:MSVCP140.dll
 0002:00000194       __imp_?getloc@?$basic_streambuf@DU?$char_traits@D@std@@@std@@QBE?AVlocale@2@XZ 00455194     msvcprt:MSVCP140.dll
 0002:00000198       __imp_??0?$basic_streambuf@DU?$char_traits@D@std@@@std@@IAE@XZ 00455198     msvcprt:MSVCP140.dll
 0002:0000019c       __imp_?unshift@?$codecvt@DDU_Mbstatet@@@std@@QBEHAAU_Mbstatet@@PAD1AAPAD@Z 0045519c     msvcprt:MSVCP140.dll
 0002:000001a0       __imp_?_Getcat@?$codecvt@DDU_Mbstatet@@@std@@SAIPAPBVfacet@locale@2@PBV42@@Z 004551a0     msvcprt:MSVCP140.dll
 0002:000001a4       __imp_?_Xlength_error@std@@YAXPBD@Z 004551a4     msvcprt:MSVCP140.dll
 0002:000001a8       __imp_?_Fiopen@std@@YAPAU_iobuf@@PBDHH@Z 004551a8     msvcprt:MSVCP140.dll
 0002:000001ac       __imp_?id@?$codecvt@DDU_Mbstatet@@@std@@2V0locale@2@A 004551ac     msvcprt:MSVCP140.dll
 0002:000001b0       __imp_?_Xout_of_range@std@@YAXPBD@Z 004551b0     msvcprt:MSVCP140.dll
 0002:000001b4       __imp_?_Getgloballocale@locale@std@@CAPAV_Locimp@12@XZ 004551b4     msvcprt:MSVCP140.dll
 0002:000001b8       __imp_??0_Lockit@std@@QAE@H@Z 004551b8     msvcprt:MSVCP140.dll
 0002:000001bc       __imp_??1_Lockit@std@@QAE@XZ 004551bc     msvcprt:MSVCP140.dll
 0002:000001c0       __imp_??0?$basic_iostream@DU?$char_traits@D@std@@@std@@QAE@PAV?$basic_streambuf@DU?$char_traits@D@std@@@1@@Z 004551c0     msvcprt:MSVCP140.dll
 0002:000001c4       \177MSVCP140_NULL_THUNK_DATA 004551c4     msvcprt:MSVCP140.dll
 0002:000001c8       __imp__GetMessageA@16      004551c8     user32:USER32.dll
 0002:000001cc       __imp__DispatchMessageA@4  004551cc     user32:USER32.dll
 0002:000001d0       __imp__GetWindowRect@8     004551d0     user32:USER32.dll
 0002:000001d4       __imp__DestroyWindow@4     004551d4     user32:USER32.dll
 0002:000001d8       __imp__ShowWindow@8        004551d8     user32:USER32.dll
 0002:000001dc       __imp__GetForegroundWindow@0 004551dc     user32:USER32.dll
 0002:000001e0       __imp__MoveWindow@24       004551e0     user32:USER32.dll
 0002:000001e4       __imp__GetWindowThreadProcessId@8 004551e4     user32:USER32.dll
 0002:000001e8       __imp__UpdateWindow@4      004551e8     user32:USER32.dll
 0002:000001ec       __imp__RegisterClassExA@4  004551ec     user32:USER32.dll
 0002:000001f0       __imp__FindWindowA@8       004551f0     user32:USER32.dll
 0002:000001f4       __imp__PostQuitMessage@4   004551f4     user32:USER32.dll
 0002:000001f8       __imp__UnregisterClassA@8  004551f8     user32:USER32.dll
 0002:000001fc       __imp__TranslateMessage@4  004551fc     user32:USER32.dll
 0002:00000200       __imp__SetLayeredWindowAttributes@16 00455200     user32:USER32.dll
 0002:00000204       __imp__CreateWindowExA@48  00455204     user32:USER32.dll
 0002:00000208       __imp__DefWindowProcA@16   00455208     user32:USER32.dll
 0002:0000020c       \177USER32_NULL_THUNK_DATA 0045520c     user32:USER32.dll
 0002:00000210       __imp__memchr              00455210     vcruntime:VCRUNTIME140.dll
 0002:00000214       __imp__strrchr             00455214     vcruntime:VCRUNTIME140.dll
 0002:00000218       __imp__strchr              00455218     vcruntime:VCRUNTIME140.dll
 0002:0000021c       __imp__memmove             0045521c     vcruntime:VCRUNTIME140.dll
 0002:00000220       __imp__memcpy              00455220     vcruntime:VCRUNTIME140.dll
 0002:00000224       __imp____CxxFrameHandler3  00455224     vcruntime:VCRUNTIME140.dll
 0002:00000228       __imp___except_handler4_common 00455228     vcruntime:VCRUNTIME140.dll
 0002:0000022c       __imp____std_exception_destroy 0045522c     vcruntime:VCRUNTIME140.dll
 0002:00000230       __imp____std_exception_copy 00455230     vcruntime:VCRUNTIME140.dll
 0002:00000234       __imp____std_terminate     00455234     vcruntime:VCRUNTIME140.dll
 0002:00000238       __imp__strstr              00455238     vcruntime:VCRUNTIME140.dll
 0002:0000023c       __imp____current_exception 0045523c     vcruntime:VCRUNTIME140.dll
 0002:00000240       __imp____current_exception_context 00455240     vcruntime:VCRUNTIME140.dll
 0002:00000244       __imp___CxxThrowException@8 00455244     vcruntime:VCRUNTIME140.dll
 0002:00000248       __imp__memset              00455248     vcruntime:VCRUNTIME140.dll
 0002:0000024c       \177VCRUNTIME140_NULL_THUNK_DATA 0045524c     vcruntime:VCRUNTIME140.dll
 0002:00000250       __imp__ber_free            00455250     wldap32:WLDAP32.dll
 0002:00000254       __imp__ldap_memfree        00455254     wldap32:WLDAP32.dll
 0002:00000258       __imp__ldap_get_dn         00455258     wldap32:WLDAP32.dll
 0002:0000025c       __imp__ldap_value_free_len 0045525c     wldap32:WLDAP32.dll
 0002:00000260       __imp__ldap_get_values_len 00455260     wldap32:WLDAP32.dll
 0002:00000264       __imp__ldap_init           00455264     wldap32:WLDAP32.dll
 0002:00000268       __imp__ldap_first_attribute 00455268     wldap32:WLDAP32.dll
 0002:0000026c       __imp__ldap_next_entry     0045526c     wldap32:WLDAP32.dll
 0002:00000270       __imp__ldap_first_entry    00455270     wldap32:WLDAP32.dll
 0002:00000274       __imp__ldap_err2string     00455274     wldap32:WLDAP32.dll
 0002:00000278       __imp__ldap_msgfree        00455278     wldap32:WLDAP32.dll
 0002:0000027c       __imp__ldap_search_s       0045527c     wldap32:WLDAP32.dll
 0002:00000280       __imp__ldap_simple_bind_s  00455280     wldap32:WLDAP32.dll
 0002:00000284       __imp__ldap_set_option     00455284     wldap32:WLDAP32.dll
 0002:00000288       __imp__ldap_unbind_s       00455288     wldap32:WLDAP32.dll
 0002:0000028c       __imp__ldap_sslinit        0045528c     wldap32:WLDAP32.dll
 0002:00000290       __imp__ldap_next_attribute 00455290     wldap32:WLDAP32.dll
 0002:00000294       \177WLDAP32_NULL_THUNK_DATA 00455294     wldap32:WLDAP32.dll
 0002:00000298       __imp__setsockopt@20       00455298     ws2_32:WS2_32.dll
 0002:0000029c       __imp__WSASetLastError@4   0045529c     ws2_32:WS2_32.dll
 0002:000002a0       __imp__WSAIoctl@36         004552a0     ws2_32:WS2_32.dll
 0002:000002a4       __imp__WSAStartup@8        004552a4     ws2_32:WS2_32.dll
 0002:000002a8       __imp__WSACleanup@0        004552a8     ws2_32:WS2_32.dll
 0002:000002ac       __imp__accept@12           004552ac     ws2_32:WS2_32.dll
 0002:000002b0       __imp__htonl@4             004552b0     ws2_32:WS2_32.dll
 0002:000002b4       __imp__listen@8            004552b4     ws2_32:WS2_32.dll
 0002:000002b8       __imp__ioctlsocket@12      004552b8     ws2_32:WS2_32.dll
 0002:000002bc       __imp____WSAFDIsSet@8      004552bc     ws2_32:WS2_32.dll
 0002:000002c0       __imp__select@20           004552c0     ws2_32:WS2_32.dll
 0002:000002c4       __imp__getaddrinfo@16      004552c4     ws2_32:WS2_32.dll
 0002:000002c8       __imp__freeaddrinfo@4      004552c8     ws2_32:WS2_32.dll
 0002:000002cc       __imp__WSACloseEvent@4     004552cc     ws2_32:WS2_32.dll
 0002:000002d0       __imp__WSACreateEvent@0    004552d0     ws2_32:WS2_32.dll
 0002:000002d4       __imp__WSAEnumNetworkEvents@12 004552d4     ws2_32:WS2_32.dll
 0002:000002d8       __imp__WSAEventSelect@12   004552d8     ws2_32:WS2_32.dll
 0002:000002dc       __imp__recvfrom@24         004552dc     ws2_32:WS2_32.dll
 0002:000002e0       __imp__sendto@24           004552e0     ws2_32:WS2_32.dll
 0002:000002e4       __imp__gethostname@8       004552e4     ws2_32:WS2_32.dll
 0002:000002e8       __imp__ntohs@4             004552e8     ws2_32:WS2_32.dll
 0002:000002ec       __imp__htons@4             004552ec     ws2_32:WS2_32.dll
 0002:000002f0       __imp__getsockopt@20       004552f0     ws2_32:WS2_32.dll
 0002:000002f4       __imp__getsockname@12      004552f4     ws2_32:WS2_32.dll
 0002:000002f8       __imp__getpeername@12      004552f8     ws2_32:WS2_32.dll
 0002:000002fc       __imp__connect@12          004552fc     ws2_32:WS2_32.dll
 0002:00000300       __imp__bind@12             00455300     ws2_32:WS2_32.dll
 0002:00000304       __imp__WSAGetLastError@0   00455304     ws2_32:WS2_32.dll
 0002:00000308       __imp__send@16             00455308     ws2_32:WS2_32.dll
 0002:0000030c       __imp__socket@12           0045530c     ws2_32:WS2_32.dll
 0002:00000310       __imp__recv@16             00455310     ws2_32:WS2_32.dll
 0002:00000314       __imp__closesocket@4       00455314     ws2_32:WS2_32.dll
 0002:00000318       \177WS2_32_NULL_THUNK_DATA 00455318     ws2_32:WS2_32.dll
 0002:0000031c       __imp__strtol              0045531c     ucrt:api-ms-win-crt-convert-l1-1-0.dll
 0002:00000320       __imp__strtoul             00455320     ucrt:api-ms-win-crt-convert-l1-1-0.dll
 0002:00000324       __imp__strtoll             00455324     ucrt:api-ms-win-crt-convert-l1-1-0.dll
 0002:00000328       __imp__wcstombs            00455328     ucrt:api-ms-win-crt-convert-l1-1-0.dll
 0002:0000032c       __imp__atoi                0045532c     ucrt:api-ms-win-crt-convert-l1-1-0.dll
 0002:00000330       \177api-ms-win-crt-convert-l1-1-0_NULL_THUNK_DATA 00455330     ucrt:api-ms-win-crt-convert-l1-1-0.dll
 0002:00000334       __imp___access             00455334     ucrt:api-ms-win-crt-filesystem-l1-1-0.dll
 0002:00000338       __imp___lock_file          00455338     ucrt:api-ms-win-crt-filesystem-l1-1-0.dll
 0002:0000033c       __imp___stat64             0045533c     ucrt:api-ms-win-crt-filesystem-l1-1-0.dll
 0002:00000340       __imp___unlink             00455340     ucrt:api-ms-win-crt-filesystem-l1-1-0.dll
 0002:00000340       __imp__unlink              00455340     ucrt:api-ms-win-crt-filesystem-l1-1-0.dll
 0002:00000344       __imp___unlock_file        00455344     ucrt:api-ms-win-crt-filesystem-l1-1-0.dll
 0002:00000348       __imp___fstat64            00455348     ucrt:api-ms-win-crt-filesystem-l1-1-0.dll
 0002:0000034c       \177api-ms-win-crt-filesystem-l1-1-0_NULL_THUNK_DATA 0045534c     ucrt:api-ms-win-crt-filesystem-l1-1-0.dll
 0002:00000350       __imp__free                00455350     ucrt:api-ms-win-crt-heap-l1-1-0.dll
 0002:00000354       __imp__malloc              00455354     ucrt:api-ms-win-crt-heap-l1-1-0.dll
 0002:00000358       __imp__calloc              00455358     ucrt:api-ms-win-crt-heap-l1-1-0.dll
 0002:0000035c       __imp___set_new_mode       0045535c     ucrt:api-ms-win-crt-heap-l1-1-0.dll
 0002:00000360       __imp__realloc             00455360     ucrt:api-ms-win-crt-heap-l1-1-0.dll
 0002:00000364       __imp___callnewh           00455364     ucrt:api-ms-win-crt-heap-l1-1-0.dll
 0002:00000368       \177api-ms-win-crt-heap-l1-1-0_NULL_THUNK_DATA 00455368     ucrt:api-ms-win-crt-heap-l1-1-0.dll
 0002:0000036c       __imp___configthreadlocale 0045536c     ucrt:api-ms-win-crt-locale-l1-1-0.dll
 0002:00000370       \177api-ms-win-crt-locale-l1-1-0_NULL_THUNK_DATA 00455370     ucrt:api-ms-win-crt-locale-l1-1-0.dll
 0002:00000374       __imp____setusermatherr    00455374     ucrt:api-ms-win-crt-math-l1-1-0.dll
 0002:00000378       \177api-ms-win-crt-math-l1-1-0_NULL_THUNK_DATA 00455378     ucrt:api-ms-win-crt-math-l1-1-0.dll
 0002:0000037c       __imp___mbspbrk            0045537c     ucrt:api-ms-win-crt-multibyte-l1-1-0.dll
 0002:00000380       \177api-ms-win-crt-multibyte-l1-1-0_NULL_THUNK_DATA 00455380     ucrt:api-ms-win-crt-multibyte-l1-1-0.dll
 0002:00000384       __imp___errno              00455384     ucrt:api-ms-win-crt-runtime-l1-1-0.dll
 0002:00000388       __imp___register_thread_local_exe_atexit_callback 00455388     ucrt:api-ms-win-crt-runtime-l1-1-0.dll
 0002:0000038c       __imp__terminate           0045538c     ucrt:api-ms-win-crt-runtime-l1-1-0.dll
 0002:00000390       __imp___beginthreadex      00455390     ucrt:api-ms-win-crt-runtime-l1-1-0.dll
 0002:00000394       __imp___cexit              00455394     ucrt:api-ms-win-crt-runtime-l1-1-0.dll
 0002:00000398       __imp___c_exit             00455398     ucrt:api-ms-win-crt-runtime-l1-1-0.dll
 0002:0000039c       __imp___invalid_parameter_noinfo_noreturn 0045539c     ucrt:api-ms-win-crt-runtime-l1-1-0.dll
 0002:000003a0       __imp___seh_filter_exe     004553a0     ucrt:api-ms-win-crt-runtime-l1-1-0.dll
 0002:000003a4       __imp___configure_narrow_argv 004553a4     ucrt:api-ms-win-crt-runtime-l1-1-0.dll
 0002:000003a8       __imp____sys_nerr          004553a8     ucrt:api-ms-win-crt-runtime-l1-1-0.dll
 0002:000003ac       __imp___exit               004553ac     ucrt:api-ms-win-crt-runtime-l1-1-0.dll
 0002:000003b0       __imp___crt_atexit         004553b0     ucrt:api-ms-win-crt-runtime-l1-1-0.dll
 0002:000003b4       __imp___register_onexit_function 004553b4     ucrt:api-ms-win-crt-runtime-l1-1-0.dll
 0002:000003b8       __imp__exit                004553b8     ucrt:api-ms-win-crt-runtime-l1-1-0.dll
 0002:000003bc       __imp___initterm_e         004553bc     ucrt:api-ms-win-crt-runtime-l1-1-0.dll
 0002:000003c0       __imp___initterm           004553c0     ucrt:api-ms-win-crt-runtime-l1-1-0.dll
 0002:000003c4       __imp___initialize_onexit_table 004553c4     ucrt:api-ms-win-crt-runtime-l1-1-0.dll
 0002:000003c8       __imp___controlfp_s        004553c8     ucrt:api-ms-win-crt-runtime-l1-1-0.dll
 0002:000003cc       __imp__strerror            004553cc     ucrt:api-ms-win-crt-runtime-l1-1-0.dll
 0002:000003d0       __imp___set_app_type       004553d0     ucrt:api-ms-win-crt-runtime-l1-1-0.dll
 0002:000003d4       __imp___initialize_narrow_environment 004553d4     ucrt:api-ms-win-crt-runtime-l1-1-0.dll
 0002:000003d8       __imp___getpid             004553d8     ucrt:api-ms-win-crt-runtime-l1-1-0.dll
 0002:000003dc       __imp__system              004553dc     ucrt:api-ms-win-crt-runtime-l1-1-0.dll
 0002:000003e0       __imp___get_narrow_winmain_command_line 004553e0     ucrt:api-ms-win-crt-runtime-l1-1-0.dll
 0002:000003e4       \177api-ms-win-crt-runtime-l1-1-0_NULL_THUNK_DATA 004553e4     ucrt:api-ms-win-crt-runtime-l1-1-0.dll
 0002:000003e8       __imp__setvbuf             004553e8     ucrt:api-ms-win-crt-stdio-l1-1-0.dll
 0002:000003ec       __imp__fwrite              004553ec     ucrt:api-ms-win-crt-stdio-l1-1-0.dll
 0002:000003f0       __imp__close               004553f0     ucrt:api-ms-win-crt-stdio-l1-1-0.dll
 0002:000003f0       __imp___close              004553f0     ucrt:api-ms-win-crt-stdio-l1-1-0.dll
 0002:000003f4       __imp__fgetc               004553f4     ucrt:api-ms-win-crt-stdio-l1-1-0.dll
 0002:000003f8       __imp__fclose              004553f8     ucrt:api-ms-win-crt-stdio-l1-1-0.dll
 0002:000003fc       __imp__fflush              004553fc     ucrt:api-ms-win-crt-stdio-l1-1-0.dll
 0002:00000400       __imp____acrt_iob_func     00455400     ucrt:api-ms-win-crt-stdio-l1-1-0.dll
 0002:00000404       __imp__fputc               00455404     ucrt:api-ms-win-crt-stdio-l1-1-0.dll
 0002:00000408       __imp___lseeki64           00455408     ucrt:api-ms-win-crt-stdio-l1-1-0.dll
 0002:0000040c       __imp___open               0045540c     ucrt:api-ms-win-crt-stdio-l1-1-0.dll
 0002:00000410       __imp__fopen               00455410     ucrt:api-ms-win-crt-stdio-l1-1-0.dll
 0002:00000414       __imp__fseek               00455414     ucrt:api-ms-win-crt-stdio-l1-1-0.dll
 0002:00000418       __imp___popen              00455418     ucrt:api-ms-win-crt-stdio-l1-1-0.dll
 0002:0000041c       __imp__fgets               0045541c     ucrt:api-ms-win-crt-stdio-l1-1-0.dll
 0002:00000420       __imp__feof                00455420     ucrt:api-ms-win-crt-stdio-l1-1-0.dll
 0002:00000424       __imp___pclose             00455424     ucrt:api-ms-win-crt-stdio-l1-1-0.dll
 0002:00000428       __imp____stdio_common_vsscanf 00455428     ucrt:api-ms-win-crt-stdio-l1-1-0.dll
 0002:0000042c       __imp__read                0045542c     ucrt:api-ms-win-crt-stdio-l1-1-0.dll
 0002:0000042c       __imp___read               0045542c     ucrt:api-ms-win-crt-stdio-l1-1-0.dll
 0002:00000430       __imp__fputs               00455430     ucrt:api-ms-win-crt-stdio-l1-1-0.dll
 0002:00000434       __imp____stdio_common_vsprintf 00455434     ucrt:api-ms-win-crt-stdio-l1-1-0.dll
 0002:00000438       __imp____p__commode        00455438     ucrt:api-ms-win-crt-stdio-l1-1-0.dll
 0002:0000043c       __imp___get_stream_buffer_pointers 0045543c     ucrt:api-ms-win-crt-stdio-l1-1-0.dll
 0002:00000440       __imp__freopen_s           00455440     ucrt:api-ms-win-crt-stdio-l1-1-0.dll
 0002:00000444       __imp___set_fmode          00455444     ucrt:api-ms-win-crt-stdio-l1-1-0.dll
 0002:00000448       __imp___fseeki64           00455448     ucrt:api-ms-win-crt-stdio-l1-1-0.dll
 0002:0000044c       __imp__fread               0045544c     ucrt:api-ms-win-crt-stdio-l1-1-0.dll
 0002:00000450       __imp__fsetpos             00455450     ucrt:api-ms-win-crt-stdio-l1-1-0.dll
 0002:00000454       __imp___write              00455454     ucrt:api-ms-win-crt-stdio-l1-1-0.dll
 0002:00000454       __imp__write               00455454     ucrt:api-ms-win-crt-stdio-l1-1-0.dll
 0002:00000458       __imp__fgetpos             00455458     ucrt:api-ms-win-crt-stdio-l1-1-0.dll
 0002:0000045c       __imp__ungetc              0045545c     ucrt:api-ms-win-crt-stdio-l1-1-0.dll
 0002:00000460       \177api-ms-win-crt-stdio-l1-1-0_NULL_THUNK_DATA 00455460     ucrt:api-ms-win-crt-stdio-l1-1-0.dll
 0002:00000464       __imp__strncmp             00455464     ucrt:api-ms-win-crt-string-l1-1-0.dll
 0002:00000468       __imp__strdup              00455468     ucrt:api-ms-win-crt-string-l1-1-0.dll
 0002:00000468       __imp___strdup             00455468     ucrt:api-ms-win-crt-string-l1-1-0.dll
 0002:0000046c       __imp__isspace             0045546c     ucrt:api-ms-win-crt-string-l1-1-0.dll
 0002:00000470       __imp__strncpy             00455470     ucrt:api-ms-win-crt-string-l1-1-0.dll
 0002:00000474       __imp__strspn              00455474     ucrt:api-ms-win-crt-string-l1-1-0.dll
 0002:00000478       __imp__strcspn             00455478     ucrt:api-ms-win-crt-string-l1-1-0.dll
 0002:0000047c       __imp__strpbrk             0045547c     ucrt:api-ms-win-crt-string-l1-1-0.dll
 0002:00000480       __imp__tolower             00455480     ucrt:api-ms-win-crt-string-l1-1-0.dll
 0002:00000484       \177api-ms-win-crt-string-l1-1-0_NULL_THUNK_DATA 00455484     ucrt:api-ms-win-crt-string-l1-1-0.dll
 0002:00000488       __imp___time64             00455488     ucrt:api-ms-win-crt-time-l1-1-0.dll
 0002:0000048c       __imp__strftime            0045548c     ucrt:api-ms-win-crt-time-l1-1-0.dll
 0002:00000490       __imp___localtime64        00455490     ucrt:api-ms-win-crt-time-l1-1-0.dll
 0002:00000494       __imp___gmtime64           00455494     ucrt:api-ms-win-crt-time-l1-1-0.dll
 0002:00000498       \177api-ms-win-crt-time-l1-1-0_NULL_THUNK_DATA 00455498     ucrt:api-ms-win-crt-time-l1-1-0.dll
 0002:0000049c       __imp__qsort               0045549c     ucrt:api-ms-win-crt-utility-l1-1-0.dll
 0002:000004a0       \177api-ms-win-crt-utility-l1-1-0_NULL_THUNK_DATA 004554a0     ucrt:api-ms-win-crt-utility-l1-1-0.dll
 0002:000004a4       __imp__Direct3DCreate9@4   004554a4     d3d9:d3d9.dll
 0002:000004a8       \177d3d9_NULL_THUNK_DATA   004554a8     d3d9:d3d9.dll
 0002:000004ac       __imp__D3DXCreateLine@8    004554ac     d3dx9:d3dx9_43.dll
 0002:000004b0       __imp__D3DXCreateFontA@48  004554b0     d3dx9:d3dx9_43.dll
 0002:000004b4       \177d3dx9_43_NULL_THUNK_DATA 004554b4     d3dx9:d3dx9_43.dll
 0002:000004b8       ___guard_check_icall_fptr  004554b8     MSVCRT:guard_support.obj
 0002:000004bc       ___xc_a                    004554bc     MSVCRT:initializers.obj
 0002:00000608       ___xc_z                    00455608     MSVCRT:initializers.obj
 0002:0000060c       ___xi_a                    0045560c     MSVCRT:initializers.obj
 0002:00000618       ___xi_z                    00455618     MSVCRT:initializers.obj
 0002:0000061c       ___xp_a                    0045561c     MSVCRT:initializers.obj
 0002:00000620       ___xp_z                    00455620     MSVCRT:initializers.obj
 0002:00000624       ___xt_a                    00455624     MSVCRT:initializers.obj
 0002:00000628       ___xt_z                    00455628     MSVCRT:initializers.obj
 0002:00000634       ??_7type_info@@6B@         00455634     MSVCRT:std_type_info_static.obj
 0002:00000644       ??_7exception@std@@6B@     00455644     MSVCRT:throw_bad_alloc.obj
 0002:00000650       ??_7bad_alloc@std@@6B@     00455650     MSVCRT:throw_bad_alloc.obj
 0002:00000658       ??_C@_0P@GHFPNOJB@bad?5allocation@ 00455658     MSVCRT:throw_bad_alloc.obj
 0002:0000066c       ??_7bad_array_new_length@std@@6B@ 0045566c     MSVCRT:throw_bad_alloc.obj
 0002:00000674       ??_C@_0CJ@FAHCKHJA@easy?5handle?5already?5used?5in?5mult@ 00455674     libcurl:easy.obj
 0002:0000069d       ??_C@_00CNPNBAHC@?$AA@     0045569d     libcurl:setopt.obj
 0002:000006a0       ??_C@_03NIFPGLBG@ALL?$AA@  004556a0     libcurl:setopt.obj
 0002:000006a4       ??_C@_04BFMIILII@SESS?$AA@ 004556a4     libcurl:setopt.obj
 0002:000006ac       ??_C@_05KALGKIBB@FLUSH?$AA@ 004556ac     libcurl:setopt.obj
 0002:000006b4       ??_C@_06DCHFNDBF@RELOAD?$AA@ 004556b4     libcurl:setopt.obj
 0002:000006bc       ??_C@_0M@ICGHKGOK@Set?9Cookie?3?$AA@ 004556bc     libcurl:setopt.obj
 0002:00000720       ??_C@_0CH@LECELJNK@Connection?5?$CD?$CFld?5to?5host?5?$CFs?5left?5@ 00455720     libcurl:multi.obj
 0002:00000748       ??_C@_03OFAPEBGM@?$CFs?6?$AA@ 00455748     libcurl:multi.obj
 0002:0000074c       ??_C@_0CN@BEDJOLPM@Resolving?5timed?5out?5after?5?$CFI64d?5@ 0045574c     libcurl:multi.obj
 0002:0000077c       ??_C@_0CO@PINFDPJN@Connection?5timed?5out?5after?5?$CFI64d@ 0045577c     libcurl:multi.obj
 0002:000007b0       ??_C@_0FE@NBLGEINA@Operation?5timed?5out?5after?5?$CFI64d?5@ 004557b0     libcurl:multi.obj
 0002:00000808       ??_C@_0EH@GJEAMCHA@Operation?5timed?5out?5after?5?$CFI64d?5@ 00455808     libcurl:multi.obj
 0002:00000850       ??_C@_0CH@NOKKCOPP@Transfer?5was?5pending?0?5now?5try?5an@ 00455850     libcurl:multi.obj
 0002:00000878       ??_C@_0CG@EBAFLAEC@Hostname?5?8?$CFs?8?5was?5found?5in?5DNS?5c@ 00455878     libcurl:multi.obj
 0002:000008a0       ??_C@_0CJ@OALAEPML@Internal?5error?5removing?5splay?5no@ 004558a0     libcurl:multi.obj
 0002:000008cc       ??_C@_0CJ@EHKACPHP@Internal?5error?5clearing?5splay?5no@ 004558cc     libcurl:multi.obj
 0002:000008f8       ??_C@_01KMDKNFGN@?1?$AA@   004558f8     libcurl:cookie.obj
 0002:000008fc       ??_C@_0CE@BBKJHKDF@ignoring?5failed?5cookie_init?5for?5@ 004558fc     libcurl:cookie.obj
 0002:00000920       ??_C@_09IPAEKDAI@localhost?$AA@ 00455920     libcurl:cookie.obj
 0002:0000092c       ??_C@_0BK@IIFEHJP@?$CF4095?$FL?$FO?$DL?$AN?6?$DN?$FN?5?$DN?$CF4095?$FL?$FO?$DL?$AN?6?$FN?$AA@ 0045592c     libcurl:cookie.obj
 0002:00000948       ??_C@_0DE@IBKAGOK@oversized?5cookie?5dropped?0?5name?1v@ 00455948     libcurl:cookie.obj
 0002:0000097c       ??_C@_09OLPEHKPE@__Secure?9?$AA@ 0045597c     libcurl:cookie.obj
 0002:00000988       ??_C@_07DBHHKFCO@__Host?9?$AA@ 00455988     libcurl:cookie.obj
 0002:00000990       ??_C@_06CKKGAKDB@secure?$AA@ 00455990     libcurl:cookie.obj
 0002:00000998       ??_C@_08LKPJDOCJ@httponly?$AA@ 00455998     libcurl:cookie.obj
 0002:000009a4       ??_C@_04LNEJFJGI@path?$AA@ 004559a4     libcurl:cookie.obj
 0002:000009ac       ??_C@_06LKIIGAOE@domain?$AA@ 004559ac     libcurl:cookie.obj
 0002:000009b4       ??_C@_01JLIPDDHJ@?3?$AA@   004559b4     libcurl:cookie.obj
 0002:000009b8       ??_C@_0CO@IPHLIEKA@skipped?5cookie?5with?5bad?5tailmatc@ 004559b8     libcurl:cookie.obj
 0002:000009e8       ??_C@_07CPCPJPKL@version?$AA@ 004559e8     libcurl:cookie.obj
 0002:000009f0       ??_C@_07PEFKGEJF@max?9age?$AA@ 004559f0     libcurl:cookie.obj
 0002:000009f8       ??_C@_07MJGJEDBB@expires?$AA@ 004559f8     libcurl:cookie.obj
 0002:00000a00       ??_C@_0L@KAKJBGGD@?$CDHttpOnly_?$AA@ 00455a00     libcurl:cookie.obj
 0002:00000a0c       ??_C@_01GPOEFGEJ@?7?$AA@   00455a0c     libcurl:cookie.obj
 0002:00000a10       ??_C@_04HCDDPBNL@TRUE?$AA@ 00455a10     libcurl:cookie.obj
 0002:00000a18       ??_C@_05MAJJAKPI@FALSE?$AA@ 00455a18     libcurl:cookie.obj
 0002:00000a20       ??_C@_08IMELJCAM@Replaced?$AA@ 00455a20     libcurl:cookie.obj
 0002:00000a2c       ??_C@_05BNECJBCE@Added?$AA@ 00455a2c     libcurl:cookie.obj
 0002:00000a34       ??_C@_0DI@KHDIKDMI@?$CFs?5cookie?5?$CFs?$DN?$CC?$CFs?$CC?5for?5domain?5?$CFs?0@ 00455a34     libcurl:cookie.obj
 0002:00000a6c       ??_C@_04CGFJFPFD@none?$AA@ 00455a6c     libcurl:cookie.obj
 0002:00000a74       ??_C@_01JOAMLHOP@?9?$AA@   00455a74     libcurl:cookie.obj
 0002:00000a78       ??_C@_02BMJICGCB@rt?$AA@   00455a78     libcurl:cookie.obj
 0002:00000a7c       ??_C@_07CIFAGBMG@unknown?$AA@ 00455a7c     libcurl:cookie.obj
 0002:00000a84       ??_C@_01LFCBOECM@?4?$AA@   00455a84     libcurl:cookie.obj
 0002:00000a88       ??_C@_0BM@FIJJOLNN@?$CFs?$CFs?$CFs?7?$CFs?7?$CFs?7?$CFs?7?$CFI64d?7?$CFs?7?$CFs?$AA@ 00455a88     libcurl:cookie.obj
 0002:00000aa4       ??_C@_09HFHMDOBG@?$CFs?4?$CFs?4tmp?$AA@ 00455aa4     libcurl:cookie.obj
 0002:00000ab0       ??_C@_02BKFDOEMK@wt?$AA@   00455ab0     libcurl:cookie.obj
 0002:00000ab8       ??_C@_0IE@HIOMJDLH@?$CD?5Netscape?5HTTP?5Cookie?5File?6?$CD?5ht@ 00455ab8     libcurl:cookie.obj
 0002:00000b3c       ??_C@_0BJ@LMHKHCLE@?$CD?6?$CD?5Fatal?5libcurl?5error?6?$AA@ 00455b3c     libcurl:cookie.obj
 0002:00000b58       ??_C@_0CH@EIDBEPEM@WARNING?3?5failed?5to?5save?5cookies?5@ 00455b58     libcurl:cookie.obj
 0002:00000b80       ??_C@_02DPKJAMEF@?$CFd?$AA@ 00455b80     libcurl:asyn-thread.obj
 0002:00000b84       ??_C@_0CF@DENKCHCB@getaddrinfo?$CI?$CJ?5thread?5failed?5to?5s@ 00455b84     libcurl:asyn-thread.obj
 0002:00000da4       ??_C@_04JFHMGKLD@?4gif?$AA@ 00455da4     libcurl:mime.obj
 0002:00000dac       ??_C@_09HADNJIG@image?1gif?$AA@ 00455dac     libcurl:mime.obj
 0002:00000db8       ??_C@_04GNPKBLNA@?4jpg?$AA@ 00455db8     libcurl:mime.obj
 0002:00000dc0       ??_C@_0L@PJKHLKFB@image?1jpeg?$AA@ 00455dc0     libcurl:mime.obj
 0002:00000dcc       ??_C@_05KPIGABMB@?4jpeg?$AA@ 00455dcc     libcurl:mime.obj
 0002:00000dd4       ??_C@_04EEOGCCFB@?4png?$AA@ 00455dd4     libcurl:mime.obj
 0002:00000ddc       ??_C@_09NGJJJBGE@image?1png?$AA@ 00455ddc     libcurl:mime.obj
 0002:00000de8       ??_C@_04EEGGHPHH@?4svg?$AA@ 00455de8     libcurl:mime.obj
 0002:00000df0       ??_C@_0O@MMMFMLNF@image?1svg?$CLxml?$AA@ 00455df0     libcurl:mime.obj
 0002:00000e00       ??_C@_04LCMACLFG@?4txt?$AA@ 00455e00     libcurl:mime.obj
 0002:00000e08       ??_C@_0L@NPNLKGOJ@text?1plain?$AA@ 00455e08     libcurl:mime.obj
 0002:00000e14       ??_C@_04DKBFJDAN@?4htm?$AA@ 00455e14     libcurl:mime.obj
 0002:00000e1c       ??_C@_09KABDMIOB@text?1html?$AA@ 00455e1c     libcurl:mime.obj
 0002:00000e28       ??_C@_05LHMDENIF@?4html?$AA@ 00455e28     libcurl:mime.obj
 0002:00000e30       ??_C@_04FAGKJGMG@?4pdf?$AA@ 00455e30     libcurl:mime.obj
 0002:00000e38       ??_C@_0BA@MHMDKHOF@application?1pdf?$AA@ 00455e38     libcurl:mime.obj
 0002:00000e48       ??_C@_04GAOAGNCM@?4xml?$AA@ 00455e48     libcurl:mime.obj
 0002:00000e50       ??_C@_0BA@PHEJFMAP@application?1xml?$AA@ 00455e50     libcurl:mime.obj
 0002:00000e60       ??_C@_06FNFBAEBE@binary?$AA@ 00455e60     libcurl:mime.obj
 0002:00000e68       ??_C@_04DFPGIIHA@8bit?$AA@ 00455e68     libcurl:mime.obj
 0002:00000e70       ??_C@_04LHKGBPKB@7bit?$AA@ 00455e70     libcurl:mime.obj
 0002:00000e78       ??_C@_06JEFEFGEJ@base64?$AA@ 00455e78     libcurl:mime.obj
 0002:00000e80       ??_C@_0BB@CAHAECFA@quoted?9printable?$AA@ 00455e80     libcurl:mime.obj
 0002:00000e94       ??_C@_02JDPG@rb?$AA@       00455e94     libcurl:mime.obj
 0002:00000e98       ??_C@_0N@LAFFMKKA@Content?9Type?$AA@ 00455e98     libcurl:mime.obj
 0002:00000ea8       ??_C@_02PCIJFNDE@?$AN?6?$AA@ 00455ea8     libcurl:mime.obj
 0002:00000eac       ??_C@_04LOEPKDGL@?$AN?6?9?9?$AA@ 00455eac     libcurl:mime.obj
 0002:00000eb4       ??_C@_04KAODOPGN@?9?9?$AN?6?$AA@ 00455eb4     libcurl:mime.obj
 0002:00000ebc       ??_C@_0BP@IAECJDB@Can?8t?5add?5itself?5as?5a?5subpart?$CB?$AA@ 00455ebc     libcurl:mime.obj
 0002:00000edc       ??_C@_0M@MJDFHGPO@?$DL?5boundary?$DN?$AA@ 00455edc     libcurl:mime.obj
 0002:00000ee8       ??_C@_0BF@JGMBPGGP@Content?9Type?3?5?$CFs?$CFs?$CFs?$AA@ 00455ee8     libcurl:mime.obj
 0002:00000f00       ??_C@_0BA@LBPJGHIO@multipart?1mixed?$AA@ 00455f00     libcurl:mime.obj
 0002:00000f10       ??_C@_0BJ@JDCJMJCJ@application?1octet?9stream?$AA@ 00455f10     libcurl:mime.obj
 0002:00000f2c       ??_C@_0BE@LMOOGHBG@Content?9Disposition?$AA@ 00455f2c     libcurl:mime.obj
 0002:00000f40       ??_C@_0L@LMJJPMNG@multipart?1?$AA@ 00455f40     libcurl:mime.obj
 0002:00000f4c       ??_C@_0L@HBDHCFKP@attachment?$AA@ 00455f4c     libcurl:mime.obj
 0002:00000f58       ??_C@_01BJJEKLCA@?$CC?$AA@ 00455f58     libcurl:mime.obj
 0002:00000f5c       ??_C@_0N@EBLPPAMO@?$DL?5filename?$DN?$CC?$AA@ 00455f5c     libcurl:mime.obj
 0002:00000f6c       ??_C@_08LCJOLIGB@?$DL?5name?$DN?$CC?$AA@ 00455f6c     libcurl:mime.obj
 0002:00000f78       ??_C@_0CE@DDNMPDM@Content?9Disposition?3?5?$CFs?$CFs?$CFs?$CFs?$CFs?$CF@ 00455f78     libcurl:mime.obj
 0002:00000f9c       ??_C@_0BK@MJFMDPAI@Content?9Transfer?9Encoding?$AA@ 00455f9c     libcurl:mime.obj
 0002:00000fb8       ??_C@_0BO@GPACEDCJ@Content?9Transfer?9Encoding?3?5?$CFs?$AA@ 00455fb8     libcurl:mime.obj
 0002:00000fd8       ??_C@_0BE@PILCJFLE@multipart?1form?9data?$AA@ 00455fd8     libcurl:mime.obj
 0002:00000fec       ??_C@_09DMEGNLGK@form?9data?$AA@ 00455fec     libcurl:mime.obj
 0002:00001000       __xmm@2d2d2d2d2d2d2d2d2d2d2d2d2d2d2d2d 00456000     libcurl:mime.obj
 0002:00001010       ??_C@_05MLEOJOPP@?$CFld?$CFs?$AA@ 00456010     libcurl:conncache.obj
 0002:00001018       ??_C@_0DD@OLONMPCM@Connection?5cache?5is?5full?0?5closin@ 00456018     libcurl:conncache.obj
 0002:000010dc       ??_C@_0O@PKKFKPHL@?$DMno?5protocol?$DO?$AA@ 004560dc     libcurl:url.obj
 0002:000010ec       ??_C@_0BI@DDGGAIOA@Closing?5connection?5?$CFld?6?$AA@ 004560ec     libcurl:url.obj
 0002:00001104       ??_C@_0DB@DJFDJCOE@Too?5old?5connection?5?$CI?$CFld?5seconds?$CJ@ 00456104     libcurl:url.obj
 0002:00001138       ??_C@_0CC@JFLBHGMD@Connection?5?$CFld?5seems?5to?5be?5dead?$CB@ 00456138     libcurl:url.obj
 0002:0000115c       ??_C@_0O@EFAPFLJF@can?5multiplex?$AA@ 0045615c     libcurl:url.obj
 0002:0000116c       ??_C@_08HGENMDLD@serially?$AA@ 0045616c     libcurl:url.obj
 0002:00001178       ??_C@_0CD@OCDJOGEP@Found?5bundle?5for?5host?5?$CFs?3?5?$CFp?5?$FL?$CFs@ 00456178     libcurl:url.obj
 0002:0000119c       ??_C@_0CM@DIEBCPAL@Server?5doesn?8t?5support?5multiplex@ 0045619c     libcurl:url.obj
 0002:000011c8       ??_C@_0CI@GFGFLNAA@Server?5doesn?8t?5support?5multiplex@ 004561c8     libcurl:url.obj
 0002:000011f0       ??_C@_0CE@OANFFLBC@Could?5multiplex?0?5but?5not?5asked?5t@ 004561f0     libcurl:url.obj
 0002:00001214       ??_C@_0CK@OJMDJFJB@Can?5not?5multiplex?0?5even?5if?5we?5wa@ 00456214     libcurl:url.obj
 0002:00001240       ??_C@_0DG@ICACGPNK@Connection?5?$CD?$CFld?5is?5still?5name?5re@ 00456240     libcurl:url.obj
 0002:00001278       ??_C@_0DA@HEGJMKAL@Connection?5?$CD?$CFld?5isn?8t?5open?5enoug@ 00456278     libcurl:url.obj
 0002:000012a8       ??_C@_0BP@IJOBPHC@Multiplexed?5connection?5found?$CB?6?$AA@ 004562a8     libcurl:url.obj
 0002:000012c8       ??_C@_0DP@IINEECKA@Found?5pending?5candidate?5for?5reus@ 004562c8     libcurl:url.obj
 0002:00001308       ??_C@_0CG@GIJHGMPJ@Connected?5to?5?$CFs?5?$CI?$CFs?$CJ?5port?5?$CFld?5?$CI?$CD@ 00456308     libcurl:url.obj
 0002:00001330       ??_C@_0DG@OJGGOHOC@IDN?5support?5not?5present?0?5can?8t?5p@ 00456330     libcurl:url.obj
 0002:00001368       ??_C@_0DD@CPLPHJPM@Protocol?5?$CC?$CFs?$CC?5not?5supported?5or?5d@ 00456368     libcurl:url.obj
 0002:0000139c       ??_C@_0BI@BEHOBPHB@Invalid?5zoneid?3?5?$CFs?$DL?5?$CFs?6?$AA@ 0045639c     libcurl:url.obj
 0002:000013b4       ??_C@_07NCHOALFK@?$CFs?3?1?1?$CFs?$AA@ 004563b4     libcurl:url.obj
 0002:000013bc       ??_C@_04DAMGJPCA@file?$AA@ 004563bc     libcurl:url.obj
 0002:000013c4       ??_C@_06OJJNHGNN@?$CFI64d?9?$AA@ 004563c4     libcurl:url.obj
 0002:000013cc       ??_C@_02KEGNLNML@?0?5?$AA@ 004563cc     libcurl:url.obj
 0002:000013d0       ??_C@_01NBENCBCI@?$CK?$AA@ 004563d0     libcurl:url.obj
 0002:000013d4       ??_C@_06PIGEBLLD@_proxy?$AA@ 004563d4     libcurl:url.obj
 0002:000013dc       ??_C@_0L@BKCFCEPH@http_proxy?$AA@ 004563dc     libcurl:url.obj
 0002:000013e8       ??_C@_09IFLEAELB@all_proxy?$AA@ 004563e8     libcurl:url.obj
 0002:000013f4       ??_C@_09HKPIAANK@ALL_PROXY?$AA@ 004563f4     libcurl:url.obj
 0002:00001400       ??_C@_0CE@MLGGMLP@Uses?5proxy?5env?5variable?5?$CFs?5?$DN?$DN?5?8?$CF@ 00456400     libcurl:url.obj
 0002:00001424       ??_C@_05BCHGOAMK@https?$AA@ 00456424     libcurl:url.obj
 0002:0000142c       ??_C@_07FDHAHIOH@socks5h?$AA@ 0045642c     libcurl:url.obj
 0002:00001434       ??_C@_06IAICDOJI@socks5?$AA@ 00456434     libcurl:url.obj
 0002:0000143c       ??_C@_07IDHAKJJJ@socks4a?$AA@ 0045643c     libcurl:url.obj
 0002:00001444       ??_C@_06JJJJAPNJ@socks4?$AA@ 00456444     libcurl:url.obj
 0002:0000144c       ??_C@_05LBOKJHLG@socks?$AA@ 0045644c     libcurl:url.obj
 0002:00001454       ??_C@_04IAFLKNP@http?$AA@  00456454     libcurl:url.obj
 0002:0000145c       ??_C@_0CC@CEKBDKLM@Unsupported?5proxy?5scheme?5for?5?8?$CFs@ 0045645c     libcurl:url.obj
 0002:00001480       ??_C@_0CB@HLNKMBJD@Unsupported?5proxy?5syntax?5in?5?8?$CFs?8@ 00456480     libcurl:url.obj
 0002:000014a8       ??_C@_0EK@MGMANAOF@Unsupported?5proxy?5?8?$CFs?8?0?5libcurl?5@ 004564a8     libcurl:url.obj
 0002:000014f4       ??_C@_0BA@GJPPEADO@memory?5shortage?$AA@ 004564f4     libcurl:url.obj
 0002:00001504       ??_C@_08BOGLDIEC@no_proxy?$AA@ 00456504     libcurl:url.obj
 0002:00001510       ??_C@_08KOHKDPPJ@NO_PROXY?$AA@ 00456510     libcurl:url.obj
 0002:0000151c       ??_C@_0DG@MFBPPKBC@Couldn?8t?5find?5host?5?$CFs?5in?5the?5?$CFs?5@ 0045651c     libcurl:url.obj
 0002:00001554       ??_C@_09BMFBKPHA@anonymous?$AA@ 00456554     libcurl:url.obj
 0002:00001560       ??_C@_0BA@LJIKBFGM@ftp?$EAexample?4com?$AA@ 00456560     libcurl:url.obj
 0002:00001570       ??_C@_03MMIJIMKH@?$CF25?$AA@ 00456570     libcurl:url.obj
 0002:00001574       ??_C@_0CN@NDBDIMOC@Please?5URL?5encode?5?$CF?$CF?5as?5?$CF?$CF25?0?5se@ 00456574     libcurl:url.obj
 0002:000015a4       ??_C@_0BN@IHHAEPKG@Invalid?5IPv6?5address?5format?6?$AA@ 004565a4     libcurl:url.obj
 0002:000015c4       ??_C@_0DF@IONEKJDD@No?5valid?5port?5number?5in?5connect?5@ 004565c4     libcurl:url.obj
 0002:000015fc       ??_C@_01LBDDMOBJ@?$FN?$AA@ 004565fc     libcurl:url.obj
 0002:00001600       ??_C@_01OHGJGJJP@?$FL?$AA@ 00456600     libcurl:url.obj
 0002:00001604       ??_C@_06DIJPEION@?$CFs?$CFs?$CFs?$AA@ 00456604     libcurl:url.obj
 0002:0000160c       ??_C@_0BM@PMENCPCA@Connecting?5to?5hostname?3?5?$CFs?6?$AA@ 0045660c     libcurl:url.obj
 0002:00001628       ??_C@_0BI@BICCPIEJ@Connecting?5to?5port?3?5?$CFd?6?$AA@ 00456628     libcurl:url.obj
 0002:00001640       ??_C@_0DA@NFHFFFEO@Alt?9svc?5connecting?5from?5?$FL?$CFs?$FN?$CFs?3?$CF@ 00456640     libcurl:url.obj
 0002:00001670       ??_C@_0CA@PCHAHPEF@Unix?5socket?5path?5too?5long?3?5?8?$CFs?8?$AA@ 00456670     libcurl:url.obj
 0002:00001690       ??_C@_0BL@CBGJLMGC@Could?5not?5resolve?5host?3?5?$CFs?$AA@ 00456690     libcurl:url.obj
 0002:000016ac       ??_C@_0BM@PBLGFFN@Couldn?8t?5resolve?5proxy?5?8?$CFs?8?$AA@ 004566ac     libcurl:url.obj
 0002:000016c8       ??_C@_05BFHPMDA@proxy?$AA@ 004566c8     libcurl:url.obj
 0002:000016d0       ??_C@_04OODOLJMA@host?$AA@ 004566d0     libcurl:url.obj
 0002:000016d8       ??_C@_0DB@KBMGPDLF@Re?9using?5existing?5connection?$CB?5?$CI?$CD@ 004566d8     libcurl:url.obj
 0002:0000170c       ??_C@_0CN@MPPLPHGC@No?5more?5connections?5allowed?5to?5h@ 0045670c     libcurl:url.obj
 0002:0000173c       ??_C@_0CD@DJOOMEOI@No?5connections?5available?5in?5cach@ 0045673c     libcurl:url.obj
 0002:00001760       ??_C@_0BL@LKODOMNP@No?5connections?5available?4?6?$AA@ 00456760     libcurl:url.obj
 0002:0000177c       ??_C@_0CO@KHIJKMHA@NTLM?5picked?5AND?5auth?5done?5set?0?5c@ 0045677c     libcurl:url.obj
 0002:000017ac       ??_C@_0DE@GICFFDLJ@NTLM?9proxy?5picked?5AND?5auth?5done?5@ 004567ac     libcurl:url.obj
 0002:000017e0       ??_C@_04BINJNOJD@HEAD?$AA@ 004567e0     libcurl:getinfo.obj
 0002:000017e8       ??_C@_04HCJEIHPL@POST?$AA@ 004567e8     libcurl:getinfo.obj
 0002:000017f0       ??_C@_03KBBGFLEK@PUT?$AA@  004567f0     libcurl:getinfo.obj
 0002:000017f4       ??_C@_03HAPOJHBM@GET?$AA@  004567f4     libcurl:getinfo.obj
 0002:00001810       ??_C@_04MPPNMCOK@?4?4?4?6?$AA@ 00456810     libcurl:sendf.obj
 0002:00001818       ??_C@_03KHICJKCI@?4?4?4?$AA@ 00456818     libcurl:sendf.obj
 0002:0000181c       ??_C@_0BB@JCBOFDKN@Send?5failure?3?5?$CFs?$AA@ 0045681c     libcurl:sendf.obj
 0002:00001830       ??_C@_0BB@GOGKBCCD@Recv?5failure?3?5?$CFs?$AA@ 00456830     libcurl:sendf.obj
 0002:00001844       ??_C@_0DD@KHGMOPKJ@Write?5callback?5asked?5for?5PAUSE?5w@ 00456844     libcurl:sendf.obj
 0002:00001878       ??_C@_0CG@EMCHOAAB@Failure?5writing?5output?5to?5destin@ 00456878     libcurl:sendf.obj
 0002:000018a0       ??_C@_0BG@OFFCIDAN@Failed?5writing?5header?$AA@ 004568a0     libcurl:sendf.obj
 0002:000018b8       ??_C@_0CF@PEMBPPBD@Failed?5to?5set?5SO_KEEPALIVE?5on?5fd@ 004568b8     libcurl:connect.obj
 0002:000018e0       ??_C@_0CP@NKGEMNPP@Failed?5to?5set?5SIO_KEEPALIVE_VALS@ 004568e0     libcurl:connect.obj
 0002:00001910       ??_C@_03FIFADKBL@if?$CB?$AA@ 00456910     libcurl:connect.obj
 0002:00001914       ??_C@_05BHBFOJOK@host?$CB?$AA@ 00456914     libcurl:connect.obj
 0002:0000191c       ??_C@_0CA@NNLJLENH@Couldn?8t?5bind?5to?5interface?5?8?$CFs?8?$AA@ 0045691c     libcurl:connect.obj
 0002:0000193c       ??_C@_0DF@GKHAKMGC@Local?5Interface?5?$CFs?5is?5ip?5?$CFs?5usin@ 0045693c     libcurl:connect.obj
 0002:00001974       ??_C@_0DA@OPBJKDFD@Name?5?8?$CFs?8?5family?5?$CFi?5resolved?5to?5@ 00456974     libcurl:connect.obj
 0002:000019a4       ??_C@_0BG@CIMNBOAN@Couldn?8t?5bind?5to?5?8?$CFs?8?$AA@ 004569a4     libcurl:connect.obj
 0002:000019bc       ??_C@_0CH@DDKDPEAI@getsockname?$CI?$CJ?5failed?5with?5errno?5@ 004569bc     libcurl:connect.obj
 0002:000019e4       ??_C@_0BB@PLFEKLHG@Local?5port?3?5?$CFhu?6?$AA@ 004569e4     libcurl:connect.obj
 0002:000019f8       ??_C@_0CM@IFAJKKEJ@Bind?5to?5local?5port?5?$CFhu?5failed?0?5t@ 004569f8     libcurl:connect.obj
 0002:00001a24       ??_C@_0BO@NNMFENBA@bind?5failed?5with?5errno?5?$CFd?3?5?$CFs?$AA@ 00456a24     libcurl:connect.obj
 0002:00001a44       ??_C@_0CH@IBJKPDAO@getpeername?$CI?$CJ?5failed?5with?5errno?5@ 00456a44     libcurl:connect.obj
 0002:00001a6c       ??_C@_0CL@PFOECMOH@ssrem?5inet_ntop?$CI?$CJ?5failed?5with?5er@ 00456a6c     libcurl:connect.obj
 0002:00001a98       ??_C@_0CL@FJICKPK@ssloc?5inet_ntop?$CI?$CJ?5failed?5with?5er@ 00456a98     libcurl:connect.obj
 0002:00001ac4       ??_C@_0BP@FBEALKHG@unknown?5proxytype?5option?5given?$AA@ 00456ac4     libcurl:connect.obj
 0002:00001ae4       ??_C@_0BE@GAEGKOEF@Connection?5time?9out?$AA@ 00456ae4     libcurl:connect.obj
 0002:00001af8       ??_C@_0CG@OOKPFHPB@After?5?$CFI64dms?5connect?5time?0?5move@ 00456af8     libcurl:connect.obj
 0002:00001b20       ??_C@_0CD@INOOPIKI@connect?5to?5?$CFs?5port?5?$CFld?5failed?3?5?$CF@ 00456b20     libcurl:connect.obj
 0002:00001b44       ??_C@_0CF@PFFPOJAN@Failed?5to?5connect?5to?5?$CFs?5port?5?$CFld@ 00456b44     libcurl:connect.obj
 0002:00001b6c       ??_C@_0BP@MAILANNH@Could?5not?5set?5TCP_NODELAY?3?5?$CFs?6?$AA@ 00456b6c     libcurl:connect.obj
 0002:00001b8c       ??_C@_0CN@NLCIOFFH@sa_addr?5inet_ntop?$CI?$CJ?5failed?5with?5@ 00456b8c     libcurl:connect.obj
 0002:00001bbc       ??_C@_0BD@MPJNDNNC@?5?5Trying?5?$CFs?3?$CFd?4?4?4?6?$AA@ 00456bbc     libcurl:connect.obj
 0002:00001bd0       ??_C@_0CD@EAMEJFBB@Immediate?5connect?5fail?5for?5?$CFs?3?5?$CF@ 00456bd0     libcurl:connect.obj
 0002:00001bf4       ??_C@_06MHCCOJOO@Digest?$AA@ 00456bf4     libcurl:http_digest.obj
 0002:00001bfc       ??_C@_04EBNJJJJI@?$CF?4?$CKs?$AA@ 00456bfc     libcurl:http_digest.obj
 0002:00001c04       ??_C@_06MJEPAECD@Proxy?9?$AA@ 00456c04     libcurl:http_digest.obj
 0002:00001c0c       ??_C@_0BN@NPMGGCBO@?$CFsAuthorization?3?5Digest?5?$CFs?$AN?6?$AA@ 00456c0c     libcurl:http_digest.obj
 0002:00001c2c       ??_C@_0N@BBCKHBCL@iphlpapi?4dll?$AA@ 00456c2c     libcurl:system_win32.obj
 0002:00001c3c       ??_C@_0P@GFPCJLDD@if_nametoindex?$AA@ 00456c3c     libcurl:system_win32.obj
 0002:00001c4c       ??_C@_08PNLNEKOB@kernel32?$AA@ 00456c4c     libcurl:system_win32.obj
 0002:00001c58       ??_C@_0P@GILJFMCJ@LoadLibraryExA?$AA@ 00456c58     libcurl:system_win32.obj
 0002:00001c68       ??_C@_02HHAEMJFE@?2?1?$AA@ 00456c68     libcurl:system_win32.obj
 0002:00001c6c       ??_C@_0BA@NMFGOKJN@AddDllDirectory?$AA@ 00456c6c     libcurl:system_win32.obj
 0002:00001c7c       ??_C@_02IACHLLMH@h1?$AA@   00456c7c     libcurl:altsvc.obj
 0002:00001c80       ??_C@_02KLAKOIAE@h2?$AA@   00456c80     libcurl:altsvc.obj
 0002:00001c84       ??_C@_02LCBBNJEF@h3?$AA@   00456c84     libcurl:altsvc.obj
 0002:00001c88       ??_C@_0CM@DAEANJFD@?$CF10s?5?$CF512s?5?$CFu?5?$CF10s?5?$CF512s?5?$CFu?5?$CC?$CF64@ 00456c88     libcurl:altsvc.obj
 0002:00001cb4       ??_C@_0DF@DAAFPCNG@?$CFs?5?$CFs?5?$CFu?5?$CFs?5?$CFs?5?$CFu?5?$CC?$CFd?$CF02d?$CF02d?5?$CF0@ 00456cb4     libcurl:altsvc.obj
 0002:00001cf0       ??_C@_0HG@JDCLPEEL@?$CD?5Your?5alt?9svc?5cache?4?5https?3?1?1cu@ 00456cf0     libcurl:altsvc.obj
 0002:00001d68       ??_C@_0CH@GNONCAKC@Excessive?5alt?9svc?5header?0?5ignori@ 00456d68     libcurl:altsvc.obj
 0002:00001d90       ??_C@_05MEHLAELG@clear?$AA@ 00456d90     libcurl:altsvc.obj
 0002:00001d98       ??_C@_0CK@IFODLHOH@Excessive?5alt?9svc?5host?5name?0?5ign@ 00456d98     libcurl:altsvc.obj
 0002:00001dc4       ??_C@_0CK@IIDJBGKI@Unknown?5alt?9svc?5port?5number?0?5ign@ 00456dc4     libcurl:altsvc.obj
 0002:00001df0       ??_C@_02DMFHCEHI@ma?$AA@   00456df0     libcurl:altsvc.obj
 0002:00001df4       ??_C@_07EMFBDGOD@persist?$AA@ 00456df4     libcurl:altsvc.obj
 0002:00001dfc       ??_C@_0BO@EALCHFOF@Added?5alt?9svc?3?5?$CFs?3?$CFd?5over?5?$CFs?6?$AA@ 00456dfc     libcurl:altsvc.obj
 0002:00001e1c       ??_C@_0CM@MLGGHAPD@Unknown?5alt?9svc?5protocol?5?$CC?$CFs?$CC?0?5s@ 00456e1c     libcurl:altsvc.obj
 0002:00001e98       ??_C@_08LBJOIDDC@identity?$AA@ 00456e98     libcurl:content_encoding.obj
 0002:00001ea8       ??_C@_0EO@CHCFCBOE@Unrecognized?5content?5encoding?5ty@ 00456ea8     libcurl:content_encoding.obj
 0002:00001ef8       ??_C@_07KCKHAHHI@chunked?$AA@ 00456ef8     libcurl:content_encoding.obj
 0002:00001f00       ??_C@_03CNODDBJO@?3?$CFu?$AA@ 00456f00     libcurl:hostip.obj
 0002:00001f04       ??_C@_0CJ@BHEFAGPN@Hostname?5in?5DNS?5cache?5was?5stale?0@ 00456f04     libcurl:hostip.obj
 0002:00001f30       ??_C@_0BH@EAPFBJAK@Shuffling?5?$CFi?5addresses?$AA@ 00456f30     libcurl:hostip.obj
 0002:00001f48       ??_C@_0CE@NGLGBBNH@Hostname?5?$CFs?5was?5found?5in?5DNS?5cac@ 00456f48     libcurl:hostip.obj
 0002:00001f6c       ??_C@_0M@CAIHMLOC@?$CF255?$FL?$FO?3?$FN?3?$CFd?$AA@ 00456f6c     libcurl:hostip.obj
 0002:00001f78       ??_C@_0DE@ELJFMFMM@Couldn?8t?5parse?5CURLOPT_RESOLVE?5r@ 00456f78     libcurl:hostip.obj
 0002:00001fac       ??_C@_0CF@FMMIAGMF@Resolve?5address?5?8?$CFs?8?5found?5illeg@ 00456fac     libcurl:hostip.obj
 0002:00001fd4       ??_C@_0CM@LICJDDJG@Couldn?8t?5parse?5CURLOPT_RESOLVE?5e@ 00456fd4     libcurl:hostip.obj
 0002:00002000       ??_C@_0CN@JHBOBPLC@RESOLVE?5?$CFs?3?$CFd?5is?5?9?5old?5addresses@ 00457000     libcurl:hostip.obj
 0002:00002030       ??_C@_0BB@KFONHPNE@?5?$CInon?9permanent?$CJ?$AA@ 00457030     libcurl:hostip.obj
 0002:00002044       ??_C@_0BP@KGHHPNAO@Added?5?$CFs?3?$CFd?3?$CFs?5to?5DNS?5cache?$CFs?6?$AA@ 00457044     libcurl:hostip.obj
 0002:00002064       ??_C@_0DF@FGOBCBFC@RESOLVE?5?$CFs?3?$CFd?5is?5wildcard?0?5enabl@ 00457064     libcurl:hostip.obj
 0002:0000209c       ??_C@_0BJ@MIAHLHBF@Could?5not?5resolve?5?$CFs?3?5?$CFs?$AA@ 0045709c     libcurl:hostip.obj
 0002:000020c8       ??_C@_04MEDPFIKH@HTTP?$AA@ 004570c8     libcurl:http.obj
 0002:000020d0       ??_C@_0CD@KELEPDPB@HTTP?13?5requested?5for?5non?9HTTPS?5U@ 004570d0     libcurl:http.obj
 0002:000020f8       _Curl_handler_http         004570f8     libcurl:http.obj
 0002:00002144       ??_C@_05CCMOGDN@?$CFs?3?$CFs?$AA@ 00457144     libcurl:http.obj
 0002:0000214c       ??_C@_0BM@NMNAGCIL@?$CFsAuthorization?3?5Basic?5?$CFs?$AN?6?$AA@ 0045714c     libcurl:http.obj
 0002:00002168       ??_C@_0BL@JHLMAFGM@Authorization?3?5Bearer?5?$CFs?$AN?6?$AA@ 00457168     libcurl:http.obj
 0002:00002184       ??_C@_0BK@HOMHMGOD@Rewind?5stream?5after?5send?6?$AA@ 00457184     libcurl:http.obj
 0002:000021a0       ??_C@_0DB@DNAPMGHO@NTLM?5send?0?5close?5instead?5of?5send@ 004571a0     libcurl:http.obj
 0002:000021d4       ??_C@_0BK@CMMBNKGD@Forcing?5HTTP?11?41?5for?5NTLM?$AA@ 004571d4     libcurl:http.obj
 0002:000021f0       ??_C@_0CF@BBGENOPF@The?5requested?5URL?5returned?5error@ 004571f0     libcurl:http.obj
 0002:00002218       ??_C@_09HPCLDLMD@AWS_SIGV4?$AA@ 00457218     libcurl:http.obj
 0002:00002224       ??_C@_04KGCGDDND@NTLM?$AA@ 00457224     libcurl:http.obj
 0002:0000222c       ??_C@_0BE@PPNONACO@Proxy?9authorization?$AA@ 0045722c     libcurl:http.obj
 0002:00002240       ??_C@_0O@NAFGPKMI@Authorization?$AA@ 00457240     libcurl:http.obj
 0002:00002250       ??_C@_05NIKDGMHP@Basic?$AA@ 00457250     libcurl:http.obj
 0002:00002258       ??_C@_0P@LAMGMCAB@Authorization?3?$AA@ 00457258     libcurl:http.obj
 0002:00002268       ??_C@_06NPEPPOGN@Bearer?$AA@ 00457268     libcurl:http.obj
 0002:00002270       ??_C@_05GPLPJAG@Proxy?$AA@ 00457270     libcurl:http.obj
 0002:00002278       ??_C@_06LGMEBDBC@Server?$AA@ 00457278     libcurl:http.obj
 0002:00002280       ??_C@_0CB@BNDOODNM@?$CFs?5auth?5using?5?$CFs?5with?5user?5?8?$CFs?8?6@ 00457280     libcurl:http.obj
 0002:000022a4       ??_C@_0CI@DKAENECE@Authentication?5problem?4?5Ignoring@ 004572a4     libcurl:http.obj
 0002:000022cc       ??_C@_0CI@DIJIGOJK@Ignoring?5duplicate?5digest?5auth?5h@ 004572cc     libcurl:http.obj
 0002:000022f4       ??_C@_04JIEPCJPP@TCP6?$AA@ 004572f4     libcurl:http.obj
 0002:000022fc       ??_C@_04KKHJELHN@TCP4?$AA@ 004572fc     libcurl:http.obj
 0002:00002304       ??_C@_0BH@GGJGKPOP@PROXY?5?$CFs?5?$CFs?5?$CFs?5?$CFi?5?$CFi?$AN?6?$AA@ 00457304     libcurl:http.obj
 0002:0000231c       ??_C@_0BI@KEPAADBC@Empty?5reply?5from?5server?$AA@ 0045731c     libcurl:http.obj
 0002:00002334       ??_C@_03GCKCNDHP@1?41?$AA@ 00457334     libcurl:http.obj
 0002:00002338       ??_C@_03HLLJOCDO@1?40?$AA@ 00457338     libcurl:http.obj
 0002:0000233c       ??_C@_06GHDJNLIG@Expect?$AA@ 0045733c     libcurl:http.obj
 0002:00002344       ??_C@_0N@IOPAKPOD@100?9continue?$AA@ 00457344     libcurl:http.obj
 0002:00002354       ??_C@_07CBBFMBLH@Expect?3?$AA@ 00457354     libcurl:http.obj
 0002:0000235c       ??_C@_0BH@JCEGEJFB@Expect?3?5100?9continue?$AN?6?$AA@ 0045735c     libcurl:http.obj
 0002:00002374       ??_C@_01EEMJAFIK@?6?$AA@   00457374     libcurl:http.obj
 0002:00002378       ??_C@_0DB@KNJCCOIM@Malformatted?5trailing?5header?5?$CB?5S@ 00457378     libcurl:http.obj
 0002:000023ac       ??_C@_05LJIPCHEG@Host?3?$AA@ 004573ac     libcurl:http.obj
 0002:000023b4       ??_C@_0O@PDMPCIFL@Content?9Type?3?$AA@ 004573b4     libcurl:http.obj
 0002:000023c4       ??_C@_0BA@DIGAFIOK@Content?9Length?3?$AA@ 004573c4     libcurl:http.obj
 0002:000023d4       ??_C@_0M@HJBFCNNB@Connection?3?$AA@ 004573d4     libcurl:http.obj
 0002:000023e0       ??_C@_0BD@DNFFOCFM@Transfer?9Encoding?3?$AA@ 004573e0     libcurl:http.obj
 0002:000023f4       ??_C@_07HKOKENHM@Cookie?3?$AA@ 004573f4     libcurl:http.obj
 0002:000023fc       ??_C@_04LLEBNMDN@?$CFs?$AN?6?$AA@ 004573fc     libcurl:http.obj
 0002:00002404       ??_C@_0BC@PCIFJBEC@Invalid?5TIMEVALUE?$AA@ 00457404     libcurl:http.obj
 0002:00002418       ??_C@_0BC@GJLFBBBL@If?9Modified?9Since?$AA@ 00457418     libcurl:http.obj
 0002:0000242c       ??_C@_0BE@DDBHAKNF@If?9Unmodified?9Since?$AA@ 0045742c     libcurl:http.obj
 0002:00002440       ??_C@_0O@FICEOEAF@Last?9Modified?$AA@ 00457440     libcurl:http.obj
 0002:00002450       ??_C@_0CJ@PBKGCGNN@?$CFs?3?5?$CFs?0?5?$CF02d?5?$CFs?5?$CF4d?5?$CF02d?3?$CF02d?3?$CF0@ 00457450     libcurl:http.obj
 0002:0000247c       ??_C@_0L@DMPACEMJ@User?9Agent?$AA@ 0045747c     libcurl:http.obj
 0002:00002488       ??_C@_04CPPPJGME@Host?$AA@ 00457488     libcurl:http.obj
 0002:00002490       ??_C@_09PEHAMPH@Host?3?$CFs?$AN?6?$AA@ 00457490     libcurl:http.obj
 0002:0000249c       ??_C@_0P@CKOLCGKA@Host?3?5?$CFs?$CFs?$CFs?$AN?6?$AA@ 0045749c     libcurl:http.obj
 0002:000024ac       ??_C@_0BC@DBODHBND@Host?3?5?$CFs?$CFs?$CFs?3?$CFd?$AN?6?$AA@ 004574ac     libcurl:http.obj
 0002:000024c0       ??_C@_03LMDBDBEG@ftp?$AA@  004574c0     libcurl:http.obj
 0002:000024c4       ??_C@_06ODENPNKJ@?$DLtype?$DN?$AA@ 004574c4     libcurl:http.obj
 0002:000024cc       ??_C@_08MMJPNGCD@?$DLtype?$DN?$CFc?$AA@ 004574cc     libcurl:http.obj
 0002:000024d8       ??_C@_03EMGHGGCK@?$DP?$CFs?$AA@ 004574d8     libcurl:http.obj
 0002:000024dc       ??_C@_0BC@ELHLFCNH@Transfer?9Encoding?$AA@ 004574dc     libcurl:http.obj
 0002:000024f0       ??_C@_0CL@OGPNFEKJ@Chunky?5upload?5is?5not?5supported?5b@ 004574f0     libcurl:http.obj
 0002:0000251c       ??_C@_0BN@HCMGFBOG@Transfer?9Encoding?3?5chunked?$AN?6?$AA@ 0045751c     libcurl:http.obj
 0002:0000253c       ??_C@_0P@HOJGPHBA@Content?9Length?$AA@ 0045753c     libcurl:http.obj
 0002:0000254c       ??_C@_0BI@LJIKFNCE@Content?9Length?3?5?$CFI64d?$AN?6?$AA@ 0045754c     libcurl:http.obj
 0002:00002564       ??_C@_0BL@KJBPLOOA@Failed?5sending?5PUT?5request?$AA@ 00457564     libcurl:http.obj
 0002:00002580       ??_C@_0BG@DPJOPI@Content?9Length?3?50?$AN?6?$AN?6?$AA@ 00457580     libcurl:http.obj
 0002:00002598       ??_C@_0BM@OJEBFGIF@Failed?5sending?5POST?5request?$AA@ 00457598     libcurl:http.obj
 0002:000025b4       ??_C@_0DC@DMFLICKC@Content?9Type?3?5application?1x?9www?9@ 004575b4     libcurl:http.obj
 0002:000025e8       ??_C@_04GMEAFLDM@?$CFx?$AN?6?$AA@ 004575e8     libcurl:http.obj
 0002:000025f0       ??_C@_05CPFNAGPN@0?$AN?6?$AN?6?$AA@ 004575f0     libcurl:http.obj
 0002:000025f8       ??_C@_0CB@KDDFLMMJ@Failed?5sending?5HTTP?5POST?5request@ 004575f8     libcurl:http.obj
 0002:0000261c       ??_C@_0BM@FKBPNPDJ@Failed?5sending?5HTTP?5request?$AA@ 0045761c     libcurl:http.obj
 0002:00002638       ??_C@_06EGBLANDJ@Cookie?$AA@ 00457638     libcurl:http.obj
 0002:00002640       ??_C@_08MMENPDPI@Cookie?3?5?$AA@ 00457640     libcurl:http.obj
 0002:0000264c       ??_C@_02LNAEAIDO@?$DL?5?$AA@ 0045764c     libcurl:http.obj
 0002:00002650       ??_C@_07CHANAGMK@?$CFs?$CFs?$DN?$CFs?$AA@ 00457650     libcurl:http.obj
 0002:00002658       ??_C@_04HDOCAJNK@?$CFs?$CFs?$AA@ 00457658     libcurl:http.obj
 0002:00002660       ??_C@_05CFMCGLCK@Range?$AA@ 00457660     libcurl:http.obj
 0002:00002668       ??_C@_0BC@MAJANMND@Range?3?5bytes?$DN?$CFs?$AN?6?$AA@ 00457668     libcurl:http.obj
 0002:0000267c       ??_C@_0O@PLGHKCFM@Content?9Range?$AA@ 0045767c     libcurl:http.obj
 0002:0000268c       ??_C@_0CF@GOIFFLMO@Content?9Range?3?5bytes?50?9?$CFI64d?1?$CFI6@ 0045768c     libcurl:http.obj
 0002:000026b4       ??_C@_0CF@JBBBEEAB@Content?9Range?3?5bytes?5?$CFs?$CFI64d?1?$CFI6@ 004576b4     libcurl:http.obj
 0002:000026dc       ??_C@_0CA@KGFKCJEO@Content?9Range?3?5bytes?5?$CFs?1?$CFI64d?$AN?6?$AA@ 004576dc     libcurl:http.obj
 0002:000026fc       ??_C@_0BG@FAJPNPNB@Could?5not?5seek?5stream?$AA@ 004576fc     libcurl:http.obj
 0002:00002714       ??_C@_0CL@LFKAINMC@Could?5only?5read?5?$CFI64d?5bytes?5from@ 00457714     libcurl:http.obj
 0002:00002740       ??_C@_0CB@BPNMMFKO@File?5already?5completely?5uploaded@ 00457740     libcurl:http.obj
 0002:00002764       ??_C@_0BM@KNDLFPLE@Ignoring?5the?5response?9body?6?$AA@ 00457764     libcurl:http.obj
 0002:00002780       ??_C@_0CK@ELFDNGAB@The?5entire?5document?5is?5already?5d@ 00457780     libcurl:http.obj
 0002:000027b0       ??_C@_0EA@PGICDNJG@HTTP?5server?5doesn?8t?5seem?5to?5supp@ 004577b0     libcurl:http.obj
 0002:000027f0       ??_C@_0BP@BDCHAEKO@Simulate?5a?5HTTP?5304?5response?$CB?6?$AA@ 004577f0     libcurl:http.obj
 0002:00002810       ??_C@_05DFPCBGAP@?$CFs?$DP?$CFs?$AA@ 00457810     libcurl:http.obj
 0002:00002818       ??_C@_07EJAMNJLN@Referer?$AA@ 00457818     libcurl:http.obj
 0002:00002820       ??_C@_0O@JOAPDPIB@Referer?3?5?$CFs?$AN?6?$AA@ 00457820     libcurl:http.obj
 0002:00002830       ??_C@_0BA@KDJCHKHJ@Accept?9Encoding?$AA@ 00457830     libcurl:http.obj
 0002:00002840       ??_C@_0BG@NKBLEFIE@Accept?9Encoding?3?5?$CFs?$AN?6?$AA@ 00457840     libcurl:http.obj
 0002:00002858       ??_C@_06MDEHPNLG@Accept?$AA@ 00457858     libcurl:http.obj
 0002:00002860       ??_C@_0O@GHCMGJMD@Accept?3?5?$CK?1?$CK?$AN?6?$AA@ 00457860     libcurl:http.obj
 0002:00002870       ??_C@_03IKGEINEE@?$CFs?5?$AA@ 00457870     libcurl:http.obj
 0002:00002874       ??_C@_08DCLKEDJA@Alt?9Used?$AA@ 00457874     libcurl:http.obj
 0002:00002880       ??_C@_0BC@NLLFJIJM@Alt?9Used?3?5?$CFs?3?$CFd?$AN?6?$AA@ 00457880     libcurl:http.obj
 0002:00002894       ??_C@_0BB@MLFPABGO@Proxy?9Connection?$AA@ 00457894     libcurl:http.obj
 0002:000028a8       ??_C@_0BP@HADNPFIL@Proxy?9Connection?3?5Keep?9Alive?$AN?6?$AA@ 004578a8     libcurl:http.obj
 0002:000028c8       ??_C@_0CD@NHMGHKMA@?5HTTP?1?$CFs?$AN?6?$CFs?$CFs?$CFs?$CFs?$CFs?$CFs?$CFs?$CFs?$CFs?$CFs?$CFs@ 004578c8     libcurl:http.obj
 0002:000028ec       ??_C@_0DG@MEACOPGN@upload?5completely?5sent?5off?3?5?$CFI64@ 004578ec     libcurl:http.obj
 0002:00002924       ??_C@_05FKGKDBHO@HTTP?1?$AA@ 00457924     libcurl:http.obj
 0002:0000292c       ??_C@_05GFPACIDK@RTSP?1?$AA@ 0045792c     libcurl:http.obj
 0002:00002934       ??_C@_0BL@GFBKPFMO@Maximum?5file?5size?5exceeded?$AA@ 00457934     libcurl:http.obj
 0002:00002950       ??_C@_0CB@KGLAHIH@Overflow?5Content?9Length?3?5value?$CB?6@ 00457950     libcurl:http.obj
 0002:00002974       ??_C@_0BO@DIBNEJMM@Invalid?5Content?9Length?3?5value?$AA@ 00457974     libcurl:http.obj
 0002:00002994       ??_C@_0L@FFDPOIEG@keep?9alive?$AA@ 00457994     libcurl:http.obj
 0002:000029a0       ??_C@_0BC@IPGIMNCH@Proxy?9Connection?3?$AA@ 004579a0     libcurl:http.obj
 0002:000029b4       ??_C@_0CO@NNECKAAI@HTTP?11?40?5proxy?5connection?5set?5to@ 004579b4     libcurl:http.obj
 0002:000029e4       ??_C@_05LBOHBHFK@close?$AA@ 004579e4     libcurl:http.obj
 0002:000029ec       ??_C@_0CG@GBJOIAPM@HTTP?11?41?5proxy?5connection?5set?5cl@ 004579ec     libcurl:http.obj
 0002:00002a14       ??_C@_0CI@DLONMNKD@HTTP?11?40?5connection?5set?5to?5keep?5@ 00457a14     libcurl:http.obj
 0002:00002a3c       ??_C@_0BC@FGDKEGD@Content?9Encoding?3?$AA@ 00457a3c     libcurl:http.obj
 0002:00002a50       ??_C@_0N@OFDPOHHB@Retry?9After?3?$AA@ 00457a50     libcurl:http.obj
 0002:00002a60       ??_C@_0P@EHIPKEAE@Content?9Range?3?$AA@ 00457a60     libcurl:http.obj
 0002:00002a70       ??_C@_0P@FFJLAOBC@Last?9Modified?3?$AA@ 00457a70     libcurl:http.obj
 0002:00002a80       ??_C@_0BC@EALNDOCH@WWW?9Authenticate?3?$AA@ 00457a80     libcurl:http.obj
 0002:00002a94       ??_C@_0BE@IHHLHIBG@Proxy?9authenticate?3?$AA@ 00457a94     libcurl:http.obj
 0002:00002aa8       ??_C@_09GILIFLDG@Location?3?$AA@ 00457aa8     libcurl:http.obj
 0002:00002ab4       ??_C@_08KKJBEKGK@Alt?9Svc?3?$AA@ 00457ab4     libcurl:http.obj
 0002:00002ac0       ??_C@_0CD@KMCBNFEI@HTTP?51?40?0?5assume?5close?5after?5bod@ 00457ac0     libcurl:http.obj
 0002:00002ae4       ??_C@_0CD@KCIPCEBM@Received?5HTTP?10?49?5when?5not?5allow@ 00457ae4     libcurl:http.obj
 0002:00002b08       ??_C@_0O@HIILDMIH@Received?5101?6?$AA@ 00457b08     libcurl:http.obj
 0002:00002b18       ??_C@_0DJ@MIHKJEOL@no?5chunk?0?5no?5close?0?5no?5size?4?5Ass@ 00457b18     libcurl:http.obj
 0002:00002b54       ??_C@_0DH@BADDOKJP@Connection?5closure?5while?5negotia@ 00457b54     libcurl:http.obj
 0002:00002b8c       ??_C@_0CB@CMHNBKGH@Got?5417?5while?5waiting?5for?5a?5100?6@ 00457b8c     libcurl:http.obj
 0002:00002bb0       ??_C@_0CN@PJJLOEM@HTTP?5error?5before?5end?5of?5send?0?5k@ 00457bb0     libcurl:http.obj
 0002:00002be0       ??_C@_0CN@NJNEALCI@HTTP?5error?5before?5end?5of?5send?0?5s@ 00457be0     libcurl:http.obj
 0002:00002c10       ??_C@_0CH@COOIMIHN@Keep?5sending?5data?5to?5get?5tossed?5@ 00457c10     libcurl:http.obj
 0002:00002c38       ??_C@_0BD@MJKOHCIC@?5HTTP?1?$CF1d?4?$CF1d?$CFc?$CF3d?$AA@ 00457c38     libcurl:http.obj
 0002:00002c4c       ??_C@_0BA@KFEEPMFA@?5HTTP?1?$CF1?$FL23?$FN?5?$CFd?$AA@ 00457c4c     libcurl:http.obj
 0002:00002c5c       ??_C@_0CN@OHBDOBD@Unsupported?5HTTP?5version?5?$CI?$CFu?4?$CFd?$CJ@ 00457c5c     libcurl:http.obj
 0002:00002c8c       ??_C@_0CC@JKBOGHFA@Lying?5server?0?5not?5serving?5HTTP?12@ 00457c8c     libcurl:http.obj
 0002:00002cb0       ??_C@_0CI@LFNOECD@Mark?5bundle?5as?5not?5supporting?5mu@ 00457cb0     libcurl:http.obj
 0002:00002cd8       ??_C@_09ENILIIEL@?5HTTP?5?$CF3d?$AA@ 00457cd8     libcurl:http.obj
 0002:00002ce4       ??_C@_0CF@HNNLNLIA@Unsupported?5HTTP?5version?5in?5resp@ 00457ce4     libcurl:http.obj
 0002:00002d0c       ??_C@_0BD@IHBBDGA@?5RTSP?1?$CF1d?4?$CF1d?$CFc?$CF3d?$AA@ 00457d0c     libcurl:http.obj
 0002:00002d20       ??_C@_02BBAHNLBA@?$CFp?$AA@ 00457d20     libcurl:socketpair.obj
 0002:00002d24       ??_C@_0DM@ENEANEJF@Moving?5trailers?5state?5machine?5fr@ 00457d24     libcurl:transfer.obj
 0002:00002d60       ??_C@_0CP@HJNKABJC@operation?5aborted?5by?5trailing?5he@ 00457d60     libcurl:transfer.obj
 0002:00002d90       ??_C@_0CC@PPBDDFKE@Successfully?5compiled?5trailers?4?$AN@ 00457d90     libcurl:transfer.obj
 0002:00002db4       ??_C@_0BO@MMBEFIGJ@operation?5aborted?5by?5callback?$AA@ 00457db4     libcurl:transfer.obj
 0002:00002dd4       ??_C@_0DC@KLEIDKKI@Read?5callback?5asked?5for?5PAUSE?5wh@ 00457dd4     libcurl:transfer.obj
 0002:00002e08       ??_C@_0CD@HAMJCOCA@read?5function?5returned?5funny?5val@ 00457e08     libcurl:transfer.obj
 0002:00002e2c       ??_C@_05DOCBBEPK@?$CFzx?$CFs?$AA@ 00457e2c     libcurl:transfer.obj
 0002:00002e34       ??_C@_0DB@OHDOBAMJ@Signaling?5end?5of?5chunked?5upload?5@ 00457e34     libcurl:transfer.obj
 0002:00002e68       ??_C@_0DI@GAABNBIG@Signaling?5end?5of?5chunked?5upload?5@ 00457e68     libcurl:transfer.obj
 0002:00002ea0       ??_C@_0BN@LINFGIKF@Cannot?5rewind?5mime?1post?5data?$AA@ 00457ea0     libcurl:transfer.obj
 0002:00002ec0       ??_C@_0CA@DIJIHPOF@seek?5callback?5returned?5error?5?$CFd?$AA@ 00457ec0     libcurl:transfer.obj
 0002:00002ee0       ??_C@_0CA@FAMFIPII@the?5ioctl?5callback?5returned?5?$CFd?6?$AA@ 00457ee0     libcurl:transfer.obj
 0002:00002f00       ??_C@_0CB@KPKNOGEG@ioctl?5callback?5returned?5error?5?$CFd@ 00457f00     libcurl:transfer.obj
 0002:00002f24       ??_C@_0CG@CHEKEDLE@necessary?5data?5rewind?5wasn?8t?5pos@ 00457f24     libcurl:transfer.obj
 0002:00002f4c       ??_C@_0CK@FAJPFEAA@The?5requested?5document?5is?5not?5ne@ 00457f4c     libcurl:transfer.obj
 0002:00002f78       ??_C@_0CK@HMOOBMAB@The?5requested?5document?5is?5not?5ol@ 00457f78     libcurl:transfer.obj
 0002:00002fa4       ??_C@_0DI@LKBFDFDE@Excess?5found?3?5excess?5?$DN?5?$CFzd?5url?5?$DN@ 00457fa4     libcurl:transfer.obj
 0002:00002fdc       ??_C@_0CK@CJJBEGPJ@Failed?5reading?5the?5chunked?9encod@ 00457fdc     libcurl:transfer.obj
 0002:00003008       ??_C@_0BH@ONNJJKOC@?$CFs?5in?5chunked?9encoding?$AA@ 00458008     libcurl:transfer.obj
 0002:00003020       ??_C@_0CJ@LNLGBBHG@Leftovers?5after?5chunking?3?5?$CF?5I64d@ 00458020     libcurl:transfer.obj
 0002:00003050       ??_C@_0FM@BBNOIMMG@Excess?5found?5in?5a?5read?3?5excess?5?$DN@ 00458050     libcurl:transfer.obj
 0002:000030ac       ??_C@_0DJ@GJLMKBJF@we?5are?5done?5reading?5and?5this?5is?5@ 004580ac     libcurl:transfer.obj
 0002:000030e8       ??_C@_0CA@FDBKFCML@Failed?5to?5alloc?5scratch?5buffer?$CB?$AA@ 004580e8     libcurl:transfer.obj
 0002:00003108       ??_C@_0CF@KMDHNAMD@We?5are?5completely?5uploaded?5and?5f@ 00458108     libcurl:transfer.obj
 0002:00003130       ??_C@_0BL@EMJDLKIE@select?1poll?5returned?5error?$AA@ 00458130     libcurl:transfer.obj
 0002:0000314c       ??_C@_0BP@GGMDICAN@Done?5waiting?5for?5100?9continue?6?$AA@ 0045814c     libcurl:transfer.obj
 0002:0000316c       ??_C@_0DD@EDBBFLBK@transfer?5closed?5with?5?$CFI64d?5bytes@ 0045816c     libcurl:transfer.obj
 0002:000031a0       ??_C@_0DF@NKPPDLKD@transfer?5closed?5with?5outstanding@ 004581a0     libcurl:transfer.obj
 0002:000031d8       ??_C@_0M@BHCFJOKI@No?5URL?5set?$CB?$AA@ 004581d8     libcurl:transfer.obj
 0002:000031e4       ??_C@_0BB@CAJCOHBO@User?9Agent?3?5?$CFs?$AN?6?$AA@ 004581e4     libcurl:transfer.obj
 0002:000031f8       ??_C@_0CB@MELNCDNE@Maximum?5?$CI?$CFld?$CJ?5redirects?5followed@ 004581f8     libcurl:transfer.obj
 0002:0000321c       ??_C@_0CJ@KJEMPLIM@Issue?5another?5request?5to?5this?5UR@ 0045821c     libcurl:transfer.obj
 0002:00003248       ??_C@_0BJ@HBHELCBA@Switch?5from?5POST?5to?5GET?6?$AA@ 00458248     libcurl:transfer.obj
 0002:00003264       ??_C@_0O@HGEEJMOP@Switch?5to?5?$CFs?6?$AA@ 00458264     libcurl:transfer.obj
 0002:00003274       ??_C@_0CK@CDCMFBLO@REFUSED_STREAM?0?5retrying?5a?5fresh@ 00458274     libcurl:transfer.obj
 0002:000032a0       ??_C@_0DB@JBFLNIDB@Connection?5died?0?5tried?5?$CFd?5times?5@ 004582a0     libcurl:transfer.obj
 0002:000032d4       ??_C@_0DM@GDKKDADD@Connection?5died?0?5retrying?5a?5fres@ 004582d4     libcurl:transfer.obj
 0002:00003310       ??_C@_08JGCGJPK@?9?9?3?9?9?3?9?9?$AA@ 00458310     libcurl:progress.obj
 0002:0000331c       ??_C@_0BH@DDKMEPEA@?$CF2I64d?3?$CF02I64d?3?$CF02I64d?$AA@ 0045831c     libcurl:progress.obj
 0002:00003334       ??_C@_0BB@HBEGKPFM@?$CF3I64dd?5?$CF02I64dh?$AA@ 00458334     libcurl:progress.obj
 0002:00003348       ??_C@_07HBLPGDFD@?$CF7I64dd?$AA@ 00458348     libcurl:progress.obj
 0002:00003350       ??_C@_06JPBNOAO@?$CF5I64d?$AA@ 00458350     libcurl:progress.obj
 0002:00003358       ??_C@_07MHMPGFAB@?$CF4I64dk?$AA@ 00458358     libcurl:progress.obj
 0002:00003360       ??_C@_0P@HINFNDLG@?$CF2I64d?4?$CF0I64dM?$AA@ 00458360     libcurl:progress.obj
 0002:00003370       ??_C@_07EBBOGCF@?$CF4I64dM?$AA@ 00458370     libcurl:progress.obj
 0002:00003378       ??_C@_0P@ICDKDLDM@?$CF2I64d?4?$CF0I64dG?$AA@ 00458378     libcurl:progress.obj
 0002:00003388       ??_C@_07POPOAOKP@?$CF4I64dG?$AA@ 00458388     libcurl:progress.obj
 0002:00003390       ??_C@_07JPBBEPDN@?$CF4I64dT?$AA@ 00458390     libcurl:progress.obj
 0002:00003398       ??_C@_07PLHNIKDJ@?$CF4I64dP?$AA@ 00458398     libcurl:progress.obj
 0002:000033a0       ??_C@_0CP@JLABFKHL@?$CK?$CK?5Resuming?5transfer?5from?5byte?5p@ 004583a0     libcurl:progress.obj
 0002:000033d0       ??_C@_0KC@DNGKHLLM@?5?5?$CF?$CF?5Total?5?5?5?5?$CF?$CF?5Received?5?$CF?$CF?5Xfe@ 004583d0     libcurl:progress.obj
 0002:00003474       ??_C@_0DF@JLDNJIPD@?$AN?$CF3I64d?5?$CFs?5?5?$CF3I64d?5?$CFs?5?5?$CF3I64d?5?$CFs@ 00458474     libcurl:progress.obj
 0002:000034ac       ??_C@_0BB@GAJGHPCC@Callback?5aborted?$AA@ 004584ac     libcurl:progress.obj
 0002:000034c0       __real@408f400000000000    004584c0     libcurl:progress.obj
 0002:000034c8       ??_C@_0EN@COANIBDN@Operation?5too?5slow?4?5Less?5than?5?$CFl@ 004584c8     libcurl:speedcheck.obj
 0002:00003518       ??_C@_0BK@PNKMNPKO@allocate?5connect?5buffer?$CB?6?$AA@ 00458518     libcurl:http_proxy.obj
 0002:00003534       ??_C@_0BK@OHJCNBEA@CONNECT?5phase?5completed?$CB?6?$AA@ 00458534     libcurl:http_proxy.obj
 0002:00003550       ??_C@_09FJKLDKHO@?$CFs?$CFs?$CFs?3?$CFd?$AA@ 00458550     libcurl:http_proxy.obj
 0002:0000355c       ??_C@_0L@LAAIKCML@Host?3?5?$CFs?$AN?6?$AA@ 0045855c     libcurl:http_proxy.obj
 0002:00003568       ??_C@_0CG@JIEEDFAF@Establish?5HTTP?5proxy?5tunnel?5to?5?$CF@ 00458568     libcurl:http_proxy.obj
 0002:00003590       ??_C@_07FNNMGOPK@CONNECT?$AA@ 00458590     libcurl:http_proxy.obj
 0002:00003598       ??_C@_0BN@HGHMBOED@CONNECT?5?$CFs?5HTTP?1?$CFs?$AN?6?$CFs?$CFs?$CFs?$CFs?$AA@ 00458598     libcurl:http_proxy.obj
 0002:000035b8       ??_C@_0CA@KCBNIFEI@Failed?5sending?5CONNECT?5to?5proxy?$AA@ 004585b8     libcurl:http_proxy.obj
 0002:000035d8       ??_C@_0CF@KOLJOBP@Proxy?5CONNECT?5aborted?5due?5to?5tim@ 004585d8     libcurl:http_proxy.obj
 0002:00003600       ??_C@_0CB@DICNFOOE@Proxy?5CONNECT?5connection?5closed?6@ 00458600     libcurl:http_proxy.obj
 0002:00003624       ??_C@_0BG@JFLKGDIG@Proxy?5CONNECT?5aborted?$AA@ 00458624     libcurl:http_proxy.obj
 0002:0000363c       ??_C@_0BE@LIFOKNAI@chunk?5reading?5DONE?6?$AA@ 0045863c     libcurl:http_proxy.obj
 0002:00003650       ??_C@_0BM@LDKBIKH@CONNECT?5response?5too?5large?$CB?$AA@ 00458650     libcurl:http_proxy.obj
 0002:0000366c       ??_C@_0CF@EGEEKEED@Ignore?5?$CFI64d?5bytes?5of?5response?9b@ 0045866c     libcurl:http_proxy.obj
 0002:00003694       ??_C@_0BO@ECLLDHEE@Ignore?5chunked?5response?9body?6?$AA@ 00458694     libcurl:http_proxy.obj
 0002:000036b4       ??_C@_0DC@KNKBLKEG@Ignoring?5Content?9Length?5in?5CONNE@ 004586b4     libcurl:http_proxy.obj
 0002:000036e8       ??_C@_0DF@HKNKCFIL@Ignoring?5Transfer?9Encoding?5in?5CO@ 004586e8     libcurl:http_proxy.obj
 0002:00003720       ??_C@_0BL@FDNFJOM@CONNECT?5responded?5chunked?6?$AA@ 00458720     libcurl:http_proxy.obj
 0002:0000373c       ??_C@_0N@HGFACOOI@HTTP?11?4?$CFd?5?$CFd?$AA@ 0045873c     libcurl:http_proxy.obj
 0002:0000374c       ??_C@_0BJ@KOKGPDEF@Connect?5me?5again?5please?6?$AA@ 0045874c     libcurl:http_proxy.obj
 0002:00003768       ??_C@_0CP@GIFMMFLA@Received?5HTTP?5code?5?$CFd?5from?5proxy@ 00458768     libcurl:http_proxy.obj
 0002:00003798       ??_C@_0CF@LHCLBLEC@Proxy?5replied?5?$CFd?5to?5CONNECT?5requ@ 00458798     libcurl:http_proxy.obj
 0002:000037c0       ??_C@_01MCMALHOG@a?$AA@    004587c0     libcurl:socks.obj
 0002:000037c4       ??_C@_0CP@GODCGMBP@SOCKS4?$CFs?3?5connecting?5to?5HTTP?5pro@ 004587c4     libcurl:socks.obj
 0002:000037f4       ??_C@_0BP@BFLNLLPD@SOCKS4?5communication?5to?5?$CFs?3?$CFd?6?$AA@ 004587f4     libcurl:socks.obj
 0002:00003814       ??_C@_0CD@BBPIICAB@SOCKS4?5non?9blocking?5resolve?5of?5?$CF@ 00458814     libcurl:socks.obj
 0002:00003838       ??_C@_0BJ@HAGKBMCP@Hostname?5?8?$CFs?8?5was?5found?6?$AA@ 00458838     libcurl:socks.obj
 0002:00003854       ??_C@_0CO@JJCMGPBJ@SOCKS4?5connect?5to?5IPv4?5?$CFs?5?$CIlocal@ 00458854     libcurl:socks.obj
 0002:00003884       ??_C@_0CG@NKAIHKN@SOCKS4?5connection?5to?5?$CFs?5not?5supp@ 00458884     libcurl:socks.obj
 0002:000038ac       ??_C@_0CL@BDNFEDCD@Failed?5to?5resolve?5?$CC?$CFs?$CC?5for?5SOCKS@ 004588ac     libcurl:socks.obj
 0002:000038d8       ??_C@_0CL@MCOGLIGC@Too?5long?5SOCKS?5proxy?5user?5name?0?5@ 004588d8     libcurl:socks.obj
 0002:00003904       ??_C@_0BL@JJKDFGHD@SOCKS4?3?5too?5long?5host?5name?$AA@ 00458904     libcurl:socks.obj
 0002:00003920       ??_C@_0CH@MHLMDCGL@Failed?5to?5send?5SOCKS4?5connect?5re@ 00458920     libcurl:socks.obj
 0002:00003948       ??_C@_0DB@OIJFDGGK@SOCKS4?3?5Failed?5receiving?5connect@ 00458948     libcurl:socks.obj
 0002:0000397c       ??_C@_0BL@EDONHKIC@connection?5to?5proxy?5closed?$AA@ 0045897c     libcurl:socks.obj
 0002:00003998       ??_C@_0DF@PDFOFKGI@SOCKS4?5reply?5has?5wrong?5version?0?5@ 00458998     libcurl:socks.obj
 0002:000039d0       ??_C@_0BL@KEGECNIK@SOCKS4?$CFs?5request?5granted?4?6?$AA@ 004589d0     libcurl:socks.obj
 0002:000039f0       ??_C@_0FG@CLNHBPIC@Can?8t?5complete?5SOCKS4?5connection@ 004589f0     libcurl:socks.obj
 0002:00003a48       ??_C@_0II@IBODGEP@Can?8t?5complete?5SOCKS4?5connection@ 00458a48     libcurl:socks.obj
 0002:00003ad0       ??_C@_0IM@JGJMKCMN@Can?8t?5complete?5SOCKS4?5connection@ 00458ad0     libcurl:socks.obj
 0002:00003b60       ??_C@_0ED@LEIEKNLE@Can?8t?5complete?5SOCKS4?5connection@ 00458b60     libcurl:socks.obj
 0002:00003bc8       ??_C@_0CN@HPHFPLLC@SOCKS5?3?5connecting?5to?5HTTP?5proxy@ 00458bc8     libcurl:socks.obj
 0002:00003bf8       ??_C@_0FC@NMNHLDOO@SOCKS5?3?5server?5resolving?5disable@ 00458bf8     libcurl:socks.obj
 0002:00003c4c       ??_C@_0DP@BIGHPBCP@warning?3?5unsupported?5value?5passe@ 00458c4c     libcurl:socks.obj
 0002:00003c8c       ??_C@_0CH@GMDFCCKK@Unable?5to?5send?5initial?5SOCKS5?5re@ 00458c8c     libcurl:socks.obj
 0002:00003cb4       ??_C@_0CL@JAKJLHBC@Unable?5to?5receive?5initial?5SOCKS5@ 00458cb4     libcurl:socks.obj
 0002:00003ce0       ??_C@_0BL@PPAECMCI@Connection?5to?5proxy?5closed?$AA@ 00458ce0     libcurl:socks.obj
 0002:00003cfc       ??_C@_0DF@KPPCOMKD@Received?5invalid?5version?5in?5init@ 00458cfc     libcurl:socks.obj
 0002:00003d34       ??_C@_0DL@FCEPENBN@SOCKS5?5GSSAPI?5per?9message?5authen@ 00458d34     libcurl:socks.obj
 0002:00003d70       ??_C@_0CJ@CHHGJDNO@No?5authentication?5method?5was?5acc@ 00458d70     libcurl:socks.obj
 0002:00003d9c       ??_C@_0DJ@GEDKBFPH@Undocumented?5SOCKS5?5mode?5attempt@ 00458d9c     libcurl:socks.obj
 0002:00003dd8       ??_C@_0CK@NCDGADEO@Excessive?5user?5name?5length?5for?5p@ 00458dd8     libcurl:socks.obj
 0002:00003e04       ??_C@_0CJ@LKBHCEIE@Excessive?5password?5length?5for?5pr@ 00458e04     libcurl:socks.obj
 0002:00003e30       ??_C@_0CP@CMDGNMCE@Failed?5to?5send?5SOCKS5?5sub?9negoti@ 00458e30     libcurl:socks.obj
 0002:00003e60       ??_C@_0DD@BOLKPAMM@Unable?5to?5receive?5SOCKS5?5sub?9neg@ 00458e60     libcurl:socks.obj
 0002:00003e94       ??_C@_0DA@CLHHICIG@User?5was?5rejected?5by?5the?5SOCKS5?5@ 00458e94     libcurl:socks.obj
 0002:00003ec4       ??_C@_0BN@BFPKMOIA@SOCKS5?3?5hostname?5?8?$CFs?8?5found?6?$AA@ 00458ec4     libcurl:socks.obj
 0002:00003ee4       ??_C@_0CL@NCFLJMOD@Failed?5to?5resolve?5?$CC?$CFs?$CC?5for?5SOCKS@ 00458ee4     libcurl:socks.obj
 0002:00003f10       ??_C@_03HODKBCIO@?3?$CFd?$AA@ 00458f10     libcurl:socks.obj
 0002:00003f14       ??_C@_0CO@HBDLPPLI@SOCKS5?5connect?5to?5IPv4?5?$CFs?5?$CIlocal@ 00458f14     libcurl:socks.obj
 0002:00003f44       ??_C@_0CO@OBFNNJOF@SOCKS5?5connect?5to?5IPv6?5?$CFs?5?$CIlocal@ 00458f44     libcurl:socks.obj
 0002:00003f74       ??_C@_0CG@DLFCBHFO@SOCKS5?5connection?5to?5?$CFs?5not?5supp@ 00458f74     libcurl:socks.obj
 0002:00003f9c       ??_C@_0CN@FPICFOPM@SOCKS5?5connect?5to?5?$CFs?3?$CFd?5?$CIremotel@ 00458f9c     libcurl:socks.obj
 0002:00003fcc       ??_C@_0CH@BAFOLCDD@Failed?5to?5send?5SOCKS5?5connect?5re@ 00458fcc     libcurl:socks.obj
 0002:00003ff4       ??_C@_0CO@HHLOPEDO@Failed?5to?5receive?5SOCKS5?5connect@ 00458ff4     libcurl:socks.obj
 0002:00004024       ??_C@_0DF@MICEHEFP@SOCKS5?5reply?5has?5wrong?5version?0?5@ 00459024     libcurl:socks.obj
 0002:0000405c       ??_C@_0CN@LLAFNAAA@Can?8t?5complete?5SOCKS5?5connection@ 0045905c     libcurl:socks.obj
 0002:0000408c       ??_C@_0CF@NJGGJEDC@SOCKS5?5reply?5has?5wrong?5address?5t@ 0045908c     libcurl:socks.obj
 0002:000040b4       ??_C@_0BJ@DJFGPDDE@SOCKS5?5request?5granted?4?6?$AA@ 004590b4     libcurl:socks.obj
 0002:00004130       ??_C@_03PDPKDIOM@I32?$AA@  00459130     libcurl:mprintf.obj
 0002:00004134       ??_C@_03KDGLFNIB@I64?$AA@  00459134     libcurl:mprintf.obj
 0002:00004138       ??_C@_03JALODAI@?$CFld?$AA@ 00459138     libcurl:mprintf.obj
 0002:0000413c       ??_C@_04JAJMFKGM@?4?$CFld?$AA@ 0045913c     libcurl:mprintf.obj
 0002:00004148       __real@4024000000000000    00459148     libcurl:mprintf.obj
 0002:00004188       _Curl_wkday                00459188     libcurl:parsedate.obj
 0002:000041a4       _Curl_month                004591a4     libcurl:parsedate.obj
 0002:0000455c       ??_C@_03PDAGKDH@Mon?$AA@   0045955c     libcurl:parsedate.obj
 0002:00004560       ??_C@_03NAGEINEP@Tue?$AA@  00459560     libcurl:parsedate.obj
 0002:00004564       ??_C@_03MHOMLAJA@Wed?$AA@  00459564     libcurl:parsedate.obj
 0002:00004568       ??_C@_03IOFIKPDN@Thu?$AA@  00459568     libcurl:parsedate.obj
 0002:0000456c       ??_C@_03IDIOELNC@Fri?$AA@  0045956c     libcurl:parsedate.obj
 0002:00004570       ??_C@_03FEFJNEK@Sat?$AA@   00459570     libcurl:parsedate.obj
 0002:00004574       ??_C@_03KOEHGMDN@Sun?$AA@  00459574     libcurl:parsedate.obj
 0002:00004578       ??_C@_03JIHJHPIE@Jan?$AA@  00459578     libcurl:parsedate.obj
 0002:0000457c       ??_C@_03HJBDCHOM@Feb?$AA@  0045957c     libcurl:parsedate.obj
 0002:00004580       ??_C@_03ODNJBKGA@Mar?$AA@  00459580     libcurl:parsedate.obj
 0002:00004584       ??_C@_03LEOLGMJP@Apr?$AA@  00459584     libcurl:parsedate.obj
 0002:00004588       ??_C@_03CNMDKL@May?$AA@    00459588     libcurl:parsedate.obj
 0002:0000458c       ??_C@_03IDFGHECI@Jun?$AA@  0045958c     libcurl:parsedate.obj
 0002:00004590       ??_C@_03LBGABGKK@Jul?$AA@  00459590     libcurl:parsedate.obj
 0002:00004594       ??_C@_03IFJFEIGA@Aug?$AA@  00459594     libcurl:parsedate.obj
 0002:00004598       ??_C@_03GGCAPAJC@Sep?$AA@  00459598     libcurl:parsedate.obj
 0002:0000459c       ??_C@_03BMAOKBAD@Oct?$AA@  0045959c     libcurl:parsedate.obj
 0002:000045a0       ??_C@_03JPJOFNIA@Nov?$AA@  004595a0     libcurl:parsedate.obj
 0002:000045a4       ??_C@_03MKABNOCG@Dec?$AA@  004595a4     libcurl:parsedate.obj
 0002:000045a8       ??_C@_06JLEDEDGH@Monday?$AA@ 004595a8     libcurl:parsedate.obj
 0002:000045b0       ??_C@_07BAAGCFCM@Tuesday?$AA@ 004595b0     libcurl:parsedate.obj
 0002:000045b8       ??_C@_09DLIGFAKA@Wednesday?$AA@ 004595b8     libcurl:parsedate.obj
 0002:000045c4       ??_C@_08HACCIKIA@Thursday?$AA@ 004595c4     libcurl:parsedate.obj
 0002:000045d0       ??_C@_06JECMNKMI@Friday?$AA@ 004595d0     libcurl:parsedate.obj
 0002:000045d8       ??_C@_08INBOOONO@Saturday?$AA@ 004595d8     libcurl:parsedate.obj
 0002:000045e4       ??_C@_06OOPIFAJ@Sunday?$AA@ 004595e4     libcurl:parsedate.obj
 0002:000045ec       ??_C@_0DK@DJOHIPMC@?$CF31?$FLABCDEFGHIJKLMNOPQRSTUVWXYZab@ 004595ec     libcurl:parsedate.obj
 0002:00004628       ??_C@_0BB@DDKNHMEG@?$CF02d?3?$CF02d?3?$CF02d?$CFn?$AA@ 00459628     libcurl:parsedate.obj
 0002:0000463c       ??_C@_0M@GGPEELHK@?$CF02d?3?$CF02d?$CFn?$AA@ 0045963c     libcurl:parsedate.obj
 0002:00004648       ??_C@_0CB@GKOJBLCO@WARNING?3?5Using?5weak?5random?5seed?6@ 00459648     libcurl:rand.obj
 0002:0000466c       ??_C@_0BB@JCEFLFJE@0123456789abcdef?$AA@ 0045966c     libcurl:rand.obj
 0002:00004680       _Curl_handler_gopher       00459680     libcurl:gopher.obj
 0002:000046cc       ??_C@_06IFFOBMCL@GOPHER?$AA@ 004596cc     libcurl:gopher.obj
 0002:000046d4       ??_C@_0BO@PBGBECFJ@Failed?5sending?5Gopher?5request?$AA@ 004596d4     libcurl:gopher.obj
 0002:000046f4       ??_C@_04MOKDAIJJ@IMAP?$AA@ 004596f4     libcurl:imap.obj
 0002:00004720       _Curl_handler_imap         00459720     libcurl:imap.obj
 0002:0000476c       ??_C@_04CJJOKOB@imap?$AA@  0045976c     libcurl:imap.obj
 0002:00004774       ??_C@_02GIPFHKNO@OK?$AA@   00459774     libcurl:imap.obj
 0002:00004778       ??_C@_0L@LNNPCDBM@CAPABILITY?$AA@ 00459778     libcurl:imap.obj
 0002:00004784       ??_C@_04PCOPKCKE@LIST?$AA@ 00459784     libcurl:imap.obj
 0002:0000478c       ??_C@_05CIPFEEPL@STORE?$AA@ 0045978c     libcurl:imap.obj
 0002:00004794       ??_C@_05JDMAOHF@FETCH?$AA@ 00459794     libcurl:imap.obj
 0002:0000479c       ??_C@_06LCPJPOPK@SELECT?$AA@ 0045979c     libcurl:imap.obj
 0002:000047a4       ??_C@_07JOOLACMD@EXAMINE?$AA@ 004597a4     libcurl:imap.obj
 0002:000047ac       ??_C@_06GBNAAIDA@SEARCH?$AA@ 004597ac     libcurl:imap.obj
 0002:000047b4       ??_C@_07JEPHAMII@EXPUNGE?$AA@ 004597b4     libcurl:imap.obj
 0002:000047bc       ??_C@_04NFFONMDK@LSUB?$AA@ 004597bc     libcurl:imap.obj
 0002:000047c4       ??_C@_03MJDGODDN@UID?$AA@  004597c4     libcurl:imap.obj
 0002:000047c8       ??_C@_04NMBEDBAI@NOOP?$AA@ 004597c8     libcurl:imap.obj
 0002:000047d0       ??_C@_0CB@FHOJFP@Unexpected?5continuation?5response@ 004597d0     libcurl:imap.obj
 0002:000047f4       ??_C@_08EBJFDHCC@STARTTLS?$AA@ 004597f4     libcurl:imap.obj
 0002:00004800       ??_C@_0M@HKLLGBJE@LOGIN?5?$CFs?5?$CFs?$AA@ 00459800     libcurl:imap.obj
 0002:0000480c       ??_C@_0BD@HAAFOLAI@AUTHENTICATE?5?$CFs?5?$CFs?$AA@ 0045980c     libcurl:imap.obj
 0002:00004820       ??_C@_0BA@MBJBMJEE@AUTHENTICATE?5?$CFs?$AA@ 00459820     libcurl:imap.obj
 0002:00004830       ??_C@_02DKCKIIND@?$CFs?$AA@ 00459830     libcurl:imap.obj
 0002:00004834       ??_C@_0CP@IMHCGJPM@No?5known?5authentication?5mechanis@ 00459834     libcurl:imap.obj
 0002:00004864       ??_C@_0M@HEIBGALO@LIST?5?$CC?$CFs?$CC?5?$CK?$AA@ 00459864     libcurl:imap.obj
 0002:00004870       ??_C@_0CB@CNPLJHNG@Cannot?5SELECT?5without?5a?5mailbox?4@ 00459870     libcurl:imap.obj
 0002:00004894       ??_C@_09GMKLHBDP@SELECT?5?$CFs?$AA@ 00459894     libcurl:imap.obj
 0002:000048a0       ??_C@_0BK@HINEGIBC@UID?5FETCH?5?$CFs?5BODY?$FL?$CFs?$FN?$DM?$CFs?$DO?$AA@ 004598a0     libcurl:imap.obj
 0002:000048bc       ??_C@_0BG@MFEJGEMK@UID?5FETCH?5?$CFs?5BODY?$FL?$CFs?$FN?$AA@ 004598bc     libcurl:imap.obj
 0002:000048d4       ??_C@_0BG@KDICJLOA@FETCH?5?$CFs?5BODY?$FL?$CFs?$FN?$DM?$CFs?$DO?$AA@ 004598d4     libcurl:imap.obj
 0002:000048ec       ??_C@_0BC@DBBDHOGD@FETCH?5?$CFs?5BODY?$FL?$CFs?$FN?$AA@ 004598ec     libcurl:imap.obj
 0002:00004900       ??_C@_0BM@MDAKNOLA@Cannot?5FETCH?5without?5a?5UID?4?$AA@ 00459900     libcurl:imap.obj
 0002:0000491c       ??_C@_0CB@OJIMGEKK@Cannot?5APPEND?5without?5a?5mailbox?4@ 0045991c     libcurl:imap.obj
 0002:00004940       ??_C@_0N@CMGFLCKF@Mime?9Version?$AA@ 00459940     libcurl:imap.obj
 0002:00004950       ??_C@_0BC@LJLDDNIA@Mime?9Version?3?51?40?$AA@ 00459950     libcurl:imap.obj
 0002:00004964       ??_C@_0CL@KHDECIDD@Cannot?5APPEND?5with?5unknown?5input@ 00459964     libcurl:imap.obj
 0002:00004990       ??_C@_0BK@BLHEIJNH@APPEND?5?$CFs?5?$CI?2Seen?$CJ?5?$HL?$CFI64d?$HN?$AA@ 00459990     libcurl:imap.obj
 0002:000049ac       ??_C@_0CG@GFOCBLJM@Cannot?5SEARCH?5without?5a?5query?5st@ 004599ac     libcurl:imap.obj
 0002:000049d4       ??_C@_09PAMHLMCN@SEARCH?5?$CFs?$AA@ 004599d4     libcurl:imap.obj
 0002:000049e0       ??_C@_06ICDCDPAM@LOGOUT?$AA@ 004599e0     libcurl:imap.obj
 0002:000049e8       ??_C@_0CM@LEKNMHGJ@PREAUTH?5connection?0?5already?5auth@ 004599e8     libcurl:imap.obj
 0002:00004a14       ??_C@_0CE@FKNEKFDD@Got?5unexpected?5imap?9server?5respo@ 00459a14     libcurl:imap.obj
 0002:00004a38       ??_C@_0O@MEFIGCNE@LOGINDISABLED?$AA@ 00459a38     libcurl:imap.obj
 0002:00004a48       ??_C@_05CKMEMLBN@AUTH?$DN?$AA@ 00459a48     libcurl:imap.obj
 0002:00004a50       ??_C@_0BI@BIKPOJKH@STARTTLS?5not?5supported?4?$AA@ 00459a50     libcurl:imap.obj
 0002:00004a68       ??_C@_0BA@IKAEMKBM@STARTTLS?5denied?$AA@ 00459a68     libcurl:imap.obj
 0002:00004a78       ??_C@_0BJ@KPCPDCOC@Authentication?5cancelled?$AA@ 00459a78     libcurl:imap.obj
 0002:00004a94       ??_C@_0BC@GNMNACJK@Access?5denied?4?5?$CFc?$AA@ 00459a94     libcurl:imap.obj
 0002:00004aa8       ??_C@_0CB@HHPEICDC@OK?5?$FLUIDVALIDITY?5?$CF19?$FL0123456789?$FN?$FN@ 00459aa8     libcurl:imap.obj
 0002:00004acc       ??_C@_0CA@GGNJMECP@Mailbox?5UIDVALIDITY?5has?5changed?$AA@ 00459acc     libcurl:imap.obj
 0002:00004aec       ??_C@_0O@IFFBAKPD@Select?5failed?$AA@ 00459aec     libcurl:imap.obj
 0002:00004afc       ??_C@_0BP@GLMKNCNJ@Found?5?$CFI64d?5bytes?5to?5download?6?$AA@ 00459afc     libcurl:imap.obj
 0002:00004b1c       ??_C@_0DG@HDINJNJA@Written?5?$CFzu?5bytes?0?5?$CFI64u?5bytes?5a@ 00459b1c     libcurl:imap.obj
 0002:00004b54       ??_C@_0CA@GCPCMMJK@Failed?5to?5parse?5FETCH?5response?4?$AA@ 00459b54     libcurl:imap.obj
 0002:00004b74       ??_C@_06KPMAOGPB@?$CFc?$CF03d?$AA@ 00459b74     libcurl:imap.obj
 0002:00004b7c       ??_C@_05DNIIFBMG@?$CFs?5?$CFs?$AA@ 00459b7c     libcurl:imap.obj
 0002:00004b84       ??_C@_07OHGMEIBP@?$CI?$CJ?$HL?5?$CF?$CK?$FN?$AA@ 00459b84     libcurl:imap.obj
 0002:00004b8c       ??_C@_0M@BOIGKDFF@UIDVALIDITY?$AA@ 00459b8c     libcurl:imap.obj
 0002:00004b98       ??_C@_09NEHACAIH@MAILINDEX?$AA@ 00459b98     libcurl:imap.obj
 0002:00004ba4       ??_C@_07OADICAGF@SECTION?$AA@ 00459ba4     libcurl:imap.obj
 0002:00004bac       ??_C@_07GKNKJNCD@PARTIAL?$AA@ 00459bac     libcurl:imap.obj
 0002:00004bb4       ??_C@_04FKGOMEMC@POP3?$AA@ 00459bb4     libcurl:pop3.obj
 0002:00004be0       _Curl_handler_pop3         00459be0     libcurl:pop3.obj
 0002:00004c2c       ??_C@_03NJDAHFJE@pop?$AA@  00459c2c     libcurl:pop3.obj
 0002:00004c30       ??_C@_04IAPIEFNH@CAPA?$AA@ 00459c30     libcurl:pop3.obj
 0002:00004c38       ??_C@_04OKBHFPDP@STLS?$AA@ 00459c38     libcurl:pop3.obj
 0002:00004c40       ??_C@_07BCMGCIGK@USER?5?$CFs?$AA@ 00459c40     libcurl:pop3.obj
 0002:00004c48       ??_C@_04NOJCDH@?$CF02x?$AA@ 00459c48     libcurl:pop3.obj
 0002:00004c50       ??_C@_0L@NCKPAHGC@APOP?5?$CFs?5?$CFs?$AA@ 00459c50     libcurl:pop3.obj
 0002:00004c5c       ??_C@_0L@LFENDKBE@AUTH?5?$CFs?5?$CFs?$AA@ 00459c5c     libcurl:pop3.obj
 0002:00004c68       ??_C@_07GLDNHMJM@AUTH?5?$CFs?$AA@ 00459c68     libcurl:pop3.obj
 0002:00004c70       ??_C@_04DEPMIFPM@RETR?$AA@ 00459c70     libcurl:pop3.obj
 0002:00004c78       ??_C@_04GBOBDPBG@QUIT?$AA@ 00459c78     libcurl:pop3.obj
 0002:00004c80       ??_C@_0CE@PFHNFNOL@Got?5unexpected?5pop3?9server?5respo@ 00459c80     libcurl:pop3.obj
 0002:00004ca4       ??_C@_0BE@NGBFBFLB@STLS?5not?5supported?4?$AA@ 00459ca4     libcurl:pop3.obj
 0002:00004cb8       ??_C@_0BK@FLOCGBM@Authentication?5failed?3?5?$CFd?$AA@ 00459cb8     libcurl:pop3.obj
 0002:00004cd4       ??_C@_07ECIIGDNP@PASS?5?$CFs?$AA@ 00459cd4     libcurl:pop3.obj
 0002:00004cdc       ??_C@_05EMLFECFL@?$CLAPOP?$AA@ 00459cdc     libcurl:pop3.obj
 0002:00004ce4       ??_C@_05KMJPGPH@?$AN?6?4?$AN?6?$AA@ 00459ce4     libcurl:pop3.obj
 0002:00004cec       ??_C@_04POBOOGCB@SMTP?$AA@ 00459cec     libcurl:smtp.obj
 0002:00004d18       _Curl_handler_smtp         00459d18     libcurl:smtp.obj
 0002:00004d64       ??_C@_04DCCEAEFJ@smtp?$AA@ 00459d64     libcurl:smtp.obj
 0002:00004d6c       ??_C@_07LENLNDIO@EHLO?5?$CFs?$AA@ 00459d6c     libcurl:smtp.obj
 0002:00004d74       ??_C@_07EOAJKHJP@HELO?5?$CFs?$AA@ 00459d74     libcurl:smtp.obj
 0002:00004d7c       ??_C@_09KGGPGOEC@?5SMTPUTF8?$AA@ 00459d7c     libcurl:smtp.obj
 0002:00004d88       ??_C@_01EOFPKCAF@?$EA?$AA@ 00459d88     libcurl:smtp.obj
 0002:00004d8c       ??_C@_0O@LLBOEPLL@VRFY?5?$CFs?$CFs?$CFs?$CFs?$AA@ 00459d8c     libcurl:smtp.obj
 0002:00004d9c       ??_C@_04KFDBLEKN@EXPN?$AA@ 00459d9c     libcurl:smtp.obj
 0002:00004da4       ??_C@_07LLFIICBM@?$CFs?5?$CFs?$CFs?$AA@ 00459da4     libcurl:smtp.obj
 0002:00004dac       ??_C@_04DOKPJKJF@HELP?$AA@ 00459dac     libcurl:smtp.obj
 0002:00004db4       ??_C@_07IAOBMFMB@?$DM?$CFs?$EA?$CFs?$DO?$AA@ 00459db4     libcurl:smtp.obj
 0002:00004dbc       ??_C@_04NNJCMPBN@?$DM?$CFs?$DO?$AA@ 00459dbc     libcurl:smtp.obj
 0002:00004dc4       ??_C@_02GMAKCBGE@?$DM?$DO?$AA@ 00459dc4     libcurl:smtp.obj
 0002:00004dc8       ??_C@_05LLAMLEHD@?$CFI64d?$AA@ 00459dc8     libcurl:smtp.obj
 0002:00004dd0       ??_C@_06MKNOLBCP@?5SIZE?$DN?$AA@ 00459dd0     libcurl:smtp.obj
 0002:00004dd8       ??_C@_06MJNHIMFM@?5AUTH?$DN?$AA@ 00459dd8     libcurl:smtp.obj
 0002:00004de0       ??_C@_0BH@CCDJIIDH@MAIL?5FROM?3?$CFs?$CFs?$CFs?$CFs?$CFs?$CFs?$AA@ 00459de0     libcurl:smtp.obj
 0002:00004df8       ??_C@_0BA@HHMHFILL@RCPT?5TO?3?$DM?$CFs?$EA?$CFs?$DO?$AA@ 00459df8     libcurl:smtp.obj
 0002:00004e08       ??_C@_0N@LGJBDMGK@RCPT?5TO?3?$DM?$CFs?$DO?$AA@ 00459e08     libcurl:smtp.obj
 0002:00004e18       ??_C@_0CI@FJFEAKAL@Got?5unexpected?5smtp?9server?5respo@ 00459e18     libcurl:smtp.obj
 0002:00004e40       ??_C@_0BJ@EDGODDHJ@STARTTLS?5denied?0?5code?5?$CFd?$AA@ 00459e40     libcurl:smtp.obj
 0002:00004e5c       ??_C@_0BJ@DNMHCFHF@Remote?5access?5denied?3?5?$CFd?$AA@ 00459e5c     libcurl:smtp.obj
 0002:00004e78       ??_C@_0CB@HKFOBCB@Unexpectedly?5short?5EHLO?5response@ 00459e78     libcurl:smtp.obj
 0002:00004e9c       ??_C@_0BD@COCKJOPI@Command?5failed?3?5?$CFd?$AA@ 00459e9c     libcurl:smtp.obj
 0002:00004eb0       ??_C@_0BA@FIAGOBAE@MAIL?5failed?3?5?$CFd?$AA@ 00459eb0     libcurl:smtp.obj
 0002:00004ec0       ??_C@_0BA@LOKNLPKK@RCPT?5failed?3?5?$CFd?$AA@ 00459ec0     libcurl:smtp.obj
 0002:00004ed0       ??_C@_0BN@DILLHMBG@RCPT?5failed?3?5?$CFd?5?$CIlast?5error?$CJ?$AA@ 00459ed0     libcurl:smtp.obj
 0002:00004ef0       ??_C@_04DFNBDBBL@DATA?$AA@ 00459ef0     libcurl:smtp.obj
 0002:00004ef8       ??_C@_0BA@BDBJMDJD@DATA?5failed?3?5?$CFd?$AA@ 00459ef8     libcurl:smtp.obj
 0002:00004f08       ??_C@_04JHCEEOPB@?$AN?6?4?4?$AA@ 00459f08     libcurl:smtp.obj
 0002:00004f10       ??_C@_0BJ@NPJPFJML@?$CF04d?$CF02d?$CF02d?$CF02d?$CF02d?$CF02d?$AA@ 00459f10     libcurl:ftp.obj
 0002:00004f2c       ??_C@_0CA@CJAAICLH@?$CF04d?$CF02d?$CF02d?5?$CF02d?3?$CF02d?3?$CF02d?5GMT?$AA@ 00459f2c     libcurl:ftp.obj
 0002:00004f4c       ??_C@_0DE@GKBAFMFA@Last?9Modified?3?5?$CFs?0?5?$CF02d?5?$CFs?5?$CF4d?5?$CF@ 00459f4c     libcurl:ftp.obj
 0002:00004f80       ??_C@_0BP@EOJCADGH@unsupported?5MDTM?5reply?5format?6?$AA@ 00459f80     libcurl:ftp.obj
 0002:00004fa0       ??_C@_0BK@JLENJKNN@Given?5file?5does?5not?5exist?$AA@ 00459fa0     libcurl:ftp.obj
 0002:00004fbc       ??_C@_0BK@LIEJIOFD@Skipping?5time?5comparison?6?$AA@ 00459fbc     libcurl:ftp.obj
 0002:00004fd8       ??_C@_0BK@DEMDJAEI@Couldn?8t?5set?5desired?5mode?$AA@ 00459fd8     libcurl:ftp.obj
 0002:00004ff4       ??_C@_0DF@NIKHFCK@Got?5a?5?$CF03d?5response?5code?5instead@ 00459ff4     libcurl:ftp.obj
 0002:0000502c       ??_C@_0CB@IDOEMMGJ@ftp?5server?5doesn?8t?5support?5SIZE?6@ 0045a02c     libcurl:ftp.obj
 0002:00005050       ??_C@_0CM@HFMKHHME@Offset?5?$CI?$CFI64d?$CJ?5was?5beyond?5file?5s@ 0045a050     libcurl:ftp.obj
 0002:0000507c       ??_C@_0CE@DDNCLNDJ@File?5already?5completely?5download@ 0045a07c     libcurl:ftp.obj
 0002:000050a0       ??_C@_0CO@NFEHDDGP@Instructs?5server?5to?5resume?5from?5@ 0045a0a0     libcurl:ftp.obj
 0002:000050d0       ??_C@_0L@GMAGLFCO@REST?5?$CFI64d?$AA@ 0045a0d0     libcurl:ftp.obj
 0002:000050dc       ??_C@_0BI@DFLKJFAC@The?5file?5does?5not?5exist?$AA@ 0045a0dc     libcurl:ftp.obj
 0002:000050f4       ??_C@_0BH@OONDMNFK@Accept?9ranges?3?5bytes?$AN?6?$AA@ 0045a0f4     libcurl:ftp.obj
 0002:0000510c       ??_C@_0BC@MLOKPHOJ@Couldn?8t?5use?5REST?$AA@ 0045a10c     libcurl:ftp.obj
 0002:00005120       ??_C@_0BH@NAGIDHLA@Failed?5FTP?5upload?3?5?$CF0d?$AA@ 0045a120     libcurl:ftp.obj
 0002:00005138       ??_C@_0CJ@KNNCCANJ@Data?5conn?5was?5not?5available?5imme@ 0045a138     libcurl:ftp.obj
 0002:00005164       ??_C@_06LCIDCBMH@?5bytes?$AA@ 0045a164     libcurl:ftp.obj
 0002:0000516c       ??_C@_0BF@OJNOJFMB@Maxdownload?5?$DN?5?$CFI64d?6?$AA@ 0045a16c     libcurl:ftp.obj
 0002:00005184       ??_C@_0BP@JBOHHHEF@Getting?5file?5with?5size?3?5?$CFI64d?6?$AA@ 0045a184     libcurl:ftp.obj
 0002:000051a4       ??_C@_0BE@IHDENKLC@RETR?5response?3?5?$CF03d?$AA@ 0045a1a4     libcurl:ftp.obj
 0002:000051b8       ??_C@_07HLPDJPKF@PBSZ?5?$CFd?$AA@ 0045a1b8     libcurl:ftp.obj
 0002:000051c0       ??_C@_03LBMKPMDK@FTP?$AA@  0045a1c0     libcurl:ftp.obj
 0002:000051c4       ??_C@_07NEPAJNMI@ACCT?5?$CFs?$AA@ 0045a1c4     libcurl:ftp.obj
 0002:000051cc       ??_C@_0CC@FIJBPOPC@ACCT?5requested?5but?5none?5availabl@ 0045a1cc     libcurl:ftp.obj
 0002:000051f0       ??_C@_0BE@IDFIDIK@Access?5denied?3?5?$CF03d?$AA@ 0045a1f0     libcurl:ftp.obj
 0002:00005204       ??_C@_0BO@KPCJJKDD@ACCT?5rejected?5by?5server?3?5?$CF03d?$AA@ 0045a204     libcurl:ftp.obj
 0002:00005230       _Curl_handler_ftp          0045a230     libcurl:ftp.obj
 0002:00005294       ??_C@_0CB@MGPFOKOC@Error?5accept?$CI?$CJing?5server?5connect@ 0045a294     libcurl:ftp.obj
 0002:000052b8       ??_C@_0CB@CHFILBBG@Connection?5accepted?5from?5server?6@ 0045a2b8     libcurl:ftp.obj
 0002:000052dc       ??_C@_0BN@OADDFOLF@Checking?5for?5server?5connect?6?$AA@ 0045a2dc     libcurl:ftp.obj
 0002:000052fc       ??_C@_0DF@ECKOGFBG@Accept?5timeout?5occurred?5while?5wa@ 0045a2fc     libcurl:ftp.obj
 0002:00005334       ??_C@_0DI@EHJDBFKM@There?5is?5negative?5response?5in?5ca@ 0045a334     libcurl:ftp.obj
 0002:0000536c       ??_C@_0DF@BCDKPLJO@Got?5a?5?$CF03d?5ftp?9server?5response?5w@ 0045a36c     libcurl:ftp.obj
 0002:000053a4       ??_C@_0CH@IPEAPKCM@Error?5while?5waiting?5for?5server?5c@ 0045a3a4     libcurl:ftp.obj
 0002:000053cc       ??_C@_0CN@DICMJIKG@Ready?5to?5accept?5data?5connection?5@ 0045a3cc     libcurl:ftp.obj
 0002:000053fc       ??_C@_0DA@LIJFNFEC@unsupported?5parameter?5to?5CURLOPT@ 0045a3fc     libcurl:ftp.obj
 0002:0000542c       ??_C@_0DA@FIFPKHDL@Ctrl?5conn?5has?5data?5while?5waiting@ 0045a42c     libcurl:ftp.obj
 0002:0000545c       ??_C@_0DA@NKJCHCEC@Doing?5the?5SSL?1TLS?5handshake?5on?5t@ 0045a45c     libcurl:ftp.obj
 0002:0000548c       ??_C@_07JIEIOJCN@PROT?5?$CFc?$AA@ 0045a48c     libcurl:ftp.obj
 0002:00005494       ??_C@_0CN@HIFIJJNN@Preparing?5for?5accepting?5server?5o@ 0045a494     libcurl:ftp.obj
 0002:000054c4       ??_C@_03POJCPIGP@CCC?$AA@  0045a4c4     libcurl:ftp.obj
 0002:000054c8       ??_C@_0CK@DIEJGCGD@Failed?5to?5clear?5the?5command?5chan@ 0045a4c8     libcurl:ftp.obj
 0002:000054f4       ??_C@_04EAEGPFGI@SYST?$AA@ 0045a4f4     libcurl:ftp.obj
 0002:000054fc       ??_C@_0BE@OCHIMCLN@Entry?5path?5is?5?8?$CFs?8?6?$AA@ 0045a4fc     libcurl:ftp.obj
 0002:00005510       ??_C@_0BL@LGIJMHED@Failed?5to?5figure?5out?5path?6?$AA@ 0045a510     libcurl:ftp.obj
 0002:0000552c       ??_C@_06JNDPFLAI@OS?1400?$AA@ 0045a52c     libcurl:ftp.obj
 0002:00005534       ??_C@_0P@JBGEGJKJ@SITE?5NAMEFMT?51?$AA@ 0045a534     libcurl:ftp.obj
 0002:00005544       ??_C@_0BO@OHEGJEDF@QUOT?5command?5failed?5with?5?$CF03d?$AA@ 0045a544     libcurl:ftp.obj
 0002:00005564       ??_C@_06BFAFDBBO@MKD?5?$CFs?$AA@ 0045a564     libcurl:ftp.obj
 0002:0000556c       ??_C@_0DD@PPJPGINE@Server?5denied?5you?5to?5change?5to?5t@ 0045a56c     libcurl:ftp.obj
 0002:000055a0       ??_C@_0BI@BHKLDLGC@Failed?5to?5MKD?5dir?3?5?$CF03d?$AA@ 0045a5a0     libcurl:ftp.obj
 0002:000055b8       ??_C@_0CA@MIHDFENK@PRET?5command?5not?5accepted?3?5?$CF03d?$AA@ 0045a5b8     libcurl:ftp.obj
 0002:000055d8       ??_C@_03OIFAJNHF@PWD?$AA@  0045a5d8     libcurl:ftp.obj
 0002:000055dc       ??_C@_0CA@BPKLCDMI@Remembering?5we?5are?5in?5dir?5?$CC?$CFs?$CC?6?$AA@ 0045a5dc     libcurl:ftp.obj
 0002:000055fc       ??_C@_04JOBIBMIG@ABOR?$AA@ 0045a5fc     libcurl:ftp.obj
 0002:00005604       ??_C@_0CB@ELHFDEFP@Failure?5sending?5ABOR?5command?3?5?$CFs@ 0045a604     libcurl:ftp.obj
 0002:00005628       ??_C@_0BO@IBJECBBL@control?5connection?5looks?5dead?$AA@ 0045a628     libcurl:ftp.obj
 0002:00005648       ??_C@_06DBCOIIKD@CWD?5?$CFs?$AA@ 0045a648     libcurl:ftp.obj
 0002:00005650       ??_C@_0DA@LKDFHHHG@partial?5download?5completed?0?5clos@ 0045a650     libcurl:ftp.obj
 0002:00005680       ??_C@_0BM@KBMOAOIH@Exceeded?5storage?5allocation?$AA@ 0045a680     libcurl:ftp.obj
 0002:0000569c       ??_C@_0CB@MBIEKFAL@server?5did?5not?5report?5OK?0?5got?5?$CFd@ 0045a69c     libcurl:ftp.obj
 0002:000056c0       ??_C@_0DI@GGNLIACP@Uploaded?5unaligned?5file?5size?5?$CI?$CFI@ 0045a6c0     libcurl:ftp.obj
 0002:000056f8       ??_C@_0CI@BFHFHKBK@Received?5only?5partial?5file?3?5?$CFI64@ 0045a6f8     libcurl:ftp.obj
 0002:00005720       ??_C@_0BG@JNDKCNAF@No?5data?5was?5received?$CB?$AA@ 0045a720     libcurl:ftp.obj
 0002:00005738       ??_C@_0BN@KKEKOBII@QUOT?5string?5not?5accepted?3?5?$CFs?$AA@ 0045a738     libcurl:ftp.obj
 0002:00005758       ??_C@_07LBAFLNFB@TYPE?5?$CFc?$AA@ 0045a758     libcurl:ftp.obj
 0002:00005760       ??_C@_0BP@PDGEBKHD@Connecting?5to?5?$CFs?5?$CI?$CFs?$CJ?5port?5?$CFd?6?$AA@ 0045a760     libcurl:ftp.obj
 0002:00005780       ??_C@_0BJ@KBDKIMG@getsockname?$CI?$CJ?5failed?3?5?$CFs?$AA@ 0045a780     libcurl:ftp.obj
 0002:0000579c       ??_C@_0DD@DMEJNKPI@failed?5to?5resolve?5the?5address?5pr@ 0045a79c     libcurl:ftp.obj
 0002:000057d0       ??_C@_0BD@OKODOHGG@socket?5failure?3?5?$CFs?$AA@ 0045a7d0     libcurl:ftp.obj
 0002:000057e4       ??_C@_0DA@CIIHINBN@bind?$CIport?$DN?$CFhu?$CJ?5on?5non?9local?5addr@ 0045a7e4     libcurl:ftp.obj
 0002:00005814       ??_C@_0BK@PGDLCBEF@bind?$CIport?$DN?$CFhu?$CJ?5failed?3?5?$CFs?$AA@ 0045a814     libcurl:ftp.obj
 0002:00005830       ??_C@_0CE@CGKJCPDM@bind?$CI?$CJ?5failed?0?5we?5ran?5out?5of?5por@ 0045a830     libcurl:ftp.obj
 0002:00005854       ??_C@_0CF@BIADGCCG@ftp_perform?5ends?5with?5SECONDARY?3@ 0045a854     libcurl:ftp.obj
 0002:0000587c       ??_C@_0P@JIPLFCKK@?$CFs?5?$HM?$CFd?$HM?$CFs?$HM?$CFhu?$HM?$AA@ 0045a87c     libcurl:ftp.obj
 0002:0000588c       ??_C@_0CB@BJFEKOJI@Failure?5sending?5EPRT?5command?3?5?$CFs@ 0045a88c     libcurl:ftp.obj
 0002:000058b0       ??_C@_06IEKOAMEP@?0?$CFd?0?$CFd?$AA@ 0045a8b0     libcurl:ftp.obj
 0002:000058b8       ??_C@_0CB@JCGGICMN@Failure?5sending?5PORT?5command?3?5?$CFs@ 0045a8b8     libcurl:ftp.obj
 0002:000058dc       ??_C@_0BP@PMBCHHFK@Connect?5data?5stream?5passively?6?$AA@ 0045a8dc     libcurl:ftp.obj
 0002:000058fc       ??_C@_0BM@CBMMJPAN@Wildcard?5?9?5Parsing?5started?6?$AA@ 0045a8fc     libcurl:ftp.obj
 0002:00005918       ??_C@_04LPPBABPG@NLST?$AA@ 0045a918     libcurl:ftp.obj
 0002:00005920       ??_C@_07HDBBNIBK@PRET?5?$CFs?$AA@ 0045a920     libcurl:ftp.obj
 0002:00005928       ??_C@_0N@JGBIEHDA@PRET?5STOR?5?$CFs?$AA@ 0045a928     libcurl:ftp.obj
 0002:00005938       ??_C@_0N@PCAKCCIM@PRET?5RETR?5?$CFs?$AA@ 0045a938     libcurl:ftp.obj
 0002:00005948       ??_C@_07EDEBBIDH@REST?5?$CFd?$AA@ 0045a948     libcurl:ftp.obj
 0002:00005950       ??_C@_0BK@EBFHJJOJ@Wildcard?5?9?5START?5of?5?$CC?$CFs?$CC?6?$AA@ 0045a950     libcurl:ftp.obj
 0002:0000596c       ??_C@_0CB@HPHNJDIO@Wildcard?5?9?5?$CC?$CFs?$CC?5skipped?5by?5user?6@ 0045a96c     libcurl:ftp.obj
 0002:00005990       ??_C@_07DHEHBJLB@SIZE?5?$CFs?$AA@ 0045a990     libcurl:ftp.obj
 0002:00005998       ??_C@_01CLKCMJKC@?5?$AA@   0045a998     libcurl:ftp.obj
 0002:0000599c       ??_C@_0CB@JNMCPEIN@Failure?5sending?5QUIT?5command?3?5?$CFs@ 0045a99c     libcurl:ftp.obj
 0002:000059c0       ??_C@_07DFNLHBNJ@MDTM?5?$CFs?$AA@ 0045a9c0     libcurl:ftp.obj
 0002:000059c8       ??_C@_0BE@KEOJEJGI@Failed?5to?5read?5data?$AA@ 0045a9c8     libcurl:ftp.obj
 0002:000059dc       ??_C@_0CC@MLJOLKKA@File?5already?5completely?5uploaded@ 0045a9dc     libcurl:ftp.obj
 0002:00005a00       ??_C@_07FKAENFJM@APPE?5?$CFs?$AA@ 0045aa00     libcurl:ftp.obj
 0002:00005a08       ??_C@_07LAJFDMAF@STOR?5?$CFs?$AA@ 0045aa08     libcurl:ftp.obj
 0002:00005a10       ??_C@_0CI@FGKDODBE@Uploading?5to?5a?5URL?5without?5a?5fil@ 0045aa10     libcurl:ftp.obj
 0002:00005a38       ??_C@_0CM@BBAADEII@Request?5has?5same?5path?5as?5previou@ 0045aa38     libcurl:ftp.obj
 0002:00005a64       ??_C@_07NEIHFJLJ@RETR?5?$CFs?$AA@ 0045aa64     libcurl:ftp.obj
 0002:00005a6c       ??_C@_0BN@DGOLGMBJ@Failed?5EPSV?5attempt?0?5exiting?$AA@ 0045aa6c     libcurl:ftp.obj
 0002:00005a8c       ??_C@_0CF@LLFCDFKE@Failed?5EPSV?5attempt?4?5Disabling?5E@ 0045aa8c     libcurl:ftp.obj
 0002:00005ab4       ??_C@_04KAHNJCEK@PASV?$AA@ 0045aab4     libcurl:ftp.obj
 0002:00005abc       ??_C@_0L@PJBCJFDL@?$CFc?$CFc?$CFc?$CFu?$CFc?$AA@ 0045aabc     libcurl:ftp.obj
 0002:00005ac8       ??_C@_0CC@DPAPDPDE@Illegal?5port?5number?5in?5EPSV?5repl@ 0045aac8     libcurl:ftp.obj
 0002:00005aec       ??_C@_0BN@NDEBJJDH@Weirdly?5formatted?5EPSV?5reply?$AA@ 0045aaec     libcurl:ftp.obj
 0002:00005b0c       ??_C@_0BC@GDCBJEOP@?$CFu?0?$CFu?0?$CFu?0?$CFu?0?$CFu?0?$CFu?$AA@ 0045ab0c     libcurl:ftp.obj
 0002:00005b20       ??_C@_0CE@JAKPPKFJ@Couldn?8t?5interpret?5the?5227?9respo@ 0045ab20     libcurl:ftp.obj
 0002:00005b44       ??_C@_0DJ@BDPONOCF@Skip?5?$CFu?4?$CFu?4?$CFu?4?$CFu?5for?5data?5connec@ 0045ab44     libcurl:ftp.obj
 0002:00005b80       ??_C@_0M@CDHNGIPM@?$CFu?4?$CFu?4?$CFu?4?$CFu?$AA@ 0045ab80     libcurl:ftp.obj
 0002:00005b8c       ??_C@_0BN@NLMHLNCJ@Bad?5PASV?1EPSV?5response?3?5?$CF03d?$AA@ 0045ab8c     libcurl:ftp.obj
 0002:00005bac       ??_C@_0CA@JCGDHCDD@Can?8t?5resolve?5proxy?5host?5?$CFs?3?$CFhu?$AA@ 0045abac     libcurl:ftp.obj
 0002:00005bcc       ??_C@_0BO@IFBOOOND@Can?8t?5resolve?5new?5host?5?$CFs?3?$CFhu?$AA@ 0045abcc     libcurl:ftp.obj
 0002:00005bec       ??_C@_0BG@GHLIGHGL@disabling?5EPRT?5usage?6?$AA@ 0045abec     libcurl:ftp.obj
 0002:00005c04       ??_C@_0BC@GNDMALEK@Failed?5to?5do?5PORT?$AA@ 0045ac04     libcurl:ftp.obj
 0002:00005c18       ??_C@_0BO@NCOMJOLE@Connect?5data?5stream?5actively?6?$AA@ 0045ac18     libcurl:ftp.obj
 0002:00005c38       ??_C@_0BJ@DGDBOHFM@We?5got?5a?5421?5?9?5timeout?$CB?6?$AA@ 0045ac38     libcurl:ftp.obj
 0002:00005c54       ??_C@_0BF@LJJJLKGP@FTP?5response?5timeout?$AA@ 0045ac54     libcurl:ftp.obj
 0002:00005c6c       ??_C@_0DC@FEDHDEPK@FTP?5response?5aborted?5due?5to?5sele@ 0045ac6c     libcurl:ftp.obj
 0002:00005ca0       ??_C@_04PMPMHNFI@FILE?$AA@ 0045aca0     libcurl:file.obj
 0002:00005ca8       _Curl_handler_file         0045aca8     libcurl:file.obj
 0002:00005cf4       ??_C@_0BG@EMIMEGKB@Couldn?8t?5open?5file?5?$CFs?$AA@ 0045acf4     libcurl:file.obj
 0002:00005d0c       ??_C@_0BK@BBIJKCFE@Can?8t?5open?5?$CFs?5for?5writing?$AA@ 0045ad0c     libcurl:file.obj
 0002:00005d28       ??_C@_0BJ@PBDLFGHG@Can?8t?5get?5the?5size?5of?5?$CFs?$AA@ 0045ad28     libcurl:file.obj
 0002:00005d44       ??_C@_0DG@OCPCIEKF@Last?9Modified?3?5?$CFs?0?5?$CF02d?5?$CFs?5?$CF4d?5?$CF@ 0045ad44     libcurl:file.obj
 0002:00005d7c       ??_C@_0BM@JKOBLIFI@Can?8t?5get?5the?5size?5of?5file?4?$AA@ 0045ad7c     libcurl:file.obj
 0002:00005d98       ??_C@_0CC@BFDLBKLP@failed?5to?5resume?5file?3?1?1?5transfe@ 0045ad98     libcurl:file.obj
 0002:00005dc0       _Curl_handler_dict         0045adc0     libcurl:dict.obj
 0002:00005e0c       ??_C@_04NOLJEKBF@DICT?$AA@ 0045ae0c     libcurl:dict.obj
 0002:00005e14       ??_C@_07EEEBABMF@?1MATCH?3?$AA@ 0045ae14     libcurl:dict.obj
 0002:00005e1c       ??_C@_03HLABFPGB@?1M?3?$AA@ 0045ae1c     libcurl:dict.obj
 0002:00005e20       ??_C@_06POHFGONG@?1FIND?3?$AA@ 0045ae20     libcurl:dict.obj
 0002:00005e28       ??_C@_0BI@HCFEFF@lookup?5word?5is?5missing?6?$AA@ 0045ae28     libcurl:dict.obj
 0002:00005e40       ??_C@_07DLHCIBDH@default?$AA@ 0045ae40     libcurl:dict.obj
 0002:00005e48       ??_C@_01DCLJPIOD@?$CB?$AA@ 0045ae48     libcurl:dict.obj
 0002:00005e4c       ??_C@_0CO@LOIPPG@CLIENT?5libcurl?57?476?41?$AN?6MATCH?5?$CFs?5@ 0045ae4c     libcurl:dict.obj
 0002:00005e7c       ??_C@_0BM@NMDEPLOC@Failed?5sending?5DICT?5request?$AA@ 0045ae7c     libcurl:dict.obj
 0002:00005e98       ??_C@_08FLILFNPP@?1DEFINE?3?$AA@ 0045ae98     libcurl:dict.obj
 0002:00005ea4       ??_C@_03HENAGEOO@?1D?3?$AA@ 0045aea4     libcurl:dict.obj
 0002:00005ea8       ??_C@_08OMCEKKKJ@?1LOOKUP?3?$AA@ 0045aea8     libcurl:dict.obj
 0002:00005eb4       ??_C@_0CM@LFFEFHLL@CLIENT?5libcurl?57?476?41?$AN?6DEFINE?5?$CFs@ 0045aeb4     libcurl:dict.obj
 0002:00005ee0       ??_C@_0CC@MBNAKKIG@CLIENT?5libcurl?57?476?41?$AN?6?$CFs?$AN?6QUIT?$AN@ 0045aee0     libcurl:dict.obj
 0002:00005f04       ??_C@_0BH@HDMBNBNK@Width?3?5?$CFd?5?$DL?5Height?3?5?$CFd?$AA@ 0045af04     libcurl:telnet.obj
 0002:00005f1c       ??_C@_03JAFEDHAF@?5IS?$AA@ 0045af1c     libcurl:telnet.obj
 0002:00005f20       ??_C@_05HEPJGMLF@?5SEND?$AA@ 0045af20     libcurl:telnet.obj
 0002:00005f28       ??_C@_0M@NNAMPCHG@?5INFO?1REPLY?$AA@ 0045af28     libcurl:telnet.obj
 0002:00005f34       ??_C@_05HILGCHMJ@?5NAME?$AA@ 0045af34     libcurl:telnet.obj
 0002:00005f3c       ??_C@_05JEHJOICL@?5?$CC?$CFs?$CC?$AA@ 0045af3c     libcurl:telnet.obj
 0002:00005f44       ??_C@_03MHLONNLM@?5?$DN?5?$AA@ 0045af44     libcurl:telnet.obj
 0002:00005f48       ??_C@_02HAOIJKIC@?$CFc?$AA@ 0045af48     libcurl:telnet.obj
 0002:00005f4c       ??_C@_05MAFEOBBD@?5?$CF?42x?$AA@ 0045af4c     libcurl:telnet.obj
 0002:00005f54       ??_C@_07FIBAJHNC@USER?0?$CFs?$AA@ 0045af54     libcurl:telnet.obj
 0002:00005f5c       ??_C@_0BF@FKHAOHNG@?$CF127?$FL?$FO?$DN?5?$FN?$CF?$CK?$FL?5?$DN?$FN?$CF255s?$AA@ 0045af5c     libcurl:telnet.obj
 0002:00005f74       ??_C@_05EDAGKIGO@TTYPE?$AA@ 0045af74     libcurl:telnet.obj
 0002:00005f7c       ??_C@_07CBBODINF@NEW_ENV?$AA@ 0045af7c     libcurl:telnet.obj
 0002:00005f84       ??_C@_02PINLBAEP@WS?$AA@   0045af84     libcurl:telnet.obj
 0002:00005f88       ??_C@_0N@DFKPNNGO@?$CFhu?$CF?$CK?$FLxX?$FN?$CFhu?$AA@ 0045af88     libcurl:telnet.obj
 0002:00005f98       ??_C@_0CC@NJCHGDLJ@Syntax?5error?5in?5telnet?5option?3?5?$CF@ 0045af98     libcurl:telnet.obj
 0002:00005fbc       ??_C@_0BJ@EPEDNNHH@Unknown?5telnet?5option?5?$CFs?$AA@ 0045afbc     libcurl:telnet.obj
 0002:00005fd8       ??_C@_0P@IJIBEBBB@?$CFc?$CFc?$CFc?$CFc?$CFs?$CFc?$CFc?$AA@ 0045afd8     libcurl:telnet.obj
 0002:00005fe8       ??_C@_08MMPFKENM@?$CFc?$CFc?$CFc?$CFc?$AA@ 0045afe8     libcurl:telnet.obj
 0002:00005ff4       ??_C@_0P@EIKOJKEK@?$CF127?$FL?$FO?0?$FN?0?$CF127s?$AA@ 0045aff4     libcurl:telnet.obj
 0002:00006004       ??_C@_08IFOBLEBG@?$CFc?$CFs?$CFc?$CFs?$AA@ 0045b004     libcurl:telnet.obj
 0002:00006010       ??_C@_04GJDJEMBE@?$CFc?$CFc?$AA@ 0045b010     libcurl:telnet.obj
 0002:00006018       _Curl_handler_telnet       0045b018     libcurl:telnet.obj
 0002:00006158       ??_C@_0BO@FGKIEAKL@In?5SUBOPTION?5processing?0?5RCVD?$AA@ 0045b158     libcurl:telnet.obj
 0002:00006178       ??_C@_06FJHKNKMG@BINARY?$AA@ 0045b178     libcurl:telnet.obj
 0002:00006180       ??_C@_04CJAHKHLK@ECHO?$AA@ 0045b180     libcurl:telnet.obj
 0002:00006188       ??_C@_03HHNIIJAH@RCP?$AA@  0045b188     libcurl:telnet.obj
 0002:0000618c       ??_C@_0BC@PNOFGINB@SUPPRESS?5GO?5AHEAD?$AA@ 0045b18c     libcurl:telnet.obj
 0002:000061a0       ??_C@_04IPKHEEB@NAME?$AA@  0045b1a0     libcurl:telnet.obj
 0002:000061a8       ??_C@_06DNKMJCIK@STATUS?$AA@ 0045b1a8     libcurl:telnet.obj
 0002:000061b0       ??_C@_0M@EKEOBHGL@TIMING?5MARK?$AA@ 0045b1b0     libcurl:telnet.obj
 0002:000061bc       ??_C@_04BEBEFOLG@RCTE?$AA@ 0045b1bc     libcurl:telnet.obj
 0002:000061c4       ??_C@_04NKLMBLGG@NAOL?$AA@ 0045b1c4     libcurl:telnet.obj
 0002:000061cc       ??_C@_04DMMLEGDL@NAOP?$AA@ 0045b1cc     libcurl:telnet.obj
 0002:000061d4       ??_C@_06BKIMLPPI@NAOCRD?$AA@ 0045b1d4     libcurl:telnet.obj
 0002:000061dc       ??_C@_06MMIDMANN@NAOHTS?$AA@ 0045b1dc     libcurl:telnet.obj
 0002:000061e4       ??_C@_06MJAAEEEL@NAOHTD?$AA@ 0045b1e4     libcurl:telnet.obj
 0002:000061ec       ??_C@_06DGHNEEGG@NAOFFD?$AA@ 0045b1ec     libcurl:telnet.obj
 0002:000061f4       ??_C@_06HMEFOAHB@NAOVTS?$AA@ 0045b1f4     libcurl:telnet.obj
 0002:000061fc       ??_C@_06HJMGGEOH@NAOVTD?$AA@ 0045b1fc     libcurl:telnet.obj
 0002:00006204       ??_C@_06FJMAKEAC@NAOLFD?$AA@ 0045b204     libcurl:telnet.obj
 0002:0000620c       ??_C@_0BL@IAGBODFB@WSACreateEvent?5failed?5?$CI?$CFd?$CJ?$AA@ 0045b20c     libcurl:telnet.obj
 0002:00006228       ??_C@_0N@MCHGCBGJ@EXTEND?5ASCII?$AA@ 0045b228     libcurl:telnet.obj
 0002:00006238       ??_C@_0L@JJAOJAFM@BYTE?5MACRO?$AA@ 0045b238     libcurl:telnet.obj
 0002:00006244       ??_C@_0M@BFPOMMHF@DE?5TERMINAL?$AA@ 0045b244     libcurl:telnet.obj
 0002:00006250       ??_C@_06NAEEPLEB@SUPDUP?$AA@ 0045b250     libcurl:telnet.obj
 0002:00006258       ??_C@_0O@LDEGDMCH@SUPDUP?5OUTPUT?$AA@ 0045b258     libcurl:telnet.obj
 0002:00006268       ??_C@_0O@GCFNAHCA@SEND?5LOCATION?$AA@ 0045b268     libcurl:telnet.obj
 0002:00006278       ??_C@_09JHNIKOBE@TERM?5TYPE?$AA@ 0045b278     libcurl:telnet.obj
 0002:00006284       ??_C@_0O@OOFFLMHN@END?5OF?5RECORD?$AA@ 0045b284     libcurl:telnet.obj
 0002:00006294       ??_C@_0L@GPKIIPN@TACACS?5UID?$AA@ 0045b294     libcurl:telnet.obj
 0002:000062a0       ??_C@_0P@MGPJDEPO@OUTPUT?5MARKING?$AA@ 0045b2a0     libcurl:telnet.obj
 0002:000062b0       ??_C@_06GGEFDLMA@TTYLOC?$AA@ 0045b2b0     libcurl:telnet.obj
 0002:000062b8       ??_C@_0M@NIKPEBAA@3270?5REGIME?$AA@ 0045b2b8     libcurl:telnet.obj
 0002:000062c4       ??_C@_06BPMGLPAC@X3?5PAD?$AA@ 0045b2c4     libcurl:telnet.obj
 0002:000062cc       ??_C@_04FNDOHDA@NAWS?$AA@  0045b2cc     libcurl:telnet.obj
 0002:000062d4       ??_C@_0L@PJIKHDLG@TERM?5SPEED?$AA@ 0045b2d4     libcurl:telnet.obj
 0002:000062e0       ??_C@_05LOOKNPEJ@LFLOW?$AA@ 0045b2e0     libcurl:telnet.obj
 0002:000062e8       ??_C@_08MFKKBNLA@LINEMODE?$AA@ 0045b2e8     libcurl:telnet.obj
 0002:000062f4       ??_C@_08GPGBHAKO@XDISPLOC?$AA@ 0045b2f4     libcurl:telnet.obj
 0002:00006300       ??_C@_0M@HACFCEDH@OLD?9ENVIRON?$AA@ 0045b300     libcurl:telnet.obj
 0002:0000630c       ??_C@_0P@LGIMEOHB@AUTHENTICATION?$AA@ 0045b30c     libcurl:telnet.obj
 0002:0000631c       ??_C@_0CB@LGFLAPBC@WSAEnumNetworkEvents?5failed?5?$CI?$CFd?$CJ@ 0045b31c     libcurl:telnet.obj
 0002:00006340       ??_C@_07CAOFPAJK@ENCRYPT?$AA@ 0045b340     libcurl:telnet.obj
 0002:00006348       ??_C@_0M@FMFEGMDG@NEW?9ENVIRON?$AA@ 0045b348     libcurl:telnet.obj
 0002:00006354       ??_C@_03KPJEKKJC@EOF?$AA@  0045b354     libcurl:telnet.obj
 0002:00006358       ??_C@_04GOPMIPNE@SUSP?$AA@ 0045b358     libcurl:telnet.obj
 0002:00006360       ??_C@_05NKJCKGFJ@ABORT?$AA@ 0045b360     libcurl:telnet.obj
 0002:00006368       ??_C@_03IBDKHNMH@EOR?$AA@  0045b368     libcurl:telnet.obj
 0002:0000636c       ??_C@_02ODEKANEE@SE?$AA@   0045b36c     libcurl:telnet.obj
 0002:00006370       ??_C@_03GEANJIEE@NOP?$AA@  0045b370     libcurl:telnet.obj
 0002:00006374       ??_C@_05CFIKNJJG@DMARK?$AA@ 0045b374     libcurl:telnet.obj
 0002:0000637c       ??_C@_03JDBDNMEF@BRK?$AA@  0045b37c     libcurl:telnet.obj
 0002:00006380       ??_C@_02MFEOMNPG@IP?$AA@   0045b380     libcurl:telnet.obj
 0002:00006384       ??_C@_08IMJOJNO@Time?9out?$AA@ 0045b384     libcurl:telnet.obj
 0002:00006390       ??_C@_02GAHJCNA@AO?$AA@    0045b390     libcurl:telnet.obj
 0002:00006394       ??_C@_03EAKJJCNE@AYT?$AA@  0045b394     libcurl:telnet.obj
 0002:00006398       ??_C@_0BK@CECPJKBH@WSACloseEvent?5failed?5?$CI?$CFd?$CJ?$AA@ 0045b398     libcurl:telnet.obj
 0002:000063b4       ??_C@_02KNLLHFAA@EC?$AA@   0045b3b4     libcurl:telnet.obj
 0002:000063b8       ??_C@_02CKCDGJMP@EL?$AA@   0045b3b8     libcurl:telnet.obj
 0002:000063bc       ??_C@_02JMAJMDOM@GA?$AA@   0045b3bc     libcurl:telnet.obj
 0002:000063c0       ??_C@_02KMALJLID@SB?$AA@   0045b3c0     libcurl:telnet.obj
 0002:000063c4       ??_C@_04HALOHICD@WILL?$AA@ 0045b3c4     libcurl:telnet.obj
 0002:000063cc       ??_C@_04NEEKGLMI@WONT?$AA@ 0045b3cc     libcurl:telnet.obj
 0002:000063d4       ??_C@_02MMFADL@DO?$AA@     0045b3d4     libcurl:telnet.obj
 0002:000063d8       ??_C@_04PDAKIGJK@DONT?$AA@ 0045b3d8     libcurl:telnet.obj
 0002:000063e0       ??_C@_03JCKLMMGF@IAC?$AA@  0045b3e0     libcurl:telnet.obj
 0002:000063e4       ??_C@_06KENCDLMH@TELNET?$AA@ 0045b3e4     libcurl:telnet.obj
 0002:000063ec       ??_C@_0L@FLCLEAPM@?$CFs?5IAC?5?$CFs?6?$AA@ 0045b3ec     libcurl:telnet.obj
 0002:000063f8       ??_C@_0L@ECECPFAJ@?$CFs?5IAC?5?$CFd?6?$AA@ 0045b3f8     libcurl:telnet.obj
 0002:00006404       ??_C@_05OKMMCHFL@EXOPL?$AA@ 0045b404     libcurl:telnet.obj
 0002:0000640c       ??_C@_09GPBPOFIE@?$CFs?5?$CFs?5?$CFs?6?$AA@ 0045b40c     libcurl:telnet.obj
 0002:00006418       ??_C@_09HGHGFAHB@?$CFs?5?$CFs?5?$CFd?6?$AA@ 0045b418     libcurl:telnet.obj
 0002:00006424       ??_C@_09GIKFGCFC@?$CFs?5?$CFd?5?$CFd?6?$AA@ 0045b424     libcurl:telnet.obj
 0002:00006430       ??_C@_0BJ@GCKINNGG@Sending?5data?5failed?5?$CI?$CFd?$CJ?$AA@ 0045b430     libcurl:telnet.obj
 0002:0000644c       ??_C@_04EOHHCNGM@SENT?$AA@ 0045b44c     libcurl:telnet.obj
 0002:00006454       ??_C@_04OILLLJJ@RCVD?$AA@  0045b454     libcurl:telnet.obj
 0002:0000645c       ??_C@_0L@FPLNPMDD@?$CFs?5IAC?5SB?5?$AA@ 0045b45c     libcurl:telnet.obj
 0002:00006468       ??_C@_0BA@MMHHHFDG@?$CIterminated?5by?5?$AA@ 0045b468     libcurl:telnet.obj
 0002:00006478       ??_C@_03IOOJPBPG@?$CFu?5?$AA@ 0045b478     libcurl:telnet.obj
 0002:0000647c       ??_C@_0BA@IHPPDJFF@?0?5not?5IAC?5SE?$CB?$CJ?5?$AA@ 0045b47c     libcurl:telnet.obj
 0002:0000648c       ??_C@_0BD@CLPAOCOB@?$CIEmpty?5suboption?$DP?$CJ?$AA@ 0045b48c     libcurl:telnet.obj
 0002:000064a0       ??_C@_0BB@BBIGPKKK@?$CFs?5?$CIunsupported?$CJ?$AA@ 0045b4a0     libcurl:telnet.obj
 0002:000064b4       ??_C@_0N@IAAHJJEB@?$CFd?5?$CIunknown?$CJ?$AA@ 0045b4b4     libcurl:telnet.obj
 0002:000064c4       ??_C@_0CL@NOIDGMJA@Received?5last?5DATA?5packet?5block?5@ 0045b4c4     libcurl:tftp.obj
 0002:000064f0       ??_C@_0DO@LHJHEMEL@Received?5unexpected?5DATA?5packet?5@ 0045b4f0     libcurl:tftp.obj
 0002:00006530       ??_C@_0DB@CJGPFEOC@Timeout?5waiting?5for?5block?5?$CFd?5ACK@ 0045b530     libcurl:tftp.obj
 0002:00006564       ??_C@_0BI@BHFNNNHL@tftp_rx?3?5internal?5error?$AA@ 0045b564     libcurl:tftp.obj
 0002:0000657c       ??_C@_0CJ@LBPPEMJL@Received?5ACK?5for?5block?5?$CFd?0?5expec@ 0045b57c     libcurl:tftp.obj
 0002:000065a8       ??_C@_0CM@BNMFOENM@tftp_tx?3?5giving?5up?5waiting?5for?5b@ 0045b5a8     libcurl:tftp.obj
 0002:000065d4       ??_C@_0CD@DGDGOEOE@tftp_tx?3?5internal?5error?0?5event?3?5@ 0045b5d4     libcurl:tftp.obj
 0002:000065f8       ??_C@_0O@BONHPLEA@TFTP?5finished?$AA@ 0045b5f8     libcurl:tftp.obj
 0002:00006608       ??_C@_0BN@LMNCOGNC@Internal?5state?5machine?5error?$AA@ 0045b608     libcurl:tftp.obj
 0002:00006628       _Curl_handler_tftp         0045b628     libcurl:tftp.obj
 0002:00006674       ??_C@_0BC@JMLCPALC@bind?$CI?$CJ?5failed?$DL?5?$CFs?$AA@ 0045b674     libcurl:tftp.obj
 0002:00006688       ??_C@_0BK@KEKALNLH@Received?5too?5short?5packet?$AA@ 0045b688     libcurl:tftp.obj
 0002:000066a4       ??_C@_0BA@OIPDKKBA@TFTP?5error?3?5?$CFs?6?$AA@ 0045b6a4     libcurl:tftp.obj
 0002:000066b4       ??_C@_0CC@GGFBEDBJ@Internal?5error?3?5Unexpected?5packe@ 0045b6b4     libcurl:tftp.obj
 0002:000066d8       ??_C@_0BG@GPKMDEIC@TFTP?5response?5timeout?$AA@ 0045b6d8     libcurl:tftp.obj
 0002:000066f0       ??_C@_06PHEPAMBA@?$DLmode?$DN?$AA@ 0045b6f0     libcurl:tftp.obj
 0002:000066f8       ??_C@_04JLDPLNDA@TFTP?$AA@ 0045b6f8     libcurl:tftp.obj
 0002:00006700       ??_C@_0DN@DDJEILNF@set?5timeouts?5for?5state?5?$CFd?$DL?5Total@ 0045b700     libcurl:tftp.obj
 0002:00006740       ??_C@_0CA@PGCHPLAI@Malformed?5ACK?5packet?0?5rejecting?$AA@ 0045b740     libcurl:tftp.obj
 0002:00006760       ??_C@_0BM@GELOOIAH@got?5option?$DN?$CI?$CFs?$CJ?5value?$DN?$CI?$CFs?$CJ?6?$AA@ 0045b760     libcurl:tftp.obj
 0002:0000677c       ??_C@_07JPIGAOKK@blksize?$AA@ 0045b77c     libcurl:tftp.obj
 0002:00006784       ??_C@_0CH@GOMNMHP@invalid?5blocksize?5value?5in?5OACK?5@ 0045b784     libcurl:tftp.obj
 0002:000067ac       ??_C@_0CF@EKACJECO@blksize?5is?5larger?5than?5max?5suppo@ 0045b7ac     libcurl:tftp.obj
 0002:000067d4       ??_C@_07JMKCEEPK@?$CFs?5?$CI?$CFd?$CJ?$AA@ 0045b7d4     libcurl:tftp.obj
 0002:000067dc       ??_C@_0CG@BNJFBJFK@blksize?5is?5smaller?5than?5min?5supp@ 0045b7dc     libcurl:tftp.obj
 0002:00006804       ??_C@_0CP@HBGJMNNA@server?5requested?5blksize?5larger?5@ 0045b804     libcurl:tftp.obj
 0002:00006834       ??_C@_08KEEEBANB@?$CFs?5?$CI?$CFld?$CJ?$AA@ 0045b834     libcurl:tftp.obj
 0002:00006840       ??_C@_09GLAMPMBA@requested?$AA@ 0045b840     libcurl:tftp.obj
 0002:0000684c       ??_C@_0BJ@PECOFDN@blksize?5parsed?5from?5OACK?$AA@ 0045b84c     libcurl:tftp.obj
 0002:00006868       ??_C@_0BB@OFCPCICB@?$CFs?5?$CI?$CFd?$CJ?5?$CFs?5?$CI?$CFd?$CJ?6?$AA@ 0045b868     libcurl:tftp.obj
 0002:0000687c       ??_C@_05GHDOEBHJ@tsize?$AA@ 0045b87c     libcurl:tftp.obj
 0002:00006884       ??_C@_0BH@BLDLMHGE@tsize?5parsed?5from?5OACK?$AA@ 0045b884     libcurl:tftp.obj
 0002:0000689c       ??_C@_09LJPEONI@?$CFs?5?$CI?$CFld?$CJ?6?$AA@ 0045b89c     libcurl:tftp.obj
 0002:000068a8       ??_C@_0CK@LPILMKIM@invalid?5tsize?5?9?3?$CFs?3?9?5value?5in?5OA@ 0045b8a8     libcurl:tftp.obj
 0002:000068d4       ??_C@_0BH@NFEFKEBL@Connected?5for?5transmit?$AA@ 0045b8d4     libcurl:tftp.obj
 0002:000068ec       ??_C@_0BG@KPOBMFLM@Connected?5for?5receive?$AA@ 0045b8ec     libcurl:tftp.obj
 0002:00006904       ??_C@_05IIBPGMLM@octet?$AA@ 0045b904     libcurl:tftp.obj
 0002:0000690c       ??_C@_08KKALNFMM@netascii?$AA@ 0045b90c     libcurl:tftp.obj
 0002:00006918       ??_C@_0BI@BPHCFCIJ@TFTP?5file?5name?5too?5long?$AA@ 0045b918     libcurl:tftp.obj
 0002:00006930       ??_C@_08OAFHMCGI@?$CFs?$CFc?$CFs?$CFc?$AA@ 0045b930     libcurl:tftp.obj
 0002:0000693c       ??_C@_07DDHNKDGP@timeout?$AA@ 0045b93c     libcurl:tftp.obj
 0002:00006944       ??_C@_0CC@KFGMHGKB@TFTP?5buffer?5too?5small?5for?5option@ 0045b944     libcurl:tftp.obj
 0002:00006968       ??_C@_0CA@EOCLEEDH@tftp_send_first?3?5internal?5error?$AA@ 0045b968     libcurl:tftp.obj
 0002:00006988       _Curl_handler_ldap         0045b988     libcurl:ldap.obj
 0002:000069d8       _Curl_handler_ldaps        0045b9d8     libcurl:ldap.obj
 0002:00006a24       ??_C@_04HLELMIGD@LDAP?$AA@ 0045ba24     libcurl:ldap.obj
 0002:00006a2c       ??_C@_05EFFGHFLN@LDAPS?$AA@ 0045ba2c     libcurl:ldap.obj
 0002:00006a34       ??_C@_0BH@BDPOFBOA@Microsoft?5Corporation?4?$AA@ 0045ba34     libcurl:ldap.obj
 0002:00006a4c       ??_C@_0DC@DDHGKLDE@LDAP?5local?3?5LDAP?5Vendor?5?$DN?5?$CFs?5?$DL?5L@ 0045ba4c     libcurl:ldap.obj
 0002:00006a80       ??_C@_0BA@HJNHPBP@LDAP?5local?3?5?$CFs?6?$AA@ 0045ba80     libcurl:ldap.obj
 0002:00006a90       ??_C@_0P@BAGOOPBK@LDAP?5local?3?5?$CFs?$AA@ 0045ba90     libcurl:ldap.obj
 0002:00006aa0       ??_C@_09OEKGEILE@encrypted?$AA@ 0045baa0     libcurl:ldap.obj
 0002:00006aac       ??_C@_09HOMJNLCK@cleartext?$AA@ 0045baac     libcurl:ldap.obj
 0002:00006ab8       ??_C@_0CP@FAIPPKFC@LDAP?5local?3?5trying?5to?5establish?5@ 0045bab8     libcurl:ldap.obj
 0002:00006ae8       ??_C@_0CF@JGNKKLCE@LDAP?5local?3?5Cannot?5connect?5to?5?$CFs@ 0045bae8     libcurl:ldap.obj
 0002:00006b10       ??_C@_0CG@CNFHGIPC@LDAP?5local?3?5bind?5via?5ldap_win_bi@ 0045bb10     libcurl:ldap.obj
 0002:00006b38       ??_C@_0BA@BDNMEOJM@LDAP?5remote?3?5?$CFs?$AA@ 0045bb38     libcurl:ldap.obj
 0002:00006b48       ??_C@_04FDBNJNIB@DN?3?5?$AA@ 0045bb48     libcurl:ldap.obj
 0002:00006b50       ??_C@_02LMMGGCAJ@?3?5?$AA@ 0045bb50     libcurl:ldap.obj
 0002:00006b54       ??_C@_07HNLIELCI@?$DLbinary?$AA@ 0045bb54     libcurl:ldap.obj
 0002:00006b5c       ??_C@_0CA@LPADKPML@There?5are?5more?5than?5?$CFd?5entries?6?$AA@ 0045bb5c     libcurl:ldap.obj
 0002:00006b7c       ??_C@_03OHDNLOHO@one?$AA@  0045bb7c     libcurl:ldap.obj
 0002:00006b80       ??_C@_07ILFEIDOB@onetree?$AA@ 0045bb80     libcurl:ldap.obj
 0002:00006b88       ??_C@_04BHIIPFEC@base?$AA@ 0045bb88     libcurl:ldap.obj
 0002:00006b90       ??_C@_03KCMAIMAP@sub?$AA@  0045bb90     libcurl:ldap.obj
 0002:00006b94       ??_C@_07NIJMFPAJ@subtree?$AA@ 0045bb94     libcurl:ldap.obj
 0002:00006b9c       ??_C@_01IHBHIGKO@?0?$AA@   0045bb9c     libcurl:ldap.obj
 0002:00006ba0       ??_C@_0BI@PJGIPNBN@Failed?5writing?5RTP?5data?$AA@ 0045bba0     libcurl:rtsp.obj
 0002:00006bb8       ??_C@_04OLCAMBAB@RTSP?$AA@ 0045bbb8     libcurl:rtsp.obj
 0002:00006bc0       ??_C@_0DM@GEFBOCAL@The?5CSeq?5of?5this?5request?5?$CFld?5did@ 0045bbc0     libcurl:rtsp.obj
 0002:00006bfc       ??_C@_0CH@PLNGLCEI@Got?5an?5RTP?5Receive?5with?5a?5CSeq?5o@ 0045bbfc     libcurl:rtsp.obj
 0002:00006c28       _Curl_handler_rtsp         0045bc28     libcurl:rtsp.obj
 0002:00006c74       ??_C@_0BJ@IIOCCFNL@Got?5invalid?5RTSP?5request?$AA@ 0045bc74     libcurl:rtsp.obj
 0002:00006c90       ??_C@_07KDKMIPIP@OPTIONS?$AA@ 0045bc90     libcurl:rtsp.obj
 0002:00006c98       ??_C@_08DKNLJHMJ@DESCRIBE?$AA@ 0045bc98     libcurl:rtsp.obj
 0002:00006ca4       ??_C@_08HCNIHNDL@ANNOUNCE?$AA@ 0045bca4     libcurl:rtsp.obj
 0002:00006cb0       ??_C@_05MAJHNKMG@SETUP?$AA@ 0045bcb0     libcurl:rtsp.obj
 0002:00006cb8       ??_C@_04MKCNCBEG@PLAY?$AA@ 0045bcb8     libcurl:rtsp.obj
 0002:00006cc0       ??_C@_05DIAHPDGL@PAUSE?$AA@ 0045bcc0     libcurl:rtsp.obj
 0002:00006cc8       ??_C@_08JNACAMMP@TEARDOWN?$AA@ 0045bcc8     libcurl:rtsp.obj
 0002:00006cd4       ??_C@_0O@GCENIMNJ@GET_PARAMETER?$AA@ 0045bcd4     libcurl:rtsp.obj
 0002:00006ce4       ??_C@_0O@BNFDDPKO@SET_PARAMETER?$AA@ 0045bce4     libcurl:rtsp.obj
 0002:00006cf4       ??_C@_06KOEFFJON@RECORD?$AA@ 0045bcf4     libcurl:rtsp.obj
 0002:00006cfc       ??_C@_0CH@PJHKLBD@Got?5invalid?5RTSP?5request?3?5RTSPRE@ 0045bcfc     libcurl:rtsp.obj
 0002:00006d24       ??_C@_0DN@HHEKACHB@Refusing?5to?5issue?5an?5RTSP?5reques@ 0045bd24     libcurl:rtsp.obj
 0002:00006d64       ??_C@_09LOBALFEM@Transport?$AA@ 0045bd64     libcurl:rtsp.obj
 0002:00006d70       ??_C@_0BA@LGEHOCAD@Transport?3?5?$CFs?$AN?6?$AA@ 0045bd70     libcurl:rtsp.obj
 0002:00006d80       ??_C@_0DN@KLGPNCLM@Refusing?5to?5issue?5an?5RTSP?5SETUP?5@ 0045bd80     libcurl:rtsp.obj
 0002:00006dc0       ??_C@_0BK@PJBJHPJP@Accept?3?5application?1sdp?$AN?6?$AA@ 0045bdc0     libcurl:rtsp.obj
 0002:00006ddc       ??_C@_0M@CDDEOJHP@Range?3?5?$CFs?$AN?6?$AA@ 0045bddc     libcurl:rtsp.obj
 0002:00006de8       ??_C@_04IHAOMLEL@CSeq?$AA@ 0045bde8     libcurl:rtsp.obj
 0002:00006df0       ??_C@_0CH@ONHNBNNP@CSeq?5cannot?5be?5set?5as?5a?5custom?5h@ 0045bdf0     libcurl:rtsp.obj
 0002:00006e18       ??_C@_07FFOFCADM@Session?$AA@ 0045be18     libcurl:rtsp.obj
 0002:00006e20       ??_C@_0CN@HJLGEJGN@Session?5ID?5cannot?5be?5set?5as?5a?5cu@ 0045be20     libcurl:rtsp.obj
 0002:00006e50       ??_C@_0BM@GGGCCKFL@?$CFs?5?$CFs?5RTSP?11?40?$AN?6CSeq?3?5?$CFld?$AN?6?$AA@ 0045be50     libcurl:rtsp.obj
 0002:00006e6c       ??_C@_0O@LAIMJOHG@Session?3?5?$CFs?$AN?6?$AA@ 0045be6c     libcurl:rtsp.obj
 0002:00006e7c       ??_C@_0BB@JAHKEOEL@?$CFs?$CFs?$CFs?$CFs?$CFs?$CFs?$CFs?$CFs?$AA@ 0045be7c     libcurl:rtsp.obj
 0002:00006e90       ??_C@_0CA@DANBHCCB@Content?9Type?3?5text?1parameters?$AN?6?$AA@ 0045be90     libcurl:rtsp.obj
 0002:00006eb0       ??_C@_0CA@NAIPKPJL@Content?9Type?3?5application?1sdp?$AN?6?$AA@ 0045beb0     libcurl:rtsp.obj
 0002:00006ed0       ??_C@_0BM@PNHMAKEG@Failed?5sending?5RTSP?5request?$AA@ 0045bed0     libcurl:rtsp.obj
 0002:00006eec       ??_C@_0CD@OOIHJNBP@Got?5an?5error?5writing?5an?5RTP?5pack@ 0045beec     libcurl:rtsp.obj
 0002:00006f10       ??_C@_0CC@GKOAKHDG@Cannot?5write?5a?50?5size?5RTP?5packet@ 0045bf10     libcurl:rtsp.obj
 0002:00006f34       ??_C@_0BB@GCCOHJON@Cannot?5pause?5RTP?$AA@ 0045bf34     libcurl:rtsp.obj
 0002:00006f48       ??_C@_05MECAEIKK@CSeq?3?$AA@ 0045bf48     libcurl:rtsp.obj
 0002:00006f50       ??_C@_05PNKNJGHI@?3?5?$CFld?$AA@ 0045bf50     libcurl:rtsp.obj
 0002:00006f58       ??_C@_0CF@LBAGGOHD@Unable?5to?5read?5the?5CSeq?5header?3?5@ 0045bf58     libcurl:rtsp.obj
 0002:00006f80       ??_C@_08KJDEHNO@Session?3?$AA@ 0045bf80     libcurl:rtsp.obj
 0002:00006f8c       ??_C@_0BH@GCDEOPPG@Got?5a?5blank?5Session?5ID?$AA@ 0045bf8c     libcurl:rtsp.obj
 0002:00006fa4       ??_C@_0DC@HDNNNEDB@Got?5RTSP?5Session?5ID?5Line?5?$FL?$CFs?$FN?0?5b@ 0045bfa4     libcurl:rtsp.obj
 0002:00006fd8       ??_C@_03LNAOLDLL@SMB?$AA@  0045bfd8     libcurl:smb.obj
 0002:00006fdc       ??_C@_0P@CNIFBIKC@?$AA?$AM?$AA?$ACNT?5LM?50?412?$AA@ 0045bfdc     libcurl:smb.obj
 0002:00006fec       ??_C@_0O@EMCJKFGJ@i386?9pc?9win32?$AA@ 0045bfec     libcurl:smb.obj
 0002:00006ffc       ??_C@_04CFJDMNEE@curl?$AA@ 0045bffc     libcurl:smb.obj
 0002:00007004       ??_C@_02HDBGODGB@?2?2?$AA@ 0045c004     libcurl:smb.obj
 0002:00007008       ??_C@_01KICIPPFI@?2?$AA@   0045c008     libcurl:smb.obj
 0002:0000700c       ??_C@_05EHMBKEBF@?$DP?$DP?$DP?$DP?$DP?$AA@ 0045c00c     libcurl:smb.obj
 0002:00007014       ??_C@_0BF@MGOADBKP@Invalid?5input?5packet?$AA@ 0045c014     libcurl:smb.obj
 0002:00007030       _Curl_handler_smb          0045c030     libcurl:smb.obj
 0002:0000707c       ??_C@_04FPGNOCOB@MQTT?$AA@ 0045c07c     libcurl:mqtt.obj
 0002:00007084       ??_C@_0BG@MNJJKFG@Using?5client?5id?5?8?$CFs?8?6?$AA@ 0045c084     libcurl:mqtt.obj
 0002:0000709c       ??_C@_02KJFMPGEN@?$OA?$AA?$AA@ 0045c09c     libcurl:mqtt.obj
 0002:000070a0       ??_C@_0CD@NLBEEENO@Expected?5?$CF02x?$CF02x?5but?5got?5?$CF02x?$CF0@ 0045c0a0     libcurl:mqtt.obj
 0002:000070c4       ??_C@_0BL@DNONOMHF@Error?3?5No?5topic?5specified?4?$AA@ 0045c0c4     libcurl:mqtt.obj
 0002:000070e0       ??_C@_0BA@OEKHBJOJ@Got?5DISCONNECT?6?$AA@ 0045c0e0     libcurl:mqtt.obj
 0002:000070f0       ??_C@_0BN@MGHEPCAC@Remaining?5length?3?5?$CFzd?5bytes?6?$AA@ 0045c0f0     libcurl:mqtt.obj
 0002:00007110       ??_C@_0P@DEFHBOED@EEEE?5AAAAGAIN?6?$AA@ 0045c110     libcurl:mqtt.obj
 0002:00007120       ??_C@_0BF@GACMGODJ@server?5disconnected?6?$AA@ 0045c120     libcurl:mqtt.obj
 0002:00007138       ??_C@_0CD@OJHBBMOE@Error?5?$CFd?5sending?5MQTT?5CONN?5reque@ 0045c138     libcurl:mqtt.obj
 0002:00007160       _Curl_handler_mqtt         0045c160     libcurl:mqtt.obj
 0002:000071ac       ??_C@_0BI@BABCFLCJ@mqtt_doing?3?5state?5?$FL?$CFd?$FN?6?$AA@ 0045c1ac     libcurl:mqtt.obj
 0002:000071c4       ??_C@_0BG@OAAPNLCI@State?5not?5handled?5yet?$AA@ 0045c1c4     libcurl:mqtt.obj
 0002:00007200       ??_C@_02CBLDBPFN@?1?1?$AA@ 0045c200     libcurl:urlapi.obj
 0002:00007204       ??_C@_06JBHEDIOK@?$CF?$CF?$CF02x?$AA@ 0045c204     libcurl:urlapi.obj
 0002:0000720c       ??_C@_0CE@LAJONJKD@?$FL?$CF?$CK45?$FL0123456789abcdefABCDEF?3?4?$FN?$CF@ 0045c20c     libcurl:urlapi.obj
 0002:00007230       ??_C@_0L@JMDPGJCF@?$CF?$CK?$FL?$FO?$FN?$FN?$CFc?$CFn?$AA@ 0045c230     libcurl:urlapi.obj
 0002:0000723c       ??_C@_0BJ@GCDIHJFL@0123456789abcdefABCDEF?3?4?$AA@ 0045c23c     libcurl:urlapi.obj
 0002:00007258       ??_C@_02IFGANFKF@25?$AA@   0045c258     libcurl:urlapi.obj
 0002:0000725c       ??_C@_0L@BMEILEPM@localhost?1?$AA@ 0045c25c     libcurl:urlapi.obj
 0002:00007268       ??_C@_0L@PEIKEDOA@127?40?40?41?1?$AA@ 0045c268     libcurl:urlapi.obj
 0002:00007274       ??_C@_04JEAENMLI@ftp?4?$AA@ 0045c274     libcurl:urlapi.obj
 0002:0000727c       ??_C@_05DIBGJHGB@dict?4?$AA@ 0045c27c     libcurl:urlapi.obj
 0002:00007284       ??_C@_04BCIDKIGN@dict?$AA@ 0045c284     libcurl:urlapi.obj
 0002:0000728c       ??_C@_05IBNFLBOK@ldap?4?$AA@ 0045c28c     libcurl:urlapi.obj
 0002:00007294       ??_C@_04LHHBCKBL@ldap?$AA@ 0045c294     libcurl:urlapi.obj
 0002:0000729c       ??_C@_05NMAIECCI@imap?4?$AA@ 0045c29c     libcurl:urlapi.obj
 0002:000072a4       ??_C@_05BJICMEHI@smtp?4?$AA@ 0045c2a4     libcurl:urlapi.obj
 0002:000072ac       ??_C@_05BIGIEBHI@pop3?4?$AA@ 0045c2ac     libcurl:urlapi.obj
 0002:000072b4       ??_C@_04DNAACBI@pop3?$AA@  0045c2b4     libcurl:urlapi.obj
 0002:000072bc       ??_C@_01IPJKGB@?$CD?$AA@   0045c2bc     libcurl:urlapi.obj
 0002:000072c0       ??_C@_0O@IHCFMOPH@file?3?1?1?$CFs?$CFs?$CFs?$AA@ 0045c2c0     libcurl:urlapi.obj
 0002:000072d0       ??_C@_07FIPDGBND@?$CF?$CF25?$CFs?$FN?$AA@ 0045c2d0     libcurl:urlapi.obj
 0002:000072d8       ??_C@_01OGPIMHDM@?$DP?$AA@ 0045c2d8     libcurl:urlapi.obj
 0002:000072dc       ??_C@_01ICJEACDI@?$DL?$AA@ 0045c2dc     libcurl:urlapi.obj
 0002:000072e0       ??_C@_0CE@OBDBGLCL@?$CFs?3?1?1?$CFs?$CFs?$CFs?$CFs?$CFs?$CFs?$CFs?$CFs?$CFs?$CFs?$CFs?$CFs?$CFs?$CF@ 0045c2e0     libcurl:urlapi.obj
 0002:00007388       ??_C@_03ILLHFMNI@?5?7?6?$AA@ 0045c388     libcurl:netrc.obj
 0002:0000738c       ??_C@_07MHDNFCJE@machine?$AA@ 0045c38c     libcurl:netrc.obj
 0002:00007394       ??_C@_05DAOAAINN@login?$AA@ 0045c394     libcurl:netrc.obj
 0002:0000739c       ??_C@_08NLHBPEGP@password?$AA@ 0045c39c     libcurl:netrc.obj
 0002:000073a8       ??_C@_04GHGFPGNC@HOME?$AA@ 0045c3a8     libcurl:netrc.obj
 0002:000073b0       ??_C@_0L@JFCCGFMF@?$CFs?$CFs?4netrc?$AA@ 0045c3b0     libcurl:netrc.obj
 0002:000073bc       ??_C@_0L@NPDNLOFK@?$CFs?$CFs_netrc?$AA@ 0045c3bc     libcurl:netrc.obj
 0002:000073c8       ??_C@_0BF@HLLGBJGK@NTLM?5auth?5restarted?6?$AA@ 0045c3c8     libcurl:http_ntlm.obj
 0002:000073e0       ??_C@_0BJ@HCCPNMOH@NTLM?5handshake?5rejected?6?$AA@ 0045c3e0     libcurl:http_ntlm.obj
 0002:000073fc       ??_C@_0CJ@MLNEPBAC@NTLM?5handshake?5failure?5?$CIinternal@ 0045c3fc     libcurl:http_ntlm.obj
 0002:00007428       ??_C@_0BL@EBFLOACM@?$CFsAuthorization?3?5NTLM?5?$CFs?$AN?6?$AA@ 0045c428     libcurl:http_ntlm.obj
 0002:00007444       ??_C@_08INEPGKHH@No?5error?$AA@ 0045c444     libcurl:strerror.obj
 0002:00007450       ??_C@_0BF@MEALNKLO@Unsupported?5protocol?$AA@ 0045c450     libcurl:strerror.obj
 0002:00007468       ??_C@_0BG@JPNCGCLF@Failed?5initialization?$AA@ 0045c468     libcurl:strerror.obj
 0002:00007480       ??_C@_0CM@JDMFNFNN@URL?5using?5bad?1illegal?5format?5or?5@ 0045c480     libcurl:strerror.obj
 0002:000074b0       ??_C@_0GN@KLBPDHPC@A?5requested?5feature?0?5protocol?5or@ 0045c4b0     libcurl:strerror.obj
 0002:00007520       ??_C@_0BM@JKHJDDPC@Couldn?8t?5resolve?5proxy?5name?$AA@ 0045c520     libcurl:strerror.obj
 0002:0000753c       ??_C@_0BL@CLPICHFB@Couldn?8t?5resolve?5host?5name?$AA@ 0045c53c     libcurl:strerror.obj
 0002:00007558       ??_C@_0BL@BDHAOFN@Couldn?8t?5connect?5to?5server?$AA@ 0045c558     libcurl:strerror.obj
 0002:00007574       ??_C@_0BD@GDNMKEAK@Weird?5server?5reply?$AA@ 0045c574     libcurl:strerror.obj
 0002:00007588       ??_C@_0CB@NKJGLEPP@Access?5denied?5to?5remote?5resource@ 0045c588     libcurl:strerror.obj
 0002:000075ac       ??_C@_0CP@GDKINGFF@FTP?3?5The?5server?5failed?5to?5connec@ 0045c5ac     libcurl:strerror.obj
 0002:000075dc       ??_C@_0CM@JHMKLKFK@FTP?3?5Accepting?5server?5connect?5ha@ 0045c5dc     libcurl:strerror.obj
 0002:00007608       ??_C@_0DB@DKHIAOH@FTP?3?5The?5server?5did?5not?5accept?5t@ 0045c608     libcurl:strerror.obj
 0002:0000763c       ??_C@_0BI@CNGAPMMH@FTP?3?5unknown?5PASS?5reply?$AA@ 0045c63c     libcurl:strerror.obj
 0002:00007654       ??_C@_0BI@GFIAPCKD@FTP?3?5unknown?5PASV?5reply?$AA@ 0045c654     libcurl:strerror.obj
 0002:0000766c       ??_C@_0CB@PEGAMKPE@FTP?3?5unknown?5227?5response?5format@ 0045c66c     libcurl:strerror.obj
 0002:00007690       ??_C@_0DE@KGBALKDA@FTP?3?5can?8t?5figure?5out?5the?5host?5i@ 0045c690     libcurl:strerror.obj
 0002:000076c4       ??_C@_0CB@HOOHONND@Error?5in?5the?5HTTP2?5framing?5layer@ 0045c6c4     libcurl:strerror.obj
 0002:000076e8       ??_C@_0BM@OGPMHHJ@FTP?3?5couldn?8t?5set?5file?5type?$AA@ 0045c6e8     libcurl:strerror.obj
 0002:00007704       ??_C@_0BL@ODNPPPLA@Transferred?5a?5partial?5file?$AA@ 0045c704     libcurl:strerror.obj
 0002:00007720       ??_C@_0DI@LLJCFNFF@FTP?3?5couldn?8t?5retrieve?5?$CIRETR?5fai@ 0045c720     libcurl:strerror.obj
 0002:00007758       ??_C@_0BN@GGHOIADB@Quote?5command?5returned?5error?$AA@ 0045c758     libcurl:strerror.obj
 0002:00007778       ??_C@_0BO@BCKEJEKM@HTTP?5response?5code?5said?5error?$AA@ 0045c778     libcurl:strerror.obj
 0002:00007798       ??_C@_0DB@IMNDCIAA@Failed?5writing?5received?5data?5to?5@ 0045c798     libcurl:strerror.obj
 0002:000077cc       ??_C@_0CM@GACCEIFL@Upload?5failed?5?$CIat?5start?1before?5i@ 0045c7cc     libcurl:strerror.obj
 0002:000077f8       ??_C@_0DF@NBDLHGLH@Failed?5to?5open?1read?5local?5data?5f@ 0045c7f8     libcurl:strerror.obj
 0002:00007830       ??_C@_0O@NALGGDJF@Out?5of?5memory?$AA@ 0045c830     libcurl:strerror.obj
 0002:00007840       ??_C@_0BE@EKAJAHAD@Timeout?5was?5reached?$AA@ 0045c840     libcurl:strerror.obj
 0002:00007854       ??_C@_0BJ@IDOBBECI@FTP?3?5command?5PORT?5failed?$AA@ 0045c854     libcurl:strerror.obj
 0002:00007870       ??_C@_0BJ@GCLHLJAN@FTP?3?5command?5REST?5failed?$AA@ 0045c870     libcurl:strerror.obj
 0002:0000788c       ??_C@_0DA@JICMAFCG@Requested?5range?5was?5not?5delivere@ 0045c88c     libcurl:strerror.obj
 0002:000078bc       ??_C@_0CF@HBEMJAO@Internal?5problem?5setting?5up?5the?5@ 0045c8bc     libcurl:strerror.obj
 0002:000078e4       ??_C@_0BC@BFLONMCD@SSL?5connect?5error?$AA@ 0045c8e4     libcurl:strerror.obj
 0002:000078f8       ??_C@_0BJ@PKKEKELC@Couldn?8t?5resume?5download?$AA@ 0045c8f8     libcurl:strerror.obj
 0002:00007914       ??_C@_0BN@LDKECGHJ@Couldn?8t?5read?5a?5file?3?1?1?5file?$AA@ 0045c914     libcurl:strerror.obj
 0002:00007934       ??_C@_0BC@LBJDCDKB@LDAP?3?5cannot?5bind?$AA@ 0045c934     libcurl:strerror.obj
 0002:00007948       ??_C@_0BE@BFMFHGMM@LDAP?3?5search?5failed?$AA@ 0045c948     libcurl:strerror.obj
 0002:0000795c       ??_C@_0DB@KKNDLNIK@A?5required?5function?5in?5the?5libra@ 0045c95c     libcurl:strerror.obj
 0002:00007990       ??_C@_0DB@KJJLMJOB@Operation?5was?5aborted?5by?5an?5appl@ 0045c990     libcurl:strerror.obj
 0002:000079c4       ??_C@_0CM@GEPFAHDP@A?5libcurl?5function?5was?5given?5a?5b@ 0045c9c4     libcurl:strerror.obj
 0002:000079f0       ??_C@_0CE@NLIKOML@Failed?5binding?5local?5connection?5@ 0045c9f0     libcurl:strerror.obj
 0002:00007a14       ??_C@_0CH@DFMKCAJO@Number?5of?5redirects?5hit?5maximum?5@ 0045ca14     libcurl:strerror.obj
 0002:00007a3c       ??_C@_0CL@GBAGOIGJ@An?5unknown?5option?5was?5passed?5in?5@ 0045ca3c     libcurl:strerror.obj
 0002:00007a68       ??_C@_0BI@GPIPAJAH@Malformed?5telnet?5option?$AA@ 0045ca68     libcurl:strerror.obj
 0002:00007a80       ??_C@_0CO@JJKEOCN@Server?5returned?5nothing?5?$CIno?5head@ 0045ca80     libcurl:strerror.obj
 0002:00007ab0       ??_C@_0BM@GLLPPMBF@SSL?5crypto?5engine?5not?5found?$AA@ 0045cab0     libcurl:strerror.obj
 0002:00007acc       ??_C@_0CJ@HENCHBOB@Can?5not?5set?5SSL?5crypto?5engine?5as@ 0045cacc     libcurl:strerror.obj
 0002:00007af8       ??_C@_0CH@DINFHAAN@Failed?5to?5initialise?5SSL?5crypto?5@ 0045caf8     libcurl:strerror.obj
 0002:00007b20       ??_C@_0CA@CBOACNIE@Failed?5sending?5data?5to?5the?5peer?$AA@ 0045cb20     libcurl:strerror.obj
 0002:00007b40       ??_C@_0CK@JABNOBEN@Failure?5when?5receiving?5data?5from@ 0045cb40     libcurl:strerror.obj
 0002:00007b6c       ??_C@_0CH@IGBGAMEJ@Problem?5with?5the?5local?5SSL?5certi@ 0045cb6c     libcurl:strerror.obj
 0002:00007b94       ??_C@_0CC@IOEMABMM@Couldn?8t?5use?5specified?5SSL?5ciphe@ 0045cb94     libcurl:strerror.obj
 0002:00007bb8       ??_C@_0DC@MAPCLGNF@SSL?5peer?5certificate?5or?5SSH?5remo@ 0045cbb8     libcurl:strerror.obj
 0002:00007bec       ??_C@_0DE@DEFDNJHO@Problem?5with?5the?5SSL?5CA?5cert?5?$CIpa@ 0045cbec     libcurl:strerror.obj
 0002:00007c20       ??_C@_0DG@BCBHMDOA@Unrecognized?5or?5bad?5HTTP?5Content@ 0045cc20     libcurl:strerror.obj
 0002:00007c58       ??_C@_0BB@NNNAEHGN@Invalid?5LDAP?5URL?$AA@ 0045cc58     libcurl:strerror.obj
 0002:00007c6c       ??_C@_0BL@CJHAPGCI@Requested?5SSL?5level?5failed?$AA@ 0045cc6c     libcurl:strerror.obj
 0002:00007c88       ??_C@_0CH@HOHNDJFI@Failed?5to?5shut?5down?5the?5SSL?5conn@ 0045cc88     libcurl:strerror.obj
 0002:00007cb0       ??_C@_0DI@OEDDMGMA@Failed?5to?5load?5CRL?5file?5?$CIpath?$DP?5a@ 0045ccb0     libcurl:strerror.obj
 0002:00007ce8       ??_C@_0CN@PNDCIOI@Issuer?5check?5against?5peer?5certif@ 0045cce8     libcurl:strerror.obj
 0002:00007d18       ??_C@_0DG@HNNLFELE@Send?5failed?5since?5rewinding?5of?5t@ 0045cd18     libcurl:strerror.obj
 0002:00007d50       ??_C@_0N@LMNBNGOH@Login?5denied?$AA@ 0045cd50     libcurl:strerror.obj
 0002:00007d60       ??_C@_0BF@MMMLEDNM@TFTP?3?5File?5Not?5Found?$AA@ 0045cd60     libcurl:strerror.obj
 0002:00007d78       ??_C@_0BH@CPEHAKGC@TFTP?3?5Access?5Violation?$AA@ 0045cd78     libcurl:strerror.obj
 0002:00007d90       ??_C@_0CB@HICDEKOD@Disk?5full?5or?5allocation?5exceeded@ 0045cd90     libcurl:strerror.obj
 0002:00007db4       ??_C@_0BI@FHLDKMPM@TFTP?3?5Illegal?5operation?$AA@ 0045cdb4     libcurl:strerror.obj
 0002:00007dcc       ??_C@_0BK@FHGNFCEK@TFTP?3?5Unknown?5transfer?5ID?$AA@ 0045cdcc     libcurl:strerror.obj
 0002:00007de8       ??_C@_0BL@LCPLBBDI@Remote?5file?5already?5exists?$AA@ 0045cde8     libcurl:strerror.obj
 0002:00007e04       ??_C@_0BD@HHOJBMKC@TFTP?3?5No?5such?5user?$AA@ 0045ce04     libcurl:strerror.obj
 0002:00007e18       ??_C@_0BC@CGNMGHHJ@Conversion?5failed?$AA@ 0045ce18     libcurl:strerror.obj
 0002:00007e2c       ??_C@_0DE@HIBGAHH@Caller?5must?5register?5CURLOPT_CON@ 0045ce2c     libcurl:strerror.obj
 0002:00007e60       ??_C@_0BG@IGAJKGEI@Remote?5file?5not?5found?$AA@ 0045ce60     libcurl:strerror.obj
 0002:00007e78       ??_C@_0BH@LIBGKEPA@Error?5in?5the?5SSH?5layer?$AA@ 0045ce78     libcurl:strerror.obj
 0002:00007e90       ??_C@_0BP@PKAGPAKC@Socket?5not?5ready?5for?5send?1recv?$AA@ 0045ce90     libcurl:strerror.obj
 0002:00007eb0       ??_C@_0CD@KOGOJFPD@RTSP?5CSeq?5mismatch?5or?5invalid?5CS@ 0045ceb0     libcurl:strerror.obj
 0002:00007ed4       ??_C@_0BD@JIDDONAN@RTSP?5session?5error?$AA@ 0045ced4     libcurl:strerror.obj
 0002:00007ee8       ??_C@_0BO@DHDGALJN@Unable?5to?5parse?5FTP?5file?5list?$AA@ 0045cee8     libcurl:strerror.obj
 0002:00007f08       ??_C@_0BG@NNCCNDKN@Chunk?5callback?5failed?$AA@ 0045cf08     libcurl:strerror.obj
 0002:00007f20       ??_C@_0CE@LHGEKMEA@The?5max?5connection?5limit?5is?5reac@ 0045cf20     libcurl:strerror.obj
 0002:00007f44       ??_C@_0DA@PMPKPBFL@SSL?5public?5key?5does?5not?5match?5pi@ 0045cf44     libcurl:strerror.obj
 0002:00007f74       ??_C@_0DC@PMBIKFPE@SSL?5server?5certificate?5status?5ve@ 0045cf74     libcurl:strerror.obj
 0002:00007fa8       ??_C@_0CJ@PHNFPMLB@Stream?5error?5in?5the?5HTTP?12?5frami@ 0045cfa8     libcurl:strerror.obj
 0002:00007fd4       ??_C@_0CJ@IFPPFNBC@API?5function?5called?5from?5within?5@ 0045cfd4     libcurl:strerror.obj
 0002:00008000       ??_C@_0CN@PKGNGNMF@An?5authentication?5function?5retur@ 0045d000     libcurl:strerror.obj
 0002:00008030       ??_C@_0N@IECDEAGO@HTTP?13?5error?$AA@ 0045d030     libcurl:strerror.obj
 0002:00008040       ??_C@_0BG@PCGCKLBM@QUIC?5connection?5error?$AA@ 0045d040     libcurl:strerror.obj
 0002:00008058       ??_C@_0BG@DPKHLLKF@proxy?5handshake?5error?$AA@ 0045d058     libcurl:strerror.obj
 0002:00008070       ??_C@_0O@NIPGCINC@Unknown?5error?$AA@ 0045d070     libcurl:strerror.obj
 0002:00008080       ??_C@_0BB@HPBICEIN@Call?5interrupted?$AA@ 0045d080     libcurl:strerror.obj
 0002:00008094       ??_C@_08IEJNJKPH@Bad?5file?$AA@ 0045d094     libcurl:strerror.obj
 0002:000080a0       ??_C@_0L@PPOOPPLI@Bad?5access?$AA@ 0045d0a0     libcurl:strerror.obj
 0002:000080ac       ??_C@_0N@OFCOFIJG@Bad?5argument?$AA@ 0045d0ac     libcurl:strerror.obj
 0002:000080bc       ??_C@_0BC@PALKPJEA@Invalid?5arguments?$AA@ 0045d0bc     libcurl:strerror.obj
 0002:000080d0       ??_C@_0BI@OFCJJGOL@Out?5of?5file?5descriptors?$AA@ 0045d0d0     libcurl:strerror.obj
 0002:000080e8       ??_C@_0BB@KJIOCALL@Call?5would?5block?$AA@ 0045d0e8     libcurl:strerror.obj
 0002:000080fc       ??_C@_0BK@LAFJNHKK@Blocking?5call?5in?5progress?$AA@ 0045d0fc     libcurl:strerror.obj
 0002:00008118       ??_C@_0BL@BCCPNPNK@Descriptor?5is?5not?5a?5socket?$AA@ 0045d118     libcurl:strerror.obj
 0002:00008134       ??_C@_0BJ@PJJDHGPA@Need?5destination?5address?$AA@ 0045d134     libcurl:strerror.obj
 0002:00008150       ??_C@_0BB@FIFBBOKN@Bad?5message?5size?$AA@ 0045d150     libcurl:strerror.obj
 0002:00008164       ??_C@_0N@HKFEGNLE@Bad?5protocol?$AA@ 0045d164     libcurl:strerror.obj
 0002:00008174       ??_C@_0BP@CMLHIFII@Protocol?5option?5is?5unsupported?$AA@ 0045d174     libcurl:strerror.obj
 0002:00008194       ??_C@_0BI@KIGPDANH@Protocol?5is?5unsupported?$AA@ 0045d194     libcurl:strerror.obj
 0002:000081ac       ??_C@_0BG@PJCKEJGL@Socket?5is?5unsupported?$AA@ 0045d1ac     libcurl:strerror.obj
 0002:000081c4       ??_C@_0BI@EDJAHLMH@Operation?5not?5supported?$AA@ 0045d1c4     libcurl:strerror.obj
 0002:000081dc       ??_C@_0BN@GMEBDOHK@Address?5family?5not?5supported?$AA@ 0045d1dc     libcurl:strerror.obj
 0002:000081fc       ??_C@_0BO@EBCCBLCJ@Protocol?5family?5not?5supported?$AA@ 0045d1fc     libcurl:strerror.obj
 0002:0000821c       ??_C@_0BH@LOKACPE@Address?5already?5in?5use?$AA@ 0045d21c     libcurl:strerror.obj
 0002:00008234       ??_C@_0BG@LPGNEDFC@Address?5not?5available?$AA@ 0045d234     libcurl:strerror.obj
 0002:0000824c       ??_C@_0N@BLPKELHL@Network?5down?$AA@ 0045d24c     libcurl:strerror.obj
 0002:0000825c       ??_C@_0BE@BCKBHKGP@Network?5unreachable?$AA@ 0045d25c     libcurl:strerror.obj
 0002:00008270       ??_C@_0BH@IGDKJAJA@Network?5has?5been?5reset?$AA@ 0045d270     libcurl:strerror.obj
 0002:00008288       ??_C@_0BH@CAGNAMLD@Connection?5was?5aborted?$AA@ 0045d288     libcurl:strerror.obj
 0002:000082a0       ??_C@_0BF@ONIPBLIH@Connection?5was?5reset?$AA@ 0045d2a0     libcurl:strerror.obj
 0002:000082b8       ??_C@_0BA@OCGNHFCH@No?5buffer?5space?$AA@ 0045d2b8     libcurl:strerror.obj
 0002:000082c8       ??_C@_0BM@CCONNCKE@Socket?5is?5already?5connected?$AA@ 0045d2c8     libcurl:strerror.obj
 0002:000082e4       ??_C@_0BI@ILAOGBJJ@Socket?5is?5not?5connected?$AA@ 0045d2e4     libcurl:strerror.obj
 0002:000082fc       ??_C@_0BK@KFOKKGHA@Socket?5has?5been?5shut?5down?$AA@ 0045d2fc     libcurl:strerror.obj
 0002:00008318       ??_C@_0BE@JFIGGPOD@Too?5many?5references?$AA@ 0045d318     libcurl:strerror.obj
 0002:0000832c       ??_C@_09OGKCMDDI@Timed?5out?$AA@ 0045d32c     libcurl:strerror.obj
 0002:00008338       ??_C@_0BD@NPDMPPFP@Connection?5refused?$AA@ 0045d338     libcurl:strerror.obj
 0002:0000834c       ??_C@_06BPCOEKJC@Loop?$DP?$DP?$AA@ 0045d34c     libcurl:strerror.obj
 0002:00008354       ??_C@_0O@CGIEAMHJ@Name?5too?5long?$AA@ 0045d354     libcurl:strerror.obj
 0002:00008364       ??_C@_09IKKBPHPB@Host?5down?$AA@ 0045d364     libcurl:strerror.obj
 0002:00008370       ??_C@_0BB@BJPAGEMG@Host?5unreachable?$AA@ 0045d370     libcurl:strerror.obj
 0002:00008384       ??_C@_09HNKMHKD@Not?5empty?$AA@ 0045d384     libcurl:strerror.obj
 0002:00008390       ??_C@_0BG@HNPEDFFM@Process?5limit?5reached?$AA@ 0045d390     libcurl:strerror.obj
 0002:000083a8       ??_C@_0P@DAFGFIDC@Too?5many?5users?$AA@ 0045d3a8     libcurl:strerror.obj
 0002:000083b8       ??_C@_09OLCJIOMK@Bad?5quota?$AA@ 0045d3b8     libcurl:strerror.obj
 0002:000083c4       ??_C@_0BD@OAJEPCAF@Something?5is?5stale?$AA@ 0045d3c4     libcurl:strerror.obj
 0002:000083d8       ??_C@_0N@CMGGHDDP@Remote?5error?$AA@ 0045d3d8     libcurl:strerror.obj
 0002:000083e8       ??_C@_0N@NFBNFHML@Disconnected?$AA@ 0045d3e8     libcurl:strerror.obj
 0002:000083f8       ??_C@_0BN@NBHIJNDO@Winsock?5library?5is?5not?5ready?$AA@ 0045d3f8     libcurl:strerror.obj
 0002:00008418       ??_C@_0CA@GOKMBGKE@Winsock?5library?5not?5initialised?$AA@ 0045d418     libcurl:strerror.obj
 0002:00008438       ??_C@_0BO@CMBHKIGC@Winsock?5version?5not?5supported?$AA@ 0045d438     libcurl:strerror.obj
 0002:00008458       ??_C@_0P@CAFMJNJH@Host?5not?5found?$AA@ 0045d458     libcurl:strerror.obj
 0002:00008468       ??_C@_0BK@LIMDACMA@Host?5not?5found?0?5try?5again?$AA@ 0045d468     libcurl:strerror.obj
 0002:00008484       ??_C@_0CK@PHGIEDKM@Unrecoverable?5error?5in?5call?5to?5n@ 0045d484     libcurl:strerror.obj
 0002:000084b0       ??_C@_0CB@PAPDILAI@No?5data?5record?5of?5requested?5type@ 0045d4b0     libcurl:strerror.obj
 0002:000084d4       ??_C@_0BH@LLHLFDOA@Unknown?5error?5?$CFd?5?$CI?$CF?$CDx?$CJ?$AA@ 0045d4d4     libcurl:strerror.obj
 0002:000084ec       ??_C@_0M@PCENNPGA@?$CFd?4?$CFd?4?$CFd?4?$CFd?$AA@ 0045d4ec     libcurl:inet_ntop.obj
 0002:000084f8       ??_C@_03OPHMLOFF@?$CFlx?$AA@ 0045d4f8     libcurl:inet_ntop.obj
 0002:000084fc       ??_C@_04DPLCCHJC@auth?$AA@ 0045d4fc     libcurl:digest.obj
 0002:00008504       ??_C@_08DMLLJBKJ@auth?9int?$AA@ 0045d504     libcurl:digest.obj
 0002:00008510       ??_C@_09HPCMDFJO@auth?9conf?$AA@ 0045d510     libcurl:digest.obj
 0002:0000851c       ??_C@_07EJNHPKHG@nonce?$DN?$CC?$AA@ 0045d51c     libcurl:digest.obj
 0002:00008524       ??_C@_07HAABIMLH@realm?$DN?$CC?$AA@ 0045d524     libcurl:digest.obj
 0002:0000852c       ??_C@_0L@HDBLKLNB@algorithm?$DN?$AA@ 0045d52c     libcurl:digest.obj
 0002:00008538       ??_C@_05HFBPPANL@qop?$DN?$CC?$AA@ 0045d538     libcurl:digest.obj
 0002:00008540       ??_C@_08KNCPHIAE@00000001?$AA@ 0045d540     libcurl:digest.obj
 0002:0000854c       ??_C@_0N@PMNNBFMH@AUTHENTICATE?$AA@ 0045d54c     libcurl:digest.obj
 0002:0000855c       ??_C@_08EBDNNOOM@md5?9sess?$AA@ 0045d55c     libcurl:digest.obj
 0002:00008568       ??_C@_0FL@LNDBMOBB@username?$DN?$CC?$CFs?$CC?0realm?$DN?$CC?$CFs?$CC?0nonce?$DN?$CC@ 0045d568     libcurl:digest.obj
 0002:000085c4       ??_C@_05OOEDLKEB@nonce?$AA@ 0045d5c4     libcurl:digest.obj
 0002:000085cc       ??_C@_05BFAEFKPM@stale?$AA@ 0045d5cc     libcurl:digest.obj
 0002:000085d4       ??_C@_04LOAJBDKD@true?$AA@ 0045d5d4     libcurl:digest.obj
 0002:000085dc       ??_C@_05ELABLNGD@realm?$AA@ 0045d5dc     libcurl:digest.obj
 0002:000085e4       ??_C@_06CJCOLNBB@opaque?$AA@ 0045d5e4     libcurl:digest.obj
 0002:000085ec       ??_C@_03GBIMBCPB@qop?$AA@  0045d5ec     libcurl:digest.obj
 0002:000085f0       ??_C@_09JPNFBOJG@algorithm?$AA@ 0045d5f0     libcurl:digest.obj
 0002:000085fc       ??_C@_08DKLKDOBJ@MD5?9sess?$AA@ 0045d5fc     libcurl:digest.obj
 0002:00008608       ??_C@_03GCGHEHKJ@MD5?$AA@  0045d608     libcurl:digest.obj
 0002:0000860c       ??_C@_07DKFLFLPF@SHA?9256?$AA@ 0045d60c     libcurl:digest.obj
 0002:00008614       ??_C@_0N@EOLPNNCE@SHA?9256?9SESS?$AA@ 0045d614     libcurl:digest.obj
 0002:00008624       ??_C@_0M@ODMGHIGE@SHA?9512?9256?$AA@ 0045d624     libcurl:digest.obj
 0002:00008630       ??_C@_0BB@LFGPIGKB@SHA?9512?9256?9SESS?$AA@ 0045d630     libcurl:digest.obj
 0002:00008644       ??_C@_08MPDCKPHM@userhash?$AA@ 0045d644     libcurl:digest.obj
 0002:00008650       ??_C@_08LDENPILD@?$CFs?3?$CFs?3?$CFs?$AA@ 0045d650     libcurl:digest.obj
 0002:0000865c       ??_C@_0BE@DBLPOOMB@?$CFs?3?$CFs?3?$CF08x?3?$CFs?3?$CFs?3?$CFs?$AA@ 0045d65c     libcurl:digest.obj
 0002:00008670       ??_C@_0FN@LPOMOJKE@username?$DN?$CC?$CFs?$CC?0?5realm?$DN?$CC?$CFs?$CC?0?5nonce@ 0045d670     libcurl:digest.obj
 0002:000086d0       ??_C@_0DP@IEBMKLAD@username?$DN?$CC?$CFs?$CC?0?5realm?$DN?$CC?$CFs?$CC?0?5nonce@ 0045d6d0     libcurl:digest.obj
 0002:00008710       ??_C@_0BA@BIMHECMC@?$CFs?0?5opaque?$DN?$CC?$CFs?$CC?$AA@ 0045d710     libcurl:digest.obj
 0002:00008720       ??_C@_0BB@JNPNCBL@?$CFs?0?5algorithm?$DN?$CFs?$AA@ 0045d720     libcurl:digest.obj
 0002:00008734       ??_C@_0BC@HNHNJNFB@?$CFs?0?5userhash?$DNtrue?$AA@ 0045d734     libcurl:digest.obj
 0002:00008748       ??_C@_0BM@ILAEFAML@Too?5long?5hexadecimal?5number?$AA@ 0045d748     libcurl:http_chunks.obj
 0002:00008764       ??_C@_0CI@EPIPCBEA@Illegal?5or?5missing?5hexadecimal?5s@ 0045d764     libcurl:http_chunks.obj
 0002:0000878c       ??_C@_0BJ@JKKKEMNN@Malformed?5encoding?5found?$AA@ 0045d78c     libcurl:http_chunks.obj
 0002:000087a8       ??_C@_0BL@NBOBMEI@Bad?5content?9encoding?5found?$AA@ 0045d7a8     libcurl:http_chunks.obj
 0002:000087fc       ??_C@_09JLCBMBBK@Bad?5label?$AA@ 0045d7fc     libcurl:doh.obj
 0002:00008808       ??_C@_0N@OBIJMHDD@Out?5of?5range?$AA@ 0045d808     libcurl:doh.obj
 0002:00008818       ??_C@_0L@IEBIAGNN@Label?5loop?$AA@ 0045d818     libcurl:doh.obj
 0002:00008824       ??_C@_09OCNDOFP@Too?5small?$AA@ 0045d824     libcurl:doh.obj
 0002:00008830       ??_C@_0N@FHJOLNAK@RDATA?5length?$AA@ 0045d830     libcurl:doh.obj
 0002:00008840       ??_C@_09OCLBHOEO@Malformat?$AA@ 0045d840     libcurl:doh.obj
 0002:0000884c       ??_C@_09DBMBBPHM@Bad?5RCODE?$AA@ 0045d84c     libcurl:doh.obj
 0002:00008858       ??_C@_0BA@OKMFLAL@Unexpected?5TYPE?$AA@ 0045d858     libcurl:doh.obj
 0002:00008868       ??_C@_0BB@EAJHLOKN@Unexpected?5CLASS?$AA@ 0045d868     libcurl:doh.obj
 0002:0000887c       ??_C@_0L@KKIPEPDM@No?5content?$AA@ 0045d87c     libcurl:doh.obj
 0002:00008888       ??_C@_06FFHBNKND@Bad?5ID?$AA@ 0045d888     libcurl:doh.obj
 0002:00008890       ??_C@_0P@JHEEOJHM@bad?5error?5code?$AA@ 0045d890     libcurl:doh.obj
 0002:000088a0       ??_C@_0CG@CKDPOMBN@a?5DOH?5request?5is?5completed?0?5?$CFu?5t@ 0045d8a0     libcurl:doh.obj
 0002:000088c8       ??_C@_0BA@NDOGDMBN@DOH?5request?5?$CFs?6?$AA@ 0045d8c8     libcurl:doh.obj
 0002:000088d8       ??_C@_0CB@KOMHFCDO@Failed?5to?5encode?5DOH?5packet?5?$FL?$CFd?$FN@ 0045d8d8     libcurl:doh.obj
 0002:000088fc       ??_C@_09OLGCPDFN@?$CFs?$DPdns?$DN?$CFs?$AA@ 0045d8fc     libcurl:doh.obj
 0002:00008908       ??_C@_0CG@KIGAOFHM@Content?9Type?3?5application?1dns?9me@ 0045d908     libcurl:doh.obj
 0002:00008930       ??_C@_0BB@DKILCKOO@TTL?3?5?$CFu?5seconds?6?$AA@ 0045d930     libcurl:doh.obj
 0002:00008944       ??_C@_0BE@FOEBOIJB@DOH?5A?3?5?$CFu?4?$CFu?4?$CFu?4?$CFu?6?$AA@ 0045d944     libcurl:doh.obj
 0002:00008958       ??_C@_0L@NNFPBGFL@DOH?5AAAA?3?5?$AA@ 0045d958     libcurl:doh.obj
 0002:00008964       ??_C@_0L@NCOIGGIO@?$CFs?$CF02x?$CF02x?$AA@ 0045d964     libcurl:doh.obj
 0002:00008970       ??_C@_0L@GJHHPGAI@CNAME?3?5?$CFs?6?$AA@ 0045d970     libcurl:doh.obj
 0002:0000897c       ??_C@_01FHEEJDEE@A?$AA@    0045d97c     libcurl:doh.obj
 0002:00008980       ??_C@_04OHNMNPPA@AAAA?$AA@ 0045d980     libcurl:doh.obj
 0002:00008988       ??_C@_0BK@IFADNFO@Could?5not?5DOH?9resolve?3?5?$CFs?$AA@ 0045d988     libcurl:doh.obj
 0002:000089a4       ??_C@_0BI@CENMKCHB@DOH?3?5?$CFs?5type?5?$CFs?5for?5?$CFs?6?$AA@ 0045d9a4     libcurl:doh.obj
 0002:000089bc       ??_C@_0BD@FBBLOGDK@DOH?5Host?5name?3?5?$CFs?6?$AA@ 0045d9bc     libcurl:doh.obj
 0002:00008a5c       ??_C@_06BHJPINKK@?$CFc?$CFc?$DN?$DN?$AA@ 0045da5c     libcurl:base64.obj
 0002:00008a64       ??_C@_07KPHDOBAP@?$CFc?$CFc?$CFc?$DN?$AA@ 0045da64     libcurl:base64.obj
 0002:00008a70       ??_C@_0GC@KMDLLNFG@NTLM?5handshake?5failure?5?$CIbad?5type@ 0045da70     libcurl:ntlm.obj
 0002:00008ad4       ??_C@_0CP@KIFOOILK@NTLM?5handshake?5failure?5?$CIempty?5ty@ 0045dad4     libcurl:ntlm.obj
 0002:00008b04       ??_C@_0CN@NILNEGOG@NTLM?5handshake?5failure?5?$CIbad?5type@ 0045db04     libcurl:ntlm.obj
 0002:00008b34       ??_C@_0DN@EOPIHEDC@NTLMSSP?$CFc?$AB?$CFc?$CFc?$CFc?$CFc?$CFc?$CFc?$CFc?$CFc?$CFc?$CFc?$CFc@ 0045db34     libcurl:ntlm.obj
 0002:00008b74       ??_C@_0CL@BCOKKCBO@gethostname?$CI?$CJ?5failed?0?5continuing@ 0045db74     libcurl:ntlm.obj
 0002:00008ba0       ??_C@_0HJ@CLKEMMBI@NTLMSSP?$CFc?$AD?$CFc?$CFc?$CFc?$CFc?$CFc?$CFc?$CFc?$CFc?$CFc?$CFc?$CFc@ 0045dba0     libcurl:ntlm.obj
 0002:00008c1c       ??_C@_0BO@JAAKONFE@incoming?5NTLM?5message?5too?5big?$AA@ 0045dc1c     libcurl:ntlm.obj
 0002:00008c3c       ??_C@_0CC@OKCALBLA@user?5?$CL?5domain?5?$CL?5host?5name?5too?5bi@ 0045dc3c     libcurl:ntlm.obj
 0002:00008c60       ??_C@_07NPDBOIDH@aws?3amz?$AA@ 0045dc60     libcurl:http_aws_sigv4.obj
 0002:00008c68       ??_C@_0BP@KLOELJLG@first?5provider?5can?8t?5be?5empty?6?$AA@ 0045dc68     libcurl:http_aws_sigv4.obj
 0002:00008c88       ??_C@_0CA@EAHCMJLP@second?5provider?5can?8t?5be?5empty?6?$AA@ 0045dc88     libcurl:http_aws_sigv4.obj
 0002:00008ca8       ??_C@_0BH@GCAPKOHK@region?5can?8t?5be?5empty?6?$AA@ 0045dca8     libcurl:http_aws_sigv4.obj
 0002:00008cc0       ??_C@_0BI@DONEAKFM@service?5can?8t?5be?5empty?6?$AA@ 0045dcc0     libcurl:http_aws_sigv4.obj
 0002:00008cd8       ??_C@_0CL@KGLCCDEP@service?5missing?5in?5parameters?5or@ 0045dcd8     libcurl:http_aws_sigv4.obj
 0002:00008d04       ??_C@_0CK@MPAFOPCI@region?5missing?5in?5parameters?5or?5@ 0045dd04     libcurl:http_aws_sigv4.obj
 0002:00008d30       ??_C@_0P@IKNEGPFP@?$CFY?$CFm?$CFdT?$CFH?$CFM?$CFSZ?$AA@ 0045dd30     libcurl:http_aws_sigv4.obj
 0002:00008d40       ??_C@_0CG@LGOKAMLB@content?9type?3?$CFs?6host?3?$CFs?6x?9?$CFs?9dat@ 0045dd40     libcurl:http_aws_sigv4.obj
 0002:00008d68       ??_C@_0BM@KIONJGIN@content?9type?$DLhost?$DLx?9?$CFs?9date?$AA@ 0045dd68     libcurl:http_aws_sigv4.obj
 0002:00008d84       ??_C@_0BG@KFBJEMGA@host?3?$CFs?6x?9?$CFs?9date?3?$CFs?6?$AA@ 0045dd84     libcurl:http_aws_sigv4.obj
 0002:00008d9c       ??_C@_0P@LBLFCGEL@host?$DLx?9?$CFs?9date?$AA@ 0045dd9c     libcurl:http_aws_sigv4.obj
 0002:00008dac       ??_C@_0BC@PHFFPANB@?$CFs?6?$CFs?6?$CFs?6?$CFs?6?$CFs?6?$CFs?$AA@ 0045ddac     libcurl:http_aws_sigv4.obj
 0002:00008dc0       ??_C@_0M@HICACENB@?$CFs4_request?$AA@ 0045ddc0     libcurl:http_aws_sigv4.obj
 0002:00008dcc       ??_C@_0M@CFLEPOPB@?$CFs?1?$CFs?1?$CFs?1?$CFs?$AA@ 0045ddcc     libcurl:http_aws_sigv4.obj
 0002:00008dd8       ??_C@_0BJ@CMHLPGHN@?$CFs4?9HMAC?9SHA256?6?$CFs?6?$CFs?6?$CFs?$AA@ 0045ddd8     libcurl:http_aws_sigv4.obj
 0002:00008df4       ??_C@_05OCPDJBAO@?$CFs4?$CFs?$AA@ 0045ddf4     libcurl:http_aws_sigv4.obj
 0002:00008e00       ??_C@_0GB@FIOPLDOD@Authorization?3?5?$CFs4?9HMAC?9SHA256?5C@ 0045de00     libcurl:http_aws_sigv4.obj
 0002:00008e64       ??_C@_0BI@OMBEIMIN@server?5response?5timeout?$AA@ 0045de64     libcurl:pingpong.obj
 0002:00008e7c       ??_C@_0BC@FLDALOLK@select?1poll?5error?$AA@ 0045de7c     libcurl:pingpong.obj
 0002:00008e90       ??_C@_0CH@HOGDLIGJ@cached?5response?5data?5too?5big?5to?5@ 0045de90     libcurl:pingpong.obj
 0002:00008eb8       ??_C@_0BI@KBMAOGBB@response?5reading?5failed?$AA@ 0045deb8     libcurl:pingpong.obj
 0002:00008ed0       ??_C@_0EG@IFEGJIDG@Excessive?5server?5response?5line?5l@ 0045ded0     libcurl:pingpong.obj
 0002:00008fa8       ??_C@_05PLHGOPJD@LOGIN?$AA@ 0045dfa8     libcurl:curl_sasl.obj
 0002:00008fb0       ??_C@_05ONKJAIHP@PLAIN?$AA@ 0045dfb0     libcurl:curl_sasl.obj
 0002:00008fb8       ??_C@_08DNNNMLKI@CRAM?9MD5?$AA@ 0045dfb8     libcurl:curl_sasl.obj
 0002:00008fc4       ??_C@_0L@ELGHJPGH@DIGEST?9MD5?$AA@ 0045dfc4     libcurl:curl_sasl.obj
 0002:00008fd0       ??_C@_06HIDJEBJA@GSSAPI?$AA@ 0045dfd0     libcurl:curl_sasl.obj
 0002:00008fd8       ??_C@_08JHLDEHEK@EXTERNAL?$AA@ 0045dfd8     libcurl:curl_sasl.obj
 0002:00008fe4       ??_C@_07ENDMEEPL@XOAUTH2?$AA@ 0045dfe4     libcurl:curl_sasl.obj
 0002:00008fec       ??_C@_0M@CNKKGKLC@OAUTHBEARER?$AA@ 0045dfec     libcurl:curl_sasl.obj
 0002:00008ff8       ??_C@_0M@NPGGIEFL@SCRAM?9SHA?91?$AA@ 0045dff8     libcurl:curl_sasl.obj
 0002:00009004       ??_C@_0O@KJDAFCA@SCRAM?9SHA?9256?$AA@ 0045e004     libcurl:curl_sasl.obj
 0002:00009014       ??_C@_04GJKECPKB@AQ?$DN?$DN?$AA@ 0045e014     libcurl:curl_sasl.obj
 0002:0000901c       ??_C@_0CK@LABGPHKL@Unsupported?5SASL?5authentication?5@ 0045e01c     libcurl:curl_sasl.obj
 0002:00009048       _Curl_DIGEST_MD5           0045e048     libcurl:md5.obj
 0002:0000905c       _Curl_HMAC_MD5             0045e05c     libcurl:md5.obj
 0002:00009074       ??_C@_04BBDFLMDN@?5?9?$DO?5?$AA@ 0045e074     libcurl:ftplistparser.obj
 0002:0000907c       ??_C@_06NIJHKJLJ@total?5?$AA@ 0045e07c     libcurl:ftplistparser.obj
 0002:00009084       ??_C@_08IKJPBGEL@rwx?9tTsS?$AA@ 0045e084     libcurl:ftplistparser.obj
 0002:00009090       ??_C@_0M@GKMDGLA@0123456789?9?$AA@ 0045e090     libcurl:ftplistparser.obj
 0002:0000909c       ??_C@_0P@BIDONHD@APM0123456789?3?$AA@ 0045e09c     libcurl:ftplistparser.obj
 0002:000090ac       ??_C@_05FIBHJBBH@?$DMDIR?$DO?$AA@ 0045e0ac     libcurl:ftplistparser.obj
 0002:000090bc       ??_C@_0CB@NDKGBGMP@?$CFc?$CFc?$CFc?$CFc?$CFc?$CFc?$CFc?$CFc?$CFc?$CFc?$CFc?$CFc?$CFc?$CFc?$CFc?$CFc@ 0045e0bc     libcurl:curl_ntlm_core.obj
 0002:000090e0       ??_C@_02CAHBHFGK@?4?1?$AA@ 0045e0e0     libcurl:dotdot.obj
 0002:000090e4       ??_C@_03LOJJKLGJ@?4?4?1?$AA@ 0045e0e4     libcurl:dotdot.obj
 0002:000090e8       ??_C@_03GCFMMAM@?1?4?1?$AA@ 0045e0e8     libcurl:dotdot.obj
 0002:000090ec       ??_C@_02DIKICOBM@?1?4?$AA@ 0045e0ec     libcurl:dotdot.obj
 0002:000090f0       ??_C@_04BKGODLLN@?1?4?4?1?$AA@ 0045e0f0     libcurl:dotdot.obj
 0002:000090f8       ??_C@_03BPDOPNEN@?1?4?4?$AA@ 0045e0f8     libcurl:dotdot.obj
 0002:000090fc       ??_C@_02DJGKEECL@?4?4?$AA@ 0045e0fc     libcurl:dotdot.obj
 0002:00009100       ??_C@_08ICCJALCC@?$CFs?1?$CFs?$EA?$CFs?$AA@ 0045e100     libcurl:vauth.obj
 0002:0000910c       ??_C@_05GFOLEBJA@?$CFs?1?$CFs?$AA@ 0045e10c     libcurl:vauth.obj
 0002:00009114       ??_C@_05GKOKGMF@?$CFs?$EA?$CFs?$AA@ 0045e114     libcurl:vauth.obj
 0002:0000911c       _Curl_HMAC_SHA256          0045e11c     libcurl:sha256.obj
 0002:00009138       ??_C@_01NEMOKFLO@?$DN?$AA@ 0045e138     libcurl:cleartext.obj
 0002:00009140       ??_C@_0EE@GBENNIBO@?$CFs?5?$CF02x?$CF02x?$CF02x?$CF02x?$CF02x?$CF02x?$CF02x?$CF@ 0045e140     libcurl:cram.obj
 0002:00009184       ??_C@_0CB@GNAMIMBB@n?0a?$DN?$CFs?0?$ABhost?$DN?$CFs?$ABauth?$DNBearer?5?$CFs?$AB?$AB@ 0045e184     libcurl:oauth2.obj
 0002:000091a8       ??_C@_0CK@MLPCPAOG@n?0a?$DN?$CFs?0?$ABhost?$DN?$CFs?$ABport?$DN?$CFld?$ABauth?$DNBe@ 0045e1a8     libcurl:oauth2.obj
 0002:000091d4       ??_C@_0BJ@HPFOJHGD@user?$DN?$CFs?$ABauth?$DNBearer?5?$CFs?$AB?$AB?$AA@ 0045e1d4     libcurl:oauth2.obj
 0002:000091f0       ??_C@_05ODNOIFML@digit?$AA@ 0045e1f0     libcurl:curl_fnmatch.obj
 0002:000091f8       ??_C@_05IIMHCHIO@alnum?$AA@ 0045e1f8     libcurl:curl_fnmatch.obj
 0002:00009200       ??_C@_05IAEKHIAN@alpha?$AA@ 0045e200     libcurl:curl_fnmatch.obj
 0002:00009208       ??_C@_06BAPHGFFK@xdigit?$AA@ 0045e208     libcurl:curl_fnmatch.obj
 0002:00009210       ??_C@_05IJDJACGD@print?$AA@ 0045e210     libcurl:curl_fnmatch.obj
 0002:00009218       ??_C@_05KCJBMLII@graph?$AA@ 0045e218     libcurl:curl_fnmatch.obj
 0002:00009220       ??_C@_05OLNILLAB@space?$AA@ 0045e220     libcurl:curl_fnmatch.obj
 0002:00009228       ??_C@_05BABJKOGB@blank?$AA@ 0045e228     libcurl:curl_fnmatch.obj
 0002:00009230       ??_C@_05NECKJAMC@upper?$AA@ 0045e230     libcurl:curl_fnmatch.obj
 0002:00009238       ??_C@_05IPJEPLHL@lower?$AA@ 0045e238     libcurl:curl_fnmatch.obj
 0002:00009258       ??_C@_0BC@EOODALEL@Unknown?5exception@ 0045e258     Main.obj
 0002:0000926c       ??_C@_0BF@KINCDENJ@bad?5array?5new?5length@ 0045e26c     Main.obj
 0002:00009284       ??_C@_0BA@JFNIOLAK@string?5too?5long@ 0045e284     Main.obj
 0002:00009294       ??_C@_08EPJLHIJG@bad?5cast@ 0045e294     Main.obj
 0002:000092a0       ??_C@_0BB@GCADKGJO@map?1set?5too?5long@ 0045e2a0     Main.obj
 0002:000092b4       ??_C@_0N@GIPHPLLM@Warcraft?5III@ 0045e2b4     Main.obj
 0002:000092c4       ??_C@_0BD@MNCONHPM@6C0180180180180484@ 0045e2c4     Main.obj
 0002:000092d8       ??_C@_01NOFIACDB@w@        0045e2d8     Main.obj
 0002:000092dc       ??_C@_07GPDNMNG@CONOUT$@   0045e2dc     Main.obj
 0002:000092e4       ??_C@_05JLNEMJLN@dummy@    0045e2e4     Main.obj
 0002:000092ec       ??_C@_0M@CBKKAKMP@Bahnschrift@ 0045e2ec     Main.obj
 0002:000092f8       ??_C@_0BB@ICFLKOPM@SeDebugPrivilege@ 0045e2f8     Main.obj
 0002:0000930c       ??_C@_08EPCMHBKI@Game?4dll@ 0045e30c     Main.obj
 0002:00009318       ??_C@_0O@NNFJKKMJ@UnitNames?4txt@ 0045e318     Main.obj
 0002:00009328       ??_C@_0BI@CFPLBAOH@invalid?5string?5position@ 0045e328     Main.obj
 0002:00009344       ??_7?$basic_filebuf@DU?$char_traits@D@std@@@std@@6B@ 0045e344     Main.obj
 0002:00009380       ?colors@@3PAKA             0045e380     Main.obj
 0002:000093b4       ?key@@3PBDB                0045e3b4     Main.obj
 0002:000093bc       ??_7bad_cast@std@@6B@      0045e3bc     Main.obj
 0002:000093c4       ??_8?$basic_ifstream@DU?$char_traits@D@std@@@std@@7B@ 0045e3c4     Main.obj
 0002:000093d0       ??_7?$basic_ifstream@DU?$char_traits@D@std@@@std@@6B@ 0045e3d0     Main.obj
 0002:000093d4       ??_C@_0BG@HGEDEDEC@invalid?5stoi?5argument@ 0045e3d4     protect.obj
 0002:000093ec       ??_C@_0BL@MFFNMGGC@stoi?5argument?5out?5of?5range@ 0045e3ec     protect.obj
 0002:00009407       ??_C@_00CNPNBAHC@@         0045e407     protect.obj
 0002:00009408       ??_C@_04JHBMAIMM@?$CF01X@  0045e408     protect.obj
 0002:00009410       ??_C@_05NADPPHDM@Key?3?5@  0045e410     protect.obj
 0002:00009418       ??_C@_0DP@JMIKLEIH@http?3?1?1showcase?4api?4linx?4twenty@ 0045e418     protect.obj
 0002:00009458       ??_C@_01JLIPDDHJ@?3@       0045e458     protect.obj
 0002:0000945c       ??_C@_01CLKCMJKC@?5@       0045e45c     protect.obj
 0002:00009460       ??_C@_01LFCBOECM@?4@       0045e460     protect.obj
 0002:00009464       ??_C@_0BH@KOGMOJCH@invalid?5stoll?5argument@ 0045e464     systeminfo.obj
 0002:0000947c       ??_C@_0BM@BPCBEBLO@stoll?5argument?5out?5of?5range@ 0045e47c     systeminfo.obj
 0002:00009498       ??_C@_0FF@ODEOEJDF@wmic?5?1namespace?3?2?2root?2wmi?5PATH@ 0045e498     systeminfo.obj
 0002:000094f0       ??_C@_06PONDCDME@ERROR?3@  0045e4f0     systeminfo.obj
 0002:000094f8       ??_C@_0DN@ILJDKAAO@wmic?5cpu?5get?5?1format?3list?5?$HM?5fin@ 0045e4f8     systeminfo.obj
 0002:00009538       ??_C@_0BD@PGHEEDII@CurrentClockSpeed?$DN@ 0045e538     systeminfo.obj
 0002:0000954c       ??_C@_05DCIFAFBG@Name?$DN@ 0045e54c     systeminfo.obj
 0002:00009554       ??_C@_0P@BHLKPIPI@NumberOfCores?$DN@ 0045e554     systeminfo.obj
 0002:00009564       ??_C@_0O@HNEOCNDC@Manufacturer?$DN@ 0045e564     systeminfo.obj
 0002:00009574       ??_C@_0L@BAIIMEAH@DataWidth?$DN@ 0045e574     systeminfo.obj
 0002:00009580       ??_C@_0N@NPABCCND@L2CacheSize?$DN@ 0045e580     systeminfo.obj
 0002:00009590       ??_C@_0N@EEKEGOLM@L3CacheSize?$DN@ 0045e590     systeminfo.obj
 0002:000095a0       ??_C@_02LODOGJEL@KB@       0045e5a0     systeminfo.obj
 0002:000095a4       ??_C@_07NBCGADJA@Unknown@  0045e5a4     systeminfo.obj
 0002:000095ac       ??_C@_03BMJMONAH@MHz@      0045e5ac     systeminfo.obj
 0002:000095b0       ??_C@_03NDFEINMN@x86@      0045e5b0     systeminfo.obj
 0002:000095b4       ??_C@_06HDPOADAK@x86_64@   0045e5b4     systeminfo.obj
 0002:000095bc       ??_C@_0BL@LFOFMABP@wmic?5cpu?5get?5?1format?3?5list@ 0045e5bc     systeminfo.obj
 0002:000095d8       ??_C@_09KGLINCJH@AssetTag?$DN@ 0045e5d8     systeminfo.obj
 0002:000095e4       ??_C@_0N@JEAIMEKG@VoltageCaps?$DN@ 0045e5e4     systeminfo.obj
 0002:000095f4       ??_C@_01LIIJDEN@?$AN@      0045e5f4     systeminfo.obj
 0002:000095f8       ??_C@_06HLMMPIBG@NVIDIA@   0045e5f8     systeminfo.obj
 0002:00009600       ??_C@_05OPFLDEAH@INTEL@    0045e600     systeminfo.obj
 0002:00009608       ??_C@_03BBEEILCJ@AMD@      0045e608     systeminfo.obj
 0002:0000960c       ??_C@_0BG@JEIDHDPM@AdapterCompatibility?$DN@ 0045e60c     systeminfo.obj
 0002:00009624       ??_C@_0M@MFMICOBC@AdapterRAM?$DN@ 0045e624     systeminfo.obj
 0002:00009630       ??_C@_0BE@HFKIHEFN@CurrentRefreshRate?$DN@ 0045e630     systeminfo.obj
 0002:00009644       ??_C@_0P@ECEAHKCA@DriverVersion?$DN@ 0045e644     systeminfo.obj
 0002:00009654       ??_C@_0BD@PJIEMGDB@VideoArchitecture?$DN@ 0045e654     systeminfo.obj
 0002:00009668       ??_C@_0BA@COFLHODM@VideoMemoryType@ 0045e668     systeminfo.obj
 0002:00009678       ??_C@_0BG@KAJCOKNL@VideoModeDescription?$DN@ 0045e678     systeminfo.obj
 0002:00009690       ??_C@_0BA@IDIFCJOL@VideoProcessor?$DN@ 0045e690     systeminfo.obj
 0002:000096a0       ??_C@_08EBLFLHLH@Caption?$DN@ 0045e6a0     systeminfo.obj
 0002:000096ac       ??_C@_07IOEJHCEF@?5Bytes?$CJ@ 0045e6ac     systeminfo.obj
 0002:000096b4       ??_C@_04MNLDOMOG@MB?5?$CI@ 0045e6b4     systeminfo.obj
 0002:000096bc       ??_C@_06LFCPCEPB@?5Bytes@  0045e6bc     systeminfo.obj
 0002:000096c4       ??_C@_05BBOGGNLJ@Other@    0045e6c4     systeminfo.obj
 0002:000096cc       ??_C@_03MLKNDCDB@CGA@      0045e6cc     systeminfo.obj
 0002:000096d0       ??_C@_03OOMGGNON@EGA@      0045e6d0     systeminfo.obj
 0002:000096d4       ??_C@_03KMGKJFJM@VGA@      0045e6d4     systeminfo.obj
 0002:000096d8       ??_C@_04DELPAIIG@SVGA@     0045e6d8     systeminfo.obj
 0002:000096e0       ??_C@_03CJDEPLFL@MDA@      0045e6e0     systeminfo.obj
 0002:000096e4       ??_C@_03COJKNHLC@HGC@      0045e6e4     systeminfo.obj
 0002:000096e8       ??_C@_04IMKIIGMI@MCGA@     0045e6e8     systeminfo.obj
 0002:000096f0       ??_C@_05ENECEAKG@8514A@    0045e6f0     systeminfo.obj
 0002:000096f8       ??_C@_03EMLFOCKP@XGA@      0045e6f8     systeminfo.obj
 0002:000096fc       ??_C@_0BE@HCJIGBPB@Linear?5Frame?5Buffer@ 0045e6fc     systeminfo.obj
 0002:00009710       ??_C@_07BIPCJPON@PC?5?9?598@ 0045e710     systeminfo.obj
 0002:00009718       ??_C@_04NLAFCDBP@VRAM@     0045e718     systeminfo.obj
 0002:00009720       ??_C@_04MBCFOHPN@DRAM@     0045e720     systeminfo.obj
 0002:00009728       ??_C@_04BDOFKMGP@SRAM@     0045e728     systeminfo.obj
 0002:00009730       ??_C@_04OGGFAKKP@WRAM@     0045e730     systeminfo.obj
 0002:00009738       ??_C@_07FKCCEMEA@EDO_RAM@  0045e738     systeminfo.obj
 0002:00009740       ??_C@_0BH@DEHCDIJM@Burst?5Synchronous?5DRAM@ 0045e740     systeminfo.obj
 0002:00009758       ??_C@_0BF@IJELNNLE@Pipelined?5Burst?5SRAM@ 0045e758     systeminfo.obj
 0002:00009770       ??_C@_05DPAJMJIB@CDRAM@    0045e770     systeminfo.obj
 0002:00009778       ??_C@_05DECLMEEA@3DRAM@    0045e778     systeminfo.obj
 0002:00009780       ??_C@_05DMNPMLBK@SDRAM@    0045e780     systeminfo.obj
 0002:00009788       ??_C@_05HLHPLBMK@SGRAM@    0045e788     systeminfo.obj
 0002:00009790       ??_C@_0DC@PMLGMCKE@wmic?5path?5Win32_VideoController@ 0045e790     systeminfo.obj
 0002:000097c4       ??_C@_0BF@MNNLIBBB@CurrentBitsPerPixel?$DN@ 0045e7c4     systeminfo.obj
 0002:000097e0       ??_C@_0EF@JNOHMMK@wmic?5path?5Win32_PnPEntity?5get?5?1@ 0045e7e0     systeminfo.obj
 0002:00009828       ??_C@_08EKPLPCOK@Product?$DN@ 0045e828     systeminfo.obj
 0002:00009834       ??_C@_0N@NCLCEBBL@Description?$DN@ 0045e834     systeminfo.obj
 0002:00009844       ??_C@_07CPHKODAM@Chipset@  0045e844     systeminfo.obj
 0002:0000984c       ??_C@_0O@OFNCEPFA@SerialNumber?$DN@ 0045e84c     systeminfo.obj
 0002:0000985c       ??_C@_08KJDCJPOC@Version?$DN@ 0045e85c     systeminfo.obj
 0002:00009868       ??_C@_0CB@BDBEEPBD@wmic?5baseboard?5get?5?1format?3?5lis@ 0045e868     systeminfo.obj
 0002:0000988c       ??_C@_0BH@BLPEBJGK@RequiresDaughterBoard?$DN@ 0045e88c     systeminfo.obj
 0002:000098a4       ??_C@_06PNJJNEK@Width?$DN@ 0045e8a4     systeminfo.obj
 0002:000098ac       ??_C@_0BA@HJFKPBCC@OSArchitecture?$DN@ 0045e8ac     systeminfo.obj
 0002:000098bc       ??_C@_0BA@INGADHEL@RegisteredUser?$DN@ 0045e8bc     systeminfo.obj
 0002:000098cc       ??_C@_0N@ODOKOKID@InstallDate?$DN@ 0045e8cc     systeminfo.obj
 0002:000098dc       ??_C@_0N@JEMEBDNJ@BuildNumber?$DN@ 0045e8dc     systeminfo.obj
 0002:000098ec       ??_C@_0BA@GCBFFF@LastBootUpTime?$DN@ 0045e8ec     systeminfo.obj
 0002:000098fc       ??_C@_0M@CGJKPCAI@BootDevice?$DN@ 0045e8fc     systeminfo.obj
 0002:00009908       ??_C@_0BI@PMGAEKHL@TotalVirtualMemorySize?$DN@ 0045e908     systeminfo.obj
 0002:00009920       ??_C@_0BI@HLKHBHBJ@TotalVisibleMemorySize?$DN@ 0045e920     systeminfo.obj
 0002:00009938       ??_C@_0P@GNHCPJKN@TotalSwapSize?$DN@ 0045e938     systeminfo.obj
 0002:00009948       ??_C@_0BE@DEHHBEC@FreePhysicalMemory?$DN@ 0045e948     systeminfo.obj
 0002:0000995c       ??_C@_0DN@FMHPDIHB@wmic?5os?5get?5?1format?3list?5?$HM?5find@ 0045e95c     systeminfo.obj
 0002:0000999c       ??_C@_0BD@LBCHCOMB@FreeVirtualMemory?$DN@ 0045e99c     systeminfo.obj
 0002:000099b0       ??_C@_0DM@IMOGBFPI@wmic?5os?5get?5?1format?3list?5?$HM?5find@ 0045e9b0     systeminfo.obj
 0002:000099ec       ??_C@_0BI@JAIEFCLJ@FreeSpaceInPagingFiles?$DN@ 0045e9ec     systeminfo.obj
 0002:00009a08       ??_C@_0EB@OBBKEDCH@wmic?5os?5get?5?1format?3list?5?$HM?5find@ 0045ea08     systeminfo.obj
 0002:00009a4c       ??_C@_0BJ@FNCKOEAK@SizeStoredInPagingFiles?$DN@ 0045ea4c     systeminfo.obj
 0002:00009a68       ??_C@_0EC@EKOMMEFI@wmic?5os?5get?5?1format?3list?5?$HM?5find@ 0045ea68     systeminfo.obj
 0002:00009aac       ??_C@_0P@OEDDHIDF@LocalDateTime?$DN@ 0045eaac     systeminfo.obj
 0002:00009abc       ??_C@_0DI@PPLPAHM@wmic?5os?5get?5?1format?3list?5?$HM?5find@ 0045eabc     systeminfo.obj
 0002:00009af4       ??_C@_04IDFBDOJP@?5KB?$CJ@ 0045eaf4     systeminfo.obj
 0002:00009afc       ??_C@_03MAAJMAHL@?5KB@     0045eafc     systeminfo.obj
 0002:00009b00       ??_C@_0BJ@PEOICEGE@wmic?5os?5get?5?1format?3list@ 0045eb00     systeminfo.obj
 0002:00009b1c       ??_C@_0BJ@BADAMLNJ@PortableOperatingSystem?$DN@ 0045eb1c     systeminfo.obj
 0002:00009b38       ??_C@_0BC@KMGAAGMI@WindowsDirectory?$DN@ 0045eb38     systeminfo.obj
 0002:00009b4c       ??_C@_0P@CLNGFENG@DeviceLocator?$DN@ 0045eb4c     systeminfo.obj
 0002:00009b5c       ??_C@_09GMKGCMGO@Capacity?$DN@ 0045eb5c     systeminfo.obj
 0002:00009b68       ??_C@_0M@NJBBNODN@FormFactor?$DN@ 0045eb68     systeminfo.obj
 0002:00009b74       ??_C@_0M@JCECAJFD@PartNumber?$DN@ 0045eb74     systeminfo.obj
 0002:00009b80       ??_C@_0M@BHDFFOOC@MemoryType?$DN@ 0045eb80     systeminfo.obj
 0002:00009b8c       ??_C@_0BG@HOKNLHKH@ConfiguredClockSpeed?$DN@ 0045eb8c     systeminfo.obj
 0002:00009ba4       ??_C@_06DJAAKCE@Speed?$DN@ 0045eba4     systeminfo.obj
 0002:00009bac       ??_C@_0BA@PHEJNBIO@Syncronous?5DRAM@ 0045ebac     systeminfo.obj
 0002:00009bbc       ??_C@_0L@KFMNNBLH@Cache?5DRAM@ 0045ebbc     systeminfo.obj
 0002:00009bc8       ??_C@_03HCADPODK@EDO@      0045ebc8     systeminfo.obj
 0002:00009bcc       ??_C@_05OJFACKJM@EDRAM@    0045ebcc     systeminfo.obj
 0002:00009bd4       ??_C@_03ILDADBHF@RAM@      0045ebd4     systeminfo.obj
 0002:00009bd8       ??_C@_03IBKOBMHP@ROM@      0045ebd8     systeminfo.obj
 0002:00009bdc       ??_C@_05LDPHIKKB@Flash@    0045ebdc     systeminfo.obj
 0002:00009be4       ??_C@_06EMDDBCNH@EEPROM@   0045ebe4     systeminfo.obj
 0002:00009bec       ??_C@_06HNNLAIEK@FEPROM@   0045ebec     systeminfo.obj
 0002:00009bf4       ??_C@_05HGKODGNE@EPROM@    0045ebf4     systeminfo.obj
 0002:00009bfc       ??_C@_05PHIDBILP@RDRAM@    0045ebfc     systeminfo.obj
 0002:00009c04       ??_C@_04CJLNMEGN@DDR1@     0045ec04     systeminfo.obj
 0002:00009c0c       ??_C@_04CJAJHKO@DDR2@      0045ec0c     systeminfo.obj
 0002:00009c14       ??_C@_0O@HNAHBKBC@DDR2?5?9?5FBDIMM@ 0045ec14     systeminfo.obj
 0002:00009c24       ??_C@_04BLILKGOP@DDR3@     0045ec24     systeminfo.obj
 0002:00009c2c       ??_C@_04EFJAEENA@FBD2@     0045ec2c     systeminfo.obj
 0002:00009c34       ??_C@_03MCPDGLLE@SIP@      0045ec34     systeminfo.obj
 0002:00009c38       ??_C@_03PDNAEJC@DIP@       0045ec38     systeminfo.obj
 0002:00009c3c       ??_C@_03LPPLCEDO@ZIP@      0045ec3c     systeminfo.obj
 0002:00009c40       ??_C@_03HGFDONNN@SOJ@      0045ec40     systeminfo.obj
 0002:00009c44       ??_C@_0M@EAHCLNFM@Proprietary@ 0045ec44     systeminfo.obj
 0002:00009c50       ??_C@_04JNOHIFJF@SIMM@     0045ec50     systeminfo.obj
 0002:00009c58       ??_C@_04EPCHMOAH@DIMM@     0045ec58     systeminfo.obj
 0002:00009c60       ??_C@_04OMILFGAM@TSOP@     0045ec60     systeminfo.obj
 0002:00009c68       ??_C@_03IJABMKEA@PGA@      0045ec68     systeminfo.obj
 0002:00009c6c       ??_C@_04KAIHKMCF@RIMM@     0045ec6c     systeminfo.obj
 0002:00009c74       ??_C@_06PIFKKNPH@SODIMM@   0045ec74     systeminfo.obj
 0002:00009c7c       ??_C@_05FNHNIAMC@SRIMM@    0045ec7c     systeminfo.obj
 0002:00009c84       ??_C@_03OLFEBEDN@SMD@      0045ec84     systeminfo.obj
 0002:00009c88       ??_C@_04FNCPFOHC@SSMP@     0045ec88     systeminfo.obj
 0002:00009c90       ??_C@_03ENAIDDFH@QFD@      0045ec90     systeminfo.obj
 0002:00009c94       ??_C@_04EJFDKFAI@TQFP@     0045ec94     systeminfo.obj
 0002:00009c9c       ??_C@_04CBAGFPBL@SOIC@     0045ec9c     systeminfo.obj
 0002:00009ca4       ??_C@_03KGPBOIDJ@LCC@      0045eca4     systeminfo.obj
 0002:00009ca8       ??_C@_04HJIEAPPD@PLCC@     0045eca8     systeminfo.obj
 0002:00009cb0       ??_C@_03HDBBFFFE@BGA@      0045ecb0     systeminfo.obj
 0002:00009cb4       ??_C@_05CIFANFB@FPBGA@     0045ecb4     systeminfo.obj
 0002:00009cbc       ??_C@_03JDMOCCGH@LGA@      0045ecbc     systeminfo.obj
 0002:00009cc0       ??_C@_0CC@FIPGLJJI@wmic?5memorychip?5get?5?1format?3?5li@ 0045ecc0     systeminfo.obj
 0002:00009ce4       ??_C@_04IFFFBHG@2?$DO?$CG1@ 0045ece4     systeminfo.obj
 0002:00009cec       ??_C@_01PPODPGHN@?$DO@     0045ecec     systeminfo.obj
 0002:00009cf0       ??_C@_02PCIJFNDE@?$AN?6@   0045ecf0     systeminfo.obj
 0002:00009cf4       ??_C@_02LIIHNNHG@?6?$AN@   0045ecf4     systeminfo.obj
 0002:00009cf8       ??_C@_01EEMJAFIK@?6@       0045ecf8     systeminfo.obj
 0002:00009cfc       ??_C@_05HIBJACPO@?52?$DO?$CG1@ 0045ecfc     systeminfo.obj
 0002:00009d04       ??_C@_01KDCPPGHE@r@        0045ed04     systeminfo.obj
 0002:00009d08       ??_C@_01BJJEKLCA@?$CC@     0045ed08     systeminfo.obj
 0002:00009d0c       ??_C@_0CD@LHOMMFEI@ERROR?3?5Failed?5to?5execute?5comman@ 0045ed0c     systeminfo.obj
 0002:00009d30       ??_C@_0BA@FOIKENOD@vector?5too?5long@ 0045ed30     systeminfo.obj
 0002:00009d40       ??_8?$basic_stringstream@DU?$char_traits@D@std@@V?$allocator@D@2@@std@@7B?$basic_ostream@DU?$char_traits@D@std@@@1@@ 0045ed40     systeminfo.obj
 0002:00009d4c       ??_7?$basic_stringbuf@DU?$char_traits@D@std@@V?$allocator@D@2@@std@@6B@ 0045ed4c     systeminfo.obj
 0002:00009da8       ??_7?$basic_stringstream@DU?$char_traits@D@std@@V?$allocator@D@2@@std@@6B@ 0045eda8     systeminfo.obj
 0002:00009dac       ??_8?$basic_stringstream@DU?$char_traits@D@std@@V?$allocator@D@2@@std@@7B?$basic_istream@DU?$char_traits@D@std@@@1@@ 0045edac     systeminfo.obj
 0002:00009db4       __real@3c23d70a            0045edb4     Main.obj
 0002:00009db8       __real@3f000000            0045edb8     Main.obj
 0002:00009dbc       __real@3faccccd            0045edbc     Main.obj
 0002:00009dc0       __real@41c80000            0045edc0     Main.obj
 0002:00009dc4       __real@420a0000            0045edc4     Main.obj
 0002:00009dc8       __real@42480000            0045edc8     Main.obj
 0002:00009dcc       __real@42a00000            0045edcc     Main.obj
 0002:00009e08       __load_config_used         0045ee08     MSVCRT:loadcfg.obj
 0002:00009f00       ??_R4type_info@@6B@        0045ef00     MSVCRT:std_type_info_static.obj
 0002:00009f14       ??_R3type_info@@8          0045ef14     MSVCRT:std_type_info_static.obj
 0002:00009f24       ??_R2type_info@@8          0045ef24     MSVCRT:std_type_info_static.obj
 0002:00009f2c       ??_R1A@?0A@EA@type_info@@8 0045ef2c     MSVCRT:std_type_info_static.obj
 0002:00009f48       ??_R3?$basic_istream@DU?$char_traits@D@std@@@std@@8 0045ef48     Main.obj
 0002:00009f58       ??_R4exception@std@@6B@    0045ef58     Main.obj
 0002:00009f6c       ??_R2bad_array_new_length@std@@8 0045ef6c     Main.obj
 0002:00009f7c       ??_R1A@?0A@EA@?$basic_istream@DU?$char_traits@D@std@@@std@@8 0045ef7c     Main.obj
 0002:00009f98       ??_R1A@?0A@EA@bad_cast@std@@8 0045ef98     Main.obj
 0002:00009fb4       ??_R3?$basic_ifstream@DU?$char_traits@D@std@@@std@@8 0045efb4     Main.obj
 0002:00009fc4       ??_R2bad_alloc@std@@8      0045efc4     Main.obj
 0002:00009fd0       ??_R1A@?0A@EA@?$basic_ifstream@DU?$char_traits@D@std@@@std@@8 0045efd0     Main.obj
 0002:00009fec       ??_R17A@3EA@?$_Iosb@H@std@@8 0045efec     Main.obj
 0002:0000a008       ??_R1A@?0A@EA@exception@std@@8 0045f008     Main.obj
 0002:0000a024       ??_R1A@?0A@EA@?$basic_streambuf@DU?$char_traits@D@std@@@std@@8 0045f024     Main.obj
 0002:0000a040       ??_R1A@?0A@EA@bad_alloc@std@@8 0045f040     Main.obj
 0002:0000a05c       ??_R2?$basic_istream@DU?$char_traits@D@std@@@std@@8 0045f05c     Main.obj
 0002:0000a070       ??_R2bad_cast@std@@8       0045f070     Main.obj
 0002:0000a07c       ??_R2exception@std@@8      0045f07c     Main.obj
 0002:0000a084       ??_R3?$basic_ios@DU?$char_traits@D@std@@@std@@8 0045f084     Main.obj
 0002:0000a094       ??_R4?$basic_ifstream@DU?$char_traits@D@std@@@std@@6B@ 0045f094     Main.obj
 0002:0000a0a8       ??_R1A@?0A@EA@ios_base@std@@8 0045f0a8     Main.obj
 0002:0000a0c4       ??_R3exception@std@@8      0045f0c4     Main.obj
 0002:0000a0d4       ??_R4?$basic_filebuf@DU?$char_traits@D@std@@@std@@6B@ 0045f0d4     Main.obj
 0002:0000a0e8       ??_R2?$basic_streambuf@DU?$char_traits@D@std@@@std@@8 0045f0e8     Main.obj
 0002:0000a0f0       ??_R1A@?0A@EA@?$_Iosb@H@std@@8 0045f0f0     Main.obj
 0002:0000a10c       ??_R3bad_cast@std@@8       0045f10c     Main.obj
 0002:0000a11c       ??_R4bad_alloc@std@@6B@    0045f11c     Main.obj
 0002:0000a130       ??_R4bad_cast@std@@6B@     0045f130     Main.obj
 0002:0000a144       ??_R3bad_array_new_length@std@@8 0045f144     Main.obj
 0002:0000a154       ??_R3bad_alloc@std@@8      0045f154     Main.obj
 0002:0000a164       ??_R1A@?0A@EA@?$basic_filebuf@DU?$char_traits@D@std@@@std@@8 0045f164     Main.obj
 0002:0000a180       ??_R1A@A@3FA@?$basic_ios@DU?$char_traits@D@std@@@std@@8 0045f180     Main.obj
 0002:0000a19c       ??_R4bad_array_new_length@std@@6B@ 0045f19c     Main.obj
 0002:0000a1b0       ??_R3?$basic_filebuf@DU?$char_traits@D@std@@@std@@8 0045f1b0     Main.obj
 0002:0000a1c0       ??_R2ios_base@std@@8       0045f1c0     Main.obj
 0002:0000a1cc       ??_R3ios_base@std@@8       0045f1cc     Main.obj
 0002:0000a1dc       ??_R2?$basic_filebuf@DU?$char_traits@D@std@@@std@@8 0045f1dc     Main.obj
 0002:0000a1e8       ??_R3?$basic_streambuf@DU?$char_traits@D@std@@@std@@8 0045f1e8     Main.obj
 0002:0000a1f8       ??_R1A@?0A@EA@bad_array_new_length@std@@8 0045f1f8     Main.obj
 0002:0000a214       ??_R2?$_Iosb@H@std@@8      0045f214     Main.obj
 0002:0000a21c       ??_R1A@A@3EA@ios_base@std@@8 0045f21c     Main.obj
 0002:0000a238       ??_R1A@?0A@EA@?$basic_ios@DU?$char_traits@D@std@@@std@@8 0045f238     Main.obj
 0002:0000a254       ??_R2?$basic_ifstream@DU?$char_traits@D@std@@@std@@8 0045f254     Main.obj
 0002:0000a26c       ??_R3?$_Iosb@H@std@@8      0045f26c     Main.obj
 0002:0000a27c       ??_R17?0A@EA@?$_Iosb@H@std@@8 0045f27c     Main.obj
 0002:0000a298       ??_R2?$basic_ios@DU?$char_traits@D@std@@@std@@8 0045f298     Main.obj
 0002:0000a2a8       ??_R3?$_Func_base@V?$basic_string@DU?$char_traits@D@std@@V?$allocator@D@2@@std@@ABV12@@std@@8 0045f2a8     systeminfo.obj
 0002:0000a2b8       ??_R3?$basic_iostream@DU?$char_traits@D@std@@@std@@8 0045f2b8     systeminfo.obj
 0002:0000a2c8       ??_R1A@?0A@EA@?$_Func_base@V?$basic_string@DU?$char_traits@D@std@@V?$allocator@D@2@@std@@ABV12@@std@@8 0045f2c8     systeminfo.obj
 0002:0000a2e4       ??_R2?$basic_stringbuf@DU?$char_traits@D@std@@V?$allocator@D@2@@std@@8 0045f2e4     systeminfo.obj
 0002:0000a2f0       ??_R1A@?0A@EA@?$basic_stringstream@DU?$char_traits@D@std@@V?$allocator@D@2@@std@@8 0045f2f0     systeminfo.obj
 0002:0000a30c       ??_R3?$basic_stringbuf@DU?$char_traits@D@std@@V?$allocator@D@2@@std@@8 0045f30c     systeminfo.obj
 0002:0000a31c       ??_R2?$basic_ostream@DU?$char_traits@D@std@@@std@@8 0045f31c     systeminfo.obj
 0002:0000a340       ??_R1BA@?0A@EA@?$basic_ostream@DU?$char_traits@D@std@@@std@@8 0045f340     systeminfo.obj
 0002:0000a35c       ??_R1A@?0A@EA@?$basic_ostream@DU?$char_traits@D@std@@@std@@8 0045f35c     systeminfo.obj
 0002:0000a378       ??_R1A@?0A@EA@?$basic_stringbuf@DU?$char_traits@D@std@@V?$allocator@D@2@@std@@8 0045f378     systeminfo.obj
 0002:0000a394       ??_R2?$basic_iostream@DU?$char_traits@D@std@@@std@@8 0045f394     systeminfo.obj
 0002:0000a3bc       ??_R2?$basic_stringstream@DU?$char_traits@D@std@@V?$allocator@D@2@@std@@8 0045f3bc     systeminfo.obj
 0002:0000a3e8       ??_R4?$basic_stringbuf@DU?$char_traits@D@std@@V?$allocator@D@2@@std@@6B@ 0045f3e8     systeminfo.obj
 0002:0000a3fc       ??_R4?$basic_stringstream@DU?$char_traits@D@std@@V?$allocator@D@2@@std@@6B@ 0045f3fc     systeminfo.obj
 0002:0000a410       ??_R3?$basic_ostream@DU?$char_traits@D@std@@@std@@8 0045f410     systeminfo.obj
 0002:0000a420       ??_R1A@?0A@EA@?$basic_iostream@DU?$char_traits@D@std@@@std@@8 0045f420     systeminfo.obj
 0002:0000a450       ??_R3?$basic_stringstream@DU?$char_traits@D@std@@V?$allocator@D@2@@std@@8 0045f450     systeminfo.obj
 0002:0000a488       ??_R2?$_Func_base@V?$basic_string@DU?$char_traits@D@std@@V?$allocator@D@2@@std@@ABV12@@std@@8 0045f488     systeminfo.obj
 0002:0000a490       ___safe_se_handler_table   0045f490     <linker-defined>
 0002:0000a848       ___rtc_iaa                 0045f848     MSVCRT:initsect.obj
 0002:0000a84c       ___rtc_izz                 0045f84c     MSVCRT:initsect.obj
 0002:0000a850       ___rtc_taa                 0045f850     MSVCRT:initsect.obj
 0002:0000a854       ___rtc_tzz                 0045f854     MSVCRT:initsect.obj
 0002:0000ba84       __TI2?AVbad_alloc@std@@    00460a84     MSVCRT:throw_bad_alloc.obj
 0002:0000ba94       __CTA2?AVbad_alloc@std@@   00460a94     MSVCRT:throw_bad_alloc.obj
 0002:0000baa0       __CTA3?AVbad_array_new_length@std@@ 00460aa0     Main.obj
 0002:0000bab0       __CT??_R0?AVbad_alloc@std@@@8??0bad_alloc@std@@QAE@ABV01@@Z12 00460ab0     Main.obj
 0002:0000bacc       __CTA2?AVbad_cast@std@@    00460acc     Main.obj
 0002:0000bad8       __CT??_R0?AVbad_cast@std@@@8??0bad_cast@std@@QAE@ABV01@@Z12 00460ad8     Main.obj
 0002:0000baf4       __TI2?AVbad_cast@std@@     00460af4     Main.obj
 0002:0000bb04       __CT??_R0?AVexception@std@@@8??0exception@std@@QAE@ABV01@@Z12 00460b04     Main.obj
 0002:0000bb20       __TI3?AVbad_array_new_length@std@@ 00460b20     Main.obj
 0002:0000bb30       __CT??_R0?AVbad_array_new_length@std@@@8??0bad_array_new_length@std@@QAE@ABV01@@Z12 00460b30     Main.obj
 0002:0000bb4c       __IMPORT_DESCRIPTOR_KERNEL32 00460b4c     kernel32:KERNEL32.dll
 0002:0000bb60       __IMPORT_DESCRIPTOR_USER32 00460b60     user32:USER32.dll
 0002:0000bb74       __IMPORT_DESCRIPTOR_GDI32  00460b74     gdi32:GDI32.dll
 0002:0000bb88       __IMPORT_DESCRIPTOR_ADVAPI32 00460b88     advapi32:ADVAPI32.dll
 0002:0000bb9c       __IMPORT_DESCRIPTOR_MSVCP140 00460b9c     msvcprt:MSVCP140.dll
 0002:0000bbb0       __IMPORT_DESCRIPTOR_d3d9   00460bb0     d3d9:d3d9.dll
 0002:0000bbc4       __IMPORT_DESCRIPTOR_d3dx9_43 00460bc4     d3dx9:d3dx9_43.dll
 0002:0000bbd8       __IMPORT_DESCRIPTOR_WS2_32 00460bd8     ws2_32:WS2_32.dll
 0002:0000bbec       __IMPORT_DESCRIPTOR_WLDAP32 00460bec     wldap32:WLDAP32.dll
 0002:0000bc00       __IMPORT_DESCRIPTOR_VCRUNTIME140 00460c00     vcruntime:VCRUNTIME140.dll
 0002:0000bc14       __IMPORT_DESCRIPTOR_api-ms-win-crt-stdio-l1-1-0 00460c14     ucrt:api-ms-win-crt-stdio-l1-1-0.dll
 0002:0000bc28       __IMPORT_DESCRIPTOR_api-ms-win-crt-string-l1-1-0 00460c28     ucrt:api-ms-win-crt-string-l1-1-0.dll
 0002:0000bc3c       __IMPORT_DESCRIPTOR_api-ms-win-crt-filesystem-l1-1-0 00460c3c     ucrt:api-ms-win-crt-filesystem-l1-1-0.dll
 0002:0000bc50       __IMPORT_DESCRIPTOR_api-ms-win-crt-runtime-l1-1-0 00460c50     ucrt:api-ms-win-crt-runtime-l1-1-0.dll
 0002:0000bc64       __IMPORT_DESCRIPTOR_api-ms-win-crt-convert-l1-1-0 00460c64     ucrt:api-ms-win-crt-convert-l1-1-0.dll
 0002:0000bc78       __IMPORT_DESCRIPTOR_api-ms-win-crt-time-l1-1-0 00460c78     ucrt:api-ms-win-crt-time-l1-1-0.dll
 0002:0000bc8c       __IMPORT_DESCRIPTOR_api-ms-win-crt-heap-l1-1-0 00460c8c     ucrt:api-ms-win-crt-heap-l1-1-0.dll
 0002:0000bca0       __IMPORT_DESCRIPTOR_api-ms-win-crt-math-l1-1-0 00460ca0     ucrt:api-ms-win-crt-math-l1-1-0.dll
 0002:0000bcb4       __IMPORT_DESCRIPTOR_api-ms-win-crt-locale-l1-1-0 00460cb4     ucrt:api-ms-win-crt-locale-l1-1-0.dll
 0002:0000bcc8       __IMPORT_DESCRIPTOR_api-ms-win-crt-utility-l1-1-0 00460cc8     ucrt:api-ms-win-crt-utility-l1-1-0.dll
 0002:0000bcdc       __IMPORT_DESCRIPTOR_api-ms-win-crt-multibyte-l1-1-0 00460cdc     ucrt:api-ms-win-crt-multibyte-l1-1-0.dll
 0002:0000bcf0       __NULL_IMPORT_DESCRIPTOR   00460cf0     kernel32:KERNEL32.dll
 0003:00000000       ___scrt_native_dllmain_reason 00463000     MSVCRT:utility.obj
 0003:00000004       ___security_cookie_complement 00463004     MSVCRT:gs_cookie.obj
 0003:00000008       ___security_cookie         00463008     MSVCRT:gs_cookie.obj
 0003:0000000c       ___isa_enabled             0046300c     MSVCRT:cpu_disp.obj
 0003:00000010       ___scrt_default_matherr    00463010     MSVCRT:matherr.obj
 0003:00000014       _Curl_cmalloc              00463014     libcurl:easy.obj
 0003:00000018       _Curl_cfree                00463018     libcurl:easy.obj
 0003:0000001c       _Curl_crealloc             0046301c     libcurl:easy.obj
 0003:00000020       _Curl_cstrdup              00463020     libcurl:easy.obj
 0003:00000024       _Curl_ccalloc              00463024     libcurl:easy.obj
 0003:00000030       __fltused                  00463030     MSVCRT:fltused.obj
 0003:00000040       ___scrt_ucrt_dll_is_in_use 00463040     MSVCRT:ucrt_stubs.obj
 0003:00000044       ?CLOCK_SPEED_IDENTIFIER_STRING@RAMInfo@@0V?$basic_string@DU?$char_traits@D@std@@V?$allocator@D@2@@std@@B 00463044     systeminfo.obj
 0003:0000005c       ?NUMBER_OF_CORES_IDENTIFIER_STRING@CPUInfo@@0V?$basic_string@DU?$char_traits@D@std@@V?$allocator@D@2@@std@@B 0046305c     systeminfo.obj
 0003:00000074       ?VERSION_IDENTIFIER_STRING@OSInfo@@0V?$basic_string@DU?$char_traits@D@std@@V?$allocator@D@2@@std@@B 00463074     systeminfo.obj
 0003:0000008c       ?TOTAL_VISIBLE_MEMORY_SIZE_IDENTIFIER_STRING@OSInfo@@0V?$basic_string@DU?$char_traits@D@std@@V?$allocator@D@2@@std@@B 0046308c     systeminfo.obj
 0003:000000a4       ?MOTHERBOARD_INFO_END_IDENTIFIER_STRING@MotherboardInfoDelegate@@0V?$basic_string@DU?$char_traits@D@std@@V?$allocator@D@2@@std@@B 004630a4     systeminfo.obj
 0003:000000bc       ?ADAPTER_RAM_IDENTIFIER_STRING@GPUInfo@@0V?$basic_string@DU?$char_traits@D@std@@V?$allocator@D@2@@std@@B 004630bc     systeminfo.obj
 0003:000000d4       ?CURRENT_DATE_TIME_QUERY_STRING@OSInfo@@0V?$basic_string@DU?$char_traits@D@std@@V?$allocator@D@2@@std@@B 004630d4     systeminfo.obj
 0003:000000ec       ?FORM_FACTOR_IDENTIFIER_STRING@RAMInfo@@0V?$basic_string@DU?$char_traits@D@std@@V?$allocator@D@2@@std@@B 004630ec     systeminfo.obj
 0003:00000104       ?RAM_INFO_END_IDENTIFIER_STRING@RAMInfoDelegate@@0V?$basic_string@DU?$char_traits@D@std@@V?$allocator@D@2@@std@@B 00463104     systeminfo.obj
 0003:0000011c       ?RAM_INSTANCE_QUERY_STRING@RAMInfoDelegate@@0V?$basic_string@DU?$char_traits@D@std@@V?$allocator@D@2@@std@@B 0046311c     systeminfo.obj
 0003:00000134       ?VIDEO_MODE_DESCRIPTION_IDENTIFIER_STRING@GPUInfo@@0V?$basic_string@DU?$char_traits@D@std@@V?$allocator@D@2@@std@@B 00463134     systeminfo.obj
 0003:0000014c       ?SERIAL_NUMBER_IDENTIFIER_STRING@RAMInfo@@0V?$basic_string@DU?$char_traits@D@std@@V?$allocator@D@2@@std@@B 0046314c     systeminfo.obj
 0003:00000164       ?USED_SPACE_IN_PAGING_FILE_QUERY_STRING@OSInfo@@0V?$basic_string@DU?$char_traits@D@std@@V?$allocator@D@2@@std@@B 00463164     systeminfo.obj
 0003:0000017c       ?FREE_PHYSICAL_MEMORY_QUERY_STRING@OSInfo@@0V?$basic_string@DU?$char_traits@D@std@@V?$allocator@D@2@@std@@B 0046317c     systeminfo.obj
 0003:00000194       ?CAPTION_INDENTIFIER_STRING@OSInfo@@0V?$basic_string@DU?$char_traits@D@std@@V?$allocator@D@2@@std@@B 00463194     systeminfo.obj
 0003:000001ac       ?CPU_INSTANCE_QUERY_STRING@CPUInfoDelegate@@0V?$basic_string@DU?$char_traits@D@std@@V?$allocator@D@2@@std@@B 004631ac     systeminfo.obj
 0003:000001c4       ?LAST_BOOT_UP_TIME_IDENTIFIER_STRING@OSInfo@@0V?$basic_string@DU?$char_traits@D@std@@V?$allocator@D@2@@std@@B 004631c4     systeminfo.obj
 0003:000001dc       ?L2_CACHE_SIZE_IDENTIFIER_STRING@CPUInfo@@0V?$basic_string@DU?$char_traits@D@std@@V?$allocator@D@2@@std@@B 004631dc     systeminfo.obj
 0003:000001f4       ?CPU_INFO_QUERY_STRING@CPUInfoDelegate@@0V?$basic_string@DU?$char_traits@D@std@@V?$allocator@D@2@@std@@B 004631f4     systeminfo.obj
 0003:0000020c       ?FREE_SPACE_IN_PAGING_FILES_IDENTIFIER_STRING@OSInfo@@0V?$basic_string@DU?$char_traits@D@std@@V?$allocator@D@2@@std@@B 0046320c     systeminfo.obj
 0003:00000224       ?MANUFACTURER_IDENTIFIER_STRING@MotherboardInfo@@0V?$basic_string@DU?$char_traits@D@std@@V?$allocator@D@2@@std@@B 00463224     systeminfo.obj
 0003:0000023c       ?MANUFACTURER_IDENTIFIER_STRING@RAMInfo@@0V?$basic_string@DU?$char_traits@D@std@@V?$allocator@D@2@@std@@B 0046323c     systeminfo.obj
 0003:00000254       ?CHIPSET_QUERY_STRING@MotherboardInfo@@0V?$basic_string@DU?$char_traits@D@std@@V?$allocator@D@2@@std@@B 00463254     systeminfo.obj
 0003:0000026c       ?FREE_VIRTUAL_MEMORY_IDENTIFIER_STRING@OSInfo@@0V?$basic_string@DU?$char_traits@D@std@@V?$allocator@D@2@@std@@B 0046326c     systeminfo.obj
 0003:00000284       ?FREE_SPACE_IN_PAGING_FILES_QUERY_STRING@OSInfo@@0V?$basic_string@DU?$char_traits@D@std@@V?$allocator@D@2@@std@@B 00463284     systeminfo.obj
 0003:0000029c       ?TEMPERATURE_QUERY_STRING@CPUInfo@@0V?$basic_string@DU?$char_traits@D@std@@V?$allocator@D@2@@std@@B 0046329c     systeminfo.obj
 0003:000002b4       ?VIDEO_MEMORY_TYPE_IDENTIFIER_STRING@GPUInfo@@0V?$basic_string@DU?$char_traits@D@std@@V?$allocator@D@2@@std@@B 004632b4     systeminfo.obj
 0003:000002cc       ?CHIPSET_END_IDENTIFIER_STRING@MotherboardInfo@@0V?$basic_string@DU?$char_traits@D@std@@V?$allocator@D@2@@std@@B 004632cc     systeminfo.obj
 0003:000002e4       ?BACKUP_CLOCK_SPEED_IDENTIFIER_STRING@RAMInfo@@0V?$basic_string@DU?$char_traits@D@std@@V?$allocator@D@2@@std@@B 004632e4     systeminfo.obj
 0003:000002fc       ?ARCHITECTURE_IDENTIFIER_STRING@CPUInfo@@0V?$basic_string@DU?$char_traits@D@std@@V?$allocator@D@2@@std@@B 004632fc     systeminfo.obj
 0003:00000314       ?USED_SPACE_IN_PAGING_FILE_IDENTIFIER_STRING@OSInfo@@0V?$basic_string@DU?$char_traits@D@std@@V?$allocator@D@2@@std@@B 00463314     systeminfo.obj
 0003:0000032c       ?SERIAL_NUMBER_IDENTIFIER_STRING@OSInfo@@0V?$basic_string@DU?$char_traits@D@std@@V?$allocator@D@2@@std@@B 0046332c     systeminfo.obj
 0003:00000344       ?MOTHERBOARD_INSTANCE_QUERY_STRING@MotherboardInfoDelegate@@0V?$basic_string@DU?$char_traits@D@std@@V?$allocator@D@2@@std@@B 00463344     systeminfo.obj
 0003:0000035c       ?NAME_IDENTIFIER_STRING@GPUInfo@@0V?$basic_string@DU?$char_traits@D@std@@V?$allocator@D@2@@std@@B 0046335c     systeminfo.obj
 0003:00000374       ?MANUFACTURER_IDENTIFIER_STRING@GPUInfo@@0V?$basic_string@DU?$char_traits@D@std@@V?$allocator@D@2@@std@@B 00463374     systeminfo.obj
 0003:0000038c       ?MEMORY_TYPE_IDENTIFIER_STRING@RAMInfo@@0V?$basic_string@DU?$char_traits@D@std@@V?$allocator@D@2@@std@@B 0046338c     systeminfo.obj
 0003:000003a4       ?CAPACITY_IDENTIFIER_STRING@RAMInfo@@0V?$basic_string@DU?$char_traits@D@std@@V?$allocator@D@2@@std@@B 004633a4     systeminfo.obj
 0003:000003bc       ?BOOT_DEVICE_IDENTIFIER_STRING@OSInfo@@0V?$basic_string@DU?$char_traits@D@std@@V?$allocator@D@2@@std@@B 004633bc     systeminfo.obj
 0003:000003d4       ?ARCHITECTURE_IDENTIFIER_STRING@OSInfo@@0V?$basic_string@DU?$char_traits@D@std@@V?$allocator@D@2@@std@@B 004633d4     systeminfo.obj
 0003:000003ec       ?INSTALL_DATE_IDENTIFIER_STRING@OSInfo@@0V?$basic_string@DU?$char_traits@D@std@@V?$allocator@D@2@@std@@B 004633ec     systeminfo.obj
 0003:00000404       ?AMD_IDENTIFIER_STRING@GPUInfo@@0V?$basic_string@DU?$char_traits@D@std@@V?$allocator@D@2@@std@@B 00463404     systeminfo.obj
 0003:0000041c       ?NVIDIA_IDENTIFIER_STRING@GPUInfo@@0V?$basic_string@DU?$char_traits@D@std@@V?$allocator@D@2@@std@@B 0046341c     systeminfo.obj
 0003:00000434       ?VIDEO_PROCESSOR_IDENTIFIER_STRING@GPUInfo@@0V?$basic_string@DU?$char_traits@D@std@@V?$allocator@D@2@@std@@B 00463434     systeminfo.obj
 0003:0000044c       ?NAME_IDENTIFIER_STRING@MotherboardInfo@@0V?$basic_string@DU?$char_traits@D@std@@V?$allocator@D@2@@std@@B 0046344c     systeminfo.obj
 0003:00000464       ?RAM_INFO_QUERY_STRING@RAMInfoDelegate@@0V?$basic_string@DU?$char_traits@D@std@@V?$allocator@D@2@@std@@B 00463464     systeminfo.obj
 0003:0000047c       ?MANUFACTURER_IDENTIFIER_STRING@OSInfo@@0V?$basic_string@DU?$char_traits@D@std@@V?$allocator@D@2@@std@@B 0046347c     systeminfo.obj
 0003:00000494       ?PART_NUMBER_IDENTIFIER_STRING@RAMInfo@@0V?$basic_string@DU?$char_traits@D@std@@V?$allocator@D@2@@std@@B 00463494     systeminfo.obj
 0003:000004ac       ?GPU_INFO_END_IDENTIFIER_STRING@GPUInfoDelegate@@0V?$basic_string@DU?$char_traits@D@std@@V?$allocator@D@2@@std@@B 004634ac     systeminfo.obj
 0003:000004c4       ?VERSION_IDENTIFIER_STRING@MotherboardInfo@@0V?$basic_string@DU?$char_traits@D@std@@V?$allocator@D@2@@std@@B 004634c4     systeminfo.obj
 0003:000004dc       ?NAME_IDENTIFIER_STRING@CPUInfo@@0V?$basic_string@DU?$char_traits@D@std@@V?$allocator@D@2@@std@@B 004634dc     systeminfo.obj
 0003:000004f4       ?CURRENT_USER_IDENTIFIER_STRING@OSInfo@@0V?$basic_string@DU?$char_traits@D@std@@V?$allocator@D@2@@std@@B 004634f4     systeminfo.obj
 0003:0000050c       ?OS_INSTANCE_QUERY_STRING@OSInfoDelegate@@0V?$basic_string@DU?$char_traits@D@std@@V?$allocator@D@2@@std@@B 0046350c     systeminfo.obj
 0003:00000524       ?MANUFACTURER_IDENTIFIER_STRING@CPUInfo@@0V?$basic_string@DU?$char_traits@D@std@@V?$allocator@D@2@@std@@B 00463524     systeminfo.obj
 0003:0000053c       ?FREE_PHYSICAL_MEMORY_IDENTIFIER_STRING@OSInfo@@0V?$basic_string@DU?$char_traits@D@std@@V?$allocator@D@2@@std@@B 0046353c     systeminfo.obj
 0003:00000554       ?CLOCK_SPEED_QUERY_STRING@CPUInfo@@0V?$basic_string@DU?$char_traits@D@std@@V?$allocator@D@2@@std@@B 00463554     systeminfo.obj
 0003:0000056c       ?TEMPERATURE_ERROR_IDENTIFIER_STRING@CPUInfo@@0V?$basic_string@DU?$char_traits@D@std@@V?$allocator@D@2@@std@@B 0046356c     systeminfo.obj
 0003:00000584       ?REFRESH_RATE_IDENTIFIER_STRING@GPUInfo@@0V?$basic_string@DU?$char_traits@D@std@@V?$allocator@D@2@@std@@B 00463584     systeminfo.obj
 0003:0000059c       ?TOTAL_SWAP_SIZE_IDENTIFIER_STRING@OSInfo@@0V?$basic_string@DU?$char_traits@D@std@@V?$allocator@D@2@@std@@B 0046359c     systeminfo.obj
 0003:000005b4       ?CHIPSET_IDENTIFIER_STRING@MotherboardInfo@@0V?$basic_string@DU?$char_traits@D@std@@V?$allocator@D@2@@std@@B 004635b4     systeminfo.obj
 0003:000005cc       ?CAPTION_IDENTIFIER_STRING@GPUInfo@@0V?$basic_string@DU?$char_traits@D@std@@V?$allocator@D@2@@std@@B 004635cc     systeminfo.obj
 0003:000005e4       ?BUILD_NUMBER_IDENTIFIER_STRING@OSInfo@@0V?$basic_string@DU?$char_traits@D@std@@V?$allocator@D@2@@std@@B 004635e4     systeminfo.obj
 0003:000005fc       ?VIDEO_ARCHITECTURE_IDENTIFIER_STRING@GPUInfo@@0V?$basic_string@DU?$char_traits@D@std@@V?$allocator@D@2@@std@@B 004635fc     systeminfo.obj
 0003:00000614       ?CPU_INFO_END_IDENTIFIER_STRING@CPUInfoDelegate@@0V?$basic_string@DU?$char_traits@D@std@@V?$allocator@D@2@@std@@B 00463614     systeminfo.obj
 0003:0000062c       ?GPU_INFO_QUERY_STRING@GPUInfoDelegate@@0V?$basic_string@DU?$char_traits@D@std@@V?$allocator@D@2@@std@@B 0046362c     systeminfo.obj
 0003:00000644       ?TOTAL_VIRTUAL_MEMORY_SIZE_IDENTIFIER_STRING@OSInfo@@0V?$basic_string@DU?$char_traits@D@std@@V?$allocator@D@2@@std@@B 00463644     systeminfo.obj
 0003:0000065c       ?NAME_IDENTIFIER_STRING@OSInfo@@0V?$basic_string@DU?$char_traits@D@std@@V?$allocator@D@2@@std@@B 0046365c     systeminfo.obj
 0003:00000674       ?OS_INFO_END_IDENTIFIER_STRING@OSInfoDelegate@@0V?$basic_string@DU?$char_traits@D@std@@V?$allocator@D@2@@std@@B 00463674     systeminfo.obj
 0003:0000068c       ?FREE_VIRTUAL_MEMORY_QUERY_STRING@OSInfo@@0V?$basic_string@DU?$char_traits@D@std@@V?$allocator@D@2@@std@@B 0046368c     systeminfo.obj
 0003:000006a4       ?INTEL_IDENTIFIER_STRING@GPUInfo@@0V?$basic_string@DU?$char_traits@D@std@@V?$allocator@D@2@@std@@B 004636a4     systeminfo.obj
 0003:000006bc       ?DRIVER_VERSION_IDENTIFIER_STRING@GPUInfo@@0V?$basic_string@DU?$char_traits@D@std@@V?$allocator@D@2@@std@@B 004636bc     systeminfo.obj
 0003:000006d4       ?CURRENT_CLOCK_SPEED_IDENTIFIER_STRING@CPUInfo@@0V?$basic_string@DU?$char_traits@D@std@@V?$allocator@D@2@@std@@B 004636d4     systeminfo.obj
 0003:000006ec       ?OS_INFO_QUERY_STRING@OSInfoDelegate@@0V?$basic_string@DU?$char_traits@D@std@@V?$allocator@D@2@@std@@B 004636ec     systeminfo.obj
 0003:00000704       ?MOTHERBOARD_INFO_QUERY_STRING@MotherboardInfoDelegate@@0V?$basic_string@DU?$char_traits@D@std@@V?$allocator@D@2@@std@@B 00463704     systeminfo.obj
 0003:0000071c       ?SERIAL_NUMBER_IDENTIFIER_STRING@MotherboardInfo@@0V?$basic_string@DU?$char_traits@D@std@@V?$allocator@D@2@@std@@B 0046371c     systeminfo.obj
 0003:00000734       ?NAME_IDENTIFIER_STRING@RAMInfo@@0V?$basic_string@DU?$char_traits@D@std@@V?$allocator@D@2@@std@@B 00463734     systeminfo.obj
 0003:0000074c       ?GPU_INSTANCE_QUERY_STRING@GPUInfoDelegate@@0V?$basic_string@DU?$char_traits@D@std@@V?$allocator@D@2@@std@@B 0046374c     systeminfo.obj
 0003:00000764       ?CURRENT_DATE_TIME_IDENTIFIER_STRING@OSInfo@@0V?$basic_string@DU?$char_traits@D@std@@V?$allocator@D@2@@std@@B 00463764     systeminfo.obj
 0003:0000077c       ?L3_CACHE_SIZE_IDENTIFIER_STRING@CPUInfo@@0V?$basic_string@DU?$char_traits@D@std@@V?$allocator@D@2@@std@@B 0046377c     systeminfo.obj
 0003:00000794       ??_R0?AVbad_alloc@std@@@8  00463794     Main.obj
 0003:000007b0       ??_R0?AVbad_cast@std@@@8   004637b0     Main.obj
 0003:000007cc       ??_R0?AVexception@std@@@8  004637cc     Main.obj
 0003:000007e8       ??_R0?AVbad_array_new_length@std@@@8 004637e8     Main.obj
 0003:00000848       ??_R0?AVtype_info@@@8      00463848     MSVCRT:std_type_info_static.obj
 0003:00000860       ??_R0?AV?$basic_filebuf@DU?$char_traits@D@std@@@std@@@8 00463860     Main.obj
 0003:0000089c       ??_R0?AV?$basic_ifstream@DU?$char_traits@D@std@@@std@@@8 0046389c     Main.obj
 0003:000008d8       ??_R0?AVios_base@std@@@8   004638d8     Main.obj
 0003:000008f4       ??_R0?AV?$_Iosb@H@std@@@8  004638f4     Main.obj
 0003:00000910       ??_R0?AV?$basic_streambuf@DU?$char_traits@D@std@@@std@@@8 00463910     Main.obj
 0003:0000094c       ??_R0?AV?$basic_istream@DU?$char_traits@D@std@@@std@@@8 0046394c     Main.obj
 0003:00000988       ??_R0?AV?$basic_ios@DU?$char_traits@D@std@@@std@@@8 00463988     Main.obj
 0003:000009c0       ??_R0?AV?$basic_stringstream@DU?$char_traits@D@std@@V?$allocator@D@2@@std@@@8 004639c0     systeminfo.obj
 0003:00000a10       ??_R0?AV?$basic_stringbuf@DU?$char_traits@D@std@@V?$allocator@D@2@@std@@@8 00463a10     systeminfo.obj
 0003:00000a60       ??_R0?AV?$basic_iostream@DU?$char_traits@D@std@@@std@@@8 00463a60     systeminfo.obj
 0003:00000aa0       ??_R0?AV?$_Func_base@V?$basic_string@DU?$char_traits@D@std@@V?$allocator@D@2@@std@@ABV12@@std@@@8 00463aa0     systeminfo.obj
 0003:00000ba4       ??_R0?AV?$basic_ostream@DU?$char_traits@D@std@@@std@@@8 00463ba4     systeminfo.obj
 0003:00000be8       ___scrt_current_native_startup_state 00463be8     MSVCRT:utility.obj
 0003:00000bec       ___scrt_native_startup_lock 00463bec     MSVCRT:utility.obj
 0003:00000c0c       ___castguard_check_failure_os_handled_fptr 00463c0c     MSVCRT:guard_support.obj
 0003:00000f2c       ___isa_available           00463f2c     MSVCRT:cpu_disp.obj
 0003:00000f30       ___favor                   00463f30     MSVCRT:cpu_disp.obj
 0003:00000f34       ___scrt_debugger_hook_flag 00463f34     MSVCRT:utility_desktop.obj
 0003:00000f38       ?__type_info_root_node@@3U__type_info_node@@A 00463f38     MSVCRT:tncleanup.obj
 0003:00000f40       ?_OptionsStorage@?1??__local_stdio_scanf_options@@9@4_KA 00463f40     MSVCRT:default_local_stdio_options.obj
 0003:00000f64       _Curl_if_nametoindex       00463f64     libcurl:system_win32.obj
 0003:00000f90       ?Form@@3UtagRECT@@A        00463f90     Main.obj
 0003:00000fa0       ?g_hWnd@@3PAUHWND__@@A     00463fa0     Main.obj
 0003:00000fa4       ?g_d3dpp@@3U_D3DPRESENT_PARAMETERS_@@A 00463fa4     Main.obj
 0003:00000fdc       ?g_pd3dDevice@@3PAUIDirect3DDevice9@@A 00463fdc     Main.obj
 0003:00000fe0       ?g_line@@3PAUID3DXLine@@A  00463fe0     Main.obj
 0003:00000fe4       ?g_pd3d@@3PAUIDirect3D9@@A 00463fe4     Main.obj
 0003:00000fe8       ?g_hProcess@@3PAXA         00463fe8     Main.obj
 0003:00000fec       ?screen_height@@3MA        00463fec     Main.obj
 0003:00000ff0       ?screen_width@@3MA         00463ff0     Main.obj
 0003:00000ff4       ?g_game_dll_base@@3KA      00463ff4     Main.obj
 0003:00000ff8       ?g_hWarcraftWnd@@3PAUHWND__@@A 00463ff8     Main.obj
 0003:00001000       ?view_matrix@@3U_D3DXMATRIXA16@@A 00464000     Main.obj
 0003:00001040       ?view_matrix_temp@@3U_D3DXMATRIXA16@@A 00464040     Main.obj
 0003:00001080       ?UnitNames@@3V?$map@IPBDU?$less@I@std@@V?$allocator@U?$pair@$$CBIPBD@std@@@2@@std@@A 00464080     Main.obj
 0003:00001088       ?_Psave@?$_Facetptr@V?$codecvt@DDU_Mbstatet@@@std@@@std@@2PBVfacet@locale@2@B 00464088     Main.obj
 0003:0000108c       ?_Stinit@?1??_Init@?$basic_filebuf@DU?$char_traits@D@std@@@std@@IAEXPAU_iobuf@@W4_Initfl@23@@Z@4U_Mbstatet@@A 0046408c     Main.obj
 0003:00001098       ?_OptionsStorage@?1??__local_stdio_printf_options@@9@4_KA 00464098     protect.obj
 0003:000010a0       ?_Psave@?$_Facetptr@V?$ctype@D@std@@@std@@2PBVfacet@locale@2@B 004640a0     systeminfo.obj
 0003:000010a4       ___dyn_tls_dtor_callback   004640a4     <common>
 0003:000010a8       ___dyn_tls_init_callback   004640a8     <common>
 0003:000010ac       _Curl_isVistaOrGreater     004640ac     <common>
 0003:000010b0       _Curl_freq                 004640b0     <common>

 entry point at        0001:00010e44

 Static symbols

 0001:00000000       ??__Eg_hWarcraftWnd@@YAXXZ 00401000 f   Main.obj
 0001:00000020       ??__EUnitNames@@YAXXZ      00401020 f   Main.obj
 0001:00000050       ??__E?TEMPERATURE_QUERY_STRING@CPUInfo@@0V?$basic_string@DU?$char_traits@D@std@@V?$allocator@D@2@@std@@B@@YAXXZ 00401050 f   systeminfo.obj
 0001:00000070       ??__E?TEMPERATURE_ERROR_IDENTIFIER_STRING@CPUInfo@@0V?$basic_string@DU?$char_traits@D@std@@V?$allocator@D@2@@std@@B@@YAXXZ 00401070 f   systeminfo.obj
 0001:00000090       ??__E?CLOCK_SPEED_QUERY_STRING@CPUInfo@@0V?$basic_string@DU?$char_traits@D@std@@V?$allocator@D@2@@std@@B@@YAXXZ 00401090 f   systeminfo.obj
 0001:000000b0       ??__E?CURRENT_CLOCK_SPEED_IDENTIFIER_STRING@CPUInfo@@0V?$basic_string@DU?$char_traits@D@std@@V?$allocator@D@2@@std@@B@@YAXXZ 004010b0 f   systeminfo.obj
 0001:000000d0       ??__E?NAME_IDENTIFIER_STRING@CPUInfo@@0V?$basic_string@DU?$char_traits@D@std@@V?$allocator@D@2@@std@@B@@YAXXZ 004010d0 f   systeminfo.obj
 0001:000000f0       ??__E?NUMBER_OF_CORES_IDENTIFIER_STRING@CPUInfo@@0V?$basic_string@DU?$char_traits@D@std@@V?$allocator@D@2@@std@@B@@YAXXZ 004010f0 f   systeminfo.obj
 0001:00000110       ??__E?MANUFACTURER_IDENTIFIER_STRING@CPUInfo@@0V?$basic_string@DU?$char_traits@D@std@@V?$allocator@D@2@@std@@B@@YAXXZ 00401110 f   systeminfo.obj
 0001:00000130       ??__E?ARCHITECTURE_IDENTIFIER_STRING@CPUInfo@@0V?$basic_string@DU?$char_traits@D@std@@V?$allocator@D@2@@std@@B@@YAXXZ 00401130 f   systeminfo.obj
 0001:00000150       ??__E?L2_CACHE_SIZE_IDENTIFIER_STRING@CPUInfo@@0V?$basic_string@DU?$char_traits@D@std@@V?$allocator@D@2@@std@@B@@YAXXZ 00401150 f   systeminfo.obj
 0001:00000170       ??__E?L3_CACHE_SIZE_IDENTIFIER_STRING@CPUInfo@@0V?$basic_string@DU?$char_traits@D@std@@V?$allocator@D@2@@std@@B@@YAXXZ 00401170 f   systeminfo.obj
 0001:00000190       ??__E?CPU_INFO_QUERY_STRING@CPUInfoDelegate@@0V?$basic_string@DU?$char_traits@D@std@@V?$allocator@D@2@@std@@B@@YAXXZ 00401190 f   systeminfo.obj
 0001:000001b0       ??__E?CPU_INSTANCE_QUERY_STRING@CPUInfoDelegate@@0V?$basic_string@DU?$char_traits@D@std@@V?$allocator@D@2@@std@@B@@YAXXZ 004011b0 f   systeminfo.obj
 0001:000001d0       ??__E?CPU_INFO_END_IDENTIFIER_STRING@CPUInfoDelegate@@0V?$basic_string@DU?$char_traits@D@std@@V?$allocator@D@2@@std@@B@@YAXXZ 004011d0 f   systeminfo.obj
 0001:000001f0       ??__E?NVIDIA_IDENTIFIER_STRING@GPUInfo@@0V?$basic_string@DU?$char_traits@D@std@@V?$allocator@D@2@@std@@B@@YAXXZ 004011f0 f   systeminfo.obj
 0001:00000210       ??__E?INTEL_IDENTIFIER_STRING@GPUInfo@@0V?$basic_string@DU?$char_traits@D@std@@V?$allocator@D@2@@std@@B@@YAXXZ 00401210 f   systeminfo.obj
 0001:00000230       ??__E?AMD_IDENTIFIER_STRING@GPUInfo@@0V?$basic_string@DU?$char_traits@D@std@@V?$allocator@D@2@@std@@B@@YAXXZ 00401230 f   systeminfo.obj
 0001:00000250       ??__E?NAME_IDENTIFIER_STRING@GPUInfo@@0V?$basic_string@DU?$char_traits@D@std@@V?$allocator@D@2@@std@@B@@YAXXZ 00401250 f   systeminfo.obj
 0001:00000270       ??__E?MANUFACTURER_IDENTIFIER_STRING@GPUInfo@@0V?$basic_string@DU?$char_traits@D@std@@V?$allocator@D@2@@std@@B@@YAXXZ 00401270 f   systeminfo.obj
 0001:00000290       ??__E?ADAPTER_RAM_IDENTIFIER_STRING@GPUInfo@@0V?$basic_string@DU?$char_traits@D@std@@V?$allocator@D@2@@std@@B@@YAXXZ 00401290 f   systeminfo.obj
 0001:000002b0       ??__E?REFRESH_RATE_IDENTIFIER_STRING@GPUInfo@@0V?$basic_string@DU?$char_traits@D@std@@V?$allocator@D@2@@std@@B@@YAXXZ 004012b0 f   systeminfo.obj
 0001:000002d0       ??__E?DRIVER_VERSION_IDENTIFIER_STRING@GPUInfo@@0V?$basic_string@DU?$char_traits@D@std@@V?$allocator@D@2@@std@@B@@YAXXZ 004012d0 f   systeminfo.obj
 0001:000002f0       ??__E?VIDEO_ARCHITECTURE_IDENTIFIER_STRING@GPUInfo@@0V?$basic_string@DU?$char_traits@D@std@@V?$allocator@D@2@@std@@B@@YAXXZ 004012f0 f   systeminfo.obj
 0001:00000310       ??__E?VIDEO_MEMORY_TYPE_IDENTIFIER_STRING@GPUInfo@@0V?$basic_string@DU?$char_traits@D@std@@V?$allocator@D@2@@std@@B@@YAXXZ 00401310 f   systeminfo.obj
 0001:00000330       ??__E?VIDEO_MODE_DESCRIPTION_IDENTIFIER_STRING@GPUInfo@@0V?$basic_string@DU?$char_traits@D@std@@V?$allocator@D@2@@std@@B@@YAXXZ 00401330 f   systeminfo.obj
 0001:00000350       ??__E?VIDEO_PROCESSOR_IDENTIFIER_STRING@GPUInfo@@0V?$basic_string@DU?$char_traits@D@std@@V?$allocator@D@2@@std@@B@@YAXXZ 00401350 f   systeminfo.obj
 0001:00000370       ??__E?CAPTION_IDENTIFIER_STRING@GPUInfo@@0V?$basic_string@DU?$char_traits@D@std@@V?$allocator@D@2@@std@@B@@YAXXZ 00401370 f   systeminfo.obj
 0001:00000390       ??__E?GPU_INFO_QUERY_STRING@GPUInfoDelegate@@0V?$basic_string@DU?$char_traits@D@std@@V?$allocator@D@2@@std@@B@@YAXXZ 00401390 f   systeminfo.obj
 0001:000003b0       ??__E?GPU_INSTANCE_QUERY_STRING@GPUInfoDelegate@@0V?$basic_string@DU?$char_traits@D@std@@V?$allocator@D@2@@std@@B@@YAXXZ 004013b0 f   systeminfo.obj
 0001:000003d0       ??__E?GPU_INFO_END_IDENTIFIER_STRING@GPUInfoDelegate@@0V?$basic_string@DU?$char_traits@D@std@@V?$allocator@D@2@@std@@B@@YAXXZ 004013d0 f   systeminfo.obj
 0001:000003f0       ??__E?CHIPSET_QUERY_STRING@MotherboardInfo@@0V?$basic_string@DU?$char_traits@D@std@@V?$allocator@D@2@@std@@B@@YAXXZ 004013f0 f   systeminfo.obj
 0001:00000410       ??__E?NAME_IDENTIFIER_STRING@MotherboardInfo@@0V?$basic_string@DU?$char_traits@D@std@@V?$allocator@D@2@@std@@B@@YAXXZ 00401410 f   systeminfo.obj
 0001:00000430       ??__E?MANUFACTURER_IDENTIFIER_STRING@MotherboardInfo@@0V?$basic_string@DU?$char_traits@D@std@@V?$allocator@D@2@@std@@B@@YAXXZ 00401430 f   systeminfo.obj
 0001:00000450       ??__E?CHIPSET_IDENTIFIER_STRING@MotherboardInfo@@0V?$basic_string@DU?$char_traits@D@std@@V?$allocator@D@2@@std@@B@@YAXXZ 00401450 f   systeminfo.obj
 0001:00000470       ??__E?CHIPSET_END_IDENTIFIER_STRING@MotherboardInfo@@0V?$basic_string@DU?$char_traits@D@std@@V?$allocator@D@2@@std@@B@@YAXXZ 00401470 f   systeminfo.obj
 0001:00000490       ??__E?SERIAL_NUMBER_IDENTIFIER_STRING@MotherboardInfo@@0V?$basic_string@DU?$char_traits@D@std@@V?$allocator@D@2@@std@@B@@YAXXZ 00401490 f   systeminfo.obj
 0001:000004b0       ??__E?VERSION_IDENTIFIER_STRING@MotherboardInfo@@0V?$basic_string@DU?$char_traits@D@std@@V?$allocator@D@2@@std@@B@@YAXXZ 004014b0 f   systeminfo.obj
 0001:000004d0       ??__E?MOTHERBOARD_INFO_QUERY_STRING@MotherboardInfoDelegate@@0V?$basic_string@DU?$char_traits@D@std@@V?$allocator@D@2@@std@@B@@YAXXZ 004014d0 f   systeminfo.obj
 0001:000004f0       ??__E?MOTHERBOARD_INSTANCE_QUERY_STRING@MotherboardInfoDelegate@@0V?$basic_string@DU?$char_traits@D@std@@V?$allocator@D@2@@std@@B@@YAXXZ 004014f0 f   systeminfo.obj
 0001:00000510       ??__E?MOTHERBOARD_INFO_END_IDENTIFIER_STRING@MotherboardInfoDelegate@@0V?$basic_string@DU?$char_traits@D@std@@V?$allocator@D@2@@std@@B@@YAXXZ 00401510 f   systeminfo.obj
 0001:00000530       ??__E?ARCHITECTURE_IDENTIFIER_STRING@OSInfo@@0V?$basic_string@DU?$char_traits@D@std@@V?$allocator@D@2@@std@@B@@YAXXZ 00401530 f   systeminfo.obj
 0001:00000550       ??__E?CAPTION_INDENTIFIER_STRING@OSInfo@@0V?$basic_string@DU?$char_traits@D@std@@V?$allocator@D@2@@std@@B@@YAXXZ 00401550 f   systeminfo.obj
 0001:00000570       ??__E?NAME_IDENTIFIER_STRING@OSInfo@@0V?$basic_string@DU?$char_traits@D@std@@V?$allocator@D@2@@std@@B@@YAXXZ 00401570 f   systeminfo.obj
 0001:00000590       ??__E?MANUFACTURER_IDENTIFIER_STRING@OSInfo@@0V?$basic_string@DU?$char_traits@D@std@@V?$allocator@D@2@@std@@B@@YAXXZ 00401590 f   systeminfo.obj
 0001:000005b0       ??__E?VERSION_IDENTIFIER_STRING@OSInfo@@0V?$basic_string@DU?$char_traits@D@std@@V?$allocator@D@2@@std@@B@@YAXXZ 004015b0 f   systeminfo.obj
 0001:000005d0       ??__E?CURRENT_USER_IDENTIFIER_STRING@OSInfo@@0V?$basic_string@DU?$char_traits@D@std@@V?$allocator@D@2@@std@@B@@YAXXZ 004015d0 f   systeminfo.obj
 0001:000005f0       ??__E?INSTALL_DATE_IDENTIFIER_STRING@OSInfo@@0V?$basic_string@DU?$char_traits@D@std@@V?$allocator@D@2@@std@@B@@YAXXZ 004015f0 f   systeminfo.obj
 0001:00000610       ??__E?BUILD_NUMBER_IDENTIFIER_STRING@OSInfo@@0V?$basic_string@DU?$char_traits@D@std@@V?$allocator@D@2@@std@@B@@YAXXZ 00401610 f   systeminfo.obj
 0001:00000630       ??__E?LAST_BOOT_UP_TIME_IDENTIFIER_STRING@OSInfo@@0V?$basic_string@DU?$char_traits@D@std@@V?$allocator@D@2@@std@@B@@YAXXZ 00401630 f   systeminfo.obj
 0001:00000650       ??__E?BOOT_DEVICE_IDENTIFIER_STRING@OSInfo@@0V?$basic_string@DU?$char_traits@D@std@@V?$allocator@D@2@@std@@B@@YAXXZ 00401650 f   systeminfo.obj
 0001:00000670       ??__E?SERIAL_NUMBER_IDENTIFIER_STRING@OSInfo@@0V?$basic_string@DU?$char_traits@D@std@@V?$allocator@D@2@@std@@B@@YAXXZ 00401670 f   systeminfo.obj
 0001:00000690       ??__E?TOTAL_VIRTUAL_MEMORY_SIZE_IDENTIFIER_STRING@OSInfo@@0V?$basic_string@DU?$char_traits@D@std@@V?$allocator@D@2@@std@@B@@YAXXZ 00401690 f   systeminfo.obj
 0001:000006b0       ??__E?TOTAL_VISIBLE_MEMORY_SIZE_IDENTIFIER_STRING@OSInfo@@0V?$basic_string@DU?$char_traits@D@std@@V?$allocator@D@2@@std@@B@@YAXXZ 004016b0 f   systeminfo.obj
 0001:000006d0       ??__E?TOTAL_SWAP_SIZE_IDENTIFIER_STRING@OSInfo@@0V?$basic_string@DU?$char_traits@D@std@@V?$allocator@D@2@@std@@B@@YAXXZ 004016d0 f   systeminfo.obj
 0001:000006f0       ??__E?FREE_PHYSICAL_MEMORY_IDENTIFIER_STRING@OSInfo@@0V?$basic_string@DU?$char_traits@D@std@@V?$allocator@D@2@@std@@B@@YAXXZ 004016f0 f   systeminfo.obj
 0001:00000710       ??__E?FREE_PHYSICAL_MEMORY_QUERY_STRING@OSInfo@@0V?$basic_string@DU?$char_traits@D@std@@V?$allocator@D@2@@std@@B@@YAXXZ 00401710 f   systeminfo.obj
 0001:00000730       ??__E?FREE_VIRTUAL_MEMORY_IDENTIFIER_STRING@OSInfo@@0V?$basic_string@DU?$char_traits@D@std@@V?$allocator@D@2@@std@@B@@YAXXZ 00401730 f   systeminfo.obj
 0001:00000750       ??__E?FREE_VIRTUAL_MEMORY_QUERY_STRING@OSInfo@@0V?$basic_string@DU?$char_traits@D@std@@V?$allocator@D@2@@std@@B@@YAXXZ 00401750 f   systeminfo.obj
 0001:00000770       ??__E?FREE_SPACE_IN_PAGING_FILES_IDENTIFIER_STRING@OSInfo@@0V?$basic_string@DU?$char_traits@D@std@@V?$allocator@D@2@@std@@B@@YAXXZ 00401770 f   systeminfo.obj
 0001:00000790       ??__E?FREE_SPACE_IN_PAGING_FILES_QUERY_STRING@OSInfo@@0V?$basic_string@DU?$char_traits@D@std@@V?$allocator@D@2@@std@@B@@YAXXZ 00401790 f   systeminfo.obj
 0001:000007b0       ??__E?USED_SPACE_IN_PAGING_FILE_IDENTIFIER_STRING@OSInfo@@0V?$basic_string@DU?$char_traits@D@std@@V?$allocator@D@2@@std@@B@@YAXXZ 004017b0 f   systeminfo.obj
 0001:000007d0       ??__E?USED_SPACE_IN_PAGING_FILE_QUERY_STRING@OSInfo@@0V?$basic_string@DU?$char_traits@D@std@@V?$allocator@D@2@@std@@B@@YAXXZ 004017d0 f   systeminfo.obj
 0001:000007f0       ??__E?CURRENT_DATE_TIME_IDENTIFIER_STRING@OSInfo@@0V?$basic_string@DU?$char_traits@D@std@@V?$allocator@D@2@@std@@B@@YAXXZ 004017f0 f   systeminfo.obj
 0001:00000810       ??__E?CURRENT_DATE_TIME_QUERY_STRING@OSInfo@@0V?$basic_string@DU?$char_traits@D@std@@V?$allocator@D@2@@std@@B@@YAXXZ 00401810 f   systeminfo.obj
 0001:00000830       ??__E?OS_INFO_QUERY_STRING@OSInfoDelegate@@0V?$basic_string@DU?$char_traits@D@std@@V?$allocator@D@2@@std@@B@@YAXXZ 00401830 f   systeminfo.obj
 0001:00000850       ??__E?OS_INSTANCE_QUERY_STRING@OSInfoDelegate@@0V?$basic_string@DU?$char_traits@D@std@@V?$allocator@D@2@@std@@B@@YAXXZ 00401850 f   systeminfo.obj
 0001:00000870       ??__E?OS_INFO_END_IDENTIFIER_STRING@OSInfoDelegate@@0V?$basic_string@DU?$char_traits@D@std@@V?$allocator@D@2@@std@@B@@YAXXZ 00401870 f   systeminfo.obj
 0001:00000890       ??__E?NAME_IDENTIFIER_STRING@RAMInfo@@0V?$basic_string@DU?$char_traits@D@std@@V?$allocator@D@2@@std@@B@@YAXXZ 00401890 f   systeminfo.obj
 0001:000008b0       ??__E?MANUFACTURER_IDENTIFIER_STRING@RAMInfo@@0V?$basic_string@DU?$char_traits@D@std@@V?$allocator@D@2@@std@@B@@YAXXZ 004018b0 f   systeminfo.obj
 0001:000008d0       ??__E?CAPACITY_IDENTIFIER_STRING@RAMInfo@@0V?$basic_string@DU?$char_traits@D@std@@V?$allocator@D@2@@std@@B@@YAXXZ 004018d0 f   systeminfo.obj
 0001:000008f0       ??__E?SERIAL_NUMBER_IDENTIFIER_STRING@RAMInfo@@0V?$basic_string@DU?$char_traits@D@std@@V?$allocator@D@2@@std@@B@@YAXXZ 004018f0 f   systeminfo.obj
 0001:00000910       ??__E?FORM_FACTOR_IDENTIFIER_STRING@RAMInfo@@0V?$basic_string@DU?$char_traits@D@std@@V?$allocator@D@2@@std@@B@@YAXXZ 00401910 f   systeminfo.obj
 0001:00000930       ??__E?PART_NUMBER_IDENTIFIER_STRING@RAMInfo@@0V?$basic_string@DU?$char_traits@D@std@@V?$allocator@D@2@@std@@B@@YAXXZ 00401930 f   systeminfo.obj
 0001:00000950       ??__E?MEMORY_TYPE_IDENTIFIER_STRING@RAMInfo@@0V?$basic_string@DU?$char_traits@D@std@@V?$allocator@D@2@@std@@B@@YAXXZ 00401950 f   systeminfo.obj
 0001:00000970       ??__E?CLOCK_SPEED_IDENTIFIER_STRING@RAMInfo@@0V?$basic_string@DU?$char_traits@D@std@@V?$allocator@D@2@@std@@B@@YAXXZ 00401970 f   systeminfo.obj
 0001:00000990       ??__E?BACKUP_CLOCK_SPEED_IDENTIFIER_STRING@RAMInfo@@0V?$basic_string@DU?$char_traits@D@std@@V?$allocator@D@2@@std@@B@@YAXXZ 00401990 f   systeminfo.obj
 0001:000009b0       ??__E?RAM_INFO_QUERY_STRING@RAMInfoDelegate@@0V?$basic_string@DU?$char_traits@D@std@@V?$allocator@D@2@@std@@B@@YAXXZ 004019b0 f   systeminfo.obj
 0001:000009d0       ??__E?RAM_INSTANCE_QUERY_STRING@RAMInfoDelegate@@0V?$basic_string@DU?$char_traits@D@std@@V?$allocator@D@2@@std@@B@@YAXXZ 004019d0 f   systeminfo.obj
 0001:000009f0       ??__E?RAM_INFO_END_IDENTIFIER_STRING@RAMInfoDelegate@@0V?$basic_string@DU?$char_traits@D@std@@V?$allocator@D@2@@std@@B@@YAXXZ 004019f0 f   systeminfo.obj
 0001:00000a0d       ??__F_Fac_tidy_reg@std@@YAXXZ 00401a0d f   msvcprt:locale0_implib.obj
 0001:000048f5       __catch$??$?6U?$char_traits@D@std@@@std@@YAAAV?$basic_ostream@DU?$char_traits@D@std@@@0@AAV10@PBD@Z$0 004058f5 f i protect.obj
 0001:000061e1       __catch$?getArchitecture@CPUInfo@@ABE?AV?$basic_string@DU?$char_traits@D@std@@V?$allocator@D@2@@std@@AAV23@@Z$0 004071e1 f   systeminfo.obj
 0001:00006cb3       __catch$??0GPUInfo@@QAE@ABV?$vector@V?$basic_string@DU?$char_traits@D@std@@V?$allocator@D@2@@std@@V?$allocator@V?$basic_string@DU?$char_traits@D@std@@V?$allocator@D@2@@std@@@2@@std@@H@Z$0 00407cb3 f   systeminfo.obj
 0001:000076f8       $LN265                     004086f8     systeminfo.obj
 0001:00007730       $LN264                     00408730     systeminfo.obj
 0001:000079fc       $LN264                     004089fc     systeminfo.obj
 0001:0000957b       __catch$??0OSInfo@@QAE@ABV?$vector@V?$basic_string@DU?$char_traits@D@std@@V?$allocator@D@2@@std@@V?$allocator@V?$basic_string@DU?$char_traits@D@std@@V?$allocator@D@2@@std@@@2@@std@@H@Z$0 0040a57b f   systeminfo.obj
 0001:00009a30       __catch$??0OSInfo@@QAE@ABV?$vector@V?$basic_string@DU?$char_traits@D@std@@V?$allocator@D@2@@std@@V?$allocator@V?$basic_string@DU?$char_traits@D@std@@V?$allocator@D@2@@std@@@2@@std@@H@Z$2 0040aa30 f   systeminfo.obj
 0001:00009edf       __catch$??0OSInfo@@QAE@ABV?$vector@V?$basic_string@DU?$char_traits@D@std@@V?$allocator@D@2@@std@@V?$allocator@V?$basic_string@DU?$char_traits@D@std@@V?$allocator@D@2@@std@@@2@@std@@H@Z$4 0040aedf f   systeminfo.obj
 0001:0000abb6       __catch$??0RAMInfo@@QAE@ABV?$vector@V?$basic_string@DU?$char_traits@D@std@@V?$allocator@D@2@@std@@V?$allocator@V?$basic_string@DU?$char_traits@D@std@@V?$allocator@D@2@@std@@@2@@std@@H@Z$0 0040bbb6 f   systeminfo.obj
 0001:0000b6de       __catch$?getMemoryType@RAMInfo@@ABE?AV?$basic_string@DU?$char_traits@D@std@@V?$allocator@D@2@@std@@ABV23@@Z$0 0040c6de f   systeminfo.obj
 0001:0000b730       $LN433                     0040c730     systeminfo.obj
 0001:0000b932       __catch$?getFormFactor@RAMInfo@@ABE?AV?$basic_string@DU?$char_traits@D@std@@V?$allocator@D@2@@std@@ABV23@@Z$0 0040c932 f   systeminfo.obj
 0001:0000b984       $LN403                     0040c984     systeminfo.obj
 0001:0000c7d0       ??R<lambda_b5565d269da327e336800d80f472b553>@@QBE?AV?$basic_string@DU?$char_traits@D@std@@V?$allocator@D@2@@std@@ABV12@@Z 0040d7d0 f   systeminfo.obj
 0001:0000e2f3       __catch$??$_Emplace_reallocate@AAV?$vector@V?$basic_string@DU?$char_traits@D@std@@V?$allocator@D@2@@std@@V?$allocator@V?$basic_string@DU?$char_traits@D@std@@V?$allocator@D@2@@std@@@2@@std@@AAH@?$vector@VCPUInfo@@V?$allocator@VCPUInfo@@@std@@@std@@QAEPAVCPUInfo@@QAV2@AAV?$vector@V?$basic_string@DU?$char_traits@D@std@@V?$allocator@D@2@@std@@V?$allocator@V?$basic_string@DU?$char_traits@D@std@@V?$allocator@D@2@@std@@@2@@1@AAH@Z$0 0040f2f3 f i systeminfo.obj
 0001:0000e6e1       __catch$??$_Emplace_reallocate@AAV?$vector@V?$basic_string@DU?$char_traits@D@std@@V?$allocator@D@2@@std@@V?$allocator@V?$basic_string@DU?$char_traits@D@std@@V?$allocator@D@2@@std@@@2@@std@@AAH@?$vector@VGPUInfo@@V?$allocator@VGPUInfo@@@std@@@std@@QAEPAVGPUInfo@@QAV2@AAV?$vector@V?$basic_string@DU?$char_traits@D@std@@V?$allocator@D@2@@std@@V?$allocator@V?$basic_string@DU?$char_traits@D@std@@V?$allocator@D@2@@std@@@2@@1@AAH@Z$0 0040f6e1 f i systeminfo.obj
 0001:0000e90a       __catch$??$_Emplace_reallocate@AAV?$vector@V?$basic_string@DU?$char_traits@D@std@@V?$allocator@D@2@@std@@V?$allocator@V?$basic_string@DU?$char_traits@D@std@@V?$allocator@D@2@@std@@@2@@std@@AAH@?$vector@VMotherboardInfo@@V?$allocator@VMotherboardInfo@@@std@@@std@@QAEPAVMotherboardInfo@@QAV2@AAV?$vector@V?$basic_string@DU?$char_traits@D@std@@V?$allocator@D@2@@std@@V?$allocator@V?$basic_string@DU?$char_traits@D@std@@V?$allocator@D@2@@std@@@2@@1@AAH@Z$0 0040f90a f i systeminfo.obj
 0001:0000ebb1       __catch$??$_Emplace_reallocate@AAV?$vector@V?$basic_string@DU?$char_traits@D@std@@V?$allocator@D@2@@std@@V?$allocator@V?$basic_string@DU?$char_traits@D@std@@V?$allocator@D@2@@std@@@2@@std@@AAH@?$vector@VOSInfo@@V?$allocator@VOSInfo@@@std@@@std@@QAEPAVOSInfo@@QAV2@AAV?$vector@V?$basic_string@DU?$char_traits@D@std@@V?$allocator@D@2@@std@@V?$allocator@V?$basic_string@DU?$char_traits@D@std@@V?$allocator@D@2@@std@@@2@@1@AAH@Z$0 0040fbb1 f i systeminfo.obj
 0001:0000ee01       __catch$??$_Emplace_reallocate@AAV?$vector@V?$basic_string@DU?$char_traits@D@std@@V?$allocator@D@2@@std@@V?$allocator@V?$basic_string@DU?$char_traits@D@std@@V?$allocator@D@2@@std@@@2@@std@@AAH@?$vector@VRAMInfo@@V?$allocator@VRAMInfo@@@std@@@std@@QAEPAVRAMInfo@@QAV2@AAV?$vector@V?$basic_string@DU?$char_traits@D@std@@V?$allocator@D@2@@std@@V?$allocator@V?$basic_string@DU?$char_traits@D@std@@V?$allocator@D@2@@std@@@2@@1@AAH@Z$0 0040fe01 f i systeminfo.obj
 0001:0000f154       __catch$??$_Emplace_reallocate@ABV?$basic_string@DU?$char_traits@D@std@@V?$allocator@D@2@@std@@@?$vector@V?$basic_string@DU?$char_traits@D@std@@V?$allocator@D@2@@std@@V?$allocator@V?$basic_string@DU?$char_traits@D@std@@V?$allocator@D@2@@std@@@2@@std@@QAEPAV?$basic_string@DU?$char_traits@D@std@@V?$allocator@D@2@@1@QAV21@ABV21@@Z$0 00410154 f i systeminfo.obj
 0001:0000f556       __catch$??$_Insert_string@DU?$char_traits@D@std@@I@std@@YAAAV?$basic_ostream@DU?$char_traits@D@std@@@0@AAV10@QBDI@Z$0 00410556 f i systeminfo.obj
 0001:000100d0       ?_Delete_this@?$_Func_impl_no_alloc@V<lambda_b5565d269da327e336800d80f472b553>@@V?$basic_string@DU?$char_traits@D@std@@V?$allocator@D@2@@std@@ABV23@@std@@EAEX_N@Z 004110d0 f   systeminfo.obj
 0001:000100f0       ?_Get@?$_Func_impl_no_alloc@V<lambda_b5565d269da327e336800d80f472b553>@@V?$basic_string@DU?$char_traits@D@std@@V?$allocator@D@2@@std@@ABV23@@std@@EBEPBXXZ 004110f0 f   systeminfo.obj
 0001:00010100       ?_Target_type@?$_Func_impl_no_alloc@V<lambda_b5565d269da327e336800d80f472b553>@@V?$basic_string@DU?$char_traits@D@std@@V?$allocator@D@2@@std@@ABV23@@std@@EBEABVtype_info@@XZ 00411100 f   systeminfo.obj
 0001:00010110       ?_Do_call@?$_Func_impl_no_alloc@V<lambda_b5565d269da327e336800d80f472b553>@@V?$basic_string@DU?$char_traits@D@std@@V?$allocator@D@2@@std@@ABV23@@std@@EAE?AV?$basic_string@DU?$char_traits@D@std@@V?$allocator@D@2@@2@ABV32@@Z 00411110 f   systeminfo.obj
 0001:00010130       ?_Copy@?$_Func_impl_no_alloc@V<lambda_b5565d269da327e336800d80f472b553>@@V?$basic_string@DU?$char_traits@D@std@@V?$allocator@D@2@@std@@ABV23@@std@@EBEPAV?$_Func_base@V?$basic_string@DU?$char_traits@D@std@@V?$allocator@D@2@@std@@ABV12@@2@PAX@Z 00411130 f   systeminfo.obj
 0001:00010130       ?_Move@?$_Func_impl_no_alloc@V<lambda_b5565d269da327e336800d80f472b553>@@V?$basic_string@DU?$char_traits@D@std@@V?$allocator@D@2@@std@@ABV23@@std@@EAEPAV?$_Func_base@V?$basic_string@DU?$char_traits@D@std@@V?$allocator@D@2@@std@@ABV12@@2@PAX@Z 00411130 f   systeminfo.obj
 0001:000102b0       __catch$??$?5DU?$char_traits@D@std@@V?$allocator@D@1@@std@@YAAAV?$basic_istream@DU?$char_traits@D@std@@@0@$$QAV10@AAV?$basic_string@DU?$char_traits@D@std@@V?$allocator@D@2@@0@@Z$0 004112b0 f i systeminfo.obj
 0001:00010863       ?find_pe_section@@YAPAU_IMAGE_SECTION_HEADER@@QAEI@Z 00411863 f   MSVCRT:utility.obj
 0001:00010c03       ?pre_c_initialization@@YAHXZ 00411c03 f   MSVCRT:exe_winmain.obj
 0001:00010cae       ?post_pgo_initialization@@YAHXZ 00411cae f   MSVCRT:exe_winmain.obj
 0001:00010cb6       ?pre_cpp_initialization@@YAXXZ 00411cb6 f   MSVCRT:exe_winmain.obj
 0001:00010cc8       ?__scrt_common_main_seh@@YAHXZ 00411cc8 f   MSVCRT:exe_winmain.obj
 0001:000113c0       _pop3_dophase_done         004123c0 f   libcurl:pop3.obj
 0001:00011470       $$000000                   00412470     MSVCRT:sehprolg4.obj
 0001:000114e5       ___get_entropy             004124e5 f   MSVCRT:gs_support.obj
 0001:000116f0       _easy_perform              004126f0 f   libcurl:easy.obj
 0001:000117e0       _easy_transfer             004127e0 f   libcurl:easy.obj
 0001:00011860       _global_init               00412860 f   libcurl:easy.obj
 0001:00013f1c       $LN516                     00414f1c     libcurl:setopt.obj
 0001:00014060       $LN483                     00415060     libcurl:setopt.obj
 0001:00014130       $LN517                     00415130     libcurl:setopt.obj
 0001:0001415c       $LN518                     0041515c     libcurl:setopt.obj
 0001:000141dc       $LN486                     004151dc     libcurl:setopt.obj
 0001:00014240       $LN519                     00415240     libcurl:setopt.obj
 0001:00014364       $LN487                     00415364     libcurl:setopt.obj
 0001:00014444       $LN520                     00415444     libcurl:setopt.obj
 0001:000144b4       $LN492                     004154b4     libcurl:setopt.obj
 0001:00014500       $LN521                     00415500     libcurl:setopt.obj
 0001:0001454c       $LN493                     0041554c     libcurl:setopt.obj
 0001:0001461c       $LN522                     0041561c     libcurl:setopt.obj
 0001:00014634       $LN495                     00415634     libcurl:setopt.obj
 0001:00014654       $LN523                     00415654     libcurl:setopt.obj
 0001:000146a0       _setstropt_userpwd         004156a0 f   libcurl:setopt.obj
 0001:00014820       _slist_get_last            00415820 f   libcurl:slist.obj
 0001:00014e20       _add_next_timeout          00415e20 f   libcurl:multi.obj
 0001:00014ef0       _before_perform            00415ef0 f   libcurl:multi.obj
 0001:00014f20       _close_connect_only        00415f20 f   libcurl:multi.obj
 0001:00015710       _doing_getsock             00416710 f   libcurl:multi.obj
 0001:00015740       _domore_getsock            00416740 f   libcurl:multi.obj
 0001:00015770       _fd_key_compare            00416770 f   libcurl:multi.obj
 0001:00015770       _trhash_compare            00416770 f   libcurl:multi.obj
 0001:00015790       _hash_fd                   00416790 f   libcurl:multi.obj
 0001:00015790       _trhash                    00416790 f   libcurl:multi.obj
 0001:000157b0       _init_completed            004167b0 f   libcurl:multi.obj
 0001:000157d0       _mstate                    004167d0 f   libcurl:multi.obj
 0001:00015800       _multi_addmsg              00416800 f   libcurl:multi.obj
 0001:00015820       _multi_addtimeout          00416820 f   libcurl:multi.obj
 0001:000158b0       _multi_deltimeout          004168b0 f   libcurl:multi.obj
 0001:000158f0       _multi_do                  004168f0 f   libcurl:multi.obj
 0001:00015910       _multi_do_more             00416910 f   libcurl:multi.obj
 0001:00015940       _multi_done                00416940 f   libcurl:multi.obj
 0001:00015c30       _multi_getsock             00416c30 f   libcurl:multi.obj
 0001:00015cac       $LN17                      00416cac     libcurl:multi.obj
 0001:00015ce0       _multi_ischanged           00416ce0 f   libcurl:multi.obj
 0001:00015d00       _multi_runsingle           00416d00 f   libcurl:multi.obj
 0001:00016abc       $LN247                     00417abc     libcurl:multi.obj
 0001:00016b00       _multi_timeout             00417b00 f   libcurl:multi.obj
 0001:00016c00       _multi_wait                00417c00 f   libcurl:multi.obj
 0001:000170a0       _process_pending_handles   004180a0 f   libcurl:multi.obj
 0001:000170e0       _protocol_connect          004180e0 f   libcurl:multi.obj
 0001:000171a0       _protocol_connecting       004181a0 f   libcurl:multi.obj
 0001:000171e0       _protocol_doing            004181e0 f   libcurl:multi.obj
 0001:00017220       _protocol_getsock          00418220 f   libcurl:multi.obj
 0001:00017250       _sh_addentry               00418250 f   libcurl:multi.obj
 0001:000172e0       _sh_delentry               004182e0 f   libcurl:multi.obj
 0001:00017300       _sh_freeentry              00418300 f   libcurl:multi.obj
 0001:00017310       _sh_getentry               00418310 f   libcurl:multi.obj
 0001:00017330       _sh_init                   00418330 f   libcurl:multi.obj
 0001:00017360       _singlesocket              00418360 f   libcurl:multi.obj
 0001:00017640       _client_close_writer       00418640 f   libcurl:content_encoding.obj
 0001:00017640       _error_close_writer        00418640 f   libcurl:content_encoding.obj
 0001:00017640       _identity_close_writer     00418640 f   libcurl:content_encoding.obj
 0001:00017640       _trhash_dtor               00418640 f   libcurl:multi.obj
 0001:00017650       _waitconnect_getsock       00418650 f   libcurl:multi.obj
 0001:000176b0       _waitproxyconnect_getsock  004186b0 f   libcurl:multi.obj
 0001:000183ec       $LN309                     004193ec     libcurl:cookie.obj
 0001:000189f0       _bad_domain                004199f0 f   libcurl:cookie.obj
 0001:00018a30       _cookie_hash_domain        00419a30 f   libcurl:cookie.obj
 0001:00018aa0       _cookie_output             00419aa0 f   libcurl:cookie.obj
 0001:00018d00       _cookie_sort               00419d00 f   libcurl:cookie.obj
 0001:00018de0       _cookie_sort_ct            00419de0 f   libcurl:cookie.obj
 0001:00018e10       _cookiehash                00419e10 f   libcurl:cookie.obj
 0001:00018e50       _dup_cookie                00419e50 f   libcurl:cookie.obj
 0001:00018f80       _freecookie                00419f80 f   libcurl:cookie.obj
 0001:00018fe0       _get_netscape_format       00419fe0 f   libcurl:cookie.obj
 0001:00019090       _get_top_domain            0041a090 f   libcurl:cookie.obj
 0001:000190f0       _isip                      0041a0f0 f   libcurl:cookie.obj
 0001:00019150       _pathmatch                 0041a150 f   libcurl:cookie.obj
 0001:00019250       _remove_expired            0041a250 f   libcurl:cookie.obj
 0001:000192e0       _sanitize_cookie_path      0041a2e0 f   libcurl:cookie.obj
 0001:000193a0       _strstore                  0041a3a0 f   libcurl:cookie.obj
 0001:000193c0       _tailmatch                 0041a3c0 f   libcurl:cookie.obj
 0001:00019780       _conn_thread_sync_data     0041a780 f   libcurl:asyn-thread.obj
 0001:000197a0       _destroy_async_data        0041a7a0 f   libcurl:asyn-thread.obj
 0001:00019850       _destroy_thread_sync_data  0041a850 f   libcurl:asyn-thread.obj
 0001:000198b0       _getaddrinfo_complete      0041a8b0 f   libcurl:asyn-thread.obj
 0001:000198e0       _getaddrinfo_thread@4      0041a8e0 f   libcurl:asyn-thread.obj
 0001:000199c0       _init_resolve_thread       0041a9c0 f   libcurl:asyn-thread.obj
 0001:00019ab0       _init_thread_sync_data     0041aab0 f   libcurl:asyn-thread.obj
 0001:00019b60       _thread_wait_resolv        0041ab60 f   libcurl:asyn-thread.obj
 0001:00019d10       _dyn_nappend               0041ad10 f   libcurl:dynbuf.obj
 0001:00019de0       _encoder_nop_read          0041ade0 f   libcurl:mime.obj
 0001:00019e30       _encoder_nop_size          0041ae30 f   libcurl:mime.obj
 0001:00019e40       _encoder_7bit_read         0041ae40 f   libcurl:mime.obj
 0001:00019ea0       _encoder_base64_read       0041aea0 f   libcurl:mime.obj
 0001:0001a030       _encoder_base64_size       0041b030 f   libcurl:mime.obj
 0001:0001a0a0       _encoder_qp_read           0041b0a0 f   libcurl:mime.obj
 0001:0001a240       _encoder_qp_size           0041b240 f   libcurl:mime.obj
 0001:0001a270       _Curl_basename             0041b270 f   libcurl:mime.obj
 0001:0001a900       _add_content_type          0041b900 f   libcurl:mime.obj
 0001:0001a940       _cleanup_encoder_state     0041b940 f   libcurl:mime.obj
 0001:0001a960       _cleanup_part_content      0041b960 f   libcurl:mime.obj
 0001:0001a9e0       _content_type_match        0041b9e0 f   libcurl:mime.obj
 0001:0001aa34       $LN10                      0041ba34     libcurl:mime.obj
 0001:0001aa3c       $LN8                       0041ba3c     libcurl:mime.obj
 0001:0001af20       _escape_string             0041bf20 f   libcurl:mime.obj
 0001:0001af90       _match_header              0041bf90 f   libcurl:mime.obj
 0001:0001afd0       _mime_file_free            0041bfd0 f   libcurl:mime.obj
 0001:0001b010       _mime_file_read            0041c010 f   libcurl:mime.obj
 0001:0001b050       _mime_file_seek            0041c050 f   libcurl:mime.obj
 0001:0001b0a0       _mime_mem_free             0041c0a0 f   libcurl:mime.obj
 0001:0001b0c0       _mime_mem_read             0041c0c0 f   libcurl:mime.obj
 0001:0001b120       _mime_mem_seek             0041c120 f   libcurl:mime.obj
 0001:0001b180       _mime_open_file            0041c180 f   libcurl:mime.obj
 0001:0001b1b0       _mime_part_rewind          0041c1b0 f   libcurl:mime.obj
 0001:0001b250       _mime_subparts_free        0041c250 f   libcurl:mime.obj
 0001:0001b280       _mime_subparts_read        0041c280 f   libcurl:mime.obj
 0001:0001b3ec       $LN35                      0041c3ec     libcurl:mime.obj
 0001:0001b410       _mime_subparts_seek        0041c410 f   libcurl:mime.obj
 0001:0001b480       _mime_subparts_unbind      0041c480 f   libcurl:mime.obj
 0001:0001b4b0       _mimesetstate              0041c4b0 f   libcurl:mime.obj
 0001:0001b4e0       _multipart_size            0041c4e0 f   libcurl:mime.obj
 0001:0001b560       _qp_lookahead_eol          0041c560 f   libcurl:mime.obj
 0001:0001b5c0       _read_encoded_part_content 0041c5c0 f   libcurl:mime.obj
 0001:0001b6c0       _read_part_content         0041c6c0 f   libcurl:mime.obj
 0001:0001b7d0       _readback_bytes            0041c7d0 f   libcurl:mime.obj
 0001:0001b850       _readback_part             0041c850 f   libcurl:mime.obj
 0001:0001ba34       $LN42                      0041ca34     libcurl:mime.obj
 0001:0001ba60       _search_header             0041ca60 f   libcurl:mime.obj
 0001:0001baa0       _slist_size                0041caa0 f   libcurl:mime.obj
 0001:0001bb20       _strippath                 0041cb20 f   libcurl:mime.obj
 0001:0001c240       _bundle_add_conn           0041d240 f   libcurl:conncache.obj
 0001:0001c270       _bundle_create             0041d270 f   libcurl:conncache.obj
 0001:0001c2c0       _bundle_destroy            0041d2c0 f   libcurl:conncache.obj
 0001:0001c2f0       _bundle_remove_conn        0041d2f0 f   libcurl:conncache.obj
 0001:0001c340       _conn_llist_dtor           0041d340 f   libcurl:conncache.obj
 0001:0001c360       _conncache_add_bundle      0041d360 f   libcurl:conncache.obj
 0001:0001c3a0       _conncache_find_first_connection 0041d3a0 f   libcurl:conncache.obj
 0001:0001c3f0       _conncache_remove_bundle   0041d3f0 f   libcurl:conncache.obj
 0001:0001c460       _free_bundle_hash_entry    0041d460 f   libcurl:conncache.obj
 0001:0001c470       _hashkey                   0041d470 f   libcurl:conncache.obj
 0001:0001c4d0       _ConnectionExists          0041d4d0 f   libcurl:url.obj
 0001:0001db40       _IsMultiplexingPossible    0041eb40 f   libcurl:url.obj
 0001:0001db90       _SocketIsDead              0041eb90 f   libcurl:url.obj
 0001:0001dbc0       _allocate_conn             0041ebc0 f   libcurl:url.obj
 0001:0001de50       _call_extract_if_dead      0041ee50 f   libcurl:url.obj
 0001:0001de80       _check_noproxy             0041ee80 f   libcurl:url.obj
 0001:0001e000       _conn_free                 0041f000 f   libcurl:url.obj
 0001:0001e1b0       _conn_maxage               0041f1b0 f   libcurl:url.obj
 0001:0001e220       _conn_reset_all_postponed_data 0041f220 f   libcurl:url.obj
 0001:0001e240       _conn_reset_postponed_data 0041f240 f   libcurl:url.obj
 0001:0001e280       _conn_shutdown             0041f280 f   libcurl:url.obj
 0001:0001e300       _create_conn               0041f300 f   libcurl:url.obj
 0001:0001eae0       _create_conn_helper_init_proxy 0041fae0 f   libcurl:url.obj
 0001:0001ede0       _detect_proxy              0041fde0 f   libcurl:url.obj
 0001:0001ef00       _extract_if_dead           0041ff00 f   libcurl:url.obj
 0001:0001efb0       _findprotocol              0041ffb0 f   libcurl:url.obj
 0001:0001f010       _get_protocol_family       00420010 f   libcurl:url.obj
 0001:0001f020       _override_login            00420020 f   libcurl:url.obj
 0001:0001f200       _parse_connect_to_host_port 00420200 f   libcurl:url.obj
 0001:0001f3b0       _parse_connect_to_slist    004203b0 f   libcurl:url.obj
 0001:0001f5a0       _parse_connect_to_string   004205a0 f   libcurl:url.obj
 0001:0001f6b0       _parse_proxy               004206b0 f   libcurl:url.obj
 0001:0001fa50       _parse_proxy_auth          00420a50 f   libcurl:url.obj
 0001:0001faf0       _parse_remote_port         00420af0 f   libcurl:url.obj
 0001:0001fb80       _parseurlandfillconn       00420b80 f   libcurl:url.obj
 0001:0001ffc0       _proxy_info_matches        00420fc0 f   libcurl:url.obj
 0001:00020000       _prune_dead_connections    00421000 f   libcurl:url.obj
 0001:00020120       _resolve_server            00421120 f   libcurl:url.obj
 0001:00020380       _reuse_conn                00421380 f   libcurl:url.obj
 0001:000206a0       _set_login                 004216a0 f   libcurl:url.obj
 0001:00020720       _setup_connection_internals 00421720 f   libcurl:url.obj
 0001:00020760       _setup_range               00421760 f   libcurl:url.obj
 0001:00020820       _socks_proxy_info_matches  00421820 f   libcurl:url.obj
 0001:000208f0       _strip_trailing_dot        004218f0 f   libcurl:url.obj
 0001:00020920       _up_free                   00421920 f   libcurl:url.obj
 0001:00020a00       _zonefrom_url              00421a00 f   libcurl:url.obj
 0001:00021290       _chop_write                00422290 f   libcurl:sendf.obj
 0001:00021440       _get_pre_recved            00422440 f   libcurl:sendf.obj
 0001:000214c0       _pausewrite                004224c0 f   libcurl:sendf.obj
 0001:00021550       _pre_receive_plain         00422550 f   libcurl:sendf.obj
 0001:00022530       _ainext                    00423530 f   libcurl:connect.obj
 0001:00022570       _bindlocal                 00423570 f   libcurl:connect.obj
 0001:00022b10       _connect_SOCKS             00423b10 f   libcurl:connect.obj
 0001:00022c10       $LN27                      00423c10     libcurl:connect.obj
 0001:00022c20       _post_SOCKS                00423c20 f   libcurl:connect.obj
 0001:00022c80       _singleipconnect           00423c80 f   libcurl:connect.obj
 0001:00023020       _tcpkeepalive              00424020 f   libcurl:connect.obj
 0001:00023100       _tcpnodelay                00424100 f   libcurl:connect.obj
 0001:00023180       _trynextip                 00424180 f   libcurl:connect.obj
 0001:00023200       _verifyconnect             00424200 f   libcurl:connect.obj
 0001:00023ee0       _alpn2alpnid               00424ee0 f   libcurl:altsvc.obj
 0001:00023f40       _altsvc_add                00424f40 f   libcurl:altsvc.obj
 0001:00024040       _altsvc_create             00425040 f   libcurl:altsvc.obj
 0001:00024080       _altsvc_createid           00425080 f   libcurl:altsvc.obj
 0001:00024100       _altsvc_flush              00425100 f   libcurl:altsvc.obj
 0001:00024160       _altsvc_free               00425160 f   libcurl:altsvc.obj
 0001:00024190       _altsvc_load               00425190 f   libcurl:altsvc.obj
 0001:00024280       _altsvc_out                00425280 f   libcurl:altsvc.obj
 0001:00024320       _getalnum                  00425320 f   libcurl:altsvc.obj
 0001:00024590       _raw_tolower               00425590 f   libcurl:strcase.obj
 0001:000245b0       _error_init_writer         004255b0 f   libcurl:content_encoding.obj
 0001:000245b0       _identity_init_writer      004255b0 f   libcurl:content_encoding.obj
 0001:000245d0       _identity_unencode_write   004255d0 f   libcurl:content_encoding.obj
 0001:000245f0       _client_init_writer        004255f0 f   libcurl:content_encoding.obj
 0001:00024610       _client_unencode_write     00425610 f   libcurl:content_encoding.obj
 0001:00024640       _error_unencode_write      00425640 f   libcurl:content_encoding.obj
 0001:000248f0       _find_encoding             004258f0 f   libcurl:content_encoding.obj
 0001:00024960       _new_unencoding_writer     00425960 f   libcurl:content_encoding.obj
 0001:00025190       _hash_element_dtor         00426190 f   libcurl:hash.obj
 0001:000251d0       _mk_hash_element           004261d0 f   libcurl:hash.obj
 0001:00025da0       _Curl_shuffle_addr         00426da0 f   libcurl:hostip.obj
 0001:00025f10       _create_hostcache_id       00426f10 f   libcurl:hostip.obj
 0001:00025f70       _fetch_addr                00426f70 f   libcurl:hostip.obj
 0001:000260b0       _freednsentry              004270b0 f   libcurl:hostip.obj
 0001:000260e0       _hostcache_prune           004270e0 f   libcurl:hostip.obj
 0001:00026130       _hostcache_timestamp_remove 00427130 f   libcurl:hostip.obj
 0001:000265a0       _http_getsock_do           004275a0 f   libcurl:http.obj
 0001:000265a0       _rtsp_getsock_do           004275a0 f   libcurl:rtsp.obj
 0001:000265c0       _http_setup_conn           004275c0 f   libcurl:http.obj
 0001:00028194       $LN106                     00429194     libcurl:http.obj
 0001:00029044       $LN18                      0042a044     libcurl:http.obj
 0001:0002a0d0       _add_haproxy_protocol_header 0042b0d0 f   libcurl:http.obj
 0001:0002a1a0       _checkhttpprefix           0042b1a0 f   libcurl:http.obj
 0001:0002a210       _checkprefixmax            0042b210 f   libcurl:http.obj
 0001:0002a260       _checkprotoprefix          0042b260 f   libcurl:http.obj
 0001:0002a2a0       _checkrtspprefix           0042b2a0 f   libcurl:http.obj
 0001:0002a2d0       _expect100                 0042b2d0 f   libcurl:http.obj
 0001:0002a360       _get_http_string           0042b360 f   libcurl:http.obj
 0001:0002a390       _http_output_basic         0042b390 f   libcurl:http.obj
 0001:0002a4a0       _http_output_bearer        0042b4a0 f   libcurl:http.obj
 0001:0002a4e0       _http_perhapsrewind        0042b4e0 f   libcurl:http.obj
 0001:0002a67c       $LN34                      0042b67c     libcurl:http.obj
 0001:0002a690       _http_should_fail          0042b690 f   libcurl:http.obj
 0001:0002a710       _output_auth_headers       0042b710 f   libcurl:http.obj
 0001:0002a8a0       _pickoneauth               0042b8a0 f   libcurl:http.obj
 0001:0002a970       _readmoredata              0042b970 f   libcurl:http.obj
 0001:0002aa80       _use_http_1_1plus          0042ba80 f   libcurl:http.obj
 0001:0002ab70       _fileinfo_dtor             0042bb70 f   libcurl:wildcard.obj
 0001:0002c120       _data_pending              0042d120 f   libcurl:transfer.obj
 0001:0002c140       _readwrite_data            0042d140 f   libcurl:transfer.obj
 0001:0002c790       _readwrite_upload          0042d790 f   libcurl:transfer.obj
 0001:0002cb50       _trailers_left             0042db50 f   libcurl:transfer.obj
 0001:0002cb70       _trailers_read             0042db70 f   libcurl:transfer.obj
 0001:0002cbd0       _win_update_buffer_size    0042dbd0 f   libcurl:transfer.obj
 0001:0002d05c       $LN22                      0042e05c     libcurl:progress.obj
 0001:0002d2f0       _max5data                  0042e2f0 f   libcurl:progress.obj
 0001:0002d4e0       _progress_calc             0042e4e0 f   libcurl:progress.obj
 0001:0002d800       _progress_meter            0042e800 f   libcurl:progress.obj
 0001:0002dcb0       _time2str                  0042ecb0 f   libcurl:progress.obj
 0001:0002e230       _our_select                0042f230 f   libcurl:select.obj
 0001:0002e480       _CONNECT                   0042f480 f   libcurl:http_proxy.obj
 0001:0002ed40       _CONNECT_host              0042fd40 f   libcurl:http_proxy.obj
 0001:0002eff0       _connect_done              0042fff0 f   libcurl:http_proxy.obj
 0001:0002f020       _connect_init              00430020 f   libcurl:http_proxy.obj
 0001:0002f0b0       _https_proxy_connect       004300b0 f   libcurl:http_proxy.obj
 0001:0002f0b0       _imap_perform_upgrade_tls  004300b0 f   libcurl:imap.obj
 0001:0002f0b0       _pop3_perform_upgrade_tls  004300b0 f   libcurl:pop3.obj
 0001:0002f0b0       _smtp_perform_upgrade_tls  004300b0 f   libcurl:smtp.obj
 0001:0002f6fc       $LN67                      004306fc     libcurl:socks.obj
 0001:0002f718       $LN58                      00430718     libcurl:socks.obj
 0001:0002f728       $LN68                      00430728     libcurl:socks.obj
 0001:000302d0       $LN152                     004312d0     libcurl:socks.obj
 0001:0003034c       $LN9                       0043134c     libcurl:socks.obj
 0001:00030354       $LN7                       00431354     libcurl:socks.obj
 0001:00030370       _socksstate                00431370 f   libcurl:socks.obj
 0001:000303e0       _addbyter                  004313e0 f   libcurl:mprintf.obj
 0001:00030410       _alloc_addbyter            00431410 f   libcurl:mprintf.obj
 0001:00030590       _dprintf_DollarString      00431590 f   libcurl:mprintf.obj
 0001:00030600       _dprintf_IsQualifierNoDollar 00431600 f   libcurl:mprintf.obj
 0001:00030654       $LN11                      00431654     libcurl:mprintf.obj
 0001:0003065c       $LN9                       0043165c     libcurl:mprintf.obj
 0001:000306c0       _dprintf_Pass1             004316c0 f   libcurl:mprintf.obj
 0001:00030c2c       $LN115                     00431c2c     libcurl:mprintf.obj
 0001:00030c68       $LN109                     00431c68     libcurl:mprintf.obj
 0001:00030ce4       $LN116                     00431ce4     libcurl:mprintf.obj
 0001:00030d24       $LN110                     00431d24     libcurl:mprintf.obj
 0001:00030d58       $LN117                     00431d58     libcurl:mprintf.obj
 0001:00030d80       _dprintf_formatf           00431d80 f   libcurl:mprintf.obj
 0001:000318f4       $LN368                     004328f4     libcurl:mprintf.obj
 0001:00031ba0       _inet_pton4                00432ba0 f   libcurl:inet_pton.obj
 0001:00031c60       _inet_pton6                00432c60 f   libcurl:inet_pton.obj
 0001:00031f10       _checkday                  00432f10 f   libcurl:parsedate.obj
 0001:00031f70       _checkmonth                00432f70 f   libcurl:parsedate.obj
 0001:00031fd0       _checktz                   00432fd0 f   libcurl:parsedate.obj
 0001:00032010       _parsedate                 00433010 f   libcurl:parsedate.obj
 0001:00032490       _skip                      00433490 f   libcurl:parsedate.obj
 0001:000324c0       _time2epoch                004334c0 f   libcurl:parsedate.obj
 0001:000326a0       _randit                    004336a0 f   libcurl:rand.obj
 0001:00032e30       _gopher_do                 00433e30 f   libcurl:gopher.obj
 0001:00033040       _imap_perform_authenticate 00434040 f   libcurl:imap.obj
 0001:00033080       _imap_continue_authenticate 00434080 f   libcurl:imap.obj
 0001:00033080       _pop3_continue_auth        00434080 f   libcurl:pop3.obj
 0001:00033080       _smtp_continue_auth        00434080 f   libcurl:smtp.obj
 0001:000330b0       _imap_get_message          004340b0 f   libcurl:imap.obj
 0001:000330b0       _pop3_get_message          004340b0 f   libcurl:pop3.obj
 0001:00033130       _imap_do                   00434130 f   libcurl:imap.obj
 0001:00033170       _imap_done                 00434170 f   libcurl:imap.obj
 0001:000332c0       _imap_connect              004342c0 f   libcurl:imap.obj
 0001:00033360       _imap_disconnect           00434360 f   libcurl:imap.obj
 0001:000333f0       _imap_multi_statemach      004343f0 f   libcurl:imap.obj
 0001:000333f0       _pop3_multi_statemach      004343f0 f   libcurl:pop3.obj
 0001:000333f0       _smtp_multi_statemach      004343f0 f   libcurl:smtp.obj
 0001:00033440       _ftp_getsock               00434440 f   libcurl:ftp.obj
 0001:00033440       _imap_getsock              00434440 f   libcurl:imap.obj
 0001:00033440       _pop3_getsock              00434440 f   libcurl:pop3.obj
 0001:00033440       _smtp_getsock              00434440 f   libcurl:smtp.obj
 0001:00033450       _imap_doing                00434450 f   libcurl:imap.obj
 0001:00033450       _smtp_doing                00434450 f   libcurl:smtp.obj
 0001:00033480       _imap_setup_connection     00434480 f   libcurl:imap.obj
 0001:000334a0       _imap_atom                 004344a0 f   libcurl:imap.obj
 0001:00033600       _imap_block_statemach      00434600 f   libcurl:imap.obj
 0001:00033600       _pop3_block_statemach      00434600 f   libcurl:pop3.obj
 0001:00033600       _smtp_block_statemach      00434600 f   libcurl:smtp.obj
 0001:00033650       _imap_dophase_done         00434650 f   libcurl:imap.obj
 0001:00033650       _smtp_dophase_done         00434650 f   libcurl:smtp.obj
 0001:00033680       _imap_endofresp            00434680 f   libcurl:imap.obj
 0001:000339c0       $LN41                      004349c0     libcurl:imap.obj
 0001:000339d8       $LN37                      004349d8     libcurl:imap.obj
 0001:000339f0       _imap_init                 004349f0 f   libcurl:imap.obj
 0001:00033a20       _imap_is_bchar             00434a20 f   libcurl:imap.obj
 0001:00033a48       $LN9                       00434a48     libcurl:imap.obj
 0001:00033a50       $LN7                       00434a50     libcurl:imap.obj
 0001:00033ab0       _imap_matchresp            00434ab0 f   libcurl:imap.obj
 0001:00033b40       _imap_parse_custom_request 00434b40 f   libcurl:imap.obj
 0001:00033bc0       _imap_parse_url_options    00434bc0 f   libcurl:imap.obj
 0001:00033c90       _imap_parse_url_path       00434c90 f   libcurl:imap.obj
 0001:00033f60       _imap_perform              00434f60 f   libcurl:imap.obj
 0001:00034090       _imap_perform_append       00435090 f   libcurl:imap.obj
 0001:000341f0       _imap_perform_authentication 004351f0 f   libcurl:imap.obj
 0001:000342b0       _imap_perform_capability   004352b0 f   libcurl:imap.obj
 0001:00034300       _imap_perform_fetch        00435300 f   libcurl:imap.obj
 0001:000343d0       _imap_perform_list         004353d0 f   libcurl:imap.obj
 0001:00034470       _imap_perform_login        00435470 f   libcurl:imap.obj
 0001:00034510       _imap_perform_logout       00435510 f   libcurl:imap.obj
 0001:00034540       _imap_perform_search       00435540 f   libcurl:imap.obj
 0001:000345a0       _imap_perform_select       004355a0 f   libcurl:imap.obj
 0001:00034650       _imap_perform_starttls     00435650 f   libcurl:imap.obj
 0001:00034680       _imap_regular_transfer     00435680 f   libcurl:imap.obj
 0001:00034700       _imap_sendf                00435700 f   libcurl:imap.obj
 0001:000347a0       _imap_state_append_final_resp 004357a0 f   libcurl:imap.obj
 0001:000347d0       _imap_state_append_resp    004357d0 f   libcurl:imap.obj
 0001:00034820       _imap_state_auth_resp      00435820 f   libcurl:imap.obj
 0001:000348a0       _imap_state_capability_resp 004358a0 f   libcurl:imap.obj
 0001:00034a40       _imap_state_fetch_final_resp 00435a40 f   libcurl:imap.obj
 0001:00034a70       _imap_state_fetch_resp     00435a70 f   libcurl:imap.obj
 0001:00034c90       _imap_state_listsearch_resp 00435c90 f   libcurl:imap.obj
 0001:00034cf0       _imap_state_login_resp     00435cf0 f   libcurl:imap.obj
 0001:00034d30       _imap_state_select_resp    00435d30 f   libcurl:imap.obj
 0001:00034e90       _imap_state_servergreet_resp 00435e90 f   libcurl:imap.obj
 0001:00034ef0       _imap_state_starttls_resp  00435ef0 f   libcurl:imap.obj
 0001:00034f40       _imap_statemachine         00435f40 f   libcurl:imap.obj
 0001:000350a4       $LN44                      004360a4     libcurl:imap.obj
 0001:000350e0       _state                     004360e0 f   libcurl:imap.obj
 0001:000350e0       _state                     004360e0 f   libcurl:pop3.obj
 0001:000350e0       _state                     004360e0 f   libcurl:smtp.obj
 0001:00035100       _pop3_do                   00436100 f   libcurl:pop3.obj
 0001:00035140       _pop3_done                 00436140 f   libcurl:pop3.obj
 0001:000351a0       _pop3_connect              004361a0 f   libcurl:pop3.obj
 0001:00035230       _pop3_disconnect           00436230 f   libcurl:pop3.obj
 0001:000352a0       _pop3_doing                004362a0 f   libcurl:pop3.obj
 0001:000352d0       _pop3_setup_connection     004362d0 f   libcurl:pop3.obj
 0001:000352f0       _pop3_perform_auth         004362f0 f   libcurl:pop3.obj
 0001:000352f0       _smtp_perform_auth         004362f0 f   libcurl:smtp.obj
 0001:000354b0       _pop3_endofresp            004364b0 f   libcurl:pop3.obj
 0001:00035540       _pop3_init                 00436540 f   libcurl:pop3.obj
 0001:00035570       _pop3_parse_custom_request 00436570 f   libcurl:pop3.obj
 0001:000355a0       _pop3_parse_url_options    004365a0 f   libcurl:pop3.obj
 0001:000356c0       _pop3_parse_url_path       004366c0 f   libcurl:pop3.obj
 0001:000356f0       _pop3_perform              004366f0 f   libcurl:pop3.obj
 0001:00035740       _pop3_perform_apop         00436740 f   libcurl:pop3.obj
 0001:00035880       _pop3_perform_authentication 00436880 f   libcurl:pop3.obj
 0001:00035950       _pop3_perform_capa         00436950 f   libcurl:pop3.obj
 0001:000359a0       _pop3_perform_command      004369a0 f   libcurl:pop3.obj
 0001:00035a40       _pop3_perform_quit         00436a40 f   libcurl:pop3.obj
 0001:00035a80       _pop3_perform_starttls     00436a80 f   libcurl:pop3.obj
 0001:00035ac0       _pop3_perform_user         00436ac0 f   libcurl:pop3.obj
 0001:00035b20       _pop3_regular_transfer     00436b20 f   libcurl:pop3.obj
 0001:00035ba0       _pop3_state_apop_resp      00436ba0 f   libcurl:pop3.obj
 0001:00035be0       _pop3_state_auth_resp      00436be0 f   libcurl:pop3.obj
 0001:00035c70       _pop3_state_capa_resp      00436c70 f   libcurl:pop3.obj
 0001:00035de0       _pop3_state_command_resp   00436de0 f   libcurl:pop3.obj
 0001:00035e90       _pop3_state_pass_resp      00436e90 f   libcurl:pop3.obj
 0001:00035ed0       _pop3_state_servergreet_resp 00436ed0 f   libcurl:pop3.obj
 0001:00035ff0       _pop3_state_starttls_resp  00436ff0 f   libcurl:pop3.obj
 0001:00036040       _pop3_state_user_resp      00437040 f   libcurl:pop3.obj
 0001:000360b0       _pop3_statemachine         004370b0 f   libcurl:pop3.obj
 0001:000361d0       $LN39                      004371d0     libcurl:pop3.obj
 0001:00036200       _smtp_get_message          00437200 f   libcurl:smtp.obj
 0001:00036280       _smtp_do                   00437280 f   libcurl:smtp.obj
 0001:000362b0       _smtp_done                 004372b0 f   libcurl:smtp.obj
 0001:00036430       _smtp_connect              00437430 f   libcurl:smtp.obj
 0001:000364c0       _smtp_disconnect           004374c0 f   libcurl:smtp.obj
 0001:00036530       _smtp_setup_connection     00437530 f   libcurl:smtp.obj
 0001:00036730       _smtp_endofresp            00437730 f   libcurl:smtp.obj
 0001:00036850       _smtp_init                 00437850 f   libcurl:smtp.obj
 0001:00036880       _smtp_parse_address        00437880 f   libcurl:smtp.obj
 0001:00036900       _smtp_parse_custom_request 00437900 f   libcurl:smtp.obj
 0001:00036930       _smtp_parse_url_options    00437930 f   libcurl:smtp.obj
 0001:000369d0       _smtp_parse_url_path       004379d0 f   libcurl:smtp.obj
 0001:00036a50       _smtp_perform              00437a50 f   libcurl:smtp.obj
 0001:00036ae0       _smtp_perform_authentication 00437ae0 f   libcurl:smtp.obj
 0001:00036b70       _smtp_perform_command      00437b70 f   libcurl:smtp.obj
 0001:00036d00       _smtp_perform_ehlo         00437d00 f   libcurl:smtp.obj
 0001:00036d50       _smtp_perform_helo         00437d50 f   libcurl:smtp.obj
 0001:00036da0       _smtp_perform_mail         00437da0 f   libcurl:smtp.obj
 0001:000371c0       _smtp_perform_quit         004381c0 f   libcurl:smtp.obj
 0001:00037200       _smtp_perform_rcpt_to      00438200 f   libcurl:smtp.obj
 0001:000372b0       _smtp_perform_starttls     004382b0 f   libcurl:smtp.obj
 0001:000372f0       _smtp_regular_transfer     004382f0 f   libcurl:smtp.obj
 0001:00037370       _smtp_state_auth_resp      00438370 f   libcurl:smtp.obj
 0001:000373d0       _smtp_state_command_resp   004383d0 f   libcurl:smtp.obj
 0001:000374c0       _smtp_state_data_resp      004384c0 f   libcurl:smtp.obj
 0001:00037520       _smtp_state_ehlo_resp      00438520 f   libcurl:smtp.obj
 0001:00037730       _smtp_state_helo_resp      00438730 f   libcurl:smtp.obj
 0001:00037770       _smtp_state_mail_resp      00438770 f   libcurl:smtp.obj
 0001:000377b0       _smtp_state_postdata_resp  004387b0 f   libcurl:smtp.obj
 0001:000377e0       _smtp_state_rcpt_resp      004387e0 f   libcurl:smtp.obj
 0001:000378b0       _smtp_state_servergreet_resp 004388b0 f   libcurl:smtp.obj
 0001:000378f0       _smtp_state_starttls_resp  004388f0 f   libcurl:smtp.obj
 0001:00037940       _smtp_statemachine         00438940 f   libcurl:smtp.obj
 0001:00037a8c       $LN42                      00438a8c     libcurl:smtp.obj
 0001:00037ac0       _ftp_do                    00438ac0 f   libcurl:ftp.obj
 0001:00037b30       _ftp_done                  00438b30 f   libcurl:ftp.obj
 0001:00038008       $LN94                      00439008     libcurl:ftp.obj
 0001:00038010       $LN60                      00439010     libcurl:ftp.obj
 0001:00038060       _ftp_connect               00439060 f   libcurl:ftp.obj
 0001:000380e0       _ftp_disconnect            004390e0 f   libcurl:ftp.obj
 0001:00038170       _ftp_do_more               00439170 f   libcurl:ftp.obj
 0001:000383d0       _ftp_multi_statemach       004393d0 f   libcurl:ftp.obj
 0001:00038400       _ftp_domore_getsock        00439400 f   libcurl:ftp.obj
 0001:000384b0       _ftp_doing                 004394b0 f   libcurl:ftp.obj
 0001:000384e0       _ftp_setup_connection      004394e0 f   libcurl:ftp.obj
 0001:000385a0       _AcceptServerConnect       004395a0 f   libcurl:ftp.obj
 0001:000386e0       _AllowServerConnect        004396e0 f   libcurl:ftp.obj
 0001:00038900       _InitiateTransfer          00439900 f   libcurl:ftp.obj
 0001:000389a0       _ReceivedServerConnect     004399a0 f   libcurl:ftp.obj
 0001:00038af0       __state                    00439af0 f   libcurl:ftp.obj
 0001:00038b10       _close_secondarysocket     00439b10 f   libcurl:ftp.obj
 0001:00038b50       _control_address           00439b50 f   libcurl:ftp.obj
 0001:00038b80       _freedirs                  00439b80 f   libcurl:ftp.obj
 0001:00038c00       _ftp_block_statemach       00439c00 f   libcurl:ftp.obj
 0001:00038c50       _ftp_dophase_done          00439c50 f   libcurl:ftp.obj
 0001:00038ce0       _ftp_endofresp             00439ce0 f   libcurl:ftp.obj
 0001:00038d50       _ftp_epsv_disable          00439d50 f   libcurl:ftp.obj
 0001:00038de0       _ftp_nb_type               00439de0 f   libcurl:ftp.obj
 0001:00038e60       _ftp_need_type             00439e60 f   libcurl:ftp.obj
 0001:00038ea0       _ftp_parse_url_path        00439ea0 f   libcurl:ftp.obj
 0001:000391b0       _ftp_pasv_verbose          0043a1b0 f   libcurl:ftp.obj
 0001:00039210       _ftp_perform               0043a210 f   libcurl:ftp.obj
 0001:00039280       _ftp_quit                  0043a280 f   libcurl:ftp.obj
 0001:00039300       _ftp_readresp              0043a300 f   libcurl:ftp.obj
 0001:00039360       _ftp_regular_transfer      0043a360 f   libcurl:ftp.obj
 0001:00039410       _ftp_sendquote             0043a410 f   libcurl:ftp.obj
 0001:000394d0       _ftp_state_acct_resp       0043a4d0 f   libcurl:ftp.obj
 0001:00039510       _ftp_state_cwd             0043a510 f   libcurl:ftp.obj
 0001:000395c0       _ftp_state_get_resp        0043a5c0 f   libcurl:ftp.obj
 0001:000397e0       _ftp_state_list            0043a7e0 f   libcurl:ftp.obj
 0001:000398f0       _ftp_state_loggedin        0043a8f0 f   libcurl:ftp.obj
 0001:00039940       _ftp_state_mdtm            0043a940 f   libcurl:ftp.obj
 0001:000399a0       _ftp_state_mdtm_resp       0043a9a0 f   libcurl:ftp.obj
 0001:00039c50       _ftp_state_pasv_resp       0043ac50 f   libcurl:ftp.obj
 0001:0003a110       _ftp_state_port_resp       0043b110 f   libcurl:ftp.obj
 0001:0003a1a0       _ftp_state_prepare_transfer 0043b1a0 f   libcurl:ftp.obj
 0001:0003a270       _ftp_state_pwd             0043b270 f   libcurl:ftp.obj
 0001:0003a2b0       _ftp_state_quote           0043b2b0 f   libcurl:ftp.obj
 0001:0003a470       _ftp_state_rest            0043b470 f   libcurl:ftp.obj
 0001:0003a4d0       _ftp_state_rest_resp       0043b4d0 f   libcurl:ftp.obj
 0001:0003a5c0       _ftp_state_retr            0043b5c0 f   libcurl:ftp.obj
 0001:0003a790       _ftp_state_retr_prequote   0043b790 f   libcurl:ftp.obj
 0001:0003a7b0       _ftp_state_size            0043b7b0 f   libcurl:ftp.obj
 0001:0003a810       _ftp_state_size_resp       0043b810 f   libcurl:ftp.obj
 0001:0003a9f0       _ftp_state_stor_prequote   0043b9f0 f   libcurl:ftp.obj
 0001:0003aa10       _ftp_state_stor_resp       0043ba10 f   libcurl:ftp.obj
 0001:0003aaa0       _ftp_state_type            0043baa0 f   libcurl:ftp.obj
 0001:0003ab10       _ftp_state_type_resp       0043bb10 f   libcurl:ftp.obj
 0001:0003abc0       _ftp_state_ul_setup        0043bbc0 f   libcurl:ftp.obj
 0001:0003ae20       _ftp_state_use_pasv        0043be20 f   libcurl:ftp.obj
 0001:0003aea0       _ftp_state_use_port        0043bea0 f   libcurl:ftp.obj
 0001:0003b7e0       _ftp_state_user            0043c7e0 f   libcurl:ftp.obj
 0001:0003b830       _ftp_state_user_resp       0043c830 f   libcurl:ftp.obj
 0001:0003b950       _ftp_statemachine          0043c950 f   libcurl:ftp.obj
 0001:0003c15c       $LN150                     0043d15c     libcurl:ftp.obj
 0001:0003c1e0       _ftp_timeleft_accept       0043d1e0 f   libcurl:ftp.obj
 0001:0003c2a0       _init_wc_data              0043d2a0 f   libcurl:ftp.obj
 0001:0003c420       _wc_data_dtor              0043d420 f   libcurl:ftp.obj
 0001:0003c450       _wc_statemach              0043d450 f   libcurl:ftp.obj
 0001:0003c6e8       $LN38                      0043d6e8     libcurl:ftp.obj
 0001:0003c710       _file_do                   0043d710 f   libcurl:file.obj
 0001:0003cbd0       _file_done                 0043dbd0 f   libcurl:file.obj
 0001:0003cc20       _file_connect              0043dc20 f   libcurl:file.obj
 0001:0003cd20       _file_disconnect           0043dd20 f   libcurl:file.obj
 0001:0003cd40       _file_setup_connection     0043dd40 f   libcurl:file.obj
 0001:0003cd70       _file_upload               0043dd70 f   libcurl:file.obj
 0001:0003cfe0       _dict_do                   0043dfe0 f   libcurl:dict.obj
 0001:0003d280       _sendf                     0043e280 f   libcurl:dict.obj
 0001:0003d330       _unescape_word             0043e330 f   libcurl:dict.obj
 0001:0003d3d0       _telnet_do                 0043e3d0 f   libcurl:telnet.obj
 0001:0003d780       _telnet_done               0043e780 f   libcurl:telnet.obj
 0001:0003d7d0       _check_telnet_options      0043e7d0 f   libcurl:telnet.obj
 0001:0003dae0       _init_telnet               0043eae0 f   libcurl:telnet.obj
 0001:0003db60       _negotiate                 0043eb60 f   libcurl:telnet.obj
 0001:0003dbb0       _printoption               0043ebb0 f   libcurl:telnet.obj
 0001:0003dcb0       _printsub                  0043ecb0 f   libcurl:telnet.obj
 0001:0003df78       $LN73                      0043ef78     libcurl:telnet.obj
 0001:0003df80       $LN60                      0043ef80     libcurl:telnet.obj
 0001:0003df90       $LN74                      0043ef90     libcurl:telnet.obj
 0001:0003dfa0       _rec_do                    0043efa0 f   libcurl:telnet.obj
 0001:0003e0a0       _rec_dont                  0043f0a0 f   libcurl:telnet.obj
 0001:0003e140       _rec_will                  0043f140 f   libcurl:telnet.obj
 0001:0003e210       _rec_wont                  0043f210 f   libcurl:telnet.obj
 0001:0003e2c0       _send_negotiation          0043f2c0 f   libcurl:telnet.obj
 0001:0003e320       _send_telnet_data          0043f320 f   libcurl:telnet.obj
 0001:0003e440       _sendsuboption             0043f440 f   libcurl:telnet.obj
 0001:0003e5b0       _set_local_option          0043f5b0 f   libcurl:telnet.obj
 0001:0003e650       _set_remote_option         0043f650 f   libcurl:telnet.obj
 0001:0003e700       _suboption                 0043f700 f   libcurl:telnet.obj
 0001:0003e990       _telrcv                    0043f990 f   libcurl:telnet.obj
 0001:0003ecfc       $LN88                      0043fcfc     libcurl:telnet.obj
 0001:0003ed20       $LN89                      0043fd20     libcurl:telnet.obj
 0001:0003ed40       _tftp_connect              0043fd40 f   libcurl:tftp.obj
 0001:0003ef20       _tftp_disconnect           0043ff20 f   libcurl:tftp.obj
 0001:0003ef70       _tftp_do                   0043ff70 f   libcurl:tftp.obj
 0001:0003efd0       _tftp_done                 0043ffd0 f   libcurl:tftp.obj
 0001:0003f010       _tftp_setup_connection     00440010 f   libcurl:tftp.obj
 0001:0003f090       _tftp_multi_statemach      00440090 f   libcurl:tftp.obj
 0001:0003f1a0       _tftp_doing                004401a0 f   libcurl:tftp.obj
 0001:0003f200       _mqtt_getsock              00440200 f   libcurl:mqtt.obj
 0001:0003f200       _tftp_getsock              00440200 f   libcurl:tftp.obj
 0001:0003f220       _getrpacketblock           00440220 f   libcurl:tftp.obj
 0001:0003f240       _getrpacketevent           00440240 f   libcurl:tftp.obj
 0001:0003f260       _setpacketblock            00440260 f   libcurl:tftp.obj
 0001:0003f280       _setpacketevent            00440280 f   libcurl:tftp.obj
 0001:0003f2a0       _tftp_connect_for_rx       004402a0 f   libcurl:tftp.obj
 0001:0003f2e0       _tftp_connect_for_tx       004402e0 f   libcurl:tftp.obj
 0001:0003f320       _tftp_option_add           00440320 f   libcurl:tftp.obj
 0001:0003f390       _tftp_option_get           00440390 f   libcurl:tftp.obj
 0001:0003f400       _tftp_parse_option_ack     00440400 f   libcurl:tftp.obj
 0001:0003f610       _tftp_perform              00440610 f   libcurl:tftp.obj
 0001:0003f650       _tftp_receive_packet       00440650 f   libcurl:tftp.obj
 0001:0003f86c       $LN20                      0044086c     libcurl:tftp.obj
 0001:0003f880       _tftp_rx                   00440880 f   libcurl:tftp.obj
 0001:0003fb3c       $LN28                      00440b3c     libcurl:tftp.obj
 0001:0003fb50       _tftp_send_first           00440b50 f   libcurl:tftp.obj
 0001:0003ff6c       $LN40                      00440f6c     libcurl:tftp.obj
 0001:0003ff90       _tftp_set_timeouts         00440f90 f   libcurl:tftp.obj
 0001:00040090       _tftp_state_machine        00441090 f   libcurl:tftp.obj
 0001:000400f4       $LN25                      004410f4     libcurl:tftp.obj
 0001:00040110       _tftp_state_timeout        00441110 f   libcurl:tftp.obj
 0001:000401c0       _tftp_strnlen              004411c0 f   libcurl:tftp.obj
 0001:000401f0       _tftp_translate_code       004411f0 f   libcurl:tftp.obj
 0001:0004025c       $LN19                      0044125c     libcurl:tftp.obj
 0001:00040284       $LN17                      00441284     libcurl:tftp.obj
 0001:000402f0       _tftp_tx                   004412f0 f   libcurl:tftp.obj
 0001:00040668       $LN37                      00441668     libcurl:tftp.obj
 0001:00040680       _ldap_do                   00441680 f   libcurl:ldap.obj
 0001:00040d20       __ldap_free_urldesc        00441d20 f   libcurl:ldap.obj
 0001:00040d80       __ldap_url_parse           00441d80 f   libcurl:ldap.obj
 0001:00040de0       __ldap_url_parse2          00441de0 f   libcurl:ldap.obj
 0001:00041090       _ldap_win_bind             00442090 f   libcurl:ldap.obj
 0001:00041110       _split_str                 00442110 f   libcurl:ldap.obj
 0001:000411b0       _str2scope                 004421b0 f   libcurl:ldap.obj
 0001:00041230       _rtsp_do                   00442230 f   libcurl:rtsp.obj
 0001:00041994       $LN115                     00442994     libcurl:rtsp.obj
 0001:000419d0       _rtsp_done                 004429d0 f   libcurl:rtsp.obj
 0001:00041a70       _rtsp_connect              00442a70 f   libcurl:rtsp.obj
 0001:00041ac0       _rtsp_disconnect           00442ac0 f   libcurl:rtsp.obj
 0001:00041af0       _rtsp_rtp_readwrite        00442af0 f   libcurl:rtsp.obj
 0001:00041cc0       _rtsp_setup_connection     00442cc0 f   libcurl:rtsp.obj
 0001:00041cf0       _rtsp_conncheck            00442cf0 f   libcurl:rtsp.obj
 0001:00041ec0       _rtp_client_write          00442ec0 f   libcurl:rtsp.obj
 0001:00041f70       _rtsp_connisdead           00442f70 f   libcurl:rtsp.obj
 0001:00041fc0       _smb_setup_connection      00442fc0 f   libcurl:smb.obj
 0001:00041ff0       _smb_connect               00442ff0 f   libcurl:smb.obj
 0001:000420d0       _smb_connection_state      004430d0 f   libcurl:smb.obj
 0001:00042210       _smb_do                    00443210 f   libcurl:smb.obj
 0001:00042240       _smb_request_state         00443240 f   libcurl:smb.obj
 0001:0004265c       $LN55                      0044365c     libcurl:smb.obj
 0001:00042674       $LN56                      00443674     libcurl:smb.obj
 0001:00042690       _smb_done                  00443690 f   libcurl:smb.obj
 0001:000426c0       _smb_disconnect            004436c0 f   libcurl:smb.obj
 0001:00042720       _smb_getsock               00443720 f   libcurl:smb.obj
 0001:00042740       _conn_state                00443740 f   libcurl:smb.obj
 0001:00042760       _get_posix_time            00443760 f   libcurl:smb.obj
 0001:00042790       _request_state             00443790 f   libcurl:smb.obj
 0001:000427b0       _smb_flush                 004437b0 f   libcurl:smb.obj
 0001:00042810       _smb_format_message        00443810 f   libcurl:smb.obj
 0001:00042890       _smb_parse_url_path        00443890 f   libcurl:smb.obj
 0001:00042970       _smb_pop_message           00443970 f   libcurl:smb.obj
 0001:00042990       _smb_recv_message          00443990 f   libcurl:smb.obj
 0001:00042a40       _smb_send                  00443a40 f   libcurl:smb.obj
 0001:00042a90       _smb_send_and_recv         00443a90 f   libcurl:smb.obj
 0001:00042b40       _smb_send_close            00443b40 f   libcurl:smb.obj
 0001:00042b80       _smb_send_message          00443b80 f   libcurl:smb.obj
 0001:00042bd0       _smb_send_negotiate        00443bd0 f   libcurl:smb.obj
 0001:00042bf0       _smb_send_open             00443bf0 f   libcurl:smb.obj
 0001:00042d00       _smb_send_read             00443d00 f   libcurl:smb.obj
 0001:00042d70       _smb_send_setup            00443d70 f   libcurl:smb.obj
 0001:00042f80       _smb_send_tree_connect     00443f80 f   libcurl:smb.obj
 0001:000430e0       _smb_send_tree_disconnect  004440e0 f   libcurl:smb.obj
 0001:00043110       _smb_send_write            00444110 f   libcurl:smb.obj
 0001:000431e0       _mqtt_do                   004441e0 f   libcurl:mqtt.obj
 0001:00043230       _mqtt_doing                00444230 f   libcurl:mqtt.obj
 0001:00043480       $LN44                      00444480     libcurl:mqtt.obj
 0001:000434a0       _mqtt_setup_conn           004444a0 f   libcurl:mqtt.obj
 0001:000434d0       _mqstate                   004444d0 f   libcurl:mqtt.obj
 0001:00043500       _mqtt_connect              00444500 f   libcurl:mqtt.obj
 0001:000435c0       _mqtt_decode_len           004445c0 f   libcurl:mqtt.obj
 0001:00043610       _mqtt_disconnect           00444610 f   libcurl:mqtt.obj
 0001:00043630       _mqtt_encode_len           00444630 f   libcurl:mqtt.obj
 0001:00043660       _mqtt_get_topic            00444660 f   libcurl:mqtt.obj
 0001:000436c0       _mqtt_publish              004446c0 f   libcurl:mqtt.obj
 0001:000437d0       _mqtt_read_publish         004447d0 f   libcurl:mqtt.obj
 0001:00043998       $LN28                      00444998     libcurl:mqtt.obj
 0001:000439b0       _mqtt_send                 004449b0 f   libcurl:mqtt.obj
 0001:00043a30       _mqtt_subscribe            00444a30 f   libcurl:mqtt.obj
 0001:00043b30       _mqtt_verify_connack       00444b30 f   libcurl:mqtt.obj
 0001:00043bb0       _mqtt_verify_suback        00444bb0 f   libcurl:mqtt.obj
 0001:00043c20       _GetEnv                    00444c20 f   libcurl:getenv.obj
 0001:00043d80       _Curl_parse_port           00444d80 f   libcurl:urlapi.obj
 0001:00043f10       _concat_url                00444f10 f   libcurl:urlapi.obj
 0001:00044708       $LN87                      00445708     libcurl:urlapi.obj
 0001:00044c60       $LN123                     00445c60     libcurl:urlapi.obj
 0001:00044c8c       $LN124                     00445c8c     libcurl:urlapi.obj
 0001:00044cc0       _find_host_sep             00445cc0 f   libcurl:urlapi.obj
 0001:00044d30       _free_urlhandle            00445d30 f   libcurl:urlapi.obj
 0001:00044db0       _hostname_check            00445db0 f   libcurl:urlapi.obj
 0001:00044f30       _junkscan                  00445f30 f   libcurl:urlapi.obj
 0001:00044f70       _mv_urlhandle              00445f70 f   libcurl:urlapi.obj
 0001:00044fb0       _parse_hostname_login      00445fb0 f   libcurl:urlapi.obj
 0001:00045090       _parseurl                  00446090 f   libcurl:urlapi.obj
 0001:000450d0       _seturl                    004460d0 f   libcurl:urlapi.obj
 0001:000456e0       _strcpy_url                004466e0 f   libcurl:urlapi.obj
 0001:00045790       _strlen_url                00446790 f   libcurl:urlapi.obj
 0001:00045810       _urlchar_needs_escaping    00446810 f   libcurl:urlapi.obj
 0001:00045a80       _parsenetrc                00446a80 f   libcurl:netrc.obj
 0001:00046260       _blobcmp                   00447260 f   libcurl:vtls.obj
 0001:00046300       _blobdup                   00447300 f   libcurl:vtls.obj
 0001:00046388       $LN9                       00447388     libcurl:escape.obj
 0001:00046390       $LN7                       00447390     libcurl:escape.obj
 0001:00046be8       $LN95                      00447be8     libcurl:strerror.obj
 0001:00046d70       _get_winapi_error          00447d70 f   libcurl:strerror.obj
 0001:00046e20       _get_winsock_error         00447e20 f   libcurl:strerror.obj
 0001:00047058       $LN61                      00448058     libcurl:strerror.obj
 0001:00047114       $LN58                      00448114     libcurl:strerror.obj
 0001:00047270       _inet_ntop4                00448270 f   libcurl:inet_ntop.obj
 0001:00047310       _inet_ntop6                00448310 f   libcurl:inet_ntop.obj
 0001:0004769c       $LN18                      0044869c     libcurl:version_win32.obj
 0001:00047704       $LN10                      00448704     libcurl:digest.obj
 0001:00048274       $LN33                      00449274     libcurl:digest.obj
 0001:00048288       $LN28                      00449288     libcurl:digest.obj
 0001:000482e0       _auth_create_digest_http_message 004492e0 f   libcurl:digest.obj
 0001:00048780       _auth_decode_digest_md5_message 00449780 f   libcurl:digest.obj
 0001:00048870       _auth_digest_get_key_value 00449870 f   libcurl:digest.obj
 0001:000488e0       _auth_digest_get_qop_values 004498e0 f   libcurl:digest.obj
 0001:000489a0       _auth_digest_md5_to_ascii  004499a0 f   libcurl:digest.obj
 0001:000489e0       _auth_digest_sha256_to_ascii 004499e0 f   libcurl:digest.obj
 0001:00048a20       _auth_digest_string_quoted 00449a20 f   libcurl:digest.obj
 0001:00048ad4       $LN16                      00449ad4     libcurl:http_chunks.obj
 0001:00048e90       $LN74                      00449e90     libcurl:http_chunks.obj
 0001:000492b0       _de_cleanup                0044a2b0 f   libcurl:doh.obj
 0001:000492e0       _de_init                   0044a2e0 f   libcurl:doh.obj
 0001:00049330       _doh2ai                    0044a330 f   libcurl:doh.obj
 0001:00049480       _doh_decode                0044a480 f   libcurl:doh.obj
 0001:00049780       _doh_done                  0044a780 f   libcurl:doh.obj
 0001:00049800       _doh_encode                0044a800 f   libcurl:doh.obj
 0001:00049900       _doh_strerror              0044a900 f   libcurl:doh.obj
 0001:00049920       _doh_write_cb              0044a920 f   libcurl:doh.obj
 0001:00049950       _dohprobe                  0044a950 f   libcurl:doh.obj
 0001:00049f90       _get16bit                  0044af90 f   libcurl:doh.obj
 0001:00049fb0       _get32bit                  0044afb0 f   libcurl:doh.obj
 0001:00049fe0       _rdata                     0044afe0 f   libcurl:doh.obj
 0001:0004a060       _showdoh                   0044b060 f   libcurl:doh.obj
 0001:0004a1f0       _skipqname                 0044b1f0 f   libcurl:doh.obj
 0001:0004a260       _store_a                   0044b260 f   libcurl:doh.obj
 0001:0004a2a0       _store_aaaa                0044b2a0 f   libcurl:doh.obj
 0001:0004a2e0       _store_cname               0044b2e0 f   libcurl:doh.obj
 0001:0004a400       _type2name                 0044b400 f   libcurl:doh.obj
 0001:0004a6e0       _setname                   0044b6e0 f   libcurl:formdata.obj
 0001:0004a8b0       _base64_encode             0044b8b0 f   libcurl:base64.obj
 0001:0004aa70       _decodeQuantum             0044ba70 f   libcurl:base64.obj
 0001:0004b2e0       _ntlm_decode_type2_target  0044c2e0 f   libcurl:ntlm.obj
 0001:0004b390       _ascii_to_unicode_le       0044c390 f   libcurl:curl_ntlm_core.obj
 0001:0004b390       _unicodecpy                0044c390 f   libcurl:ntlm.obj
 0001:0004bd90       _sha256_to_hex             0044cd90 f   libcurl:http_aws_sigv4.obj
 0001:0004ca3c       $LN56                      0044da3c     libcurl:curl_sasl.obj
 0001:0004d000       _state                     0044e000 f   libcurl:curl_sasl.obj
 0001:0004d010       _MD5_Init                  0044e010 f   libcurl:md5.obj
 0001:0004d050       _MD4_Update                0044e050 f   libcurl:md4.obj
 0001:0004d050       _MD5_Update                0044e050 f   libcurl:md5.obj
 0001:0004d050       _SHA256_Update             0044e050 f   libcurl:sha256.obj
 0001:0004d070       _MD4_Final                 0044e070 f   libcurl:md4.obj
 0001:0004d070       _MD5_Final                 0044e070 f   libcurl:md5.obj
 0001:0004dcb0       $LN287                     0044ecb0     libcurl:ftplistparser.obj
 0001:0004dcc0       $LN288                     0044ecc0     libcurl:ftplistparser.obj
 0001:0004dce8       $LN289                     0044ece8     libcurl:ftplistparser.obj
 0001:0004dd0c       $LN266                     0044ed0c     libcurl:ftplistparser.obj
 0001:0004dd54       $LN290                     0044ed54     libcurl:ftplistparser.obj
 0001:0004dd6c       $LN291                     0044ed6c     libcurl:ftplistparser.obj
 0001:0004ddd0       _ftp_pl_get_permission     0044edd0 f   libcurl:ftplistparser.obj
 0001:0004df00       _ftp_pl_insert_finfo       0044ef00 f   libcurl:ftplistparser.obj
 0001:0004e570       _ascii_uppercase_to_unicode_le 0044f570 f   libcurl:curl_ntlm_core.obj
 0001:0004e5b0       _encrypt_des               0044f5b0 f   libcurl:curl_ntlm_core.obj
 0001:0004e6b0       _extend_key_56_to_64       0044f6b0 f   libcurl:curl_ntlm_core.obj
 0001:0004e740       _time2filetime             0044f740 f   libcurl:curl_ntlm_core.obj
 0001:0004eac0       _SHA256_Init               0044fac0 f   libcurl:sha256.obj
 0001:0004eb00       _SHA256_Final              0044fb00 f   libcurl:sha256.obj
 0001:0004f190       _charclass                 00450190 f   libcurl:curl_fnmatch.obj
 0001:0004f1e0       _loop                      004501e0 f   libcurl:curl_fnmatch.obj
 0001:0004f3f4       $LN84                      004503f4     libcurl:curl_fnmatch.obj
 0001:0004f40c       $LN79                      0045040c     libcurl:curl_fnmatch.obj
 0001:0004f470       _parsekeyword              00450470 f   libcurl:curl_fnmatch.obj
 0001:0004f850       _setcharorrange            00450850 f   libcurl:curl_fnmatch.obj
 0001:0004f900       _setcharset                00450900 f   libcurl:curl_fnmatch.obj
 0001:0004fb10       _MD4_Init                  00450b10 f   libcurl:md4.obj
 0001:0004fc40       $$000000                   00450c40     MSVCRT:lldiv.obj
 0001:0004fc61       L1                         00450c61     MSVCRT:lldiv.obj
 0001:0004fc7d       L2                         00450c7d     MSVCRT:lldiv.obj
 0001:0004fc99       L3                         00450c99     MSVCRT:lldiv.obj
 0001:0004fca7       L5                         00450ca7     MSVCRT:lldiv.obj
 0001:0004fcd5       L6                         00450cd5     MSVCRT:lldiv.obj
 0001:0004fcd6       L7                         00450cd6     MSVCRT:lldiv.obj
 0001:0004fcda       L4                         00450cda     MSVCRT:lldiv.obj
 0001:0004fce4       L8                         00450ce4     MSVCRT:lldiv.obj
 0001:0004fcf0       $$000000                   00450cf0     MSVCRT:chkstk.obj
 0001:0004fd04       cs10                       00450d04     MSVCRT:chkstk.obj
 0001:0004fd14       cs20                       00450d14     MSVCRT:chkstk.obj
 0001:0004fd20       $$000000                   00450d20     MSVCRT:ftol3.obj
 0001:0004fd3e       _dtol3_default             00450d3e     MSVCRT:ftol3.obj
 0001:0004fd68       _dtol3_getbits             00450d68     MSVCRT:ftol3.obj
 0001:0004fd91       _dtol3_trunc               00450d91     MSVCRT:ftol3.obj
 0001:0004fd98       _dtol3_lshift              00450d98     MSVCRT:ftol3.obj
 0001:0004fd9e       _dtol3_notsafe             00450d9e     MSVCRT:ftol3.obj
 0001:0004fdb7       _dtol3_large               00450db7     MSVCRT:ftol3.obj
 0001:0004fdbf       _dtol3_NaN                 00450dbf     MSVCRT:ftol3.obj
 0001:0004fdc7       _dtol3_retmin              00450dc7     MSVCRT:ftol3.obj
 0001:0004fdd0       $$000000                   00450dd0     MSVCRT:ftol3.obj
 0001:0004fdea       _ltod3_default             00450dea     MSVCRT:ftol3.obj
 0001:0004fe20       $$000000                   00450e20     MSVCRT:lldvrm.obj
 0001:0004fe44       L1                         00450e44     MSVCRT:lldvrm.obj
 0001:0004fe60       L2                         00450e60     MSVCRT:lldvrm.obj
 0001:0004fe8c       L3                         00450e8c     MSVCRT:lldvrm.obj
 0001:0004fe9a       L5                         00450e9a     MSVCRT:lldvrm.obj
 0001:0004fec8       L6                         00450ec8     MSVCRT:lldvrm.obj
 0001:0004fed1       L7                         00450ed1     MSVCRT:lldvrm.obj
 0001:0004fed3       L4                         00450ed3     MSVCRT:lldvrm.obj
 0001:0004fee5       L9                         00450ee5     MSVCRT:lldvrm.obj
 0001:0004fef9       L8                         00450ef9     MSVCRT:lldvrm.obj
 0001:0004ff00       $$000000                   00450f00     MSVCRT:llmul.obj
 0001:0004ff19       hard                       00450f19     MSVCRT:llmul.obj
 0001:0004ff40       $$000000                   00450f40     MSVCRT:llrem.obj
 0001:0004ff60       L1                         00450f60     MSVCRT:llrem.obj
 0001:0004ff7b       L2                         00450f7b     MSVCRT:llrem.obj
 0001:0004ff9a       L3                         00450f9a     MSVCRT:llrem.obj
 0001:0004ffa8       L5                         00450fa8     MSVCRT:llrem.obj
 0001:0004ffd3       L6                         00450fd3     MSVCRT:llrem.obj
 0001:0004ffdb       L7                         00450fdb     MSVCRT:llrem.obj
 0001:0004ffe6       L4                         00450fe6     MSVCRT:llrem.obj
 0001:0004ffed       L8                         00450fed     MSVCRT:llrem.obj
 0001:00050000       $$000000                   00451000     MSVCRT:ulldvrm.obj
 0001:00050031       L1                         00451031     MSVCRT:ulldvrm.obj
 0001:0005003f       L3                         0045103f     MSVCRT:ulldvrm.obj
 0001:0005006d       L4                         0045106d     MSVCRT:ulldvrm.obj
 0001:00050076       L5                         00451076     MSVCRT:ulldvrm.obj
 0001:00050078       L2                         00451078     MSVCRT:ulldvrm.obj
 0001:00050120       __unwindfunclet$?ReadNames@@YAXXZ$0 00451120 f   Main.obj
 0001:00050130       __ehhandler$?ReadNames@@YAXXZ 00451130 f   Main.obj
 0001:00050160       __ehhandler$??_D?$basic_ifstream@DU?$char_traits@D@std@@@std@@QAEXXZ 00451160 f   Main.obj
 0001:00050180       __unwindfunclet$?uflow@?$basic_filebuf@DU?$char_traits@D@std@@@std@@MAEHXZ$0 00451180 f   Main.obj
 0001:0005018d       __ehhandler$?uflow@?$basic_filebuf@DU?$char_traits@D@std@@@std@@MAEHXZ 0045118d f   Main.obj
 0001:000501c0       __ehhandler$??1?$basic_filebuf@DU?$char_traits@D@std@@@std@@UAE@XZ 004511c0 f   Main.obj
 0001:000501e0       __unwindfunclet$??0?$basic_ifstream@DU?$char_traits@D@std@@@std@@QAE@PBDHH@Z$0 004511e0 f   Main.obj
 0001:000501fd       __unwindfunclet$??0?$basic_ifstream@DU?$char_traits@D@std@@@std@@QAE@PBDHH@Z$1 004511fd f   Main.obj
 0001:00050209       __unwindfunclet$??0?$basic_ifstream@DU?$char_traits@D@std@@@std@@QAE@PBDHH@Z$3 00451209 f   Main.obj
 0001:00050212       __unwindfunclet$??0?$basic_ifstream@DU?$char_traits@D@std@@@std@@QAE@PBDHH@Z$2 00451212 f   Main.obj
 0001:0005021d       __unwindfunclet$??0?$basic_ifstream@DU?$char_traits@D@std@@@std@@QAE@PBDHH@Z$4 0045121d f   Main.obj
 0001:0005022a       __ehhandler$??0?$basic_ifstream@DU?$char_traits@D@std@@@std@@QAE@PBDHH@Z 0045122a f   Main.obj
 0001:00050260       __unwindfunclet$??A?$map@IPBDU?$less@I@std@@V?$allocator@U?$pair@$$CBIPBD@std@@@2@@std@@QAEAAPBD$$QAI@Z$2 00451260 f   Main.obj
 0001:0005026d       __ehhandler$??A?$map@IPBDU?$less@I@std@@V?$allocator@U?$pair@$$CBIPBD@std@@@2@@std@@QAEAAPBD$$QAI@Z 0045126d f   Main.obj
 0001:00050290       __ehhandler$??_G?$basic_filebuf@DU?$char_traits@D@std@@@std@@UAEPAXI@Z 00451290 f   Main.obj
 0001:000502b0       __unwindfunclet$??$use_facet@V?$codecvt@DDU_Mbstatet@@@std@@@std@@YAABV?$codecvt@DDU_Mbstatet@@@0@ABVlocale@0@@Z$0 004512b0 f   Main.obj
 0001:000502b0       __unwindfunclet$??$use_facet@V?$ctype@D@std@@@std@@YAABV?$ctype@D@0@ABVlocale@0@@Z$0 004512b0 f   systeminfo.obj
 0001:000502b9       __unwindfunclet$??$use_facet@V?$codecvt@DDU_Mbstatet@@@std@@@std@@YAABV?$codecvt@DDU_Mbstatet@@@0@ABVlocale@0@@Z$1 004512b9 f   Main.obj
 0001:000502b9       __unwindfunclet$??$use_facet@V?$ctype@D@std@@@std@@YAABV?$ctype@D@0@ABVlocale@0@@Z$1 004512b9 f   systeminfo.obj
 0001:000502c6       __ehhandler$??$use_facet@V?$codecvt@DDU_Mbstatet@@@std@@@std@@YAABV?$codecvt@DDU_Mbstatet@@@0@ABVlocale@0@@Z 004512c6 f   Main.obj
 0001:000502c6       __ehhandler$??$use_facet@V?$ctype@D@std@@@std@@YAABV?$ctype@D@0@ABVlocale@0@@Z 004512c6 f   systeminfo.obj
 0001:000502f0       __unwindfunclet$?KEY@@YA?AV?$basic_string@DU?$char_traits@D@std@@V?$allocator@D@2@@std@@XZ$19 004512f0 f   protect.obj
 0001:00050302       __unwindfunclet$?KEY@@YA?AV?$basic_string@DU?$char_traits@D@std@@V?$allocator@D@2@@std@@XZ$1 00451302 f   protect.obj
 0001:0005030d       __unwindfunclet$?KEY@@YA?AV?$basic_string@DU?$char_traits@D@std@@V?$allocator@D@2@@std@@XZ$2 0045130d f   protect.obj
 0001:00050318       __unwindfunclet$?KEY@@YA?AV?$basic_string@DU?$char_traits@D@std@@V?$allocator@D@2@@std@@XZ$3 00451318 f   protect.obj
 0001:0005033a       __unwindfunclet$?KEY@@YA?AV?$basic_string@DU?$char_traits@D@std@@V?$allocator@D@2@@std@@XZ$27 0045133a f   protect.obj
 0001:0005034c       __unwindfunclet$?KEY@@YA?AV?$basic_string@DU?$char_traits@D@std@@V?$allocator@D@2@@std@@XZ$5 0045134c f   protect.obj
 0001:00050357       __unwindfunclet$?KEY@@YA?AV?$basic_string@DU?$char_traits@D@std@@V?$allocator@D@2@@std@@XZ$6 00451357 f   protect.obj
 0001:00050362       __unwindfunclet$?KEY@@YA?AV?$basic_string@DU?$char_traits@D@std@@V?$allocator@D@2@@std@@XZ$35 00451362 f   protect.obj
 0001:00050374       __unwindfunclet$?KEY@@YA?AV?$basic_string@DU?$char_traits@D@std@@V?$allocator@D@2@@std@@XZ$9 00451374 f   protect.obj
 0001:0005037f       __unwindfunclet$?KEY@@YA?AV?$basic_string@DU?$char_traits@D@std@@V?$allocator@D@2@@std@@XZ$10 0045137f f   protect.obj
 0001:0005038a       __unwindfunclet$?KEY@@YA?AV?$basic_string@DU?$char_traits@D@std@@V?$allocator@D@2@@std@@XZ$43 0045138a f   protect.obj
 0001:0005039c       __unwindfunclet$?KEY@@YA?AV?$basic_string@DU?$char_traits@D@std@@V?$allocator@D@2@@std@@XZ$13 0045139c f   protect.obj
 0001:000503a7       __unwindfunclet$?KEY@@YA?AV?$basic_string@DU?$char_traits@D@std@@V?$allocator@D@2@@std@@XZ$14 004513a7 f   protect.obj
 0001:000503b2       __unwindfunclet$?KEY@@YA?AV?$basic_string@DU?$char_traits@D@std@@V?$allocator@D@2@@std@@XZ$49 004513b2 f   protect.obj
 0001:000503c4       __unwindfunclet$?KEY@@YA?AV?$basic_string@DU?$char_traits@D@std@@V?$allocator@D@2@@std@@XZ$16 004513c4 f   protect.obj
 0001:000503cf       __unwindfunclet$?KEY@@YA?AV?$basic_string@DU?$char_traits@D@std@@V?$allocator@D@2@@std@@XZ$55 004513cf f   protect.obj
 0001:000503da       __unwindfunclet$?KEY@@YA?AV?$basic_string@DU?$char_traits@D@std@@V?$allocator@D@2@@std@@XZ$17 004513da f   protect.obj
 0001:000503ea       __ehhandler$?KEY@@YA?AV?$basic_string@DU?$char_traits@D@std@@V?$allocator@D@2@@std@@XZ 004513ea f   protect.obj
 0001:00050420       __unwindfunclet$?write_to_string@@YAIPAXII0@Z$0 00451420 f   protect.obj
 0001:0005042d       __ehhandler$?write_to_string@@YAIPAXII0@Z 0045142d f   protect.obj
 0001:00050450       __unwindfunclet$?IsValidTime@@YA_NHHH@Z$0 00451450 f   protect.obj
 0001:00050458       __unwindfunclet$?IsValidTime@@YA_NHHH@Z$1 00451458 f   protect.obj
 0001:00050465       __ehhandler$?IsValidTime@@YA_NHHH@Z 00451465 f   protect.obj
 0001:00050490       __ehhandler$??1sentry@?$basic_ostream@DU?$char_traits@D@std@@@std@@QAE@XZ 00451490 f   protect.obj
 0001:000504b0       __ehhandler$??1_Sentry_base@?$basic_ostream@DU?$char_traits@D@std@@@std@@QAE@XZ 004514b0 f   protect.obj
 0001:000504b0       __ehhandler$??1_Sentry_base@?$basic_istream@DU?$char_traits@D@std@@@std@@QAE@XZ 004514b0 f   systeminfo.obj
 0001:000504d0       __unwindfunclet$??$?6U?$char_traits@D@std@@@std@@YAAAV?$basic_ostream@DU?$char_traits@D@std@@@0@AAV10@PBD@Z$3 004514d0 f   protect.obj
 0001:000504d8       __unwindfunclet$??$?6U?$char_traits@D@std@@@std@@YAAAV?$basic_ostream@DU?$char_traits@D@std@@@0@AAV10@PBD@Z$2 004514d8 f   protect.obj
 0001:000504e5       __ehhandler$??$?6U?$char_traits@D@std@@@std@@YAAAV?$basic_ostream@DU?$char_traits@D@std@@@0@AAV10@PBD@Z 004514e5 f   protect.obj
 0001:00050510       __unwindfunclet$??0CPUInfo@@QAE@ABV?$vector@V?$basic_string@DU?$char_traits@D@std@@V?$allocator@D@2@@std@@V?$allocator@V?$basic_string@DU?$char_traits@D@std@@V?$allocator@D@2@@std@@@2@@std@@H@Z$0 00451510 f   systeminfo.obj
 0001:00050518       __unwindfunclet$??0CPUInfo@@QAE@ABV?$vector@V?$basic_string@DU?$char_traits@D@std@@V?$allocator@D@2@@std@@V?$allocator@V?$basic_string@DU?$char_traits@D@std@@V?$allocator@D@2@@std@@@2@@std@@H@Z$1 00451518 f   systeminfo.obj
 0001:00050523       __unwindfunclet$??0CPUInfo@@QAE@ABV?$vector@V?$basic_string@DU?$char_traits@D@std@@V?$allocator@D@2@@std@@V?$allocator@V?$basic_string@DU?$char_traits@D@std@@V?$allocator@D@2@@std@@@2@@std@@H@Z$2 00451523 f   systeminfo.obj
 0001:0005052e       __unwindfunclet$??0CPUInfo@@QAE@ABV?$vector@V?$basic_string@DU?$char_traits@D@std@@V?$allocator@D@2@@std@@V?$allocator@V?$basic_string@DU?$char_traits@D@std@@V?$allocator@D@2@@std@@@2@@std@@H@Z$3 0045152e f   systeminfo.obj
 0001:00050539       __unwindfunclet$??0CPUInfo@@QAE@ABV?$vector@V?$basic_string@DU?$char_traits@D@std@@V?$allocator@D@2@@std@@V?$allocator@V?$basic_string@DU?$char_traits@D@std@@V?$allocator@D@2@@std@@@2@@std@@H@Z$4 00451539 f   systeminfo.obj
 0001:00050544       __unwindfunclet$??0CPUInfo@@QAE@ABV?$vector@V?$basic_string@DU?$char_traits@D@std@@V?$allocator@D@2@@std@@V?$allocator@V?$basic_string@DU?$char_traits@D@std@@V?$allocator@D@2@@std@@@2@@std@@H@Z$5 00451544 f   systeminfo.obj
 0001:0005054f       __unwindfunclet$??0CPUInfo@@QAE@ABV?$vector@V?$basic_string@DU?$char_traits@D@std@@V?$allocator@D@2@@std@@V?$allocator@V?$basic_string@DU?$char_traits@D@std@@V?$allocator@D@2@@std@@@2@@std@@H@Z$9 0045154f f   systeminfo.obj
 0001:00050557       __unwindfunclet$??0CPUInfo@@QAE@ABV?$vector@V?$basic_string@DU?$char_traits@D@std@@V?$allocator@D@2@@std@@V?$allocator@V?$basic_string@DU?$char_traits@D@std@@V?$allocator@D@2@@std@@@2@@std@@H@Z$11 00451557 f   systeminfo.obj
 0001:0005055f       __unwindfunclet$??0CPUInfo@@QAE@ABV?$vector@V?$basic_string@DU?$char_traits@D@std@@V?$allocator@D@2@@std@@V?$allocator@V?$basic_string@DU?$char_traits@D@std@@V?$allocator@D@2@@std@@@2@@std@@H@Z$13 0045155f f   systeminfo.obj
 0001:0005056c       __ehhandler$??0CPUInfo@@QAE@ABV?$vector@V?$basic_string@DU?$char_traits@D@std@@V?$allocator@D@2@@std@@V?$allocator@V?$basic_string@DU?$char_traits@D@std@@V?$allocator@D@2@@std@@@2@@std@@H@Z 0045156c f   systeminfo.obj
 0001:000505a0       __ehhandler$?getArchitecture@CPUInfo@@ABE?AV?$basic_string@DU?$char_traits@D@std@@V?$allocator@D@2@@std@@AAV23@@Z 004515a0 f   systeminfo.obj
 0001:000505d0       __unwindfunclet$??0CPUInfoDelegate@@QAE@XZ$0 004515d0 f   systeminfo.obj
 0001:000505db       __unwindfunclet$??0CPUInfoDelegate@@QAE@XZ$2 004515db f   systeminfo.obj
 0001:000505ee       __unwindfunclet$??0CPUInfoDelegate@@QAE@XZ$7 004515ee f   systeminfo.obj
 0001:000505f9       __unwindfunclet$??0CPUInfoDelegate@@QAE@XZ$3 004515f9 f   systeminfo.obj
 0001:00050604       __unwindfunclet$??0CPUInfoDelegate@@QAE@XZ$4 00451604 f   systeminfo.obj
 0001:0005060c       __unwindfunclet$??0CPUInfoDelegate@@QAE@XZ$5 0045160c f   systeminfo.obj
 0001:00050614       __unwindfunclet$??0CPUInfoDelegate@@QAE@XZ$6 00451614 f   systeminfo.obj
 0001:00050621       __ehhandler$??0CPUInfoDelegate@@QAE@XZ 00451621 f   systeminfo.obj
 0001:00050650       __unwindfunclet$??0GPUInfo@@QAE@ABV?$vector@V?$basic_string@DU?$char_traits@D@std@@V?$allocator@D@2@@std@@V?$allocator@V?$basic_string@DU?$char_traits@D@std@@V?$allocator@D@2@@std@@@2@@std@@H@Z$2 00451650 f   systeminfo.obj
 0001:00050658       __unwindfunclet$??0GPUInfo@@QAE@ABV?$vector@V?$basic_string@DU?$char_traits@D@std@@V?$allocator@D@2@@std@@V?$allocator@V?$basic_string@DU?$char_traits@D@std@@V?$allocator@D@2@@std@@@2@@std@@H@Z$3 00451658 f   systeminfo.obj
 0001:00050663       __unwindfunclet$??0GPUInfo@@QAE@ABV?$vector@V?$basic_string@DU?$char_traits@D@std@@V?$allocator@D@2@@std@@V?$allocator@V?$basic_string@DU?$char_traits@D@std@@V?$allocator@D@2@@std@@@2@@std@@H@Z$4 00451663 f   systeminfo.obj
 0001:0005066e       __unwindfunclet$??0GPUInfo@@QAE@ABV?$vector@V?$basic_string@DU?$char_traits@D@std@@V?$allocator@D@2@@std@@V?$allocator@V?$basic_string@DU?$char_traits@D@std@@V?$allocator@D@2@@std@@@2@@std@@H@Z$5 0045166e f   systeminfo.obj
 0001:00050679       __unwindfunclet$??0GPUInfo@@QAE@ABV?$vector@V?$basic_string@DU?$char_traits@D@std@@V?$allocator@D@2@@std@@V?$allocator@V?$basic_string@DU?$char_traits@D@std@@V?$allocator@D@2@@std@@@2@@std@@H@Z$6 00451679 f   systeminfo.obj
 0001:00050684       __unwindfunclet$??0GPUInfo@@QAE@ABV?$vector@V?$basic_string@DU?$char_traits@D@std@@V?$allocator@D@2@@std@@V?$allocator@V?$basic_string@DU?$char_traits@D@std@@V?$allocator@D@2@@std@@@2@@std@@H@Z$7 00451684 f   systeminfo.obj
 0001:0005068f       __unwindfunclet$??0GPUInfo@@QAE@ABV?$vector@V?$basic_string@DU?$char_traits@D@std@@V?$allocator@D@2@@std@@V?$allocator@V?$basic_string@DU?$char_traits@D@std@@V?$allocator@D@2@@std@@@2@@std@@H@Z$8 0045168f f   systeminfo.obj
 0001:0005069d       __unwindfunclet$??0GPUInfo@@QAE@ABV?$vector@V?$basic_string@DU?$char_traits@D@std@@V?$allocator@D@2@@std@@V?$allocator@V?$basic_string@DU?$char_traits@D@std@@V?$allocator@D@2@@std@@@2@@std@@H@Z$9 0045169d f   systeminfo.obj
 0001:000506ab       __unwindfunclet$??0GPUInfo@@QAE@ABV?$vector@V?$basic_string@DU?$char_traits@D@std@@V?$allocator@D@2@@std@@V?$allocator@V?$basic_string@DU?$char_traits@D@std@@V?$allocator@D@2@@std@@@2@@std@@H@Z$10 004516ab f   systeminfo.obj
 0001:000506b9       __unwindfunclet$??0GPUInfo@@QAE@ABV?$vector@V?$basic_string@DU?$char_traits@D@std@@V?$allocator@D@2@@std@@V?$allocator@V?$basic_string@DU?$char_traits@D@std@@V?$allocator@D@2@@std@@@2@@std@@H@Z$11 004516b9 f   systeminfo.obj
 0001:000506c7       __unwindfunclet$??0GPUInfo@@QAE@ABV?$vector@V?$basic_string@DU?$char_traits@D@std@@V?$allocator@D@2@@std@@V?$allocator@V?$basic_string@DU?$char_traits@D@std@@V?$allocator@D@2@@std@@@2@@std@@H@Z$15 004516c7 f   systeminfo.obj
 0001:000506cf       __unwindfunclet$??0GPUInfo@@QAE@ABV?$vector@V?$basic_string@DU?$char_traits@D@std@@V?$allocator@D@2@@std@@V?$allocator@V?$basic_string@DU?$char_traits@D@std@@V?$allocator@D@2@@std@@@2@@std@@H@Z$16 004516cf f   systeminfo.obj
 0001:000506da       __unwindfunclet$??0GPUInfo@@QAE@ABV?$vector@V?$basic_string@DU?$char_traits@D@std@@V?$allocator@D@2@@std@@V?$allocator@V?$basic_string@DU?$char_traits@D@std@@V?$allocator@D@2@@std@@@2@@std@@H@Z$17 004516da f   systeminfo.obj
 0001:000506e5       __unwindfunclet$??0GPUInfo@@QAE@ABV?$vector@V?$basic_string@DU?$char_traits@D@std@@V?$allocator@D@2@@std@@V?$allocator@V?$basic_string@DU?$char_traits@D@std@@V?$allocator@D@2@@std@@@2@@std@@H@Z$18 004516e5 f   systeminfo.obj
 0001:000506f0       __unwindfunclet$??0GPUInfo@@QAE@ABV?$vector@V?$basic_string@DU?$char_traits@D@std@@V?$allocator@D@2@@std@@V?$allocator@V?$basic_string@DU?$char_traits@D@std@@V?$allocator@D@2@@std@@@2@@std@@H@Z$19 004516f0 f   systeminfo.obj
 0001:000506f8       __unwindfunclet$??0GPUInfo@@QAE@ABV?$vector@V?$basic_string@DU?$char_traits@D@std@@V?$allocator@D@2@@std@@V?$allocator@V?$basic_string@DU?$char_traits@D@std@@V?$allocator@D@2@@std@@@2@@std@@H@Z$22 004516f8 f   systeminfo.obj
 0001:00050700       __unwindfunclet$??0GPUInfo@@QAE@ABV?$vector@V?$basic_string@DU?$char_traits@D@std@@V?$allocator@D@2@@std@@V?$allocator@V?$basic_string@DU?$char_traits@D@std@@V?$allocator@D@2@@std@@@2@@std@@H@Z$25 00451700 f   systeminfo.obj
 0001:00050708       __unwindfunclet$??0GPUInfo@@QAE@ABV?$vector@V?$basic_string@DU?$char_traits@D@std@@V?$allocator@D@2@@std@@V?$allocator@V?$basic_string@DU?$char_traits@D@std@@V?$allocator@D@2@@std@@@2@@std@@H@Z$27 00451708 f   systeminfo.obj
 0001:00050715       __ehhandler$??0GPUInfo@@QAE@ABV?$vector@V?$basic_string@DU?$char_traits@D@std@@V?$allocator@D@2@@std@@V?$allocator@V?$basic_string@DU?$char_traits@D@std@@V?$allocator@D@2@@std@@@2@@std@@H@Z 00451715 f   systeminfo.obj
 0001:00050740       __unwindfunclet$??0GPUInfoDelegate@@QAE@XZ$0 00451740 f   systeminfo.obj
 0001:0005074b       __unwindfunclet$??0GPUInfoDelegate@@QAE@XZ$2 0045174b f   systeminfo.obj
 0001:0005075e       __unwindfunclet$??0GPUInfoDelegate@@QAE@XZ$7 0045175e f   systeminfo.obj
 0001:00050769       __unwindfunclet$??0GPUInfoDelegate@@QAE@XZ$3 00451769 f   systeminfo.obj
 0001:00050774       __unwindfunclet$??0GPUInfoDelegate@@QAE@XZ$4 00451774 f   systeminfo.obj
 0001:0005077c       __unwindfunclet$??0GPUInfoDelegate@@QAE@XZ$5 0045177c f   systeminfo.obj
 0001:00050784       __unwindfunclet$??0GPUInfoDelegate@@QAE@XZ$6 00451784 f   systeminfo.obj
 0001:00050791       __ehhandler$??0GPUInfoDelegate@@QAE@XZ 00451791 f   systeminfo.obj
 0001:000507c0       __unwindfunclet$??0MotherboardInfo@@QAE@ABV?$vector@V?$basic_string@DU?$char_traits@D@std@@V?$allocator@D@2@@std@@V?$allocator@V?$basic_string@DU?$char_traits@D@std@@V?$allocator@D@2@@std@@@2@@std@@H@Z$0 004517c0 f   systeminfo.obj
 0001:000507c8       __unwindfunclet$??0MotherboardInfo@@QAE@ABV?$vector@V?$basic_string@DU?$char_traits@D@std@@V?$allocator@D@2@@std@@V?$allocator@V?$basic_string@DU?$char_traits@D@std@@V?$allocator@D@2@@std@@@2@@std@@H@Z$1 004517c8 f   systeminfo.obj
 0001:000507d3       __unwindfunclet$??0MotherboardInfo@@QAE@ABV?$vector@V?$basic_string@DU?$char_traits@D@std@@V?$allocator@D@2@@std@@V?$allocator@V?$basic_string@DU?$char_traits@D@std@@V?$allocator@D@2@@std@@@2@@std@@H@Z$2 004517d3 f   systeminfo.obj
 0001:000507de       __unwindfunclet$??0MotherboardInfo@@QAE@ABV?$vector@V?$basic_string@DU?$char_traits@D@std@@V?$allocator@D@2@@std@@V?$allocator@V?$basic_string@DU?$char_traits@D@std@@V?$allocator@D@2@@std@@@2@@std@@H@Z$3 004517de f   systeminfo.obj
 0001:000507e9       __unwindfunclet$??0MotherboardInfo@@QAE@ABV?$vector@V?$basic_string@DU?$char_traits@D@std@@V?$allocator@D@2@@std@@V?$allocator@V?$basic_string@DU?$char_traits@D@std@@V?$allocator@D@2@@std@@@2@@std@@H@Z$4 004517e9 f   systeminfo.obj
 0001:000507f9       __ehhandler$??0MotherboardInfo@@QAE@ABV?$vector@V?$basic_string@DU?$char_traits@D@std@@V?$allocator@D@2@@std@@V?$allocator@V?$basic_string@DU?$char_traits@D@std@@V?$allocator@D@2@@std@@@2@@std@@H@Z 004517f9 f   systeminfo.obj
 0001:00050820       __unwindfunclet$?determineChipset@MotherboardInfo@@AAEXXZ$1 00451820 f   systeminfo.obj
 0001:00050836       __unwindfunclet$?determineChipset@MotherboardInfo@@AAEXXZ$5 00451836 f   systeminfo.obj
 0001:00050841       __unwindfunclet$?determineChipset@MotherboardInfo@@AAEXXZ$2 00451841 f   systeminfo.obj
 0001:0005084c       __unwindfunclet$?determineChipset@MotherboardInfo@@AAEXXZ$3 0045184c f   systeminfo.obj
 0001:00050859       __ehhandler$?determineChipset@MotherboardInfo@@AAEXXZ 00451859 f   systeminfo.obj
 0001:00050890       __unwindfunclet$??0MotherboardInfoDelegate@@QAE@XZ$0 00451890 f   systeminfo.obj
 0001:0005089b       __unwindfunclet$??0MotherboardInfoDelegate@@QAE@XZ$2 0045189b f   systeminfo.obj
 0001:000508ae       __unwindfunclet$??0MotherboardInfoDelegate@@QAE@XZ$7 004518ae f   systeminfo.obj
 0001:000508b9       __unwindfunclet$??0MotherboardInfoDelegate@@QAE@XZ$3 004518b9 f   systeminfo.obj
 0001:000508c4       __unwindfunclet$??0MotherboardInfoDelegate@@QAE@XZ$4 004518c4 f   systeminfo.obj
 0001:000508cc       __unwindfunclet$??0MotherboardInfoDelegate@@QAE@XZ$5 004518cc f   systeminfo.obj
 0001:000508d4       __unwindfunclet$??0MotherboardInfoDelegate@@QAE@XZ$6 004518d4 f   systeminfo.obj
 0001:000508e1       __ehhandler$??0MotherboardInfoDelegate@@QAE@XZ 004518e1 f   systeminfo.obj
 0001:00050910       __unwindfunclet$??0OSInfo@@QAE@ABV?$vector@V?$basic_string@DU?$char_traits@D@std@@V?$allocator@D@2@@std@@V?$allocator@V?$basic_string@DU?$char_traits@D@std@@V?$allocator@D@2@@std@@@2@@std@@H@Z$6 00451910 f   systeminfo.obj
 0001:00050918       __unwindfunclet$??0OSInfo@@QAE@ABV?$vector@V?$basic_string@DU?$char_traits@D@std@@V?$allocator@D@2@@std@@V?$allocator@V?$basic_string@DU?$char_traits@D@std@@V?$allocator@D@2@@std@@@2@@std@@H@Z$7 00451918 f   systeminfo.obj
 0001:00050923       __unwindfunclet$??0OSInfo@@QAE@ABV?$vector@V?$basic_string@DU?$char_traits@D@std@@V?$allocator@D@2@@std@@V?$allocator@V?$basic_string@DU?$char_traits@D@std@@V?$allocator@D@2@@std@@@2@@std@@H@Z$8 00451923 f   systeminfo.obj
 0001:0005092e       __unwindfunclet$??0OSInfo@@QAE@ABV?$vector@V?$basic_string@DU?$char_traits@D@std@@V?$allocator@D@2@@std@@V?$allocator@V?$basic_string@DU?$char_traits@D@std@@V?$allocator@D@2@@std@@@2@@std@@H@Z$9 0045192e f   systeminfo.obj
 0001:00050939       __unwindfunclet$??0OSInfo@@QAE@ABV?$vector@V?$basic_string@DU?$char_traits@D@std@@V?$allocator@D@2@@std@@V?$allocator@V?$basic_string@DU?$char_traits@D@std@@V?$allocator@D@2@@std@@@2@@std@@H@Z$10 00451939 f   systeminfo.obj
 0001:00050944       __unwindfunclet$??0OSInfo@@QAE@ABV?$vector@V?$basic_string@DU?$char_traits@D@std@@V?$allocator@D@2@@std@@V?$allocator@V?$basic_string@DU?$char_traits@D@std@@V?$allocator@D@2@@std@@@2@@std@@H@Z$11 00451944 f   systeminfo.obj
 0001:0005094f       __unwindfunclet$??0OSInfo@@QAE@ABV?$vector@V?$basic_string@DU?$char_traits@D@std@@V?$allocator@D@2@@std@@V?$allocator@V?$basic_string@DU?$char_traits@D@std@@V?$allocator@D@2@@std@@@2@@std@@H@Z$12 0045194f f   systeminfo.obj
 0001:0005095d       __unwindfunclet$??0OSInfo@@QAE@ABV?$vector@V?$basic_string@DU?$char_traits@D@std@@V?$allocator@D@2@@std@@V?$allocator@V?$basic_string@DU?$char_traits@D@std@@V?$allocator@D@2@@std@@@2@@std@@H@Z$13 0045195d f   systeminfo.obj
 0001:0005096b       __unwindfunclet$??0OSInfo@@QAE@ABV?$vector@V?$basic_string@DU?$char_traits@D@std@@V?$allocator@D@2@@std@@V?$allocator@V?$basic_string@DU?$char_traits@D@std@@V?$allocator@D@2@@std@@@2@@std@@H@Z$14 0045196b f   systeminfo.obj
 0001:00050979       __unwindfunclet$??0OSInfo@@QAE@ABV?$vector@V?$basic_string@DU?$char_traits@D@std@@V?$allocator@D@2@@std@@V?$allocator@V?$basic_string@DU?$char_traits@D@std@@V?$allocator@D@2@@std@@@2@@std@@H@Z$15 00451979 f   systeminfo.obj
 0001:00050987       __unwindfunclet$??0OSInfo@@QAE@ABV?$vector@V?$basic_string@DU?$char_traits@D@std@@V?$allocator@D@2@@std@@V?$allocator@V?$basic_string@DU?$char_traits@D@std@@V?$allocator@D@2@@std@@@2@@std@@H@Z$16 00451987 f   systeminfo.obj
 0001:00050995       __unwindfunclet$??0OSInfo@@QAE@ABV?$vector@V?$basic_string@DU?$char_traits@D@std@@V?$allocator@D@2@@std@@V?$allocator@V?$basic_string@DU?$char_traits@D@std@@V?$allocator@D@2@@std@@@2@@std@@H@Z$17 00451995 f   systeminfo.obj
 0001:000509a3       __unwindfunclet$??0OSInfo@@QAE@ABV?$vector@V?$basic_string@DU?$char_traits@D@std@@V?$allocator@D@2@@std@@V?$allocator@V?$basic_string@DU?$char_traits@D@std@@V?$allocator@D@2@@std@@@2@@std@@H@Z$18 004519a3 f   systeminfo.obj
 0001:000509b1       __unwindfunclet$??0OSInfo@@QAE@ABV?$vector@V?$basic_string@DU?$char_traits@D@std@@V?$allocator@D@2@@std@@V?$allocator@V?$basic_string@DU?$char_traits@D@std@@V?$allocator@D@2@@std@@@2@@std@@H@Z$19 004519b1 f   systeminfo.obj
 0001:000509bf       __unwindfunclet$??0OSInfo@@QAE@ABV?$vector@V?$basic_string@DU?$char_traits@D@std@@V?$allocator@D@2@@std@@V?$allocator@V?$basic_string@DU?$char_traits@D@std@@V?$allocator@D@2@@std@@@2@@std@@H@Z$31 004519bf f   systeminfo.obj
 0001:000509c7       __unwindfunclet$??0OSInfo@@QAE@ABV?$vector@V?$basic_string@DU?$char_traits@D@std@@V?$allocator@D@2@@std@@V?$allocator@V?$basic_string@DU?$char_traits@D@std@@V?$allocator@D@2@@std@@@2@@std@@H@Z$32 004519c7 f   systeminfo.obj
 0001:000509d2       __unwindfunclet$??0OSInfo@@QAE@ABV?$vector@V?$basic_string@DU?$char_traits@D@std@@V?$allocator@D@2@@std@@V?$allocator@V?$basic_string@DU?$char_traits@D@std@@V?$allocator@D@2@@std@@@2@@std@@H@Z$33 004519d2 f   systeminfo.obj
 0001:000509dd       __unwindfunclet$??0OSInfo@@QAE@ABV?$vector@V?$basic_string@DU?$char_traits@D@std@@V?$allocator@D@2@@std@@V?$allocator@V?$basic_string@DU?$char_traits@D@std@@V?$allocator@D@2@@std@@@2@@std@@H@Z$34 004519dd f   systeminfo.obj
 0001:000509e8       __unwindfunclet$??0OSInfo@@QAE@ABV?$vector@V?$basic_string@DU?$char_traits@D@std@@V?$allocator@D@2@@std@@V?$allocator@V?$basic_string@DU?$char_traits@D@std@@V?$allocator@D@2@@std@@@2@@std@@H@Z$35 004519e8 f   systeminfo.obj
 0001:000509f0       __unwindfunclet$??0OSInfo@@QAE@ABV?$vector@V?$basic_string@DU?$char_traits@D@std@@V?$allocator@D@2@@std@@V?$allocator@V?$basic_string@DU?$char_traits@D@std@@V?$allocator@D@2@@std@@@2@@std@@H@Z$38 004519f0 f   systeminfo.obj
 0001:000509f8       __unwindfunclet$??0OSInfo@@QAE@ABV?$vector@V?$basic_string@DU?$char_traits@D@std@@V?$allocator@D@2@@std@@V?$allocator@V?$basic_string@DU?$char_traits@D@std@@V?$allocator@D@2@@std@@@2@@std@@H@Z$39 004519f8 f   systeminfo.obj
 0001:00050a03       __unwindfunclet$??0OSInfo@@QAE@ABV?$vector@V?$basic_string@DU?$char_traits@D@std@@V?$allocator@D@2@@std@@V?$allocator@V?$basic_string@DU?$char_traits@D@std@@V?$allocator@D@2@@std@@@2@@std@@H@Z$40 00451a03 f   systeminfo.obj
 0001:00050a0e       __unwindfunclet$??0OSInfo@@QAE@ABV?$vector@V?$basic_string@DU?$char_traits@D@std@@V?$allocator@D@2@@std@@V?$allocator@V?$basic_string@DU?$char_traits@D@std@@V?$allocator@D@2@@std@@@2@@std@@H@Z$41 00451a0e f   systeminfo.obj
 0001:00050a19       __unwindfunclet$??0OSInfo@@QAE@ABV?$vector@V?$basic_string@DU?$char_traits@D@std@@V?$allocator@D@2@@std@@V?$allocator@V?$basic_string@DU?$char_traits@D@std@@V?$allocator@D@2@@std@@@2@@std@@H@Z$42 00451a19 f   systeminfo.obj
 0001:00050a21       __unwindfunclet$??0OSInfo@@QAE@ABV?$vector@V?$basic_string@DU?$char_traits@D@std@@V?$allocator@D@2@@std@@V?$allocator@V?$basic_string@DU?$char_traits@D@std@@V?$allocator@D@2@@std@@@2@@std@@H@Z$45 00451a21 f   systeminfo.obj
 0001:00050a29       __unwindfunclet$??0OSInfo@@QAE@ABV?$vector@V?$basic_string@DU?$char_traits@D@std@@V?$allocator@D@2@@std@@V?$allocator@V?$basic_string@DU?$char_traits@D@std@@V?$allocator@D@2@@std@@@2@@std@@H@Z$46 00451a29 f   systeminfo.obj
 0001:00050a34       __unwindfunclet$??0OSInfo@@QAE@ABV?$vector@V?$basic_string@DU?$char_traits@D@std@@V?$allocator@D@2@@std@@V?$allocator@V?$basic_string@DU?$char_traits@D@std@@V?$allocator@D@2@@std@@@2@@std@@H@Z$47 00451a34 f   systeminfo.obj
 0001:00050a3f       __unwindfunclet$??0OSInfo@@QAE@ABV?$vector@V?$basic_string@DU?$char_traits@D@std@@V?$allocator@D@2@@std@@V?$allocator@V?$basic_string@DU?$char_traits@D@std@@V?$allocator@D@2@@std@@@2@@std@@H@Z$48 00451a3f f   systeminfo.obj
 0001:00050a4a       __unwindfunclet$??0OSInfo@@QAE@ABV?$vector@V?$basic_string@DU?$char_traits@D@std@@V?$allocator@D@2@@std@@V?$allocator@V?$basic_string@DU?$char_traits@D@std@@V?$allocator@D@2@@std@@@2@@std@@H@Z$49 00451a4a f   systeminfo.obj
 0001:00050a57       __ehhandler$??0OSInfo@@QAE@ABV?$vector@V?$basic_string@DU?$char_traits@D@std@@V?$allocator@D@2@@std@@V?$allocator@V?$basic_string@DU?$char_traits@D@std@@V?$allocator@D@2@@std@@@2@@std@@H@Z 00451a57 f   systeminfo.obj
 0001:00050a90       __unwindfunclet$??0OSInfoDelegate@@QAE@XZ$0 00451a90 f   systeminfo.obj
 0001:00050a9b       __unwindfunclet$??0OSInfoDelegate@@QAE@XZ$2 00451a9b f   systeminfo.obj
 0001:00050aae       __unwindfunclet$??0OSInfoDelegate@@QAE@XZ$7 00451aae f   systeminfo.obj
 0001:00050ab9       __unwindfunclet$??0OSInfoDelegate@@QAE@XZ$3 00451ab9 f   systeminfo.obj
 0001:00050ac4       __unwindfunclet$??0OSInfoDelegate@@QAE@XZ$4 00451ac4 f   systeminfo.obj
 0001:00050acc       __unwindfunclet$??0OSInfoDelegate@@QAE@XZ$5 00451acc f   systeminfo.obj
 0001:00050ad4       __unwindfunclet$??0OSInfoDelegate@@QAE@XZ$6 00451ad4 f   systeminfo.obj
 0001:00050ae1       __ehhandler$??0OSInfoDelegate@@QAE@XZ 00451ae1 f   systeminfo.obj
 0001:00050b10       __unwindfunclet$??0RAMInfo@@QAE@ABV?$vector@V?$basic_string@DU?$char_traits@D@std@@V?$allocator@D@2@@std@@V?$allocator@V?$basic_string@DU?$char_traits@D@std@@V?$allocator@D@2@@std@@@2@@std@@H@Z$2 00451b10 f   systeminfo.obj
 0001:00050b1b       __unwindfunclet$??0RAMInfo@@QAE@ABV?$vector@V?$basic_string@DU?$char_traits@D@std@@V?$allocator@D@2@@std@@V?$allocator@V?$basic_string@DU?$char_traits@D@std@@V?$allocator@D@2@@std@@@2@@std@@H@Z$3 00451b1b f   systeminfo.obj
 0001:00050b29       __unwindfunclet$??0RAMInfo@@QAE@ABV?$vector@V?$basic_string@DU?$char_traits@D@std@@V?$allocator@D@2@@std@@V?$allocator@V?$basic_string@DU?$char_traits@D@std@@V?$allocator@D@2@@std@@@2@@std@@H@Z$4 00451b29 f   systeminfo.obj
 0001:00050b37       __unwindfunclet$??0RAMInfo@@QAE@ABV?$vector@V?$basic_string@DU?$char_traits@D@std@@V?$allocator@D@2@@std@@V?$allocator@V?$basic_string@DU?$char_traits@D@std@@V?$allocator@D@2@@std@@@2@@std@@H@Z$5 00451b37 f   systeminfo.obj
 0001:00050b45       __unwindfunclet$??0RAMInfo@@QAE@ABV?$vector@V?$basic_string@DU?$char_traits@D@std@@V?$allocator@D@2@@std@@V?$allocator@V?$basic_string@DU?$char_traits@D@std@@V?$allocator@D@2@@std@@@2@@std@@H@Z$6 00451b45 f   systeminfo.obj
 0001:00050b53       __unwindfunclet$??0RAMInfo@@QAE@ABV?$vector@V?$basic_string@DU?$char_traits@D@std@@V?$allocator@D@2@@std@@V?$allocator@V?$basic_string@DU?$char_traits@D@std@@V?$allocator@D@2@@std@@@2@@std@@H@Z$7 00451b53 f   systeminfo.obj
 0001:00050b61       __unwindfunclet$??0RAMInfo@@QAE@ABV?$vector@V?$basic_string@DU?$char_traits@D@std@@V?$allocator@D@2@@std@@V?$allocator@V?$basic_string@DU?$char_traits@D@std@@V?$allocator@D@2@@std@@@2@@std@@H@Z$8 00451b61 f   systeminfo.obj
 0001:00050b72       __unwindfunclet$??0RAMInfo@@QAE@ABV?$vector@V?$basic_string@DU?$char_traits@D@std@@V?$allocator@D@2@@std@@V?$allocator@V?$basic_string@DU?$char_traits@D@std@@V?$allocator@D@2@@std@@@2@@std@@H@Z$9 00451b72 f   systeminfo.obj
 0001:00050b83       __unwindfunclet$??0RAMInfo@@QAE@ABV?$vector@V?$basic_string@DU?$char_traits@D@std@@V?$allocator@D@2@@std@@V?$allocator@V?$basic_string@DU?$char_traits@D@std@@V?$allocator@D@2@@std@@@2@@std@@H@Z$10 00451b83 f   systeminfo.obj
 0001:00050b8b       __unwindfunclet$??0RAMInfo@@QAE@ABV?$vector@V?$basic_string@DU?$char_traits@D@std@@V?$allocator@D@2@@std@@V?$allocator@V?$basic_string@DU?$char_traits@D@std@@V?$allocator@D@2@@std@@@2@@std@@H@Z$13 00451b8b f   systeminfo.obj
 0001:00050b93       __unwindfunclet$??0RAMInfo@@QAE@ABV?$vector@V?$basic_string@DU?$char_traits@D@std@@V?$allocator@D@2@@std@@V?$allocator@V?$basic_string@DU?$char_traits@D@std@@V?$allocator@D@2@@std@@@2@@std@@H@Z$14 00451b93 f   systeminfo.obj
 0001:00050b9e       __unwindfunclet$??0RAMInfo@@QAE@ABV?$vector@V?$basic_string@DU?$char_traits@D@std@@V?$allocator@D@2@@std@@V?$allocator@V?$basic_string@DU?$char_traits@D@std@@V?$allocator@D@2@@std@@@2@@std@@H@Z$15 00451b9e f   systeminfo.obj
 0001:00050ba9       __unwindfunclet$??0RAMInfo@@QAE@ABV?$vector@V?$basic_string@DU?$char_traits@D@std@@V?$allocator@D@2@@std@@V?$allocator@V?$basic_string@DU?$char_traits@D@std@@V?$allocator@D@2@@std@@@2@@std@@H@Z$16 00451ba9 f   systeminfo.obj
 0001:00050bb4       __unwindfunclet$??0RAMInfo@@QAE@ABV?$vector@V?$basic_string@DU?$char_traits@D@std@@V?$allocator@D@2@@std@@V?$allocator@V?$basic_string@DU?$char_traits@D@std@@V?$allocator@D@2@@std@@@2@@std@@H@Z$17 00451bb4 f   systeminfo.obj
 0001:00050bbc       __unwindfunclet$??0RAMInfo@@QAE@ABV?$vector@V?$basic_string@DU?$char_traits@D@std@@V?$allocator@D@2@@std@@V?$allocator@V?$basic_string@DU?$char_traits@D@std@@V?$allocator@D@2@@std@@@2@@std@@H@Z$21 00451bbc f   systeminfo.obj
 0001:00050bc4       __unwindfunclet$??0RAMInfo@@QAE@ABV?$vector@V?$basic_string@DU?$char_traits@D@std@@V?$allocator@D@2@@std@@V?$allocator@V?$basic_string@DU?$char_traits@D@std@@V?$allocator@D@2@@std@@@2@@std@@H@Z$24 00451bc4 f   systeminfo.obj
 0001:00050bcc       __unwindfunclet$??0RAMInfo@@QAE@ABV?$vector@V?$basic_string@DU?$char_traits@D@std@@V?$allocator@D@2@@std@@V?$allocator@V?$basic_string@DU?$char_traits@D@std@@V?$allocator@D@2@@std@@@2@@std@@H@Z$26 00451bcc f   systeminfo.obj
 0001:00050bd4       __unwindfunclet$??0RAMInfo@@QAE@ABV?$vector@V?$basic_string@DU?$char_traits@D@std@@V?$allocator@D@2@@std@@V?$allocator@V?$basic_string@DU?$char_traits@D@std@@V?$allocator@D@2@@std@@@2@@std@@H@Z$28 00451bd4 f   systeminfo.obj
 0001:00050be1       __ehhandler$??0RAMInfo@@QAE@ABV?$vector@V?$basic_string@DU?$char_traits@D@std@@V?$allocator@D@2@@std@@V?$allocator@V?$basic_string@DU?$char_traits@D@std@@V?$allocator@D@2@@std@@@2@@std@@H@Z 00451be1 f   systeminfo.obj
 0001:00050c10       __ehhandler$?getMemoryType@RAMInfo@@ABE?AV?$basic_string@DU?$char_traits@D@std@@V?$allocator@D@2@@std@@ABV23@@Z 00451c10 f   systeminfo.obj
 0001:00050c40       __ehhandler$?getFormFactor@RAMInfo@@ABE?AV?$basic_string@DU?$char_traits@D@std@@V?$allocator@D@2@@std@@ABV23@@Z 00451c40 f   systeminfo.obj
 0001:00050c70       __unwindfunclet$??0RAMInfoDelegate@@QAE@XZ$0 00451c70 f   systeminfo.obj
 0001:00050c7b       __unwindfunclet$??0RAMInfoDelegate@@QAE@XZ$2 00451c7b f   systeminfo.obj
 0001:00050c8e       __unwindfunclet$??0RAMInfoDelegate@@QAE@XZ$7 00451c8e f   systeminfo.obj
 0001:00050c99       __unwindfunclet$??0RAMInfoDelegate@@QAE@XZ$3 00451c99 f   systeminfo.obj
 0001:00050ca4       __unwindfunclet$??0RAMInfoDelegate@@QAE@XZ$4 00451ca4 f   systeminfo.obj
 0001:00050cac       __unwindfunclet$??0RAMInfoDelegate@@QAE@XZ$5 00451cac f   systeminfo.obj
 0001:00050cb4       __unwindfunclet$??0RAMInfoDelegate@@QAE@XZ$6 00451cb4 f   systeminfo.obj
 0001:00050cc1       __ehhandler$??0RAMInfoDelegate@@QAE@XZ 00451cc1 f   systeminfo.obj
 0001:00050cf0       __unwindfunclet$?stripAllFromString@SystemCommand@@AAE?AV?$basic_string@DU?$char_traits@D@std@@V?$allocator@D@2@@std@@ABV23@0@Z$0 00451cf0 f   systeminfo.obj
 0001:00050cfd       __ehhandler$?stripAllFromString@SystemCommand@@AAE?AV?$basic_string@DU?$char_traits@D@std@@V?$allocator@D@2@@std@@ABV23@0@Z 00451cfd f   systeminfo.obj
 0001:00050d30       __unwindfunclet$?stripFromString@SystemCommand@@AAE?AV?$basic_string@DU?$char_traits@D@std@@V?$allocator@D@2@@std@@ABV23@0@Z$0 00451d30 f   systeminfo.obj
 0001:00050d38       __unwindfunclet$?stripFromString@SystemCommand@@AAE?AV?$basic_string@DU?$char_traits@D@std@@V?$allocator@D@2@@std@@ABV23@0@Z$4 00451d38 f   systeminfo.obj
 0001:00050d40       __unwindfunclet$?stripFromString@SystemCommand@@AAE?AV?$basic_string@DU?$char_traits@D@std@@V?$allocator@D@2@@std@@ABV23@0@Z$5 00451d40 f   systeminfo.obj
 0001:00050d4d       __ehhandler$?stripFromString@SystemCommand@@AAE?AV?$basic_string@DU?$char_traits@D@std@@V?$allocator@D@2@@std@@ABV23@0@Z 00451d4d f   systeminfo.obj
 0001:00050d80       __unwindfunclet$?stripPipeFromCommand@SystemCommand@@AAEXXZ$0 00451d80 f   systeminfo.obj
 0001:00050d88       __unwindfunclet$?stripPipeFromCommand@SystemCommand@@AAEXXZ$2 00451d88 f   systeminfo.obj
 0001:00050d95       __ehhandler$?stripPipeFromCommand@SystemCommand@@AAEXXZ 00451d95 f   systeminfo.obj
 0001:00050dc0       __unwindfunclet$?systemCommandLaunch@SystemCommand@@AAEX_N@Z$0 00451dc0 f   systeminfo.obj
 0001:00050dcb       __unwindfunclet$?systemCommandLaunch@SystemCommand@@AAEX_N@Z$2 00451dcb f   systeminfo.obj
 0001:00050dd6       __unwindfunclet$?systemCommandLaunch@SystemCommand@@AAEX_N@Z$3 00451dd6 f   systeminfo.obj
 0001:00050de1       __unwindfunclet$?systemCommandLaunch@SystemCommand@@AAEX_N@Z$12 00451de1 f   systeminfo.obj
 0001:00050df1       __ehhandler$?systemCommandLaunch@SystemCommand@@AAEX_N@Z 00451df1 f   systeminfo.obj
 0001:00050e20       __unwindfunclet$??R<lambda_b5565d269da327e336800d80f472b553>@@QBE?AV?$basic_string@DU?$char_traits@D@std@@V?$allocator@D@2@@std@@ABV12@@Z$0 00451e20 f   systeminfo.obj
 0001:00050e39       __unwindfunclet$??R<lambda_b5565d269da327e336800d80f472b553>@@QBE?AV?$basic_string@DU?$char_traits@D@std@@V?$allocator@D@2@@std@@ABV12@@Z$1 00451e39 f   systeminfo.obj
 0001:00050e44       __unwindfunclet$??R<lambda_b5565d269da327e336800d80f472b553>@@QBE?AV?$basic_string@DU?$char_traits@D@std@@V?$allocator@D@2@@std@@ABV12@@Z$2 00451e44 f   systeminfo.obj
 0001:00050e4c       __unwindfunclet$??R<lambda_b5565d269da327e336800d80f472b553>@@QBE?AV?$basic_string@DU?$char_traits@D@std@@V?$allocator@D@2@@std@@ABV12@@Z$4 00451e4c f   systeminfo.obj
 0001:00050e62       __unwindfunclet$??R<lambda_b5565d269da327e336800d80f472b553>@@QBE?AV?$basic_string@DU?$char_traits@D@std@@V?$allocator@D@2@@std@@ABV12@@Z$13 00451e62 f   systeminfo.obj
 0001:00050e6a       __unwindfunclet$??R<lambda_b5565d269da327e336800d80f472b553>@@QBE?AV?$basic_string@DU?$char_traits@D@std@@V?$allocator@D@2@@std@@ABV12@@Z$14 00451e6a f   systeminfo.obj
 0001:00050e72       __unwindfunclet$??R<lambda_b5565d269da327e336800d80f472b553>@@QBE?AV?$basic_string@DU?$char_traits@D@std@@V?$allocator@D@2@@std@@ABV12@@Z$5 00451e72 f   systeminfo.obj
 0001:00050e7f       __ehhandler$??R<lambda_b5565d269da327e336800d80f472b553>@@QBE?AV?$basic_string@DU?$char_traits@D@std@@V?$allocator@D@2@@std@@ABV12@@Z 00451e7f f   systeminfo.obj
 0001:00050eb0       __unwindfunclet$??0?$vector@VRAMInfo@@V?$allocator@VRAMInfo@@@std@@@std@@QAE@ABV01@@Z$0 00451eb0 f   systeminfo.obj
 0001:00050eb8       __unwindfunclet$??0?$vector@VRAMInfo@@V?$allocator@VRAMInfo@@@std@@@std@@QAE@ABV01@@Z$1 00451eb8 f   systeminfo.obj
 0001:00050ec0       __unwindfunclet$??0?$vector@VRAMInfo@@V?$allocator@VRAMInfo@@@std@@@std@@QAE@ABV01@@Z$2 00451ec0 f   systeminfo.obj
 0001:00050ec8       __unwindfunclet$??0?$vector@VRAMInfo@@V?$allocator@VRAMInfo@@@std@@@std@@QAE@ABV01@@Z$3 00451ec8 f   systeminfo.obj
 0001:00050ed3       __unwindfunclet$??0?$vector@VRAMInfo@@V?$allocator@VRAMInfo@@@std@@@std@@QAE@ABV01@@Z$4 00451ed3 f   systeminfo.obj
 0001:00050ede       __unwindfunclet$??0?$vector@VRAMInfo@@V?$allocator@VRAMInfo@@@std@@@std@@QAE@ABV01@@Z$5 00451ede f   systeminfo.obj
 0001:00050ee9       __unwindfunclet$??0?$vector@VRAMInfo@@V?$allocator@VRAMInfo@@@std@@@std@@QAE@ABV01@@Z$6 00451ee9 f   systeminfo.obj
 0001:00050ef4       __unwindfunclet$??0?$vector@VRAMInfo@@V?$allocator@VRAMInfo@@@std@@@std@@QAE@ABV01@@Z$7 00451ef4 f   systeminfo.obj
 0001:00050eff       __unwindfunclet$??0?$vector@VRAMInfo@@V?$allocator@VRAMInfo@@@std@@@std@@QAE@ABV01@@Z$8 00451eff f   systeminfo.obj
 0001:00050f12       __ehhandler$??0?$vector@VRAMInfo@@V?$allocator@VRAMInfo@@@std@@@std@@QAE@ABV01@@Z 00451f12 f   systeminfo.obj
 0001:00050f40       __unwindfunclet$??0?$vector@VMotherboardInfo@@V?$allocator@VMotherboardInfo@@@std@@@std@@QAE@ABV01@@Z$0 00451f40 f   systeminfo.obj
 0001:00050f48       __unwindfunclet$??0?$vector@VMotherboardInfo@@V?$allocator@VMotherboardInfo@@@std@@@std@@QAE@ABV01@@Z$1 00451f48 f   systeminfo.obj
 0001:00050f50       __unwindfunclet$??0?$vector@VMotherboardInfo@@V?$allocator@VMotherboardInfo@@@std@@@std@@QAE@ABV01@@Z$2 00451f50 f   systeminfo.obj
 0001:00050f58       __unwindfunclet$??0?$vector@VMotherboardInfo@@V?$allocator@VMotherboardInfo@@@std@@@std@@QAE@ABV01@@Z$3 00451f58 f   systeminfo.obj
 0001:00050f63       __unwindfunclet$??0?$vector@VMotherboardInfo@@V?$allocator@VMotherboardInfo@@@std@@@std@@QAE@ABV01@@Z$4 00451f63 f   systeminfo.obj
 0001:00050f6e       __unwindfunclet$??0?$vector@VMotherboardInfo@@V?$allocator@VMotherboardInfo@@@std@@@std@@QAE@ABV01@@Z$5 00451f6e f   systeminfo.obj
 0001:00050f7e       __ehhandler$??0?$vector@VMotherboardInfo@@V?$allocator@VMotherboardInfo@@@std@@@std@@QAE@ABV01@@Z 00451f7e f   systeminfo.obj
 0001:00050fb0       __unwindfunclet$??0?$vector@VGPUInfo@@V?$allocator@VGPUInfo@@@std@@@std@@QAE@ABV01@@Z$0 00451fb0 f   systeminfo.obj
 0001:00050fb8       __unwindfunclet$??0?$vector@VGPUInfo@@V?$allocator@VGPUInfo@@@std@@@std@@QAE@ABV01@@Z$1 00451fb8 f   systeminfo.obj
 0001:00050fc0       __unwindfunclet$??0?$vector@VGPUInfo@@V?$allocator@VGPUInfo@@@std@@@std@@QAE@ABV01@@Z$2 00451fc0 f   systeminfo.obj
 0001:00050fc8       __unwindfunclet$??0?$vector@VGPUInfo@@V?$allocator@VGPUInfo@@@std@@@std@@QAE@ABV01@@Z$3 00451fc8 f   systeminfo.obj
 0001:00050fd3       __unwindfunclet$??0?$vector@VGPUInfo@@V?$allocator@VGPUInfo@@@std@@@std@@QAE@ABV01@@Z$4 00451fd3 f   systeminfo.obj
 0001:00050fde       __unwindfunclet$??0?$vector@VGPUInfo@@V?$allocator@VGPUInfo@@@std@@@std@@QAE@ABV01@@Z$5 00451fde f   systeminfo.obj
 0001:00050fe9       __unwindfunclet$??0?$vector@VGPUInfo@@V?$allocator@VGPUInfo@@@std@@@std@@QAE@ABV01@@Z$6 00451fe9 f   systeminfo.obj
 0001:00050ff4       __unwindfunclet$??0?$vector@VGPUInfo@@V?$allocator@VGPUInfo@@@std@@@std@@QAE@ABV01@@Z$7 00451ff4 f   systeminfo.obj
 0001:00050fff       __unwindfunclet$??0?$vector@VGPUInfo@@V?$allocator@VGPUInfo@@@std@@@std@@QAE@ABV01@@Z$8 00451fff f   systeminfo.obj
 0001:0005100d       __unwindfunclet$??0?$vector@VGPUInfo@@V?$allocator@VGPUInfo@@@std@@@std@@QAE@ABV01@@Z$9 0045200d f   systeminfo.obj
 0001:0005101b       __unwindfunclet$??0?$vector@VGPUInfo@@V?$allocator@VGPUInfo@@@std@@@std@@QAE@ABV01@@Z$10 0045201b f   systeminfo.obj
 0001:0005102e       __ehhandler$??0?$vector@VGPUInfo@@V?$allocator@VGPUInfo@@@std@@@std@@QAE@ABV01@@Z 0045202e f   systeminfo.obj
 0001:00051060       __unwindfunclet$??0?$vector@VCPUInfo@@V?$allocator@VCPUInfo@@@std@@@std@@QAE@ABV01@@Z$0 00452060 f   systeminfo.obj
 0001:00051068       __unwindfunclet$??0?$vector@VCPUInfo@@V?$allocator@VCPUInfo@@@std@@@std@@QAE@ABV01@@Z$1 00452068 f   systeminfo.obj
 0001:00051070       __unwindfunclet$??0?$vector@VCPUInfo@@V?$allocator@VCPUInfo@@@std@@@std@@QAE@ABV01@@Z$2 00452070 f   systeminfo.obj
 0001:00051078       __unwindfunclet$??0?$vector@VCPUInfo@@V?$allocator@VCPUInfo@@@std@@@std@@QAE@ABV01@@Z$3 00452078 f   systeminfo.obj
 0001:00051083       __unwindfunclet$??0?$vector@VCPUInfo@@V?$allocator@VCPUInfo@@@std@@@std@@QAE@ABV01@@Z$4 00452083 f   systeminfo.obj
 0001:0005108e       __unwindfunclet$??0?$vector@VCPUInfo@@V?$allocator@VCPUInfo@@@std@@@std@@QAE@ABV01@@Z$5 0045208e f   systeminfo.obj
 0001:00051099       __unwindfunclet$??0?$vector@VCPUInfo@@V?$allocator@VCPUInfo@@@std@@@std@@QAE@ABV01@@Z$6 00452099 f   systeminfo.obj
 0001:000510a9       __ehhandler$??0?$vector@VCPUInfo@@V?$allocator@VCPUInfo@@@std@@@std@@QAE@ABV01@@Z 004520a9 f   systeminfo.obj
 0001:000510d0       __unwindfunclet$??0?$vector@V?$basic_string@DU?$char_traits@D@std@@V?$allocator@D@2@@std@@V?$allocator@V?$basic_string@DU?$char_traits@D@std@@V?$allocator@D@2@@std@@@2@@std@@QAE@ABV01@@Z$0 004520d0 f   systeminfo.obj
 0001:000510d8       __unwindfunclet$??0?$vector@V?$basic_string@DU?$char_traits@D@std@@V?$allocator@D@2@@std@@V?$allocator@V?$basic_string@DU?$char_traits@D@std@@V?$allocator@D@2@@std@@@2@@std@@QAE@ABV01@@Z$1 004520d8 f   systeminfo.obj
 0001:000510e5       __ehhandler$??0?$vector@V?$basic_string@DU?$char_traits@D@std@@V?$allocator@D@2@@std@@V?$allocator@V?$basic_string@DU?$char_traits@D@std@@V?$allocator@D@2@@std@@@2@@std@@QAE@ABV01@@Z 004520e5 f   systeminfo.obj
 0001:00051110       __unwindfunclet$??0?$basic_ifstream@DU?$char_traits@D@std@@@std@@QAE@XZ$0 00452110 f   systeminfo.obj
 0001:0005112d       __unwindfunclet$??0?$basic_ifstream@DU?$char_traits@D@std@@@std@@QAE@XZ$1 0045212d f   systeminfo.obj
 0001:00051139       __unwindfunclet$??0?$basic_ifstream@DU?$char_traits@D@std@@@std@@QAE@XZ$3 00452139 f   systeminfo.obj
 0001:00051147       __ehhandler$??0?$basic_ifstream@DU?$char_traits@D@std@@@std@@QAE@XZ 00452147 f   systeminfo.obj
 0001:00051170       __ehhandler$??$_Emplace_reallocate@AAV?$vector@V?$basic_string@DU?$char_traits@D@std@@V?$allocator@D@2@@std@@V?$allocator@V?$basic_string@DU?$char_traits@D@std@@V?$allocator@D@2@@std@@@2@@std@@AAH@?$vector@VCPUInfo@@V?$allocator@VCPUInfo@@@std@@@std@@QAEPAVCPUInfo@@QAV2@AAV?$vector@V?$basic_string@DU?$char_traits@D@std@@V?$allocator@D@2@@std@@V?$allocator@V?$basic_string@DU?$char_traits@D@std@@V?$allocator@D@2@@std@@@2@@1@AAH@Z 00452170 f   systeminfo.obj
 0001:00051190       __unwindfunclet$??$toString@_J@GPUInfo@@ABE?AV?$basic_string@DU?$char_traits@D@std@@V?$allocator@D@2@@std@@AB_J@Z$2 00452190 f   systeminfo.obj
 0001:00051190       __unwindfunclet$??$toString@_J@OSInfo@@ABE?AV?$basic_string@DU?$char_traits@D@std@@V?$allocator@D@2@@std@@AB_J@Z$2 00452190 f   systeminfo.obj
 0001:00051190       __unwindfunclet$??$toString@_J@RAMInfo@@ABE?AV?$basic_string@DU?$char_traits@D@std@@V?$allocator@D@2@@std@@AB_J@Z$2 00452190 f   systeminfo.obj
 0001:000511b0       __unwindfunclet$??$toString@_J@GPUInfo@@ABE?AV?$basic_string@DU?$char_traits@D@std@@V?$allocator@D@2@@std@@AB_J@Z$3 004521b0 f   systeminfo.obj
 0001:000511b0       __unwindfunclet$??$toString@_J@OSInfo@@ABE?AV?$basic_string@DU?$char_traits@D@std@@V?$allocator@D@2@@std@@AB_J@Z$3 004521b0 f   systeminfo.obj
 0001:000511b0       __unwindfunclet$??$toString@_J@RAMInfo@@ABE?AV?$basic_string@DU?$char_traits@D@std@@V?$allocator@D@2@@std@@AB_J@Z$3 004521b0 f   systeminfo.obj
 0001:000511bc       __unwindfunclet$??$toString@_J@GPUInfo@@ABE?AV?$basic_string@DU?$char_traits@D@std@@V?$allocator@D@2@@std@@AB_J@Z$0 004521bc f   systeminfo.obj
 0001:000511bc       __unwindfunclet$??$toString@_J@OSInfo@@ABE?AV?$basic_string@DU?$char_traits@D@std@@V?$allocator@D@2@@std@@AB_J@Z$0 004521bc f   systeminfo.obj
 0001:000511bc       __unwindfunclet$??$toString@_J@RAMInfo@@ABE?AV?$basic_string@DU?$char_traits@D@std@@V?$allocator@D@2@@std@@AB_J@Z$0 004521bc f   systeminfo.obj
 0001:000511c7       __unwindfunclet$??$toString@_J@GPUInfo@@ABE?AV?$basic_string@DU?$char_traits@D@std@@V?$allocator@D@2@@std@@AB_J@Z$1 004521c7 f   systeminfo.obj
 0001:000511c7       __unwindfunclet$??$toString@_J@OSInfo@@ABE?AV?$basic_string@DU?$char_traits@D@std@@V?$allocator@D@2@@std@@AB_J@Z$1 004521c7 f   systeminfo.obj
 0001:000511c7       __unwindfunclet$??$toString@_J@RAMInfo@@ABE?AV?$basic_string@DU?$char_traits@D@std@@V?$allocator@D@2@@std@@AB_J@Z$1 004521c7 f   systeminfo.obj
 0001:000511ee       __ehhandler$??$toString@_J@GPUInfo@@ABE?AV?$basic_string@DU?$char_traits@D@std@@V?$allocator@D@2@@std@@AB_J@Z 004521ee f   systeminfo.obj
 0001:000511ee       __ehhandler$??$toString@_J@OSInfo@@ABE?AV?$basic_string@DU?$char_traits@D@std@@V?$allocator@D@2@@std@@AB_J@Z 004521ee f   systeminfo.obj
 0001:000511ee       __ehhandler$??$toString@_J@RAMInfo@@ABE?AV?$basic_string@DU?$char_traits@D@std@@V?$allocator@D@2@@std@@AB_J@Z 004521ee f   systeminfo.obj
 0001:00051220       __ehhandler$??$_Emplace_reallocate@AAV?$vector@V?$basic_string@DU?$char_traits@D@std@@V?$allocator@D@2@@std@@V?$allocator@V?$basic_string@DU?$char_traits@D@std@@V?$allocator@D@2@@std@@@2@@std@@AAH@?$vector@VGPUInfo@@V?$allocator@VGPUInfo@@@std@@@std@@QAEPAVGPUInfo@@QAV2@AAV?$vector@V?$basic_string@DU?$char_traits@D@std@@V?$allocator@D@2@@std@@V?$allocator@V?$basic_string@DU?$char_traits@D@std@@V?$allocator@D@2@@std@@@2@@1@AAH@Z 00452220 f   systeminfo.obj
 0001:00051240       __ehhandler$??$_Emplace_reallocate@AAV?$vector@V?$basic_string@DU?$char_traits@D@std@@V?$allocator@D@2@@std@@V?$allocator@V?$basic_string@DU?$char_traits@D@std@@V?$allocator@D@2@@std@@@2@@std@@AAH@?$vector@VMotherboardInfo@@V?$allocator@VMotherboardInfo@@@std@@@std@@QAEPAVMotherboardInfo@@QAV2@AAV?$vector@V?$basic_string@DU?$char_traits@D@std@@V?$allocator@D@2@@std@@V?$allocator@V?$basic_string@DU?$char_traits@D@std@@V?$allocator@D@2@@std@@@2@@1@AAH@Z 00452240 f   systeminfo.obj
 0001:00051260       __ehhandler$??$_Emplace_reallocate@AAV?$vector@V?$basic_string@DU?$char_traits@D@std@@V?$allocator@D@2@@std@@V?$allocator@V?$basic_string@DU?$char_traits@D@std@@V?$allocator@D@2@@std@@@2@@std@@AAH@?$vector@VOSInfo@@V?$allocator@VOSInfo@@@std@@@std@@QAEPAVOSInfo@@QAV2@AAV?$vector@V?$basic_string@DU?$char_traits@D@std@@V?$allocator@D@2@@std@@V?$allocator@V?$basic_string@DU?$char_traits@D@std@@V?$allocator@D@2@@std@@@2@@1@AAH@Z 00452260 f   systeminfo.obj
 0001:00051280       __ehhandler$??$_Emplace_reallocate@AAV?$vector@V?$basic_string@DU?$char_traits@D@std@@V?$allocator@D@2@@std@@V?$allocator@V?$basic_string@DU?$char_traits@D@std@@V?$allocator@D@2@@std@@@2@@std@@AAH@?$vector@VRAMInfo@@V?$allocator@VRAMInfo@@@std@@@std@@QAEPAVRAMInfo@@QAV2@AAV?$vector@V?$basic_string@DU?$char_traits@D@std@@V?$allocator@D@2@@std@@V?$allocator@V?$basic_string@DU?$char_traits@D@std@@V?$allocator@D@2@@std@@@2@@1@AAH@Z 00452280 f   systeminfo.obj
 0001:000512a0       __ehhandler$??$_Emplace_reallocate@ABV?$basic_string@DU?$char_traits@D@std@@V?$allocator@D@2@@std@@@?$vector@V?$basic_string@DU?$char_traits@D@std@@V?$allocator@D@2@@std@@V?$allocator@V?$basic_string@DU?$char_traits@D@std@@V?$allocator@D@2@@std@@@2@@std@@QAEPAV?$basic_string@DU?$char_traits@D@std@@V?$allocator@D@2@@1@QAV21@ABV21@@Z 004522a0 f   systeminfo.obj
 0001:000512c0       __unwindfunclet$??$_Insert_string@DU?$char_traits@D@std@@I@std@@YAAAV?$basic_ostream@DU?$char_traits@D@std@@@0@AAV10@QBDI@Z$3 004522c0 f   systeminfo.obj
 0001:000512c8       __unwindfunclet$??$_Insert_string@DU?$char_traits@D@std@@I@std@@YAAAV?$basic_ostream@DU?$char_traits@D@std@@@0@AAV10@QBDI@Z$2 004522c8 f   systeminfo.obj
 0001:000512d5       __ehhandler$??$_Insert_string@DU?$char_traits@D@std@@I@std@@YAAAV?$basic_ostream@DU?$char_traits@D@std@@@0@AAV10@QBDI@Z 004522d5 f   systeminfo.obj
 0001:00051300       __unwindfunclet$??$_Uninitialized_copy@PAVOSInfo@@V?$allocator@VOSInfo@@@std@@@std@@YAPAVOSInfo@@QAV1@0PAV1@AAV?$allocator@VOSInfo@@@0@@Z$0 00452300 f   systeminfo.obj
 0001:00051308       __unwindfunclet$??$_Uninitialized_copy@PAVOSInfo@@V?$allocator@VOSInfo@@@std@@@std@@YAPAVOSInfo@@QAV1@0PAV1@AAV?$allocator@VOSInfo@@@0@@Z$1 00452308 f   systeminfo.obj
 0001:00051310       __unwindfunclet$??$_Uninitialized_copy@PAVOSInfo@@V?$allocator@VOSInfo@@@std@@@std@@YAPAVOSInfo@@QAV1@0PAV1@AAV?$allocator@VOSInfo@@@0@@Z$2 00452310 f   systeminfo.obj
 0001:0005131b       __unwindfunclet$??$_Uninitialized_copy@PAVOSInfo@@V?$allocator@VOSInfo@@@std@@@std@@YAPAVOSInfo@@QAV1@0PAV1@AAV?$allocator@VOSInfo@@@0@@Z$3 0045231b f   systeminfo.obj
 0001:00051326       __unwindfunclet$??$_Uninitialized_copy@PAVOSInfo@@V?$allocator@VOSInfo@@@std@@@std@@YAPAVOSInfo@@QAV1@0PAV1@AAV?$allocator@VOSInfo@@@0@@Z$4 00452326 f   systeminfo.obj
 0001:00051331       __unwindfunclet$??$_Uninitialized_copy@PAVOSInfo@@V?$allocator@VOSInfo@@@std@@@std@@YAPAVOSInfo@@QAV1@0PAV1@AAV?$allocator@VOSInfo@@@0@@Z$5 00452331 f   systeminfo.obj
 0001:0005133c       __unwindfunclet$??$_Uninitialized_copy@PAVOSInfo@@V?$allocator@VOSInfo@@@std@@@std@@YAPAVOSInfo@@QAV1@0PAV1@AAV?$allocator@VOSInfo@@@0@@Z$6 0045233c f   systeminfo.obj
 0001:00051347       __unwindfunclet$??$_Uninitialized_copy@PAVOSInfo@@V?$allocator@VOSInfo@@@std@@@std@@YAPAVOSInfo@@QAV1@0PAV1@AAV?$allocator@VOSInfo@@@0@@Z$7 00452347 f   systeminfo.obj
 0001:00051355       __unwindfunclet$??$_Uninitialized_copy@PAVOSInfo@@V?$allocator@VOSInfo@@@std@@@std@@YAPAVOSInfo@@QAV1@0PAV1@AAV?$allocator@VOSInfo@@@0@@Z$8 00452355 f   systeminfo.obj
 0001:00051363       __unwindfunclet$??$_Uninitialized_copy@PAVOSInfo@@V?$allocator@VOSInfo@@@std@@@std@@YAPAVOSInfo@@QAV1@0PAV1@AAV?$allocator@VOSInfo@@@0@@Z$9 00452363 f   systeminfo.obj
 0001:00051371       __unwindfunclet$??$_Uninitialized_copy@PAVOSInfo@@V?$allocator@VOSInfo@@@std@@@std@@YAPAVOSInfo@@QAV1@0PAV1@AAV?$allocator@VOSInfo@@@0@@Z$10 00452371 f   systeminfo.obj
 0001:0005137f       __unwindfunclet$??$_Uninitialized_copy@PAVOSInfo@@V?$allocator@VOSInfo@@@std@@@std@@YAPAVOSInfo@@QAV1@0PAV1@AAV?$allocator@VOSInfo@@@0@@Z$11 0045237f f   systeminfo.obj
 0001:0005138d       __unwindfunclet$??$_Uninitialized_copy@PAVOSInfo@@V?$allocator@VOSInfo@@@std@@@std@@YAPAVOSInfo@@QAV1@0PAV1@AAV?$allocator@VOSInfo@@@0@@Z$12 0045238d f   systeminfo.obj
 0001:0005139b       __unwindfunclet$??$_Uninitialized_copy@PAVOSInfo@@V?$allocator@VOSInfo@@@std@@@std@@YAPAVOSInfo@@QAV1@0PAV1@AAV?$allocator@VOSInfo@@@0@@Z$13 0045239b f   systeminfo.obj
 0001:000513ae       __ehhandler$??$_Uninitialized_copy@PAVOSInfo@@V?$allocator@VOSInfo@@@std@@@std@@YAPAVOSInfo@@QAV1@0PAV1@AAV?$allocator@VOSInfo@@@0@@Z 004523ae f   systeminfo.obj
 0001:000513e0       __unwindfunclet$??$?5DU?$char_traits@D@std@@V?$allocator@D@1@@std@@YAAAV?$basic_istream@DU?$char_traits@D@std@@@0@$$QAV10@AAV?$basic_string@DU?$char_traits@D@std@@V?$allocator@D@2@@0@@Z$4 004523e0 f   systeminfo.obj
 0001:000513e8       __unwindfunclet$??$?5DU?$char_traits@D@std@@V?$allocator@D@1@@std@@YAAAV?$basic_istream@DU?$char_traits@D@std@@@0@$$QAV10@AAV?$basic_string@DU?$char_traits@D@std@@V?$allocator@D@2@@0@@Z$2 004523e8 f   systeminfo.obj
 0001:000513f0       __unwindfunclet$??$?5DU?$char_traits@D@std@@V?$allocator@D@1@@std@@YAAAV?$basic_istream@DU?$char_traits@D@std@@@0@$$QAV10@AAV?$basic_string@DU?$char_traits@D@std@@V?$allocator@D@2@@0@@Z$3 004523f0 f   systeminfo.obj
 0001:000513fd       __ehhandler$??$?5DU?$char_traits@D@std@@V?$allocator@D@1@@std@@YAAAV?$basic_istream@DU?$char_traits@D@std@@@0@$$QAV10@AAV?$basic_string@DU?$char_traits@D@std@@V?$allocator@D@2@@0@@Z 004523fd f   systeminfo.obj
 0001:00051420       __ehhandler$??1sentry@?$basic_istream@DU?$char_traits@D@std@@@std@@QAE@XZ 00452420 f   systeminfo.obj
 0001:00051440       ??__FUnitNames@@YAXXZ      00452440 f   Main.obj
 0001:00051490       ??__F?TEMPERATURE_QUERY_STRING@CPUInfo@@0V?$basic_string@DU?$char_traits@D@std@@V?$allocator@D@2@@std@@B@@YAXXZ 00452490 f   systeminfo.obj
 0001:000514f0       ??__F?TEMPERATURE_ERROR_IDENTIFIER_STRING@CPUInfo@@0V?$basic_string@DU?$char_traits@D@std@@V?$allocator@D@2@@std@@B@@YAXXZ 004524f0 f   systeminfo.obj
 0001:00051550       ??__F?CLOCK_SPEED_QUERY_STRING@CPUInfo@@0V?$basic_string@DU?$char_traits@D@std@@V?$allocator@D@2@@std@@B@@YAXXZ 00452550 f   systeminfo.obj
 0001:000515b0       ??__F?CURRENT_CLOCK_SPEED_IDENTIFIER_STRING@CPUInfo@@0V?$basic_string@DU?$char_traits@D@std@@V?$allocator@D@2@@std@@B@@YAXXZ 004525b0 f   systeminfo.obj
 0001:00051610       ??__F?NAME_IDENTIFIER_STRING@CPUInfo@@0V?$basic_string@DU?$char_traits@D@std@@V?$allocator@D@2@@std@@B@@YAXXZ 00452610 f   systeminfo.obj
 0001:00051670       ??__F?NUMBER_OF_CORES_IDENTIFIER_STRING@CPUInfo@@0V?$basic_string@DU?$char_traits@D@std@@V?$allocator@D@2@@std@@B@@YAXXZ 00452670 f   systeminfo.obj
 0001:000516d0       ??__F?MANUFACTURER_IDENTIFIER_STRING@CPUInfo@@0V?$basic_string@DU?$char_traits@D@std@@V?$allocator@D@2@@std@@B@@YAXXZ 004526d0 f   systeminfo.obj
 0001:00051730       ??__F?ARCHITECTURE_IDENTIFIER_STRING@CPUInfo@@0V?$basic_string@DU?$char_traits@D@std@@V?$allocator@D@2@@std@@B@@YAXXZ 00452730 f   systeminfo.obj
 0001:00051790       ??__F?L2_CACHE_SIZE_IDENTIFIER_STRING@CPUInfo@@0V?$basic_string@DU?$char_traits@D@std@@V?$allocator@D@2@@std@@B@@YAXXZ 00452790 f   systeminfo.obj
 0001:000517f0       ??__F?L3_CACHE_SIZE_IDENTIFIER_STRING@CPUInfo@@0V?$basic_string@DU?$char_traits@D@std@@V?$allocator@D@2@@std@@B@@YAXXZ 004527f0 f   systeminfo.obj
 0001:00051850       ??__F?CPU_INFO_QUERY_STRING@CPUInfoDelegate@@0V?$basic_string@DU?$char_traits@D@std@@V?$allocator@D@2@@std@@B@@YAXXZ 00452850 f   systeminfo.obj
 0001:000518b0       ??__F?CPU_INSTANCE_QUERY_STRING@CPUInfoDelegate@@0V?$basic_string@DU?$char_traits@D@std@@V?$allocator@D@2@@std@@B@@YAXXZ 004528b0 f   systeminfo.obj
 0001:00051910       ??__F?CPU_INFO_END_IDENTIFIER_STRING@CPUInfoDelegate@@0V?$basic_string@DU?$char_traits@D@std@@V?$allocator@D@2@@std@@B@@YAXXZ 00452910 f   systeminfo.obj
 0001:00051970       ??__F?NVIDIA_IDENTIFIER_STRING@GPUInfo@@0V?$basic_string@DU?$char_traits@D@std@@V?$allocator@D@2@@std@@B@@YAXXZ 00452970 f   systeminfo.obj
 0001:000519d0       ??__F?INTEL_IDENTIFIER_STRING@GPUInfo@@0V?$basic_string@DU?$char_traits@D@std@@V?$allocator@D@2@@std@@B@@YAXXZ 004529d0 f   systeminfo.obj
 0001:00051a30       ??__F?AMD_IDENTIFIER_STRING@GPUInfo@@0V?$basic_string@DU?$char_traits@D@std@@V?$allocator@D@2@@std@@B@@YAXXZ 00452a30 f   systeminfo.obj
 0001:00051a90       ??__F?NAME_IDENTIFIER_STRING@GPUInfo@@0V?$basic_string@DU?$char_traits@D@std@@V?$allocator@D@2@@std@@B@@YAXXZ 00452a90 f   systeminfo.obj
 0001:00051af0       ??__F?MANUFACTURER_IDENTIFIER_STRING@GPUInfo@@0V?$basic_string@DU?$char_traits@D@std@@V?$allocator@D@2@@std@@B@@YAXXZ 00452af0 f   systeminfo.obj
 0001:00051b50       ??__F?ADAPTER_RAM_IDENTIFIER_STRING@GPUInfo@@0V?$basic_string@DU?$char_traits@D@std@@V?$allocator@D@2@@std@@B@@YAXXZ 00452b50 f   systeminfo.obj
 0001:00051bb0       ??__F?REFRESH_RATE_IDENTIFIER_STRING@GPUInfo@@0V?$basic_string@DU?$char_traits@D@std@@V?$allocator@D@2@@std@@B@@YAXXZ 00452bb0 f   systeminfo.obj
 0001:00051c10       ??__F?DRIVER_VERSION_IDENTIFIER_STRING@GPUInfo@@0V?$basic_string@DU?$char_traits@D@std@@V?$allocator@D@2@@std@@B@@YAXXZ 00452c10 f   systeminfo.obj
 0001:00051c70       ??__F?VIDEO_ARCHITECTURE_IDENTIFIER_STRING@GPUInfo@@0V?$basic_string@DU?$char_traits@D@std@@V?$allocator@D@2@@std@@B@@YAXXZ 00452c70 f   systeminfo.obj
 0001:00051cd0       ??__F?VIDEO_MEMORY_TYPE_IDENTIFIER_STRING@GPUInfo@@0V?$basic_string@DU?$char_traits@D@std@@V?$allocator@D@2@@std@@B@@YAXXZ 00452cd0 f   systeminfo.obj
 0001:00051d30       ??__F?VIDEO_MODE_DESCRIPTION_IDENTIFIER_STRING@GPUInfo@@0V?$basic_string@DU?$char_traits@D@std@@V?$allocator@D@2@@std@@B@@YAXXZ 00452d30 f   systeminfo.obj
 0001:00051d90       ??__F?VIDEO_PROCESSOR_IDENTIFIER_STRING@GPUInfo@@0V?$basic_string@DU?$char_traits@D@std@@V?$allocator@D@2@@std@@B@@YAXXZ 00452d90 f   systeminfo.obj
 0001:00051df0       ??__F?CAPTION_IDENTIFIER_STRING@GPUInfo@@0V?$basic_string@DU?$char_traits@D@std@@V?$allocator@D@2@@std@@B@@YAXXZ 00452df0 f   systeminfo.obj
 0001:00051e50       ??__F?GPU_INFO_QUERY_STRING@GPUInfoDelegate@@0V?$basic_string@DU?$char_traits@D@std@@V?$allocator@D@2@@std@@B@@YAXXZ 00452e50 f   systeminfo.obj
 0001:00051eb0       ??__F?GPU_INSTANCE_QUERY_STRING@GPUInfoDelegate@@0V?$basic_string@DU?$char_traits@D@std@@V?$allocator@D@2@@std@@B@@YAXXZ 00452eb0 f   systeminfo.obj
 0001:00051f10       ??__F?GPU_INFO_END_IDENTIFIER_STRING@GPUInfoDelegate@@0V?$basic_string@DU?$char_traits@D@std@@V?$allocator@D@2@@std@@B@@YAXXZ 00452f10 f   systeminfo.obj
 0001:00051f70       ??__F?CHIPSET_QUERY_STRING@MotherboardInfo@@0V?$basic_string@DU?$char_traits@D@std@@V?$allocator@D@2@@std@@B@@YAXXZ 00452f70 f   systeminfo.obj
 0001:00051fd0       ??__F?NAME_IDENTIFIER_STRING@MotherboardInfo@@0V?$basic_string@DU?$char_traits@D@std@@V?$allocator@D@2@@std@@B@@YAXXZ 00452fd0 f   systeminfo.obj
 0001:00052030       ??__F?MANUFACTURER_IDENTIFIER_STRING@MotherboardInfo@@0V?$basic_string@DU?$char_traits@D@std@@V?$allocator@D@2@@std@@B@@YAXXZ 00453030 f   systeminfo.obj
 0001:00052090       ??__F?CHIPSET_IDENTIFIER_STRING@MotherboardInfo@@0V?$basic_string@DU?$char_traits@D@std@@V?$allocator@D@2@@std@@B@@YAXXZ 00453090 f   systeminfo.obj
 0001:000520f0       ??__F?CHIPSET_END_IDENTIFIER_STRING@MotherboardInfo@@0V?$basic_string@DU?$char_traits@D@std@@V?$allocator@D@2@@std@@B@@YAXXZ 004530f0 f   systeminfo.obj
 0001:00052150       ??__F?SERIAL_NUMBER_IDENTIFIER_STRING@MotherboardInfo@@0V?$basic_string@DU?$char_traits@D@std@@V?$allocator@D@2@@std@@B@@YAXXZ 00453150 f   systeminfo.obj
 0001:000521b0       ??__F?VERSION_IDENTIFIER_STRING@MotherboardInfo@@0V?$basic_string@DU?$char_traits@D@std@@V?$allocator@D@2@@std@@B@@YAXXZ 004531b0 f   systeminfo.obj
 0001:00052210       ??__F?MOTHERBOARD_INFO_QUERY_STRING@MotherboardInfoDelegate@@0V?$basic_string@DU?$char_traits@D@std@@V?$allocator@D@2@@std@@B@@YAXXZ 00453210 f   systeminfo.obj
 0001:00052270       ??__F?MOTHERBOARD_INSTANCE_QUERY_STRING@MotherboardInfoDelegate@@0V?$basic_string@DU?$char_traits@D@std@@V?$allocator@D@2@@std@@B@@YAXXZ 00453270 f   systeminfo.obj
 0001:000522d0       ??__F?MOTHERBOARD_INFO_END_IDENTIFIER_STRING@MotherboardInfoDelegate@@0V?$basic_string@DU?$char_traits@D@std@@V?$allocator@D@2@@std@@B@@YAXXZ 004532d0 f   systeminfo.obj
 0001:00052330       ??__F?ARCHITECTURE_IDENTIFIER_STRING@OSInfo@@0V?$basic_string@DU?$char_traits@D@std@@V?$allocator@D@2@@std@@B@@YAXXZ 00453330 f   systeminfo.obj
 0001:00052390       ??__F?CAPTION_INDENTIFIER_STRING@OSInfo@@0V?$basic_string@DU?$char_traits@D@std@@V?$allocator@D@2@@std@@B@@YAXXZ 00453390 f   systeminfo.obj
 0001:000523f0       ??__F?NAME_IDENTIFIER_STRING@OSInfo@@0V?$basic_string@DU?$char_traits@D@std@@V?$allocator@D@2@@std@@B@@YAXXZ 004533f0 f   systeminfo.obj
 0001:00052450       ??__F?MANUFACTURER_IDENTIFIER_STRING@OSInfo@@0V?$basic_string@DU?$char_traits@D@std@@V?$allocator@D@2@@std@@B@@YAXXZ 00453450 f   systeminfo.obj
 0001:000524b0       ??__F?VERSION_IDENTIFIER_STRING@OSInfo@@0V?$basic_string@DU?$char_traits@D@std@@V?$allocator@D@2@@std@@B@@YAXXZ 004534b0 f   systeminfo.obj
 0001:00052510       ??__F?CURRENT_USER_IDENTIFIER_STRING@OSInfo@@0V?$basic_string@DU?$char_traits@D@std@@V?$allocator@D@2@@std@@B@@YAXXZ 00453510 f   systeminfo.obj
 0001:00052570       ??__F?INSTALL_DATE_IDENTIFIER_STRING@OSInfo@@0V?$basic_string@DU?$char_traits@D@std@@V?$allocator@D@2@@std@@B@@YAXXZ 00453570 f   systeminfo.obj
 0001:000525d0       ??__F?BUILD_NUMBER_IDENTIFIER_STRING@OSInfo@@0V?$basic_string@DU?$char_traits@D@std@@V?$allocator@D@2@@std@@B@@YAXXZ 004535d0 f   systeminfo.obj
 0001:00052630       ??__F?LAST_BOOT_UP_TIME_IDENTIFIER_STRING@OSInfo@@0V?$basic_string@DU?$char_traits@D@std@@V?$allocator@D@2@@std@@B@@YAXXZ 00453630 f   systeminfo.obj
 0001:00052690       ??__F?BOOT_DEVICE_IDENTIFIER_STRING@OSInfo@@0V?$basic_string@DU?$char_traits@D@std@@V?$allocator@D@2@@std@@B@@YAXXZ 00453690 f   systeminfo.obj
 0001:000526f0       ??__F?SERIAL_NUMBER_IDENTIFIER_STRING@OSInfo@@0V?$basic_string@DU?$char_traits@D@std@@V?$allocator@D@2@@std@@B@@YAXXZ 004536f0 f   systeminfo.obj
 0001:00052750       ??__F?TOTAL_VIRTUAL_MEMORY_SIZE_IDENTIFIER_STRING@OSInfo@@0V?$basic_string@DU?$char_traits@D@std@@V?$allocator@D@2@@std@@B@@YAXXZ 00453750 f   systeminfo.obj
 0001:000527b0       ??__F?TOTAL_VISIBLE_MEMORY_SIZE_IDENTIFIER_STRING@OSInfo@@0V?$basic_string@DU?$char_traits@D@std@@V?$allocator@D@2@@std@@B@@YAXXZ 004537b0 f   systeminfo.obj
 0001:00052810       ??__F?TOTAL_SWAP_SIZE_IDENTIFIER_STRING@OSInfo@@0V?$basic_string@DU?$char_traits@D@std@@V?$allocator@D@2@@std@@B@@YAXXZ 00453810 f   systeminfo.obj
 0001:00052870       ??__F?FREE_PHYSICAL_MEMORY_IDENTIFIER_STRING@OSInfo@@0V?$basic_string@DU?$char_traits@D@std@@V?$allocator@D@2@@std@@B@@YAXXZ 00453870 f   systeminfo.obj
 0001:000528d0       ??__F?FREE_PHYSICAL_MEMORY_QUERY_STRING@OSInfo@@0V?$basic_string@DU?$char_traits@D@std@@V?$allocator@D@2@@std@@B@@YAXXZ 004538d0 f   systeminfo.obj
 0001:00052930       ??__F?FREE_VIRTUAL_MEMORY_IDENTIFIER_STRING@OSInfo@@0V?$basic_string@DU?$char_traits@D@std@@V?$allocator@D@2@@std@@B@@YAXXZ 00453930 f   systeminfo.obj
 0001:00052990       ??__F?FREE_VIRTUAL_MEMORY_QUERY_STRING@OSInfo@@0V?$basic_string@DU?$char_traits@D@std@@V?$allocator@D@2@@std@@B@@YAXXZ 00453990 f   systeminfo.obj
 0001:000529f0       ??__F?FREE_SPACE_IN_PAGING_FILES_IDENTIFIER_STRING@OSInfo@@0V?$basic_string@DU?$char_traits@D@std@@V?$allocator@D@2@@std@@B@@YAXXZ 004539f0 f   systeminfo.obj
 0001:00052a50       ??__F?FREE_SPACE_IN_PAGING_FILES_QUERY_STRING@OSInfo@@0V?$basic_string@DU?$char_traits@D@std@@V?$allocator@D@2@@std@@B@@YAXXZ 00453a50 f   systeminfo.obj
 0001:00052ab0       ??__F?USED_SPACE_IN_PAGING_FILE_IDENTIFIER_STRING@OSInfo@@0V?$basic_string@DU?$char_traits@D@std@@V?$allocator@D@2@@std@@B@@YAXXZ 00453ab0 f   systeminfo.obj
 0001:00052b10       ??__F?USED_SPACE_IN_PAGING_FILE_QUERY_STRING@OSInfo@@0V?$basic_string@DU?$char_traits@D@std@@V?$allocator@D@2@@std@@B@@YAXXZ 00453b10 f   systeminfo.obj
 0001:00052b70       ??__F?CURRENT_DATE_TIME_IDENTIFIER_STRING@OSInfo@@0V?$basic_string@DU?$char_traits@D@std@@V?$allocator@D@2@@std@@B@@YAXXZ 00453b70 f   systeminfo.obj
 0001:00052bd0       ??__F?CURRENT_DATE_TIME_QUERY_STRING@OSInfo@@0V?$basic_string@DU?$char_traits@D@std@@V?$allocator@D@2@@std@@B@@YAXXZ 00453bd0 f   systeminfo.obj
 0001:00052c30       ??__F?OS_INFO_QUERY_STRING@OSInfoDelegate@@0V?$basic_string@DU?$char_traits@D@std@@V?$allocator@D@2@@std@@B@@YAXXZ 00453c30 f   systeminfo.obj
 0001:00052c90       ??__F?OS_INSTANCE_QUERY_STRING@OSInfoDelegate@@0V?$basic_string@DU?$char_traits@D@std@@V?$allocator@D@2@@std@@B@@YAXXZ 00453c90 f   systeminfo.obj
 0001:00052cf0       ??__F?OS_INFO_END_IDENTIFIER_STRING@OSInfoDelegate@@0V?$basic_string@DU?$char_traits@D@std@@V?$allocator@D@2@@std@@B@@YAXXZ 00453cf0 f   systeminfo.obj
 0001:00052d50       ??__F?NAME_IDENTIFIER_STRING@RAMInfo@@0V?$basic_string@DU?$char_traits@D@std@@V?$allocator@D@2@@std@@B@@YAXXZ 00453d50 f   systeminfo.obj
 0001:00052db0       ??__F?MANUFACTURER_IDENTIFIER_STRING@RAMInfo@@0V?$basic_string@DU?$char_traits@D@std@@V?$allocator@D@2@@std@@B@@YAXXZ 00453db0 f   systeminfo.obj
 0001:00052e10       ??__F?CAPACITY_IDENTIFIER_STRING@RAMInfo@@0V?$basic_string@DU?$char_traits@D@std@@V?$allocator@D@2@@std@@B@@YAXXZ 00453e10 f   systeminfo.obj
 0001:00052e70       ??__F?SERIAL_NUMBER_IDENTIFIER_STRING@RAMInfo@@0V?$basic_string@DU?$char_traits@D@std@@V?$allocator@D@2@@std@@B@@YAXXZ 00453e70 f   systeminfo.obj
 0001:00052ed0       ??__F?FORM_FACTOR_IDENTIFIER_STRING@RAMInfo@@0V?$basic_string@DU?$char_traits@D@std@@V?$allocator@D@2@@std@@B@@YAXXZ 00453ed0 f   systeminfo.obj
 0001:00052f30       ??__F?PART_NUMBER_IDENTIFIER_STRING@RAMInfo@@0V?$basic_string@DU?$char_traits@D@std@@V?$allocator@D@2@@std@@B@@YAXXZ 00453f30 f   systeminfo.obj
 0001:00052f90       ??__F?MEMORY_TYPE_IDENTIFIER_STRING@RAMInfo@@0V?$basic_string@DU?$char_traits@D@std@@V?$allocator@D@2@@std@@B@@YAXXZ 00453f90 f   systeminfo.obj
 0001:00052ff0       ??__F?CLOCK_SPEED_IDENTIFIER_STRING@RAMInfo@@0V?$basic_string@DU?$char_traits@D@std@@V?$allocator@D@2@@std@@B@@YAXXZ 00453ff0 f   systeminfo.obj
 0001:00053050       ??__F?BACKUP_CLOCK_SPEED_IDENTIFIER_STRING@RAMInfo@@0V?$basic_string@DU?$char_traits@D@std@@V?$allocator@D@2@@std@@B@@YAXXZ 00454050 f   systeminfo.obj
 0001:000530b0       ??__F?RAM_INFO_QUERY_STRING@RAMInfoDelegate@@0V?$basic_string@DU?$char_traits@D@std@@V?$allocator@D@2@@std@@B@@YAXXZ 004540b0 f   systeminfo.obj
 0001:00053110       ??__F?RAM_INSTANCE_QUERY_STRING@RAMInfoDelegate@@0V?$basic_string@DU?$char_traits@D@std@@V?$allocator@D@2@@std@@B@@YAXXZ 00454110 f   systeminfo.obj
 0001:00053170       ??__F?RAM_INFO_END_IDENTIFIER_STRING@RAMInfoDelegate@@0V?$basic_string@DU?$char_traits@D@std@@V?$allocator@D@2@@std@@B@@YAXXZ 00454170 f   systeminfo.obj
 0001:000531c7       ??__F_Fac_tidy_reg@std@@YAXXZ 004541c7 f   msvcprt:locale0_implib.obj
 0002:000004c0       ?pre_cpp_initializer@@3P6AXXZA 004554c0     MSVCRT:exe_winmain.obj
 0002:000004c4       ?_Fac_tidy_reg$initializer$@std@@3P6AXXZA 004554c4     msvcprt:locale0_implib.obj
 0002:000004c8       ?g_hWarcraftWnd$initializer$@@3P6AXXZA 004554c8     Main.obj
 0002:000004cc       ?UnitNames$initializer$@@3P6AXXZA 004554cc     Main.obj
 0002:000004d0       ??TEMPERATURE_QUERY_STRING$initializer$@CPUInfo@@0P6AXXZA@@3P6AXXZA 004554d0     systeminfo.obj
 0002:000004d4       ??TEMPERATURE_ERROR_IDENTIFIER_STRING$initializer$@CPUInfo@@0P6AXXZA@@3P6AXXZA 004554d4     systeminfo.obj
 0002:000004d8       ??CLOCK_SPEED_QUERY_STRING$initializer$@CPUInfo@@0P6AXXZA@@3P6AXXZA 004554d8     systeminfo.obj
 0002:000004dc       ??CURRENT_CLOCK_SPEED_IDENTIFIER_STRING$initializer$@CPUInfo@@0P6AXXZA@@3P6AXXZA 004554dc     systeminfo.obj
 0002:000004e0       ??NAME_IDENTIFIER_STRING$initializer$@CPUInfo@@0P6AXXZA@@3P6AXXZA 004554e0     systeminfo.obj
 0002:000004e4       ??NUMBER_OF_CORES_IDENTIFIER_STRING$initializer$@CPUInfo@@0P6AXXZA@@3P6AXXZA 004554e4     systeminfo.obj
 0002:000004e8       ??MANUFACTURER_IDENTIFIER_STRING$initializer$@CPUInfo@@0P6AXXZA@@3P6AXXZA 004554e8     systeminfo.obj
 0002:000004ec       ??ARCHITECTURE_IDENTIFIER_STRING$initializer$@CPUInfo@@0P6AXXZA@@3P6AXXZA 004554ec     systeminfo.obj
 0002:000004f0       ??L2_CACHE_SIZE_IDENTIFIER_STRING$initializer$@CPUInfo@@0P6AXXZA@@3P6AXXZA 004554f0     systeminfo.obj
 0002:000004f4       ??L3_CACHE_SIZE_IDENTIFIER_STRING$initializer$@CPUInfo@@0P6AXXZA@@3P6AXXZA 004554f4     systeminfo.obj
 0002:000004f8       ??CPU_INFO_QUERY_STRING$initializer$@CPUInfoDelegate@@0P6AXXZA@@3P6AXXZA 004554f8     systeminfo.obj
 0002:000004fc       ??CPU_INSTANCE_QUERY_STRING$initializer$@CPUInfoDelegate@@0P6AXXZA@@3P6AXXZA 004554fc     systeminfo.obj
 0002:00000500       ??CPU_INFO_END_IDENTIFIER_STRING$initializer$@CPUInfoDelegate@@0P6AXXZA@@3P6AXXZA 00455500     systeminfo.obj
 0002:00000504       ??NVIDIA_IDENTIFIER_STRING$initializer$@GPUInfo@@0P6AXXZA@@3P6AXXZA 00455504     systeminfo.obj
 0002:00000508       ??INTEL_IDENTIFIER_STRING$initializer$@GPUInfo@@0P6AXXZA@@3P6AXXZA 00455508     systeminfo.obj
 0002:0000050c       ??AMD_IDENTIFIER_STRING$initializer$@GPUInfo@@0P6AXXZA@@3P6AXXZA 0045550c     systeminfo.obj
 0002:00000510       ??NAME_IDENTIFIER_STRING$initializer$@GPUInfo@@0P6AXXZA@@3P6AXXZA 00455510     systeminfo.obj
 0002:00000514       ??MANUFACTURER_IDENTIFIER_STRING$initializer$@GPUInfo@@0P6AXXZA@@3P6AXXZA 00455514     systeminfo.obj
 0002:00000518       ??ADAPTER_RAM_IDENTIFIER_STRING$initializer$@GPUInfo@@0P6AXXZA@@3P6AXXZA 00455518     systeminfo.obj
 0002:0000051c       ??REFRESH_RATE_IDENTIFIER_STRING$initializer$@GPUInfo@@0P6AXXZA@@3P6AXXZA 0045551c     systeminfo.obj
 0002:00000520       ??DRIVER_VERSION_IDENTIFIER_STRING$initializer$@GPUInfo@@0P6AXXZA@@3P6AXXZA 00455520     systeminfo.obj
 0002:00000524       ??VIDEO_ARCHITECTURE_IDENTIFIER_STRING$initializer$@GPUInfo@@0P6AXXZA@@3P6AXXZA 00455524     systeminfo.obj
 0002:00000528       ??VIDEO_MEMORY_TYPE_IDENTIFIER_STRING$initializer$@GPUInfo@@0P6AXXZA@@3P6AXXZA 00455528     systeminfo.obj
 0002:0000052c       ??VIDEO_MODE_DESCRIPTION_IDENTIFIER_STRING$initializer$@GPUInfo@@0P6AXXZA@@3P6AXXZA 0045552c     systeminfo.obj
 0002:00000530       ??VIDEO_PROCESSOR_IDENTIFIER_STRING$initializer$@GPUInfo@@0P6AXXZA@@3P6AXXZA 00455530     systeminfo.obj
 0002:00000534       ??CAPTION_IDENTIFIER_STRING$initializer$@GPUInfo@@0P6AXXZA@@3P6AXXZA 00455534     systeminfo.obj
 0002:00000538       ??GPU_INFO_QUERY_STRING$initializer$@GPUInfoDelegate@@0P6AXXZA@@3P6AXXZA 00455538     systeminfo.obj
 0002:0000053c       ??GPU_INSTANCE_QUERY_STRING$initializer$@GPUInfoDelegate@@0P6AXXZA@@3P6AXXZA 0045553c     systeminfo.obj
 0002:00000540       ??GPU_INFO_END_IDENTIFIER_STRING$initializer$@GPUInfoDelegate@@0P6AXXZA@@3P6AXXZA 00455540     systeminfo.obj
 0002:00000544       ??CHIPSET_QUERY_STRING$initializer$@MotherboardInfo@@0P6AXXZA@@3P6AXXZA 00455544     systeminfo.obj
 0002:00000548       ??NAME_IDENTIFIER_STRING$initializer$@MotherboardInfo@@0P6AXXZA@@3P6AXXZA 00455548     systeminfo.obj
 0002:0000054c       ??MANUFACTURER_IDENTIFIER_STRING$initializer$@MotherboardInfo@@0P6AXXZA@@3P6AXXZA 0045554c     systeminfo.obj
 0002:00000550       ??CHIPSET_IDENTIFIER_STRING$initializer$@MotherboardInfo@@0P6AXXZA@@3P6AXXZA 00455550     systeminfo.obj
 0002:00000554       ??CHIPSET_END_IDENTIFIER_STRING$initializer$@MotherboardInfo@@0P6AXXZA@@3P6AXXZA 00455554     systeminfo.obj
 0002:00000558       ??SERIAL_NUMBER_IDENTIFIER_STRING$initializer$@MotherboardInfo@@0P6AXXZA@@3P6AXXZA 00455558     systeminfo.obj
 0002:0000055c       ??VERSION_IDENTIFIER_STRING$initializer$@MotherboardInfo@@0P6AXXZA@@3P6AXXZA 0045555c     systeminfo.obj
 0002:00000560       ??MOTHERBOARD_INFO_QUERY_STRING$initializer$@MotherboardInfoDelegate@@0P6AXXZA@@3P6AXXZA 00455560     systeminfo.obj
 0002:00000564       ??MOTHERBOARD_INSTANCE_QUERY_STRING$initializer$@MotherboardInfoDelegate@@0P6AXXZA@@3P6AXXZA 00455564     systeminfo.obj
 0002:00000568       ??MOTHERBOARD_INFO_END_IDENTIFIER_STRING$initializer$@MotherboardInfoDelegate@@0P6AXXZA@@3P6AXXZA 00455568     systeminfo.obj
 0002:0000056c       ??ARCHITECTURE_IDENTIFIER_STRING$initializer$@OSInfo@@0P6AXXZA@@3P6AXXZA 0045556c     systeminfo.obj
 0002:00000570       ??CAPTION_INDENTIFIER_STRING$initializer$@OSInfo@@0P6AXXZA@@3P6AXXZA 00455570     systeminfo.obj
 0002:00000574       ??NAME_IDENTIFIER_STRING$initializer$@OSInfo@@0P6AXXZA@@3P6AXXZA 00455574     systeminfo.obj
 0002:00000578       ??MANUFACTURER_IDENTIFIER_STRING$initializer$@OSInfo@@0P6AXXZA@@3P6AXXZA 00455578     systeminfo.obj
 0002:0000057c       ??VERSION_IDENTIFIER_STRING$initializer$@OSInfo@@0P6AXXZA@@3P6AXXZA 0045557c     systeminfo.obj
 0002:00000580       ??CURRENT_USER_IDENTIFIER_STRING$initializer$@OSInfo@@0P6AXXZA@@3P6AXXZA 00455580     systeminfo.obj
 0002:00000584       ??INSTALL_DATE_IDENTIFIER_STRING$initializer$@OSInfo@@0P6AXXZA@@3P6AXXZA 00455584     systeminfo.obj
 0002:00000588       ??BUILD_NUMBER_IDENTIFIER_STRING$initializer$@OSInfo@@0P6AXXZA@@3P6AXXZA 00455588     systeminfo.obj
 0002:0000058c       ??LAST_BOOT_UP_TIME_IDENTIFIER_STRING$initializer$@OSInfo@@0P6AXXZA@@3P6AXXZA 0045558c     systeminfo.obj
 0002:00000590       ??BOOT_DEVICE_IDENTIFIER_STRING$initializer$@OSInfo@@0P6AXXZA@@3P6AXXZA 00455590     systeminfo.obj
 0002:00000594       ??SERIAL_NUMBER_IDENTIFIER_STRING$initializer$@OSInfo@@0P6AXXZA@@3P6AXXZA 00455594     systeminfo.obj
 0002:00000598       ??TOTAL_VIRTUAL_MEMORY_SIZE_IDENTIFIER_STRING$initializer$@OSInfo@@0P6AXXZA@@3P6AXXZA 00455598     systeminfo.obj
 0002:0000059c       ??TOTAL_VISIBLE_MEMORY_SIZE_IDENTIFIER_STRING$initializer$@OSInfo@@0P6AXXZA@@3P6AXXZA 0045559c     systeminfo.obj
 0002:000005a0       ??TOTAL_SWAP_SIZE_IDENTIFIER_STRING$initializer$@OSInfo@@0P6AXXZA@@3P6AXXZA 004555a0     systeminfo.obj
 0002:000005a4       ??FREE_PHYSICAL_MEMORY_IDENTIFIER_STRING$initializer$@OSInfo@@0P6AXXZA@@3P6AXXZA 004555a4     systeminfo.obj
 0002:000005a8       ??FREE_PHYSICAL_MEMORY_QUERY_STRING$initializer$@OSInfo@@0P6AXXZA@@3P6AXXZA 004555a8     systeminfo.obj
 0002:000005ac       ??FREE_VIRTUAL_MEMORY_IDENTIFIER_STRING$initializer$@OSInfo@@0P6AXXZA@@3P6AXXZA 004555ac     systeminfo.obj
 0002:000005b0       ??FREE_VIRTUAL_MEMORY_QUERY_STRING$initializer$@OSInfo@@0P6AXXZA@@3P6AXXZA 004555b0     systeminfo.obj
 0002:000005b4       ??FREE_SPACE_IN_PAGING_FILES_IDENTIFIER_STRING$initializer$@OSInfo@@0P6AXXZA@@3P6AXXZA 004555b4     systeminfo.obj
 0002:000005b8       ??FREE_SPACE_IN_PAGING_FILES_QUERY_STRING$initializer$@OSInfo@@0P6AXXZA@@3P6AXXZA 004555b8     systeminfo.obj
 0002:000005bc       ??USED_SPACE_IN_PAGING_FILE_IDENTIFIER_STRING$initializer$@OSInfo@@0P6AXXZA@@3P6AXXZA 004555bc     systeminfo.obj
 0002:000005c0       ??USED_SPACE_IN_PAGING_FILE_QUERY_STRING$initializer$@OSInfo@@0P6AXXZA@@3P6AXXZA 004555c0     systeminfo.obj
 0002:000005c4       ??CURRENT_DATE_TIME_IDENTIFIER_STRING$initializer$@OSInfo@@0P6AXXZA@@3P6AXXZA 004555c4     systeminfo.obj
 0002:000005c8       ??CURRENT_DATE_TIME_QUERY_STRING$initializer$@OSInfo@@0P6AXXZA@@3P6AXXZA 004555c8     systeminfo.obj
 0002:000005cc       ??OS_INFO_QUERY_STRING$initializer$@OSInfoDelegate@@0P6AXXZA@@3P6AXXZA 004555cc     systeminfo.obj
 0002:000005d0       ??OS_INSTANCE_QUERY_STRING$initializer$@OSInfoDelegate@@0P6AXXZA@@3P6AXXZA 004555d0     systeminfo.obj
 0002:000005d4       ??OS_INFO_END_IDENTIFIER_STRING$initializer$@OSInfoDelegate@@0P6AXXZA@@3P6AXXZA 004555d4     systeminfo.obj
 0002:000005d8       ??NAME_IDENTIFIER_STRING$initializer$@RAMInfo@@0P6AXXZA@@3P6AXXZA 004555d8     systeminfo.obj
 0002:000005dc       ??MANUFACTURER_IDENTIFIER_STRING$initializer$@RAMInfo@@0P6AXXZA@@3P6AXXZA 004555dc     systeminfo.obj
 0002:000005e0       ??CAPACITY_IDENTIFIER_STRING$initializer$@RAMInfo@@0P6AXXZA@@3P6AXXZA 004555e0     systeminfo.obj
 0002:000005e4       ??SERIAL_NUMBER_IDENTIFIER_STRING$initializer$@RAMInfo@@0P6AXXZA@@3P6AXXZA 004555e4     systeminfo.obj
 0002:000005e8       ??FORM_FACTOR_IDENTIFIER_STRING$initializer$@RAMInfo@@0P6AXXZA@@3P6AXXZA 004555e8     systeminfo.obj
 0002:000005ec       ??PART_NUMBER_IDENTIFIER_STRING$initializer$@RAMInfo@@0P6AXXZA@@3P6AXXZA 004555ec     systeminfo.obj
 0002:000005f0       ??MEMORY_TYPE_IDENTIFIER_STRING$initializer$@RAMInfo@@0P6AXXZA@@3P6AXXZA 004555f0     systeminfo.obj
 0002:000005f4       ??CLOCK_SPEED_IDENTIFIER_STRING$initializer$@RAMInfo@@0P6AXXZA@@3P6AXXZA 004555f4     systeminfo.obj
 0002:000005f8       ??BACKUP_CLOCK_SPEED_IDENTIFIER_STRING$initializer$@RAMInfo@@0P6AXXZA@@3P6AXXZA 004555f8     systeminfo.obj
 0002:000005fc       ??RAM_INFO_QUERY_STRING$initializer$@RAMInfoDelegate@@0P6AXXZA@@3P6AXXZA 004555fc     systeminfo.obj
 0002:00000600       ??RAM_INSTANCE_QUERY_STRING$initializer$@RAMInfoDelegate@@0P6AXXZA@@3P6AXXZA 00455600     systeminfo.obj
 0002:00000604       ??RAM_INFO_END_IDENTIFIER_STRING$initializer$@RAMInfoDelegate@@0P6AXXZA@@3P6AXXZA 00455604     systeminfo.obj
 0002:00000610       ?pre_c_initializer@@3P6AHXZA 00455610     MSVCRT:exe_winmain.obj
 0002:00000614       ?post_pgo_initializer@@3P6AHXZA 00455614     MSVCRT:exe_winmain.obj
 0002:00000638       _GS_ExceptionPointers      00455638     MSVCRT:gs_report.obj
 0002:000006c8       ?finit@?1??mstate@@9@9     004556c8     libcurl:multi.obj
 0002:00000710       ?none@?3??Curl_update_timer@@9@9 00455710     libcurl:multi.obj
 0002:00000bb0       ?ctts@?1??Curl_mime_contenttype@@9@9 00455bb0     libcurl:mime.obj
 0002:00000c00       _encoders                  00455c00     libcurl:mime.obj
 0002:00000c48       _base64                    00455c48     libcurl:mime.obj
 0002:00000c90       _qp_class                  00455c90     libcurl:mime.obj
 0002:00000d90       _aschex                    00455d90     libcurl:mime.obj
 0002:00001050       _protocols                 00456050     libcurl:url.obj
 0002:00001090       _Curl_handler_dummy        00456090     libcurl:url.obj
 0002:000017f8       ?s_infotype@?2??Curl_debug@@9@9 004567f8     libcurl:sendf.obj
 0002:00001e48       _identity_encoding         00456e48     libcurl:content_encoding.obj
 0002:00001e60       _encodings                 00456e60     libcurl:content_encoding.obj
 0002:00001e68       _client_encoding           00456e68     libcurl:content_encoding.obj
 0002:00001e80       _error_encoding            00456e80     libcurl:content_encoding.obj
 0002:000020b8       ?KEY_NOTUSED@?1??Curl_splayinsert@@9@9 004570b8     libcurl:splay.obj
 0002:00003ba4       ?lookup@?DF@??Curl_SOCKS5@@9@9 00458ba4     libcurl:socks.obj
 0002:000040d0       _lower_digits              004590d0     libcurl:mprintf.obj
 0002:000040f8       _upper_digits              004590f8     libcurl:mprintf.obj
 0002:00004120       ?null@?CE@??dprintf_formatf@@9@9 00459120     libcurl:mprintf.obj
 0002:00004128       ?strnil@?DA@??dprintf_formatf@@9@9 00459128     libcurl:mprintf.obj
 0002:00004150       ?digits@?1??inet_pton4@@9@9 00459150     libcurl:inet_pton.obj
 0002:0000415c       ?xdigits_l@?1??inet_pton6@@9@9 0045915c     libcurl:inet_pton.obj
 0002:00004170       ?xdigits_u@?1??inet_pton6@@9@9 00459170     libcurl:inet_pton.obj
 0002:000041d4       _weekday                   004591d4     libcurl:parsedate.obj
 0002:000041f0       _tz                        004591f0     libcurl:parsedate.obj
 0002:0000452c       ?month_days_cumulative@?1??time2epoch@@9@9 0045952c     libcurl:parsedate.obj
 0002:00004700       _saslimap                  00459700     libcurl:imap.obj
 0002:00004bc0       _saslpop3                  00459bc0     libcurl:pop3.obj
 0002:00004cf8       _saslsmtp                  00459cf8     libcurl:smtp.obj
 0002:00005228       ?ftpauth@?1??ftp_statemachine@@9@9 0045a228     libcurl:ftp.obj
 0002:0000527c       ?mode@?1??ftp_state_use_port@@9@9 0045a27c     libcurl:ftp.obj
 0002:00005288       ?mode@?1??ftp_state_use_pasv@@9@9 0045a288     libcurl:ftp.obj
 0002:00006068       _telnetoptions             0045b068     libcurl:telnet.obj
 0002:00006108       _telnetcmds                0045b108     libcurl:telnet.obj
 0002:000071dc       ?badbytes@?2??junkscan@@9@9 0045c1dc     libcurl:urlapi.obj
 0002:00007308       _ascii                     0045c308     libcurl:curl_ctype.obj
 0002:000087c4       _errors                    0045d7c4     libcurl:doh.obj
 0002:000089d0       _base64                    0045d9d0     libcurl:base64.obj
 0002:00008a18       _base64url                 0045da18     libcurl:base64.obj
 0002:00008a6c       ?type2_marker@?1??Curl_auth_decode_ntlm_type2_message@@9@9 0045da6c     libcurl:ntlm.obj
 0002:00008f18       _mechtable                 0045df18     libcurl:curl_sasl.obj
 0002:000090b4       ?magic@?1??Curl_ntlm_core_mk_lm_hash@@9@9 0045e0b4     libcurl:curl_ntlm_core.obj
 0002:00009134       _hmac_ipad                 0045e134     libcurl:hmac.obj
 0002:00009135       _hmac_opad                 0045e135     libcurl:hmac.obj
 0002:00009240       _NaN                       0045e240     MSVCRT:ftol3.obj
 0002:00009244       _onept5                    0045e244     MSVCRT:ftol3.obj
 0002:00009248       _DP2to32                   0045e248     MSVCRT:ftol3.obj
 0002:00009248       _Int32ToUInt32             0045e248     MSVCRT:ftol3.obj
 0002:000093b0       ?piecewise_construct@std@@3Upiecewise_construct_t@1@B 0045e3b0     Main.obj
 0002:00009d8c       ??_7?$_Func_impl_no_alloc@V<lambda_b5565d269da327e336800d80f472b553>@@V?$basic_string@DU?$char_traits@D@std@@V?$allocator@D@2@@std@@ABV23@@std@@6B@ 0045ed8c     systeminfo.obj
 0002:0000a330       ??_R3?$_Func_impl_no_alloc@V<lambda_b5565d269da327e336800d80f472b553>@@V?$basic_string@DU?$char_traits@D@std@@V?$allocator@D@2@@std@@ABV23@@std@@8 0045f330     systeminfo.obj
 0002:0000a43c       ??_R4?$_Func_impl_no_alloc@V<lambda_b5565d269da327e336800d80f472b553>@@V?$basic_string@DU?$char_traits@D@std@@V?$allocator@D@2@@std@@ABV23@@std@@6B@ 0045f43c     systeminfo.obj
 0002:0000a460       ??_R2?$_Func_impl_no_alloc@V<lambda_b5565d269da327e336800d80f472b553>@@V?$basic_string@DU?$char_traits@D@std@@V?$allocator@D@2@@std@@ABV23@@std@@8 0045f460     systeminfo.obj
 0002:0000a46c       ??_R1A@?0A@EA@?$_Func_impl_no_alloc@V<lambda_b5565d269da327e336800d80f472b553>@@V?$basic_string@DU?$char_traits@D@std@@V?$allocator@D@2@@std@@ABV23@@std@@8 0045f46c     systeminfo.obj
 0002:0000a858       __ehfuncinfo$?ReadNames@@YAXXZ 0045f858     Main.obj
 0002:0000a87c       __unwindtable$?ReadNames@@YAXXZ 0045f87c     Main.obj
 0002:0000a88c       __ehfuncinfo$??_D?$basic_ifstream@DU?$char_traits@D@std@@@std@@QAEXXZ 0045f88c     Main.obj
 0002:0000a88c       __ehfuncinfo$??_G?$basic_filebuf@DU?$char_traits@D@std@@@std@@UAEPAXI@Z 0045f88c     Main.obj
 0002:0000a88c       __ehfuncinfo$??1sentry@?$basic_ostream@DU?$char_traits@D@std@@@std@@QAE@XZ 0045f88c     protect.obj
 0002:0000a88c       __ehfuncinfo$??1sentry@?$basic_istream@DU?$char_traits@D@std@@@std@@QAE@XZ 0045f88c     systeminfo.obj
 0002:0000a8b0       __unwindtable$??_D?$basic_ifstream@DU?$char_traits@D@std@@@std@@QAEXXZ 0045f8b0     Main.obj
 0002:0000a8b0       __unwindtable$??_G?$basic_filebuf@DU?$char_traits@D@std@@@std@@UAEPAXI@Z 0045f8b0     Main.obj
 0002:0000a8b0       __unwindtable$??1sentry@?$basic_ostream@DU?$char_traits@D@std@@@std@@QAE@XZ 0045f8b0     protect.obj
 0002:0000a8b0       __unwindtable$??1sentry@?$basic_istream@DU?$char_traits@D@std@@@std@@QAE@XZ 0045f8b0     systeminfo.obj
 0002:0000a8b8       __ehfuncinfo$?uflow@?$basic_filebuf@DU?$char_traits@D@std@@@std@@MAEHXZ 0045f8b8     Main.obj
 0002:0000a8dc       __unwindtable$?uflow@?$basic_filebuf@DU?$char_traits@D@std@@@std@@MAEHXZ 0045f8dc     Main.obj
 0002:0000a8e4       __ehfuncinfo$??1?$basic_filebuf@DU?$char_traits@D@std@@@std@@UAE@XZ 0045f8e4     Main.obj
 0002:0000a8e4       __ehfuncinfo$??1_Sentry_base@?$basic_ostream@DU?$char_traits@D@std@@@std@@QAE@XZ 0045f8e4     protect.obj
 0002:0000a8e4       __ehfuncinfo$??1_Sentry_base@?$basic_istream@DU?$char_traits@D@std@@@std@@QAE@XZ 0045f8e4     systeminfo.obj
 0002:0000a908       __ehfuncinfo$??0?$basic_ifstream@DU?$char_traits@D@std@@@std@@QAE@PBDHH@Z 0045f908     Main.obj
 0002:0000a92c       __unwindtable$??0?$basic_ifstream@DU?$char_traits@D@std@@@std@@QAE@PBDHH@Z 0045f92c     Main.obj
 0002:0000a954       __ehfuncinfo$??A?$map@IPBDU?$less@I@std@@V?$allocator@U?$pair@$$CBIPBD@std@@@2@@std@@QAEAAPBD$$QAI@Z 0045f954     Main.obj
 0002:0000a978       __unwindtable$??A?$map@IPBDU?$less@I@std@@V?$allocator@U?$pair@$$CBIPBD@std@@@2@@std@@QAEAAPBD$$QAI@Z 0045f978     Main.obj
 0002:0000a980       __ehfuncinfo$??$use_facet@V?$codecvt@DDU_Mbstatet@@@std@@@std@@YAABV?$codecvt@DDU_Mbstatet@@@0@ABVlocale@0@@Z 0045f980     Main.obj
 0002:0000a980       __ehfuncinfo$??$use_facet@V?$ctype@D@std@@@std@@YAABV?$ctype@D@0@ABVlocale@0@@Z 0045f980     systeminfo.obj
 0002:0000a9a4       __unwindtable$??$use_facet@V?$codecvt@DDU_Mbstatet@@@std@@@std@@YAABV?$codecvt@DDU_Mbstatet@@@0@ABVlocale@0@@Z 0045f9a4     Main.obj
 0002:0000a9a4       __unwindtable$??$use_facet@V?$ctype@D@std@@@std@@YAABV?$ctype@D@0@ABVlocale@0@@Z 0045f9a4     systeminfo.obj
 0002:0000a9b8       __ehfuncinfo$?KEY@@YA?AV?$basic_string@DU?$char_traits@D@std@@V?$allocator@D@2@@std@@XZ 0045f9b8     protect.obj
 0002:0000a9e0       __unwindtable$?KEY@@YA?AV?$basic_string@DU?$char_traits@D@std@@V?$allocator@D@2@@std@@XZ 0045f9e0     protect.obj
 0002:0000aa68       __ehfuncinfo$?write_to_string@@YAIPAXII0@Z 0045fa68     protect.obj
 0002:0000aa8c       __unwindtable$?write_to_string@@YAIPAXII0@Z 0045fa8c     protect.obj
 0002:0000aa94       __ehfuncinfo$?IsValidTime@@YA_NHHH@Z 0045fa94     protect.obj
 0002:0000aab8       __unwindtable$?IsValidTime@@YA_NHHH@Z 0045fab8     protect.obj
 0002:0000aac8       __ehfuncinfo$??$?6U?$char_traits@D@std@@@std@@YAAAV?$basic_ostream@DU?$char_traits@D@std@@@0@AAV10@PBD@Z 0045fac8     protect.obj
 0002:0000aaec       __unwindtable$??$?6U?$char_traits@D@std@@@std@@YAAAV?$basic_ostream@DU?$char_traits@D@std@@@0@AAV10@PBD@Z 0045faec     protect.obj
 0002:0000ab1c       __tryblocktable$??$?6U?$char_traits@D@std@@@std@@YAAAV?$basic_ostream@DU?$char_traits@D@std@@@0@AAV10@PBD@Z 0045fb1c     protect.obj
 0002:0000ab30       __catchsym$??$?6U?$char_traits@D@std@@@std@@YAAAV?$basic_ostream@DU?$char_traits@D@std@@@0@AAV10@PBD@Z$6 0045fb30     protect.obj
 0002:0000ab40       __ehfuncinfo$??0CPUInfo@@QAE@ABV?$vector@V?$basic_string@DU?$char_traits@D@std@@V?$allocator@D@2@@std@@V?$allocator@V?$basic_string@DU?$char_traits@D@std@@V?$allocator@D@2@@std@@@2@@std@@H@Z 0045fb40     systeminfo.obj
 0002:0000ab68       __unwindtable$??0CPUInfo@@QAE@ABV?$vector@V?$basic_string@DU?$char_traits@D@std@@V?$allocator@D@2@@std@@V?$allocator@V?$basic_string@DU?$char_traits@D@std@@V?$allocator@D@2@@std@@@2@@std@@H@Z 0045fb68     systeminfo.obj
 0002:0000abb0       __ehfuncinfo$?getArchitecture@CPUInfo@@ABE?AV?$basic_string@DU?$char_traits@D@std@@V?$allocator@D@2@@std@@AAV23@@Z 0045fbb0     systeminfo.obj
 0002:0000abd4       __unwindtable$?getArchitecture@CPUInfo@@ABE?AV?$basic_string@DU?$char_traits@D@std@@V?$allocator@D@2@@std@@AAV23@@Z 0045fbd4     systeminfo.obj
 0002:0000abe4       __tryblocktable$?getArchitecture@CPUInfo@@ABE?AV?$basic_string@DU?$char_traits@D@std@@V?$allocator@D@2@@std@@AAV23@@Z 0045fbe4     systeminfo.obj
 0002:0000abf8       __catchsym$?getArchitecture@CPUInfo@@ABE?AV?$basic_string@DU?$char_traits@D@std@@V?$allocator@D@2@@std@@AAV23@@Z$11 0045fbf8     systeminfo.obj
 0002:0000ac08       __ehfuncinfo$??0CPUInfoDelegate@@QAE@XZ 0045fc08     systeminfo.obj
 0002:0000ac30       __unwindtable$??0CPUInfoDelegate@@QAE@XZ 0045fc30     systeminfo.obj
 0002:0000ac70       __ehfuncinfo$??0GPUInfo@@QAE@ABV?$vector@V?$basic_string@DU?$char_traits@D@std@@V?$allocator@D@2@@std@@V?$allocator@V?$basic_string@DU?$char_traits@D@std@@V?$allocator@D@2@@std@@@2@@std@@H@Z 0045fc70     systeminfo.obj
 0002:0000ac94       __tryblocktable$??0GPUInfo@@QAE@ABV?$vector@V?$basic_string@DU?$char_traits@D@std@@V?$allocator@D@2@@std@@V?$allocator@V?$basic_string@DU?$char_traits@D@std@@V?$allocator@D@2@@std@@@2@@std@@H@Z 0045fc94     systeminfo.obj
 0002:0000aca8       __unwindtable$??0GPUInfo@@QAE@ABV?$vector@V?$basic_string@DU?$char_traits@D@std@@V?$allocator@D@2@@std@@V?$allocator@V?$basic_string@DU?$char_traits@D@std@@V?$allocator@D@2@@std@@@2@@std@@H@Z 0045fca8     systeminfo.obj
 0002:0000ad48       __catchsym$??0GPUInfo@@QAE@ABV?$vector@V?$basic_string@DU?$char_traits@D@std@@V?$allocator@D@2@@std@@V?$allocator@V?$basic_string@DU?$char_traits@D@std@@V?$allocator@D@2@@std@@@2@@std@@H@Z$112 0045fd48     systeminfo.obj
 0002:0000ad58       __ehfuncinfo$??0GPUInfoDelegate@@QAE@XZ 0045fd58     systeminfo.obj
 0002:0000ad80       __unwindtable$??0GPUInfoDelegate@@QAE@XZ 0045fd80     systeminfo.obj
 0002:0000adc0       __ehfuncinfo$??0MotherboardInfo@@QAE@ABV?$vector@V?$basic_string@DU?$char_traits@D@std@@V?$allocator@D@2@@std@@V?$allocator@V?$basic_string@DU?$char_traits@D@std@@V?$allocator@D@2@@std@@@2@@std@@H@Z 0045fdc0     systeminfo.obj
 0002:0000ade4       __unwindtable$??0MotherboardInfo@@QAE@ABV?$vector@V?$basic_string@DU?$char_traits@D@std@@V?$allocator@D@2@@std@@V?$allocator@V?$basic_string@DU?$char_traits@D@std@@V?$allocator@D@2@@std@@@2@@std@@H@Z 0045fde4     systeminfo.obj
 0002:0000ae0c       __ehfuncinfo$?determineChipset@MotherboardInfo@@AAEXXZ 0045fe0c     systeminfo.obj
 0002:0000ae30       __unwindtable$?determineChipset@MotherboardInfo@@AAEXXZ 0045fe30     systeminfo.obj
 0002:0000ae58       __ehfuncinfo$??0MotherboardInfoDelegate@@QAE@XZ 0045fe58     systeminfo.obj
 0002:0000ae80       __unwindtable$??0MotherboardInfoDelegate@@QAE@XZ 0045fe80     systeminfo.obj
 0002:0000aec0       __ehfuncinfo$??0OSInfo@@QAE@ABV?$vector@V?$basic_string@DU?$char_traits@D@std@@V?$allocator@D@2@@std@@V?$allocator@V?$basic_string@DU?$char_traits@D@std@@V?$allocator@D@2@@std@@@2@@std@@H@Z 0045fec0     systeminfo.obj
 0002:0000aee4       __tryblocktable$??0OSInfo@@QAE@ABV?$vector@V?$basic_string@DU?$char_traits@D@std@@V?$allocator@D@2@@std@@V?$allocator@V?$basic_string@DU?$char_traits@D@std@@V?$allocator@D@2@@std@@@2@@std@@H@Z 0045fee4     systeminfo.obj
 0002:0000af20       __unwindtable$??0OSInfo@@QAE@ABV?$vector@V?$basic_string@DU?$char_traits@D@std@@V?$allocator@D@2@@std@@V?$allocator@V?$basic_string@DU?$char_traits@D@std@@V?$allocator@D@2@@std@@@2@@std@@H@Z 0045ff20     systeminfo.obj
 0002:0000b038       __catchsym$??0OSInfo@@QAE@ABV?$vector@V?$basic_string@DU?$char_traits@D@std@@V?$allocator@D@2@@std@@V?$allocator@V?$basic_string@DU?$char_traits@D@std@@V?$allocator@D@2@@std@@@2@@std@@H@Z$181 00460038     systeminfo.obj
 0002:0000b048       __catchsym$??0OSInfo@@QAE@ABV?$vector@V?$basic_string@DU?$char_traits@D@std@@V?$allocator@D@2@@std@@V?$allocator@V?$basic_string@DU?$char_traits@D@std@@V?$allocator@D@2@@std@@@2@@std@@H@Z$182 00460048     systeminfo.obj
 0002:0000b058       __catchsym$??0OSInfo@@QAE@ABV?$vector@V?$basic_string@DU?$char_traits@D@std@@V?$allocator@D@2@@std@@V?$allocator@V?$basic_string@DU?$char_traits@D@std@@V?$allocator@D@2@@std@@@2@@std@@H@Z$183 00460058     systeminfo.obj
 0002:0000b068       __ehfuncinfo$??0OSInfoDelegate@@QAE@XZ 00460068     systeminfo.obj
 0002:0000b090       __unwindtable$??0OSInfoDelegate@@QAE@XZ 00460090     systeminfo.obj
 0002:0000b0d0       __ehfuncinfo$??0RAMInfo@@QAE@ABV?$vector@V?$basic_string@DU?$char_traits@D@std@@V?$allocator@D@2@@std@@V?$allocator@V?$basic_string@DU?$char_traits@D@std@@V?$allocator@D@2@@std@@@2@@std@@H@Z 004600d0     systeminfo.obj
 0002:0000b0f4       __tryblocktable$??0RAMInfo@@QAE@ABV?$vector@V?$basic_string@DU?$char_traits@D@std@@V?$allocator@D@2@@std@@V?$allocator@V?$basic_string@DU?$char_traits@D@std@@V?$allocator@D@2@@std@@@2@@std@@H@Z 004600f4     systeminfo.obj
 0002:0000b108       __unwindtable$??0RAMInfo@@QAE@ABV?$vector@V?$basic_string@DU?$char_traits@D@std@@V?$allocator@D@2@@std@@V?$allocator@V?$basic_string@DU?$char_traits@D@std@@V?$allocator@D@2@@std@@@2@@std@@H@Z 00460108     systeminfo.obj
 0002:0000b1a8       __catchsym$??0RAMInfo@@QAE@ABV?$vector@V?$basic_string@DU?$char_traits@D@std@@V?$allocator@D@2@@std@@V?$allocator@V?$basic_string@DU?$char_traits@D@std@@V?$allocator@D@2@@std@@@2@@std@@H@Z$112 004601a8     systeminfo.obj
 0002:0000b1b8       __ehfuncinfo$?getMemoryType@RAMInfo@@ABE?AV?$basic_string@DU?$char_traits@D@std@@V?$allocator@D@2@@std@@ABV23@@Z 004601b8     systeminfo.obj
 0002:0000b1dc       __unwindtable$?getMemoryType@RAMInfo@@ABE?AV?$basic_string@DU?$char_traits@D@std@@V?$allocator@D@2@@std@@ABV23@@Z 004601dc     systeminfo.obj
 0002:0000b1ec       __tryblocktable$?getMemoryType@RAMInfo@@ABE?AV?$basic_string@DU?$char_traits@D@std@@V?$allocator@D@2@@std@@ABV23@@Z 004601ec     systeminfo.obj
 0002:0000b200       __catchsym$?getMemoryType@RAMInfo@@ABE?AV?$basic_string@DU?$char_traits@D@std@@V?$allocator@D@2@@std@@ABV23@@Z$57 00460200     systeminfo.obj
 0002:0000b210       __ehfuncinfo$?getFormFactor@RAMInfo@@ABE?AV?$basic_string@DU?$char_traits@D@std@@V?$allocator@D@2@@std@@ABV23@@Z 00460210     systeminfo.obj
 0002:0000b234       __unwindtable$?getFormFactor@RAMInfo@@ABE?AV?$basic_string@DU?$char_traits@D@std@@V?$allocator@D@2@@std@@ABV23@@Z 00460234     systeminfo.obj
 0002:0000b244       __tryblocktable$?getFormFactor@RAMInfo@@ABE?AV?$basic_string@DU?$char_traits@D@std@@V?$allocator@D@2@@std@@ABV23@@Z 00460244     systeminfo.obj
 0002:0000b258       __catchsym$?getFormFactor@RAMInfo@@ABE?AV?$basic_string@DU?$char_traits@D@std@@V?$allocator@D@2@@std@@ABV23@@Z$53 00460258     systeminfo.obj
 0002:0000b268       __ehfuncinfo$??0RAMInfoDelegate@@QAE@XZ 00460268     systeminfo.obj
 0002:0000b290       __unwindtable$??0RAMInfoDelegate@@QAE@XZ 00460290     systeminfo.obj
 0002:0000b2d0       __ehfuncinfo$?stripAllFromString@SystemCommand@@AAE?AV?$basic_string@DU?$char_traits@D@std@@V?$allocator@D@2@@std@@ABV23@0@Z 004602d0     systeminfo.obj
 0002:0000b2f4       __unwindtable$?stripAllFromString@SystemCommand@@AAE?AV?$basic_string@DU?$char_traits@D@std@@V?$allocator@D@2@@std@@ABV23@0@Z 004602f4     systeminfo.obj
 0002:0000b2fc       __ehfuncinfo$?stripFromString@SystemCommand@@AAE?AV?$basic_string@DU?$char_traits@D@std@@V?$allocator@D@2@@std@@ABV23@0@Z 004602fc     systeminfo.obj
 0002:0000b320       __unwindtable$?stripFromString@SystemCommand@@AAE?AV?$basic_string@DU?$char_traits@D@std@@V?$allocator@D@2@@std@@ABV23@0@Z 00460320     systeminfo.obj
 0002:0000b338       __ehfuncinfo$?stripPipeFromCommand@SystemCommand@@AAEXXZ 00460338     systeminfo.obj
 0002:0000b35c       __unwindtable$?stripPipeFromCommand@SystemCommand@@AAEXXZ 0046035c     systeminfo.obj
 0002:0000b36c       __ehfuncinfo$?systemCommandLaunch@SystemCommand@@AAEX_N@Z 0046036c     systeminfo.obj
 0002:0000b390       __unwindtable$?systemCommandLaunch@SystemCommand@@AAEX_N@Z 00460390     systeminfo.obj
 0002:0000b3b0       __ehfuncinfo$??R<lambda_b5565d269da327e336800d80f472b553>@@QBE?AV?$basic_string@DU?$char_traits@D@std@@V?$allocator@D@2@@std@@ABV12@@Z 004603b0     systeminfo.obj
 0002:0000b3d8       __unwindtable$??R<lambda_b5565d269da327e336800d80f472b553>@@QBE?AV?$basic_string@DU?$char_traits@D@std@@V?$allocator@D@2@@std@@ABV12@@Z 004603d8     systeminfo.obj
 0002:0000b418       __ehfuncinfo$??0?$vector@VRAMInfo@@V?$allocator@VRAMInfo@@@std@@@std@@QAE@ABV01@@Z 00460418     systeminfo.obj
 0002:0000b440       __unwindtable$??0?$vector@VRAMInfo@@V?$allocator@VRAMInfo@@@std@@@std@@QAE@ABV01@@Z 00460440     systeminfo.obj
 0002:0000b488       __ehfuncinfo$??0?$vector@VMotherboardInfo@@V?$allocator@VMotherboardInfo@@@std@@@std@@QAE@ABV01@@Z 00460488     systeminfo.obj
 0002:0000b4ac       __unwindtable$??0?$vector@VMotherboardInfo@@V?$allocator@VMotherboardInfo@@@std@@@std@@QAE@ABV01@@Z 004604ac     systeminfo.obj
 0002:0000b4e0       __ehfuncinfo$??0?$vector@VGPUInfo@@V?$allocator@VGPUInfo@@@std@@@std@@QAE@ABV01@@Z 004604e0     systeminfo.obj
 0002:0000b508       __unwindtable$??0?$vector@VGPUInfo@@V?$allocator@VGPUInfo@@@std@@@std@@QAE@ABV01@@Z 00460508     systeminfo.obj
 0002:0000b560       __ehfuncinfo$??0?$vector@VCPUInfo@@V?$allocator@VCPUInfo@@@std@@@std@@QAE@ABV01@@Z 00460560     systeminfo.obj
 0002:0000b584       __unwindtable$??0?$vector@VCPUInfo@@V?$allocator@VCPUInfo@@@std@@@std@@QAE@ABV01@@Z 00460584     systeminfo.obj
 0002:0000b5bc       __ehfuncinfo$??0?$vector@V?$basic_string@DU?$char_traits@D@std@@V?$allocator@D@2@@std@@V?$allocator@V?$basic_string@DU?$char_traits@D@std@@V?$allocator@D@2@@std@@@2@@std@@QAE@ABV01@@Z 004605bc     systeminfo.obj
 0002:0000b5e0       __unwindtable$??0?$vector@V?$basic_string@DU?$char_traits@D@std@@V?$allocator@D@2@@std@@V?$allocator@V?$basic_string@DU?$char_traits@D@std@@V?$allocator@D@2@@std@@@2@@std@@QAE@ABV01@@Z 004605e0     systeminfo.obj
 0002:0000b5f0       __ehfuncinfo$??0?$basic_ifstream@DU?$char_traits@D@std@@@std@@QAE@XZ 004605f0     systeminfo.obj
 0002:0000b614       __unwindtable$??0?$basic_ifstream@DU?$char_traits@D@std@@@std@@QAE@XZ 00460614     systeminfo.obj
 0002:0000b62c       __ehfuncinfo$??$_Emplace_reallocate@AAV?$vector@V?$basic_string@DU?$char_traits@D@std@@V?$allocator@D@2@@std@@V?$allocator@V?$basic_string@DU?$char_traits@D@std@@V?$allocator@D@2@@std@@@2@@std@@AAH@?$vector@VCPUInfo@@V?$allocator@VCPUInfo@@@std@@@std@@QAEPAVCPUInfo@@QAV2@AAV?$vector@V?$basic_string@DU?$char_traits@D@std@@V?$allocator@D@2@@std@@V?$allocator@V?$basic_string@DU?$char_traits@D@std@@V?$allocator@D@2@@std@@@2@@1@AAH@Z 0046062c     systeminfo.obj
 0002:0000b650       __unwindtable$??$_Emplace_reallocate@AAV?$vector@V?$basic_string@DU?$char_traits@D@std@@V?$allocator@D@2@@std@@V?$allocator@V?$basic_string@DU?$char_traits@D@std@@V?$allocator@D@2@@std@@@2@@std@@AAH@?$vector@VCPUInfo@@V?$allocator@VCPUInfo@@@std@@@std@@QAEPAVCPUInfo@@QAV2@AAV?$vector@V?$basic_string@DU?$char_traits@D@std@@V?$allocator@D@2@@std@@V?$allocator@V?$basic_string@DU?$char_traits@D@std@@V?$allocator@D@2@@std@@@2@@1@AAH@Z 00460650     systeminfo.obj
 0002:0000b660       __tryblocktable$??$_Emplace_reallocate@AAV?$vector@V?$basic_string@DU?$char_traits@D@std@@V?$allocator@D@2@@std@@V?$allocator@V?$basic_string@DU?$char_traits@D@std@@V?$allocator@D@2@@std@@@2@@std@@AAH@?$vector@VCPUInfo@@V?$allocator@VCPUInfo@@@std@@@std@@QAEPAVCPUInfo@@QAV2@AAV?$vector@V?$basic_string@DU?$char_traits@D@std@@V?$allocator@D@2@@std@@V?$allocator@V?$basic_string@DU?$char_traits@D@std@@V?$allocator@D@2@@std@@@2@@1@AAH@Z 00460660     systeminfo.obj
 0002:0000b674       __catchsym$??$_Emplace_reallocate@AAV?$vector@V?$basic_string@DU?$char_traits@D@std@@V?$allocator@D@2@@std@@V?$allocator@V?$basic_string@DU?$char_traits@D@std@@V?$allocator@D@2@@std@@@2@@std@@AAH@?$vector@VCPUInfo@@V?$allocator@VCPUInfo@@@std@@@std@@QAEPAVCPUInfo@@QAV2@AAV?$vector@V?$basic_string@DU?$char_traits@D@std@@V?$allocator@D@2@@std@@V?$allocator@V?$basic_string@DU?$char_traits@D@std@@V?$allocator@D@2@@std@@@2@@1@AAH@Z$2 00460674     systeminfo.obj
 0002:0000b684       __ehfuncinfo$??$toString@_J@GPUInfo@@ABE?AV?$basic_string@DU?$char_traits@D@std@@V?$allocator@D@2@@std@@AB_J@Z 00460684     systeminfo.obj
 0002:0000b684       __ehfuncinfo$??$toString@_J@OSInfo@@ABE?AV?$basic_string@DU?$char_traits@D@std@@V?$allocator@D@2@@std@@AB_J@Z 00460684     systeminfo.obj
 0002:0000b684       __ehfuncinfo$??$toString@_J@RAMInfo@@ABE?AV?$basic_string@DU?$char_traits@D@std@@V?$allocator@D@2@@std@@AB_J@Z 00460684     systeminfo.obj
 0002:0000b6a8       __unwindtable$??$toString@_J@GPUInfo@@ABE?AV?$basic_string@DU?$char_traits@D@std@@V?$allocator@D@2@@std@@AB_J@Z 004606a8     systeminfo.obj
 0002:0000b6a8       __unwindtable$??$toString@_J@OSInfo@@ABE?AV?$basic_string@DU?$char_traits@D@std@@V?$allocator@D@2@@std@@AB_J@Z 004606a8     systeminfo.obj
 0002:0000b6a8       __unwindtable$??$toString@_J@RAMInfo@@ABE?AV?$basic_string@DU?$char_traits@D@std@@V?$allocator@D@2@@std@@AB_J@Z 004606a8     systeminfo.obj
 0002:0000b6c8       __ehfuncinfo$??$_Emplace_reallocate@AAV?$vector@V?$basic_string@DU?$char_traits@D@std@@V?$allocator@D@2@@std@@V?$allocator@V?$basic_string@DU?$char_traits@D@std@@V?$allocator@D@2@@std@@@2@@std@@AAH@?$vector@VGPUInfo@@V?$allocator@VGPUInfo@@@std@@@std@@QAEPAVGPUInfo@@QAV2@AAV?$vector@V?$basic_string@DU?$char_traits@D@std@@V?$allocator@D@2@@std@@V?$allocator@V?$basic_string@DU?$char_traits@D@std@@V?$allocator@D@2@@std@@@2@@1@AAH@Z 004606c8     systeminfo.obj
 0002:0000b6ec       __unwindtable$??$_Emplace_reallocate@AAV?$vector@V?$basic_string@DU?$char_traits@D@std@@V?$allocator@D@2@@std@@V?$allocator@V?$basic_string@DU?$char_traits@D@std@@V?$allocator@D@2@@std@@@2@@std@@AAH@?$vector@VGPUInfo@@V?$allocator@VGPUInfo@@@std@@@std@@QAEPAVGPUInfo@@QAV2@AAV?$vector@V?$basic_string@DU?$char_traits@D@std@@V?$allocator@D@2@@std@@V?$allocator@V?$basic_string@DU?$char_traits@D@std@@V?$allocator@D@2@@std@@@2@@1@AAH@Z 004606ec     systeminfo.obj
 0002:0000b6fc       __tryblocktable$??$_Emplace_reallocate@AAV?$vector@V?$basic_string@DU?$char_traits@D@std@@V?$allocator@D@2@@std@@V?$allocator@V?$basic_string@DU?$char_traits@D@std@@V?$allocator@D@2@@std@@@2@@std@@AAH@?$vector@VGPUInfo@@V?$allocator@VGPUInfo@@@std@@@std@@QAEPAVGPUInfo@@QAV2@AAV?$vector@V?$basic_string@DU?$char_traits@D@std@@V?$allocator@D@2@@std@@V?$allocator@V?$basic_string@DU?$char_traits@D@std@@V?$allocator@D@2@@std@@@2@@1@AAH@Z 004606fc     systeminfo.obj
 0002:0000b710       __catchsym$??$_Emplace_reallocate@AAV?$vector@V?$basic_string@DU?$char_traits@D@std@@V?$allocator@D@2@@std@@V?$allocator@V?$basic_string@DU?$char_traits@D@std@@V?$allocator@D@2@@std@@@2@@std@@AAH@?$vector@VGPUInfo@@V?$allocator@VGPUInfo@@@std@@@std@@QAEPAVGPUInfo@@QAV2@AAV?$vector@V?$basic_string@DU?$char_traits@D@std@@V?$allocator@D@2@@std@@V?$allocator@V?$basic_string@DU?$char_traits@D@std@@V?$allocator@D@2@@std@@@2@@1@AAH@Z$2 00460710     systeminfo.obj
 0002:0000b720       __ehfuncinfo$??$_Emplace_reallocate@AAV?$vector@V?$basic_string@DU?$char_traits@D@std@@V?$allocator@D@2@@std@@V?$allocator@V?$basic_string@DU?$char_traits@D@std@@V?$allocator@D@2@@std@@@2@@std@@AAH@?$vector@VMotherboardInfo@@V?$allocator@VMotherboardInfo@@@std@@@std@@QAEPAVMotherboardInfo@@QAV2@AAV?$vector@V?$basic_string@DU?$char_traits@D@std@@V?$allocator@D@2@@std@@V?$allocator@V?$basic_string@DU?$char_traits@D@std@@V?$allocator@D@2@@std@@@2@@1@AAH@Z 00460720     systeminfo.obj
 0002:0000b744       __unwindtable$??$_Emplace_reallocate@AAV?$vector@V?$basic_string@DU?$char_traits@D@std@@V?$allocator@D@2@@std@@V?$allocator@V?$basic_string@DU?$char_traits@D@std@@V?$allocator@D@2@@std@@@2@@std@@AAH@?$vector@VMotherboardInfo@@V?$allocator@VMotherboardInfo@@@std@@@std@@QAEPAVMotherboardInfo@@QAV2@AAV?$vector@V?$basic_string@DU?$char_traits@D@std@@V?$allocator@D@2@@std@@V?$allocator@V?$basic_string@DU?$char_traits@D@std@@V?$allocator@D@2@@std@@@2@@1@AAH@Z 00460744     systeminfo.obj
 0002:0000b754       __tryblocktable$??$_Emplace_reallocate@AAV?$vector@V?$basic_string@DU?$char_traits@D@std@@V?$allocator@D@2@@std@@V?$allocator@V?$basic_string@DU?$char_traits@D@std@@V?$allocator@D@2@@std@@@2@@std@@AAH@?$vector@VMotherboardInfo@@V?$allocator@VMotherboardInfo@@@std@@@std@@QAEPAVMotherboardInfo@@QAV2@AAV?$vector@V?$basic_string@DU?$char_traits@D@std@@V?$allocator@D@2@@std@@V?$allocator@V?$basic_string@DU?$char_traits@D@std@@V?$allocator@D@2@@std@@@2@@1@AAH@Z 00460754     systeminfo.obj
 0002:0000b768       __catchsym$??$_Emplace_reallocate@AAV?$vector@V?$basic_string@DU?$char_traits@D@std@@V?$allocator@D@2@@std@@V?$allocator@V?$basic_string@DU?$char_traits@D@std@@V?$allocator@D@2@@std@@@2@@std@@AAH@?$vector@VMotherboardInfo@@V?$allocator@VMotherboardInfo@@@std@@@std@@QAEPAVMotherboardInfo@@QAV2@AAV?$vector@V?$basic_string@DU?$char_traits@D@std@@V?$allocator@D@2@@std@@V?$allocator@V?$basic_string@DU?$char_traits@D@std@@V?$allocator@D@2@@std@@@2@@1@AAH@Z$2 00460768     systeminfo.obj
 0002:0000b778       __ehfuncinfo$??$_Emplace_reallocate@AAV?$vector@V?$basic_string@DU?$char_traits@D@std@@V?$allocator@D@2@@std@@V?$allocator@V?$basic_string@DU?$char_traits@D@std@@V?$allocator@D@2@@std@@@2@@std@@AAH@?$vector@VOSInfo@@V?$allocator@VOSInfo@@@std@@@std@@QAEPAVOSInfo@@QAV2@AAV?$vector@V?$basic_string@DU?$char_traits@D@std@@V?$allocator@D@2@@std@@V?$allocator@V?$basic_string@DU?$char_traits@D@std@@V?$allocator@D@2@@std@@@2@@1@AAH@Z 00460778     systeminfo.obj
 0002:0000b79c       __unwindtable$??$_Emplace_reallocate@AAV?$vector@V?$basic_string@DU?$char_traits@D@std@@V?$allocator@D@2@@std@@V?$allocator@V?$basic_string@DU?$char_traits@D@std@@V?$allocator@D@2@@std@@@2@@std@@AAH@?$vector@VOSInfo@@V?$allocator@VOSInfo@@@std@@@std@@QAEPAVOSInfo@@QAV2@AAV?$vector@V?$basic_string@DU?$char_traits@D@std@@V?$allocator@D@2@@std@@V?$allocator@V?$basic_string@DU?$char_traits@D@std@@V?$allocator@D@2@@std@@@2@@1@AAH@Z 0046079c     systeminfo.obj
 0002:0000b7ac       __tryblocktable$??$_Emplace_reallocate@AAV?$vector@V?$basic_string@DU?$char_traits@D@std@@V?$allocator@D@2@@std@@V?$allocator@V?$basic_string@DU?$char_traits@D@std@@V?$allocator@D@2@@std@@@2@@std@@AAH@?$vector@VOSInfo@@V?$allocator@VOSInfo@@@std@@@std@@QAEPAVOSInfo@@QAV2@AAV?$vector@V?$basic_string@DU?$char_traits@D@std@@V?$allocator@D@2@@std@@V?$allocator@V?$basic_string@DU?$char_traits@D@std@@V?$allocator@D@2@@std@@@2@@1@AAH@Z 004607ac     systeminfo.obj
 0002:0000b7c0       __catchsym$??$_Emplace_reallocate@AAV?$vector@V?$basic_string@DU?$char_traits@D@std@@V?$allocator@D@2@@std@@V?$allocator@V?$basic_string@DU?$char_traits@D@std@@V?$allocator@D@2@@std@@@2@@std@@AAH@?$vector@VOSInfo@@V?$allocator@VOSInfo@@@std@@@std@@QAEPAVOSInfo@@QAV2@AAV?$vector@V?$basic_string@DU?$char_traits@D@std@@V?$allocator@D@2@@std@@V?$allocator@V?$basic_string@DU?$char_traits@D@std@@V?$allocator@D@2@@std@@@2@@1@AAH@Z$2 004607c0     systeminfo.obj
 0002:0000b7d0       __ehfuncinfo$??$_Emplace_reallocate@AAV?$vector@V?$basic_string@DU?$char_traits@D@std@@V?$allocator@D@2@@std@@V?$allocator@V?$basic_string@DU?$char_traits@D@std@@V?$allocator@D@2@@std@@@2@@std@@AAH@?$vector@VRAMInfo@@V?$allocator@VRAMInfo@@@std@@@std@@QAEPAVRAMInfo@@QAV2@AAV?$vector@V?$basic_string@DU?$char_traits@D@std@@V?$allocator@D@2@@std@@V?$allocator@V?$basic_string@DU?$char_traits@D@std@@V?$allocator@D@2@@std@@@2@@1@AAH@Z 004607d0     systeminfo.obj
 0002:0000b7f4       __unwindtable$??$_Emplace_reallocate@AAV?$vector@V?$basic_string@DU?$char_traits@D@std@@V?$allocator@D@2@@std@@V?$allocator@V?$basic_string@DU?$char_traits@D@std@@V?$allocator@D@2@@std@@@2@@std@@AAH@?$vector@VRAMInfo@@V?$allocator@VRAMInfo@@@std@@@std@@QAEPAVRAMInfo@@QAV2@AAV?$vector@V?$basic_string@DU?$char_traits@D@std@@V?$allocator@D@2@@std@@V?$allocator@V?$basic_string@DU?$char_traits@D@std@@V?$allocator@D@2@@std@@@2@@1@AAH@Z 004607f4     systeminfo.obj
 0002:0000b804       __tryblocktable$??$_Emplace_reallocate@AAV?$vector@V?$basic_string@DU?$char_traits@D@std@@V?$allocator@D@2@@std@@V?$allocator@V?$basic_string@DU?$char_traits@D@std@@V?$allocator@D@2@@std@@@2@@std@@AAH@?$vector@VRAMInfo@@V?$allocator@VRAMInfo@@@std@@@std@@QAEPAVRAMInfo@@QAV2@AAV?$vector@V?$basic_string@DU?$char_traits@D@std@@V?$allocator@D@2@@std@@V?$allocator@V?$basic_string@DU?$char_traits@D@std@@V?$allocator@D@2@@std@@@2@@1@AAH@Z 00460804     systeminfo.obj
 0002:0000b818       __catchsym$??$_Emplace_reallocate@AAV?$vector@V?$basic_string@DU?$char_traits@D@std@@V?$allocator@D@2@@std@@V?$allocator@V?$basic_string@DU?$char_traits@D@std@@V?$allocator@D@2@@std@@@2@@std@@AAH@?$vector@VRAMInfo@@V?$allocator@VRAMInfo@@@std@@@std@@QAEPAVRAMInfo@@QAV2@AAV?$vector@V?$basic_string@DU?$char_traits@D@std@@V?$allocator@D@2@@std@@V?$allocator@V?$basic_string@DU?$char_traits@D@std@@V?$allocator@D@2@@std@@@2@@1@AAH@Z$2 00460818     systeminfo.obj
 0002:0000b828       __ehfuncinfo$??$_Emplace_reallocate@ABV?$basic_string@DU?$char_traits@D@std@@V?$allocator@D@2@@std@@@?$vector@V?$basic_string@DU?$char_traits@D@std@@V?$allocator@D@2@@std@@V?$allocator@V?$basic_string@DU?$char_traits@D@std@@V?$allocator@D@2@@std@@@2@@std@@QAEPAV?$basic_string@DU?$char_traits@D@std@@V?$allocator@D@2@@1@QAV21@ABV21@@Z 00460828     systeminfo.obj
 0002:0000b84c       __unwindtable$??$_Emplace_reallocate@ABV?$basic_string@DU?$char_traits@D@std@@V?$allocator@D@2@@std@@@?$vector@V?$basic_string@DU?$char_traits@D@std@@V?$allocator@D@2@@std@@V?$allocator@V?$basic_string@DU?$char_traits@D@std@@V?$allocator@D@2@@std@@@2@@std@@QAEPAV?$basic_string@DU?$char_traits@D@std@@V?$allocator@D@2@@1@QAV21@ABV21@@Z 0046084c     systeminfo.obj
 0002:0000b85c       __tryblocktable$??$_Emplace_reallocate@ABV?$basic_string@DU?$char_traits@D@std@@V?$allocator@D@2@@std@@@?$vector@V?$basic_string@DU?$char_traits@D@std@@V?$allocator@D@2@@std@@V?$allocator@V?$basic_string@DU?$char_traits@D@std@@V?$allocator@D@2@@std@@@2@@std@@QAEPAV?$basic_string@DU?$char_traits@D@std@@V?$allocator@D@2@@1@QAV21@ABV21@@Z 0046085c     systeminfo.obj
 0002:0000b870       __catchsym$??$_Emplace_reallocate@ABV?$basic_string@DU?$char_traits@D@std@@V?$allocator@D@2@@std@@@?$vector@V?$basic_string@DU?$char_traits@D@std@@V?$allocator@D@2@@std@@V?$allocator@V?$basic_string@DU?$char_traits@D@std@@V?$allocator@D@2@@std@@@2@@std@@QAEPAV?$basic_string@DU?$char_traits@D@std@@V?$allocator@D@2@@1@QAV21@ABV21@@Z$2 00460870     systeminfo.obj
 0002:0000b880       __ehfuncinfo$??$_Insert_string@DU?$char_traits@D@std@@I@std@@YAAAV?$basic_ostream@DU?$char_traits@D@std@@@0@AAV10@QBDI@Z 00460880     systeminfo.obj
 0002:0000b8a4       __unwindtable$??$_Insert_string@DU?$char_traits@D@std@@I@std@@YAAAV?$basic_ostream@DU?$char_traits@D@std@@@0@AAV10@QBDI@Z 004608a4     systeminfo.obj
 0002:0000b8d4       __tryblocktable$??$_Insert_string@DU?$char_traits@D@std@@I@std@@YAAAV?$basic_ostream@DU?$char_traits@D@std@@@0@AAV10@QBDI@Z 004608d4     systeminfo.obj
 0002:0000b8e8       __catchsym$??$_Insert_string@DU?$char_traits@D@std@@I@std@@YAAAV?$basic_ostream@DU?$char_traits@D@std@@@0@AAV10@QBDI@Z$6 004608e8     systeminfo.obj
 0002:0000b8f8       __ehfuncinfo$??$_Uninitialized_copy@PAVOSInfo@@V?$allocator@VOSInfo@@@std@@@std@@YAPAVOSInfo@@QAV1@0PAV1@AAV?$allocator@VOSInfo@@@0@@Z 004608f8     systeminfo.obj
 0002:0000b920       __unwindtable$??$_Uninitialized_copy@PAVOSInfo@@V?$allocator@VOSInfo@@@std@@@std@@YAPAVOSInfo@@QAV1@0PAV1@AAV?$allocator@VOSInfo@@@0@@Z 00460920     systeminfo.obj
 0002:0000b990       __ehfuncinfo$??$?5DU?$char_traits@D@std@@V?$allocator@D@1@@std@@YAAAV?$basic_istream@DU?$char_traits@D@std@@@0@$$QAV10@AAV?$basic_string@DU?$char_traits@D@std@@V?$allocator@D@2@@0@@Z 00460990     systeminfo.obj
 0002:0000b9b4       __unwindtable$??$?5DU?$char_traits@D@std@@V?$allocator@D@1@@std@@YAAAV?$basic_istream@DU?$char_traits@D@std@@@0@$$QAV10@AAV?$basic_string@DU?$char_traits@D@std@@V?$allocator@D@2@@0@@Z 004609b4     systeminfo.obj
 0002:0000b9e4       __tryblocktable$??$?5DU?$char_traits@D@std@@V?$allocator@D@1@@std@@YAAAV?$basic_istream@DU?$char_traits@D@std@@@0@$$QAV10@AAV?$basic_string@DU?$char_traits@D@std@@V?$allocator@D@2@@0@@Z 004609e4     systeminfo.obj
 0002:0000b9f8       __catchsym$??$?5DU?$char_traits@D@std@@V?$allocator@D@1@@std@@YAAAV?$basic_istream@DU?$char_traits@D@std@@@0@$$QAV10@AAV?$basic_string@DU?$char_traits@D@std@@V?$allocator@D@2@@0@@Z$7 004609f8     systeminfo.obj
 0002:0000ba08       __sehtable$___scrt_is_nonwritable_in_current_image 00460a08     MSVCRT:utility.obj
 0002:0000ba28       __sehtable$??_M@YGXPAXIIP6EX0@Z@Z 00460a28     MSVCRT:ehvecdtr.obj
 0002:0000ba48       __sehtable$?__ArrayUnwind@@YGXPAXIIP6EX0@Z@Z 00460a48     MSVCRT:ehvecdtr.obj
 0002:0000ba68       __sehtable$?__scrt_common_main_seh@@YAHXZ 00460a68     MSVCRT:exe_winmain.obj
 0002:0000c242       .idata$6                   00461242     kernel32:KERNEL32.dll
 0002:0000c38e       .idata$6                   0046138e     user32:USER32.dll
 0002:0000c3ae       .idata$6                   004613ae     gdi32:GDI32.dll
 0002:0000c3fc       .idata$6                   004613fc     advapi32:ADVAPI32.dll
 0002:0000d082       .idata$6                   00462082     msvcprt:MSVCP140.dll
 0002:0000d0a2       .idata$6                   004620a2     d3d9:d3d9.dll
 0002:0000d0d0       .idata$6                   004620d0     d3dx9:d3dx9_43.dll
 0002:0000d154       .idata$6                   00462154     ws2_32:WS2_32.dll
 0002:0000d160       .idata$6                   00462160     wldap32:WLDAP32.dll
 0002:0000d270       .idata$6                   00462270     vcruntime:VCRUNTIME140.dll
 0002:0000d6f2       .idata$6                   004626f2     ucrt:api-ms-win-crt-stdio-l1-1-0.dll
 0002:0000d712       .idata$6                   00462712     ucrt:api-ms-win-crt-string-l1-1-0.dll
 0002:0000d734       .idata$6                   00462734     ucrt:api-ms-win-crt-filesystem-l1-1-0.dll
 0002:0000d75a       .idata$6                   0046275a     ucrt:api-ms-win-crt-runtime-l1-1-0.dll
 0002:0000d77c       .idata$6                   0046277c     ucrt:api-ms-win-crt-convert-l1-1-0.dll
 0002:0000d79e       .idata$6                   0046279e     ucrt:api-ms-win-crt-time-l1-1-0.dll
 0002:0000d7be       .idata$6                   004627be     ucrt:api-ms-win-crt-heap-l1-1-0.dll
 0002:0000d7de       .idata$6                   004627de     ucrt:api-ms-win-crt-math-l1-1-0.dll
 0002:0000d7fe       .idata$6                   004627fe     ucrt:api-ms-win-crt-locale-l1-1-0.dll
 0002:0000d820       .idata$6                   00462820     ucrt:api-ms-win-crt-utility-l1-1-0.dll
 0002:0000d842       .idata$6                   00462842     ucrt:api-ms-win-crt-multibyte-l1-1-0.dll
 0003:00000028       ?if_prefix@?2??bindlocal@@9@9 00463028     libcurl:connect.obj
 0003:0000002c       ?host_prefix@?2??bindlocal@@9@9 0046302c     libcurl:connect.obj
 0003:00000810       ??_R0?AV<lambda_b5565d269da327e336800d80f472b553>@@@8 00463810     systeminfo.obj
 0003:00000b08       ??_R0?AV?$_Func_impl_no_alloc@V<lambda_b5565d269da327e336800d80f472b553>@@V?$basic_string@DU?$char_traits@D@std@@V?$allocator@D@2@@std@@ABV23@@std@@@8 00463b08     systeminfo.obj
 0003:00000be0       ?_Fac_head@std@@3PAU_Fac_node@1@A 00463be0     msvcprt:locale0_implib.obj
 0003:00000be4       ?_Fac_tidy_reg@std@@3U_Fac_tidy_reg_t@1@B 00463be4     msvcprt:locale0_implib.obj
 0003:00000bf0       ?is_initialized_as_dll@@3_NA 00463bf0     MSVCRT:utility.obj
 0003:00000bf1       ?module_local_atexit_table_initialized@@3_NA 00463bf1     MSVCRT:utility.obj
 0003:00000bf4       ?module_local_atexit_table@@3U_onexit_table_t@@A 00463bf4     MSVCRT:utility.obj
 0003:00000c00       ?module_local_at_quick_exit_table@@3U_onexit_table_t@@A 00463c00     MSVCRT:utility.obj
 0003:00000c10       _GS_ExceptionRecord        00463c10     MSVCRT:gs_report.obj
 0003:00000c60       _GS_ContextRecord          00463c60     MSVCRT:gs_report.obj
 0003:00000f48       _initialized               00463f48     libcurl:easy.obj
 0003:00000f4c       _init_flags                00463f4c     libcurl:easy.obj
 0003:00000f50       ?tv_zero@?1??multi_timeout@@9@9 00463f50     libcurl:multi.obj
 0003:00000f60       ?detectOsState@?1??Curl_sndbufset@@9@9 00463f60     libcurl:connect.obj
 0003:00000f68       _s_hIpHlpApiDll            00463f68     libcurl:system_win32.obj
 0003:00000f70       ?tv_zero@?1??Curl_splaygetbest@@9@9 00463f70     libcurl:splay.obj
 0003:00000f80       ?randseed@?1??randit@@9@9  00463f80     libcurl:rand.obj
 0003:00000f84       ?seeded@?1??randit@@9@9    00463f84     libcurl:rand.obj
 0004:00000060       $R000000                   00465060     * linker generated manifest res *
