 Warcraft III - External MapHack

 Timestamp is 6091cad5 (Wed May  5 01:29:41 2021)

 Preferred load address is 00400000

 Start         Length     Name                   Class
 0001:00000000 000009f0H .text$di                CODE
 0001:000009f0 0004ebd0H .text$mn                CODE
 0001:0004f5c0 00001230H .text$x                 CODE
 0001:000507f0 00001d41H .text$yd                CODE
 0002:00000000 000004a8H .idata$5                DATA
 0002:000004a8 00000004H .00cfg                  DATA
 0002:000004ac 00000004H .CRT$XCA                DATA
 0002:000004b0 00000004H .CRT$XCAA               DATA
 0002:000004b4 00000004H .CRT$XCL                DATA
 0002:000004b8 0000013cH .CRT$XCU                DATA
 0002:000005f4 00000004H .CRT$XCZ                DATA
 0002:000005f8 00000004H .CRT$XIA                DATA
 0002:000005fc 00000004H .CRT$XIAA               DATA
 0002:00000600 00000004H .CRT$XIAC               DATA
 0002:00000604 00000004H .CRT$XIZ                DATA
 0002:00000608 00000004H .CRT$XPA                DATA
 0002:0000060c 00000004H .CRT$XPZ                DATA
 0002:00000610 00000004H .CRT$XTA                DATA
 0002:00000614 0000000cH .CRT$XTZ                DATA
 0002:00000618 00000000H .gfids$y                DATA
 0002:00000620 000098a0H .rdata                  DATA
 0002:00009ec0 00000000H .rdata$CastGuardVftablesA DATA
 0002:00009ec0 00000000H .rdata$CastGuardVftablesC DATA
 0002:00009ec0 00000590H .rdata$r                DATA
 0002:0000a450 000000bcH .rdata$sxdata           DATA
 0002:0000a50c 000002ecH .rdata$zzzdbg           DATA
 0002:0000a7f8 00000004H .rtc$IAA                DATA
 0002:0000a7fc 00000004H .rtc$IZZ                DATA
 0002:0000a800 00000004H .rtc$TAA                DATA
 0002:0000a804 00000004H .rtc$TZZ                DATA
 0002:0000a808 0000127cH .xdata$x                DATA
 0002:0000ba84 00000000H .edata                  DATA
 0002:0000ba84 000001a4H .idata$2                DATA
 0002:0000bc28 00000014H .idata$3                DATA
 0002:0000bc3c 000004a8H .idata$4                DATA
 0002:0000c0e4 000019bcH .idata$6                DATA
 0003:00000000 000007a4H .data                   DATA
 0003:000007a4 000000b4H .data$r                 DATA
 0003:00000858 00000398H .data$rs                DATA
 0003:00000bf0 000004d0H .bss                    DATA
 0004:00000000 00000060H .rsrc$01                DATA
 0004:00000060 00000188H .rsrc$02                DATA

  Address         Publics by Value              Rva+Base       Lib:Object

 0000:00000000       ___guard_iat_table         00000000     <absolute>
 0000:00000000       ___hybrid_code_map_count   00000000     <absolute>
 0000:00000000       ___hybrid_code_map         00000000     <absolute>
 0000:00000000       ___arm64x_extra_rfe_table_size 00000000     <absolute>
 0000:00000000       ___guard_eh_cont_count     00000000     <absolute>
 0000:00000000       ___enclave_config          00000000     <absolute>
 0000:00000000       ___arm64x_redirection_metadata 00000000     <absolute>
 0000:00000000       ___arm64x_extra_rfe_table  00000000     <absolute>
 0000:00000000       ___volatile_metadata       00000000     <absolute>
 0000:00000000       ___guard_longjmp_table     00000000     <absolute>
 0000:00000000       ___guard_fids_table        00000000     <absolute>
 0000:00000000       ___x64_code_ranges_to_entry_points 00000000     <absolute>
 0000:00000000       ___arm64x_redirection_metadata_count 00000000     <absolute>
 0000:00000000       ___guard_check_icall_a64n_fptr 00000000     <absolute>
 0000:00000000       ___arm64x_native_entrypoint 00000000     <absolute>
 0000:00000000       ___hybrid_auxiliary_iat    00000000     <absolute>
 0000:00000000       ___dynamic_value_reloc_table 00000000     <absolute>
 0000:00000000       ___guard_fids_count        00000000     <absolute>
 0000:00000000       ___x64_code_ranges_to_entry_points_count 00000000     <absolute>
 0000:00000000       ___AbsoluteZero            00000000     <absolute>
 0000:00000000       ___guard_eh_cont_table     00000000     <absolute>
 0000:00000000       ___guard_longjmp_count     00000000     <absolute>
 0000:00000000       ___hybrid_auxiliary_iat_copy 00000000     <absolute>
 0000:00000000       ___guard_iat_count         00000000     <absolute>
 0000:0000002f       ___safe_se_handler_count   0000002f     <absolute>
 0000:00000100       ___guard_flags             00000100     <absolute>
 0000:00000000       ___ImageBase               00400000     <linker-defined>
 0001:000009f0       _WinMain@16                004019f0 f   Main.obj
 0001:00000ea0       ?Render@@YAXXZ             00401ea0 f   Main.obj
 0001:000015c0       ?WndProc@@YGJPAUHWND__@@IIJ@Z 004025c0 f   Main.obj
 0001:00001610       ___local_stdio_printf_options 00402610 f i protect.obj
 0001:00001620       __vsnprintf_l              00402620 f i protect.obj
 0001:00001660       _sprintf                   00402660 f i protect.obj
 0001:00001680       ??0exception@std@@QAE@ABV01@@Z 00402680 f i protect.obj
 0001:000016b0       ?what@exception@std@@UBEPBDXZ 004026b0 f i protect.obj
 0001:000016c0       ??_Ebad_array_new_length@std@@UAEPAXI@Z 004026c0 f i * CIL library *:* CIL module *
 0001:000016c0       ??_Ebad_alloc@std@@UAEPAXI@Z 004026c0 f i * CIL library *:* CIL module *
 0001:000016c0       ??_Gbad_array_new_length@std@@UAEPAXI@Z 004026c0 f i protect.obj
 0001:000016c0       ??_Gexception@std@@UAEPAXI@Z 004026c0 f i protect.obj
 0001:000016c0       ??_Gbad_alloc@std@@UAEPAXI@Z 004026c0 f i protect.obj
 0001:000016c0       ??_Eexception@std@@UAEPAXI@Z 004026c0 f i * CIL library *:* CIL module *
 0001:000016c0       ??_Ebad_cast@std@@UAEPAXI@Z 004026c0 f i * CIL library *:* CIL module *
 0001:000016c0       ??_Gbad_cast@std@@UAEPAXI@Z 004026c0 f i systeminfo.obj
 0001:00001700       ??1bad_cast@std@@UAE@XZ    00402700 f i systeminfo.obj
 0001:00001700       ??1bad_array_new_length@std@@UAE@XZ 00402700 f i protect.obj
 0001:00001700       ??1bad_alloc@std@@UAE@XZ   00402700 f i protect.obj
 0001:00001720       ??0bad_array_new_length@std@@QAE@XZ 00402720 f i protect.obj
 0001:00001740       ?__scrt_throw_std_bad_array_new_length@@YAXXZ 00402740 f i MSVCRT:throw_bad_alloc.obj
 0001:00001740       ?_Throw_bad_array_new_length@std@@YAXXZ 00402740 f i protect.obj
 0001:00001760       ??0bad_array_new_length@std@@QAE@ABV01@@Z 00402760 f i protect.obj
 0001:000017a0       ??0bad_alloc@std@@QAE@ABV01@@Z 004027a0 f i protect.obj
 0001:000017e0       ?_Xlen_string@std@@YAXXZ   004027e0 f i protect.obj
 0001:000017f0       ?KEY@@YA?AV?$basic_string@DU?$char_traits@D@std@@V?$allocator@D@2@@std@@XZ 004027f0 f   protect.obj
 0001:000020e0       ?write_to_string@@YAIPAXII0@Z 004030e0 f   protect.obj
 0001:000021f0       ?IsValidTime@@YA_NHHH@Z    004031f0 f   protect.obj
 0001:00002490       ??1?$unique_ptr@VOSInfoDelegate@@U?$default_delete@VOSInfoDelegate@@@std@@@std@@QAE@XZ 00403490 f i protect.obj
 0001:000024b0       ??1?$unique_ptr@VGPUInfoDelegate@@U?$default_delete@VGPUInfoDelegate@@@std@@@std@@QAE@XZ 004034b0 f i protect.obj
 0001:000024d0       ??1?$unique_ptr@VRAMInfoDelegate@@U?$default_delete@VRAMInfoDelegate@@@std@@@std@@QAE@XZ 004034d0 f i protect.obj
 0001:000024f0       ??1?$unique_ptr@VMotherboardInfoDelegate@@U?$default_delete@VMotherboardInfoDelegate@@@std@@@std@@QAE@XZ 004034f0 f i protect.obj
 0001:00002510       ??1?$unique_ptr@VCPUInfoDelegate@@U?$default_delete@VCPUInfoDelegate@@@std@@@std@@QAE@XZ 00403510 f i protect.obj
 0001:00002530       ??1?$vector@VRAMInfo@@V?$allocator@VRAMInfo@@@std@@@std@@QAE@XZ 00403530 f i protect.obj
 0001:00002540       ??1?$vector@VOSInfo@@V?$allocator@VOSInfo@@@std@@@std@@QAE@XZ 00403540 f i protect.obj
 0001:00002550       ??1?$vector@VMotherboardInfo@@V?$allocator@VMotherboardInfo@@@std@@@std@@QAE@XZ 00403550 f i protect.obj
 0001:00002560       ??1?$vector@VGPUInfo@@V?$allocator@VGPUInfo@@@std@@@std@@QAE@XZ 00403560 f i protect.obj
 0001:00002570       ??1?$vector@VCPUInfo@@V?$allocator@VCPUInfo@@@std@@@std@@QAE@XZ 00403570 f i protect.obj
 0001:00002580       ??1?$basic_string@DU?$char_traits@D@std@@V?$allocator@D@2@@std@@QAE@XZ 00403580 f i protect.obj
 0001:000025d0       ??1sentry@?$basic_ostream@DU?$char_traits@D@std@@@std@@QAE@XZ 004035d0 f i protect.obj
 0001:00002640       ?_Tidy@?$vector@VRAMInfo@@V?$allocator@VRAMInfo@@@std@@@std@@AAEXXZ 00403640 f i protect.obj
 0001:000026d0       ?_Tidy@?$vector@VOSInfo@@V?$allocator@VOSInfo@@@std@@@std@@AAEXXZ 004036d0 f i protect.obj
 0001:00002760       ?_Tidy@?$vector@VMotherboardInfo@@V?$allocator@VMotherboardInfo@@@std@@@std@@AAEXXZ 00403760 f i protect.obj
 0001:000027e0       ?_Tidy@?$vector@VGPUInfo@@V?$allocator@VGPUInfo@@@std@@@std@@AAEXXZ 004037e0 f i protect.obj
 0001:00002870       ?_Tidy@?$vector@VCPUInfo@@V?$allocator@VCPUInfo@@@std@@@std@@AAEXXZ 00403870 f i protect.obj
 0001:00002900       ?assign@?$basic_string@DU?$char_traits@D@std@@V?$allocator@D@2@@std@@QAEAAV12@QBDI@Z 00403900 f i protect.obj
 0001:00002a40       ??1_Sentry_base@?$basic_istream@DU?$char_traits@D@std@@@std@@QAE@XZ 00403a40 f i systeminfo.obj
 0001:00002a40       ??1_Sentry_base@?$basic_ostream@DU?$char_traits@D@std@@@std@@QAE@XZ 00403a40 f i protect.obj
 0001:00002a90       ?_Destroy@?$vector@VRAMInfo@@V?$allocator@VRAMInfo@@@std@@@std@@AAEXPAVRAMInfo@@0@Z 00403a90 f i protect.obj
 0001:00002ac0       ?deallocate@?$allocator@VRAMInfo@@@std@@QAEXQAVRAMInfo@@I@Z 00403ac0 f i protect.obj
 0001:00002b00       ?_Destroy@?$vector@VOSInfo@@V?$allocator@VOSInfo@@@std@@@std@@AAEXPAVOSInfo@@0@Z 00403b00 f i protect.obj
 0001:00002b30       ?deallocate@?$allocator@VOSInfo@@@std@@QAEXQAVOSInfo@@I@Z 00403b30 f i protect.obj
 0001:00002b70       ?_Destroy@?$vector@VMotherboardInfo@@V?$allocator@VMotherboardInfo@@@std@@@std@@AAEXPAVMotherboardInfo@@0@Z 00403b70 f i protect.obj
 0001:00002ba0       ?deallocate@?$allocator@VMotherboardInfo@@@std@@QAEXQAVMotherboardInfo@@I@Z 00403ba0 f i protect.obj
 0001:00002be0       ?_Destroy@?$vector@VGPUInfo@@V?$allocator@VGPUInfo@@@std@@@std@@AAEXPAVGPUInfo@@0@Z 00403be0 f i protect.obj
 0001:00002c10       ?deallocate@?$allocator@VGPUInfo@@@std@@QAEXQAVGPUInfo@@I@Z 00403c10 f i protect.obj
 0001:00002c50       ?_Destroy@?$vector@VCPUInfo@@V?$allocator@VCPUInfo@@@std@@@std@@AAEXPAVCPUInfo@@0@Z 00403c50 f i protect.obj
 0001:00002c80       ?deallocate@?$allocator@VCPUInfo@@@std@@QAEXQAVCPUInfo@@I@Z 00403c80 f i protect.obj
 0001:00002cc0       ?_Xran@?$_String_val@U?$_Simple_types@D@std@@@std@@SAXXZ 00403cc0 f i protect.obj
 0001:00002cd0       ??$?6U?$char_traits@D@std@@@std@@YAAAV?$basic_ostream@DU?$char_traits@D@std@@@0@AAV10@PBD@Z 00403cd0 f i protect.obj
 0001:00002f10       ??$endl@DU?$char_traits@D@std@@@std@@YAAAV?$basic_ostream@DU?$char_traits@D@std@@@0@AAV10@@Z 00403f10 f i protect.obj
 0001:00002f40       ??$_Reallocate_grow_by@V<lambda_ab246b20b9526e2ef7792587e4298a77>@@PBDI@?$basic_string@DU?$char_traits@D@std@@V?$allocator@D@2@@std@@AAEAAV01@IV<lambda_ab246b20b9526e2ef7792587e4298a77>@@PBDI@Z 00403f40 f i protect.obj
 0001:000030a0       ??1RAMInfo@@QAE@XZ         004040a0 f i protect.obj
 0001:00003300       ??1OSInfo@@QAE@XZ          00404300 f i protect.obj
 0001:00003760       ??1MotherboardInfo@@QAE@XZ 00404760 f i protect.obj
 0001:000038c0       ??1GPUInfo@@QAE@XZ         004048c0 f i protect.obj
 0001:00003bd0       ??1CPUInfo@@QAE@XZ         00404bd0 f i protect.obj
 0001:00003d80       ??0bad_cast@std@@QAE@XZ    00404d80 f i systeminfo.obj
 0001:00003da0       ?_Throw_bad_cast@std@@YAXXZ 00404da0 f i systeminfo.obj
 0001:00003dc0       ??0bad_cast@std@@QAE@ABV01@@Z 00404dc0 f i systeminfo.obj
 0001:00003e00       ??1locale@std@@QAE@XZ      00404e00 f i systeminfo.obj
 0001:00003e20       ??0CPUInfo@@QAE@ABV?$vector@V?$basic_string@DU?$char_traits@D@std@@V?$allocator@D@2@@std@@V?$allocator@V?$basic_string@DU?$char_traits@D@std@@V?$allocator@D@2@@std@@@2@@std@@H@Z 00404e20 f   systeminfo.obj
 0001:000046d0       ??1SystemCommand@@QAE@XZ   004056d0 f i systeminfo.obj
 0001:00004770       ?getArchitecture@CPUInfo@@ABE?AV?$basic_string@DU?$char_traits@D@std@@V?$allocator@D@2@@std@@AAV23@@Z 00405770 f   systeminfo.obj
 0001:00004890       ??0CPUInfoDelegate@@QAE@XZ 00405890 f   systeminfo.obj
 0001:00004b60       ??0GPUInfo@@QAE@ABV?$vector@V?$basic_string@DU?$char_traits@D@std@@V?$allocator@D@2@@std@@V?$allocator@V?$basic_string@DU?$char_traits@D@std@@V?$allocator@D@2@@std@@@2@@std@@H@Z 00405b60 f   systeminfo.obj
 0001:00005b20       ?getVideoArchitecture@GPUInfo@@ABE?AV?$basic_string@DU?$char_traits@D@std@@V?$allocator@D@2@@std@@ABV23@@Z 00406b20 f   systeminfo.obj
 0001:00005e30       ?getVideoMemoryType@GPUInfo@@ABE?AV?$basic_string@DU?$char_traits@D@std@@V?$allocator@D@2@@std@@ABV23@@Z 00406e30 f   systeminfo.obj
 0001:00006090       ??0GPUInfoDelegate@@QAE@XZ 00407090 f   systeminfo.obj
 0001:00006360       ??0MotherboardInfo@@QAE@ABV?$vector@V?$basic_string@DU?$char_traits@D@std@@V?$allocator@D@2@@std@@V?$allocator@V?$basic_string@DU?$char_traits@D@std@@V?$allocator@D@2@@std@@@2@@std@@H@Z 00407360 f   systeminfo.obj
 0001:00006790       ?determineChipset@MotherboardInfo@@AAEXXZ 00407790 f   systeminfo.obj
 0001:000069d0       ??0MotherboardInfoDelegate@@QAE@XZ 004079d0 f   systeminfo.obj
 0001:00006ca0       ??0OSInfo@@QAE@ABV?$vector@V?$basic_string@DU?$char_traits@D@std@@V?$allocator@D@2@@std@@V?$allocator@V?$basic_string@DU?$char_traits@D@std@@V?$allocator@D@2@@std@@@2@@std@@H@Z 00407ca0 f   systeminfo.obj
 0001:000087c0       ??0OSInfoDelegate@@QAE@XZ  004097c0 f   systeminfo.obj
 0001:00008a90       ??0RAMInfo@@QAE@ABV?$vector@V?$basic_string@DU?$char_traits@D@std@@V?$allocator@D@2@@std@@V?$allocator@V?$basic_string@DU?$char_traits@D@std@@V?$allocator@D@2@@std@@@2@@std@@H@Z 00409a90 f   systeminfo.obj
 0001:00009b60       ?getMemoryType@RAMInfo@@ABE?AV?$basic_string@DU?$char_traits@D@std@@V?$allocator@D@2@@std@@ABV23@@Z 0040ab60 f   systeminfo.obj
 0001:00009dc0       ?getFormFactor@RAMInfo@@ABE?AV?$basic_string@DU?$char_traits@D@std@@V?$allocator@D@2@@std@@ABV23@@Z 0040adc0 f   systeminfo.obj
 0001:0000a010       ??0RAMInfoDelegate@@QAE@XZ 0040b010 f   systeminfo.obj
 0001:0000a2e0       ?stripAllFromString@SystemCommand@@AAE?AV?$basic_string@DU?$char_traits@D@std@@V?$allocator@D@2@@std@@ABV23@0@Z 0040b2e0 f   systeminfo.obj
 0001:0000a470       ?stripFromString@SystemCommand@@AAE?AV?$basic_string@DU?$char_traits@D@std@@V?$allocator@D@2@@std@@ABV23@0@Z 0040b470 f   systeminfo.obj
 0001:0000a730       ?stripPipeFromCommand@SystemCommand@@AAEXXZ 0040b730 f   systeminfo.obj
 0001:0000a8e0       ?systemCommandLaunch@SystemCommand@@AAEX_N@Z 0040b8e0 f   systeminfo.obj
 0001:0000b030       ??1?$function@$$A6A?AV?$basic_string@DU?$char_traits@D@std@@V?$allocator@D@2@@std@@ABV12@@Z@std@@QAE@XZ 0040c030 f i systeminfo.obj
 0001:0000b060       ??0?$vector@VRAMInfo@@V?$allocator@VRAMInfo@@@std@@@std@@QAE@ABV01@@Z 0040c060 f i systeminfo.obj
 0001:0000b240       ??0?$vector@VMotherboardInfo@@V?$allocator@VMotherboardInfo@@@std@@@std@@QAE@ABV01@@Z 0040c240 f i systeminfo.obj
 0001:0000b3e0       ??0?$vector@VGPUInfo@@V?$allocator@VGPUInfo@@@std@@@std@@QAE@ABV01@@Z 0040c3e0 f i systeminfo.obj
 0001:0000b5f0       ??0?$vector@VCPUInfo@@V?$allocator@VCPUInfo@@@std@@@std@@QAE@ABV01@@Z 0040c5f0 f i systeminfo.obj
 0001:0000b7a0       ?seekpos@?$basic_stringbuf@DU?$char_traits@D@std@@V?$allocator@D@2@@std@@MAE?AV?$fpos@U_Mbstatet@@@2@V32@H@Z 0040c7a0 f i systeminfo.obj
 0001:0000b8b0       ?seekoff@?$basic_stringbuf@DU?$char_traits@D@std@@V?$allocator@D@2@@std@@MAE?AV?$fpos@U_Mbstatet@@@2@_JHH@Z 0040c8b0 f i systeminfo.obj
 0001:0000ba40       ?underflow@?$basic_stringbuf@DU?$char_traits@D@std@@V?$allocator@D@2@@std@@MAEHXZ 0040ca40 f i systeminfo.obj
 0001:0000baa0       ?pbackfail@?$basic_stringbuf@DU?$char_traits@D@std@@V?$allocator@D@2@@std@@MAEHH@Z 0040caa0 f i systeminfo.obj
 0001:0000bb00       ?overflow@?$basic_stringbuf@DU?$char_traits@D@std@@V?$allocator@D@2@@std@@MAEHH@Z 0040cb00 f i systeminfo.obj
 0001:0000bcc0       ??1?$basic_stringbuf@DU?$char_traits@D@std@@V?$allocator@D@2@@std@@UAE@XZ 0040ccc0 f i systeminfo.obj
 0001:0000bd70       ??1?$vector@V?$basic_string@DU?$char_traits@D@std@@V?$allocator@D@2@@std@@V?$allocator@V?$basic_string@DU?$char_traits@D@std@@V?$allocator@D@2@@std@@@2@@std@@QAE@XZ 0040cd70 f i systeminfo.obj
 0001:0000bd80       ??0?$vector@V?$basic_string@DU?$char_traits@D@std@@V?$allocator@D@2@@std@@V?$allocator@V?$basic_string@DU?$char_traits@D@std@@V?$allocator@D@2@@std@@@2@@std@@QAE@ABV01@@Z 0040cd80 f i systeminfo.obj
 0001:0000be80       ?imbue@?$basic_filebuf@DU?$char_traits@D@std@@@std@@MAEXABVlocale@2@@Z 0040ce80 f i systeminfo.obj
 0001:0000bfa0       ?sync@?$basic_filebuf@DU?$char_traits@D@std@@@std@@MAEHXZ 0040cfa0 f i systeminfo.obj
 0001:0000bfd0       ?setbuf@?$basic_filebuf@DU?$char_traits@D@std@@@std@@MAEPAV?$basic_streambuf@DU?$char_traits@D@std@@@2@PAD_J@Z 0040cfd0 f i systeminfo.obj
 0001:0000c0c0       ?seekpos@?$basic_filebuf@DU?$char_traits@D@std@@@std@@MAE?AV?$fpos@U_Mbstatet@@@2@V32@H@Z 0040d0c0 f i systeminfo.obj
 0001:0000c1a0       ?seekoff@?$basic_filebuf@DU?$char_traits@D@std@@@std@@MAE?AV?$fpos@U_Mbstatet@@@2@_JHH@Z 0040d1a0 f i systeminfo.obj
 0001:0000c2c0       ?xsputn@?$basic_filebuf@DU?$char_traits@D@std@@@std@@MAE_JPBD_J@Z 0040d2c0 f i systeminfo.obj
 0001:0000c3b0       ?xsgetn@?$basic_filebuf@DU?$char_traits@D@std@@@std@@MAE_JPAD_J@Z 0040d3b0 f i systeminfo.obj
 0001:0000c4e0       ?uflow@?$basic_filebuf@DU?$char_traits@D@std@@@std@@MAEHXZ 0040d4e0 f i systeminfo.obj
 0001:0000c730       ?underflow@?$basic_filebuf@DU?$char_traits@D@std@@@std@@MAEHXZ 0040d730 f i systeminfo.obj
 0001:0000c770       ?pbackfail@?$basic_filebuf@DU?$char_traits@D@std@@@std@@MAEHH@Z 0040d770 f i systeminfo.obj
 0001:0000c820       ?overflow@?$basic_filebuf@DU?$char_traits@D@std@@@std@@MAEHH@Z 0040d820 f i systeminfo.obj
 0001:0000c970       ?_Unlock@?$basic_filebuf@DU?$char_traits@D@std@@@std@@UAEXXZ 0040d970 f i systeminfo.obj
 0001:0000c980       ?_Lock@?$basic_filebuf@DU?$char_traits@D@std@@@std@@UAEXXZ 0040d980 f i systeminfo.obj
 0001:0000c990       ??1?$basic_filebuf@DU?$char_traits@D@std@@@std@@UAE@XZ 0040d990 f i systeminfo.obj
 0001:0000ca50       ??0?$basic_ifstream@DU?$char_traits@D@std@@@std@@QAE@XZ 0040da50 f i systeminfo.obj
 0001:0000cb30       ?find@?$basic_string@DU?$char_traits@D@std@@V?$allocator@D@2@@std@@QBEIABV12@I@Z 0040db30 f i systeminfo.obj
 0001:0000cc50       ??4?$basic_string@DU?$char_traits@D@std@@V?$allocator@D@2@@std@@QAEAAV01@$$QAV01@@Z 0040dc50 f i systeminfo.obj
 0001:0000ccd0       ??0?$basic_string@DU?$char_traits@D@std@@V?$allocator@D@2@@std@@QAE@ABV01@@Z 0040dcd0 f i systeminfo.obj
 0001:0000cda0       ??_E?$basic_stringbuf@DU?$char_traits@D@std@@V?$allocator@D@2@@std@@UAEPAXI@Z 0040dda0 f i * CIL library *:* CIL module *
 0001:0000cda0       ??_G?$basic_stringbuf@DU?$char_traits@D@std@@V?$allocator@D@2@@std@@UAEPAXI@Z 0040dda0 f i systeminfo.obj
 0001:0000cdd0       ??_G?$basic_stringstream@DU?$char_traits@D@std@@V?$allocator@D@2@@std@@UAEPAXI@Z 0040ddd0 f i systeminfo.obj
 0001:0000cdd0       ??_E?$basic_stringstream@DU?$char_traits@D@std@@V?$allocator@D@2@@std@@UAEPAXI@Z 0040ddd0 f i * CIL library *:* CIL module *
 0001:0000ce30       ??_E?$basic_filebuf@DU?$char_traits@D@std@@@std@@UAEPAXI@Z 0040de30 f i * CIL library *:* CIL module *
 0001:0000ce30       ??_G?$basic_filebuf@DU?$char_traits@D@std@@@std@@UAEPAXI@Z 0040de30 f i systeminfo.obj
 0001:0000ce60       ??_E?$basic_ifstream@DU?$char_traits@D@std@@@std@@UAEPAXI@Z 0040de60 f i * CIL library *:* CIL module *
 0001:0000ce60       ??_G?$basic_ifstream@DU?$char_traits@D@std@@@std@@UAEPAXI@Z 0040de60 f i systeminfo.obj
 0001:0000cec0       ??_D?$basic_stringstream@DU?$char_traits@D@std@@V?$allocator@D@2@@std@@QAEXXZ 0040dec0 f i systeminfo.obj
 0001:0000cf00       ??1?$_Tidy_guard@V?$vector@V?$basic_string@DU?$char_traits@D@std@@V?$allocator@D@2@@std@@V?$allocator@V?$basic_string@DU?$char_traits@D@std@@V?$allocator@D@2@@std@@@2@@std@@@std@@QAE@XZ 0040df00 f i systeminfo.obj
 0001:0000cf10       ??1?$_Tidy_guard@V?$vector@VCPUInfo@@V?$allocator@VCPUInfo@@@std@@@std@@@std@@QAE@XZ 0040df10 f i systeminfo.obj
 0001:0000cf20       ??1?$_Tidy_guard@V?$vector@VGPUInfo@@V?$allocator@VGPUInfo@@@std@@@std@@@std@@QAE@XZ 0040df20 f i systeminfo.obj
 0001:0000cf30       ??1?$_Tidy_guard@V?$vector@VMotherboardInfo@@V?$allocator@VMotherboardInfo@@@std@@@std@@@std@@QAE@XZ 0040df30 f i systeminfo.obj
 0001:0000cf40       ??1?$_Tidy_guard@V?$vector@VOSInfo@@V?$allocator@VOSInfo@@@std@@@std@@@std@@QAE@XZ 0040df40 f i systeminfo.obj
 0001:0000cf50       ??1?$_Tidy_guard@V?$vector@VRAMInfo@@V?$allocator@VRAMInfo@@@std@@@std@@@std@@QAE@XZ 0040df50 f i systeminfo.obj
 0001:0000cf60       ?_Tidy@?$vector@V?$basic_string@DU?$char_traits@D@std@@V?$allocator@D@2@@std@@V?$allocator@V?$basic_string@DU?$char_traits@D@std@@V?$allocator@D@2@@std@@@2@@std@@AAEXXZ 0040df60 f i systeminfo.obj
 0001:0000cfe0       ?_Destroy@?$vector@V?$basic_string@DU?$char_traits@D@std@@V?$allocator@D@2@@std@@V?$allocator@V?$basic_string@DU?$char_traits@D@std@@V?$allocator@D@2@@std@@@2@@std@@AAEXPAV?$basic_string@DU?$char_traits@D@std@@V?$allocator@D@2@@2@0@Z 0040dfe0 f i systeminfo.obj
 0001:0000d000       ?_Endwrite@?$basic_filebuf@DU?$char_traits@D@std@@@std@@IAE_NXZ 0040e000 f i systeminfo.obj
 0001:0000d0d0       ?allocate@?$allocator@V?$basic_string@DU?$char_traits@D@std@@V?$allocator@D@2@@std@@@std@@QAEPAV?$basic_string@DU?$char_traits@D@std@@V?$allocator@D@2@@2@I@Z 0040e0d0 f i systeminfo.obj
 0001:0000d130       ?deallocate@?$allocator@V?$basic_string@DU?$char_traits@D@std@@V?$allocator@D@2@@std@@@std@@QAEXQAV?$basic_string@DU?$char_traits@D@std@@V?$allocator@D@2@@2@I@Z 0040e130 f i systeminfo.obj
 0001:0000d170       ??$use_facet@V?$ctype@D@std@@@std@@YAABV?$ctype@D@0@ABVlocale@0@@Z 0040e170 f i systeminfo.obj
 0001:0000d270       ??$?HDU?$char_traits@D@std@@V?$allocator@D@1@@std@@YA?AV?$basic_string@DU?$char_traits@D@std@@V?$allocator@D@2@@0@ABV10@QBD@Z 0040e270 f i systeminfo.obj
 0001:0000d390       ??$?8DU?$char_traits@D@std@@V?$allocator@D@1@@std@@YA_NABV?$basic_string@DU?$char_traits@D@std@@V?$allocator@D@2@@0@QBD@Z 0040e390 f i systeminfo.obj
 0001:0000d420       ??$_Emplace_reallocate@AAV?$vector@V?$basic_string@DU?$char_traits@D@std@@V?$allocator@D@2@@std@@V?$allocator@V?$basic_string@DU?$char_traits@D@std@@V?$allocator@D@2@@std@@@2@@std@@AAH@?$vector@VCPUInfo@@V?$allocator@VCPUInfo@@@std@@@std@@QAEPAVCPUInfo@@QAV2@AAV?$vector@V?$basic_string@DU?$char_traits@D@std@@V?$allocator@D@2@@std@@V?$allocator@V?$basic_string@DU?$char_traits@D@std@@V?$allocator@D@2@@std@@@2@@1@AAH@Z 0040e420 f i systeminfo.obj
 0001:0000d670       ??$toString@_J@GPUInfo@@ABE?AV?$basic_string@DU?$char_traits@D@std@@V?$allocator@D@2@@std@@AB_J@Z 0040e670 f i systeminfo.obj
 0001:0000d670       ??$toString@_J@RAMInfo@@ABE?AV?$basic_string@DU?$char_traits@D@std@@V?$allocator@D@2@@std@@AB_J@Z 0040e670 f i systeminfo.obj
 0001:0000d670       ??$toString@_J@OSInfo@@ABE?AV?$basic_string@DU?$char_traits@D@std@@V?$allocator@D@2@@std@@AB_J@Z 0040e670 f i systeminfo.obj
 0001:0000d810       ??$_Emplace_reallocate@AAV?$vector@V?$basic_string@DU?$char_traits@D@std@@V?$allocator@D@2@@std@@V?$allocator@V?$basic_string@DU?$char_traits@D@std@@V?$allocator@D@2@@std@@@2@@std@@AAH@?$vector@VGPUInfo@@V?$allocator@VGPUInfo@@@std@@@std@@QAEPAVGPUInfo@@QAV2@AAV?$vector@V?$basic_string@DU?$char_traits@D@std@@V?$allocator@D@2@@std@@V?$allocator@V?$basic_string@DU?$char_traits@D@std@@V?$allocator@D@2@@std@@@2@@1@AAH@Z 0040e810 f i systeminfo.obj
 0001:0000da60       ??$_Emplace_reallocate@AAV?$vector@V?$basic_string@DU?$char_traits@D@std@@V?$allocator@D@2@@std@@V?$allocator@V?$basic_string@DU?$char_traits@D@std@@V?$allocator@D@2@@std@@@2@@std@@AAH@?$vector@VMotherboardInfo@@V?$allocator@VMotherboardInfo@@@std@@@std@@QAEPAVMotherboardInfo@@QAV2@AAV?$vector@V?$basic_string@DU?$char_traits@D@std@@V?$allocator@D@2@@std@@V?$allocator@V?$basic_string@DU?$char_traits@D@std@@V?$allocator@D@2@@std@@@2@@1@AAH@Z 0040ea60 f i systeminfo.obj
 0001:0000dc80       ??$_Emplace_reallocate@AAV?$vector@V?$basic_string@DU?$char_traits@D@std@@V?$allocator@D@2@@std@@V?$allocator@V?$basic_string@DU?$char_traits@D@std@@V?$allocator@D@2@@std@@@2@@std@@AAH@?$vector@VOSInfo@@V?$allocator@VOSInfo@@@std@@@std@@QAEPAVOSInfo@@QAV2@AAV?$vector@V?$basic_string@DU?$char_traits@D@std@@V?$allocator@D@2@@std@@V?$allocator@V?$basic_string@DU?$char_traits@D@std@@V?$allocator@D@2@@std@@@2@@1@AAH@Z 0040ec80 f i systeminfo.obj
 0001:0000df30       ??$_Emplace_reallocate@AAV?$vector@V?$basic_string@DU?$char_traits@D@std@@V?$allocator@D@2@@std@@V?$allocator@V?$basic_string@DU?$char_traits@D@std@@V?$allocator@D@2@@std@@@2@@std@@AAH@?$vector@VRAMInfo@@V?$allocator@VRAMInfo@@@std@@@std@@QAEPAVRAMInfo@@QAV2@AAV?$vector@V?$basic_string@DU?$char_traits@D@std@@V?$allocator@D@2@@std@@V?$allocator@V?$basic_string@DU?$char_traits@D@std@@V?$allocator@D@2@@std@@@2@@1@AAH@Z 0040ef30 f i systeminfo.obj
 0001:0000e180       ??$_Emplace_reallocate@V?$basic_string@DU?$char_traits@D@std@@V?$allocator@D@2@@std@@@?$vector@V?$basic_string@DU?$char_traits@D@std@@V?$allocator@D@2@@std@@V?$allocator@V?$basic_string@DU?$char_traits@D@std@@V?$allocator@D@2@@std@@@2@@std@@QAEPAV?$basic_string@DU?$char_traits@D@std@@V?$allocator@D@2@@1@QAV21@$$QAV21@@Z 0040f180 f i systeminfo.obj
 0001:0000e310       ??$_Emplace_reallocate@ABV?$basic_string@DU?$char_traits@D@std@@V?$allocator@D@2@@std@@@?$vector@V?$basic_string@DU?$char_traits@D@std@@V?$allocator@D@2@@std@@V?$allocator@V?$basic_string@DU?$char_traits@D@std@@V?$allocator@D@2@@std@@@2@@std@@QAEPAV?$basic_string@DU?$char_traits@D@std@@V?$allocator@D@2@@1@QAV21@ABV21@@Z 0040f310 f i systeminfo.obj
 0001:0000e4d0       ??$_Destroy_range@V?$allocator@V?$basic_string@DU?$char_traits@D@std@@V?$allocator@D@2@@std@@@std@@@std@@YAXPAV?$basic_string@DU?$char_traits@D@std@@V?$allocator@D@2@@0@QAV10@AAV?$allocator@V?$basic_string@DU?$char_traits@D@std@@V?$allocator@D@2@@std@@@0@@Z 0040f4d0 f i systeminfo.obj
 0001:0000e540       ??$_Reallocate_grow_by@V<lambda_15711c68e099a15a58f4d77303cb286d>@@D@?$basic_string@DU?$char_traits@D@std@@V?$allocator@D@2@@std@@AAEAAV01@IV<lambda_15711c68e099a15a58f4d77303cb286d>@@D@Z 0040f540 f i systeminfo.obj
 0001:0000e680       ??1?$unique_ptr@V_Facet_base@std@@U?$default_delete@V_Facet_base@std@@@2@@std@@QAE@XZ 0040f680 f i systeminfo.obj
 0001:0000e690       ?_Xlength@?$vector@VMotherboardInfo@@V?$allocator@VMotherboardInfo@@@std@@@std@@CAXXZ 0040f690 f i systeminfo.obj
 0001:0000e690       ?_Xlength@?$vector@VOSInfo@@V?$allocator@VOSInfo@@@std@@@std@@CAXXZ 0040f690 f i systeminfo.obj
 0001:0000e690       ?_Xlength@?$vector@V?$basic_string@DU?$char_traits@D@std@@V?$allocator@D@2@@std@@V?$allocator@V?$basic_string@DU?$char_traits@D@std@@V?$allocator@D@2@@std@@@2@@std@@CAXXZ 0040f690 f i systeminfo.obj
 0001:0000e690       ?_Xlength@?$vector@VRAMInfo@@V?$allocator@VRAMInfo@@@std@@@std@@CAXXZ 0040f690 f i systeminfo.obj
 0001:0000e690       ?_Xlength@?$vector@VCPUInfo@@V?$allocator@VCPUInfo@@@std@@@std@@CAXXZ 0040f690 f i systeminfo.obj
 0001:0000e690       ?_Xlength@?$vector@VGPUInfo@@V?$allocator@VGPUInfo@@@std@@@std@@CAXXZ 0040f690 f i systeminfo.obj
 0001:0000e6a0       ??0?$basic_string@DU?$char_traits@D@std@@V?$allocator@D@2@@std@@QAE@U_String_constructor_concat_tag@1@AAV01@1@Z 0040f6a0 f i systeminfo.obj
 0001:0000e880       ??$_Insert_string@DU?$char_traits@D@std@@I@std@@YAAAV?$basic_ostream@DU?$char_traits@D@std@@@0@AAV10@QBDI@Z 0040f880 f i systeminfo.obj
 0001:0000ea80       ??$_Uninitialized_copy@PAVOSInfo@@V?$allocator@VOSInfo@@@std@@@std@@YAPAVOSInfo@@QAV1@0PAV1@AAV?$allocator@VOSInfo@@@0@@Z 0040fa80 f i systeminfo.obj
 0001:0000ec30       ??$_Uninitialized_move@PAVRAMInfo@@V?$allocator@VRAMInfo@@@std@@@std@@YAPAVRAMInfo@@QAV1@0PAV1@AAV?$allocator@VRAMInfo@@@0@@Z 0040fc30 f i systeminfo.obj
 0001:0000ee80       ??$_Uninitialized_move@PAVMotherboardInfo@@V?$allocator@VMotherboardInfo@@@std@@@std@@YAPAVMotherboardInfo@@QAV1@0PAV1@AAV?$allocator@VMotherboardInfo@@@0@@Z 0040fe80 f i systeminfo.obj
 0001:0000efe0       ??$_Uninitialized_move@PAVGPUInfo@@V?$allocator@VGPUInfo@@@std@@@std@@YAPAVGPUInfo@@QAV1@0PAV1@AAV?$allocator@VGPUInfo@@@0@@Z 0040ffe0 f i systeminfo.obj
 0001:0000f250       ??$_Uninitialized_move@PAVCPUInfo@@V?$allocator@VCPUInfo@@@std@@@std@@YAPAVCPUInfo@@QAV1@0PAV1@AAV?$allocator@VCPUInfo@@@0@@Z 00410250 f i systeminfo.obj
 0001:0000f410       ??$_Uninitialized_move@PAV?$basic_string@DU?$char_traits@D@std@@V?$allocator@D@2@@std@@V?$allocator@V?$basic_string@DU?$char_traits@D@std@@V?$allocator@D@2@@std@@@2@@std@@YAPAV?$basic_string@DU?$char_traits@D@std@@V?$allocator@D@2@@0@QAV10@0PAV10@AAV?$allocator@V?$basic_string@DU?$char_traits@D@std@@V?$allocator@D@2@@std@@@0@@Z 00410410 f i systeminfo.obj
 0001:0000f470       ??1?$_Uninitialized_backout_al@V?$allocator@V?$basic_string@DU?$char_traits@D@std@@V?$allocator@D@2@@std@@@std@@@std@@QAE@XZ 00410470 f i systeminfo.obj
 0001:0000f480       ??1?$_Uninitialized_backout_al@V?$allocator@VCPUInfo@@@std@@@std@@QAE@XZ 00410480 f i systeminfo.obj
 0001:0000f4b0       ??1?$_Uninitialized_backout_al@V?$allocator@VGPUInfo@@@std@@@std@@QAE@XZ 004104b0 f i systeminfo.obj
 0001:0000f4e0       ??1?$_Uninitialized_backout_al@V?$allocator@VMotherboardInfo@@@std@@@std@@QAE@XZ 004104e0 f i systeminfo.obj
 0001:0000f510       ??1?$_Uninitialized_backout_al@V?$allocator@VOSInfo@@@std@@@std@@QAE@XZ 00410510 f i systeminfo.obj
 0001:0000f540       ??1?$_Uninitialized_backout_al@V?$allocator@VRAMInfo@@@std@@@std@@QAE@XZ 00410540 f i systeminfo.obj
 0001:0000f5e0       ??$?5DU?$char_traits@D@std@@V?$allocator@D@1@@std@@YAAAV?$basic_istream@DU?$char_traits@D@std@@@0@$$QAV10@AAV?$basic_string@DU?$char_traits@D@std@@V?$allocator@D@2@@0@@Z 004105e0 f i systeminfo.obj
 0001:0000f7e0       ??1sentry@?$basic_istream@DU?$char_traits@D@std@@@std@@QAE@XZ 004107e0 f i systeminfo.obj
 0001:0000f840       ??0OSInfo@@QAE@$$QAV0@@Z   00410840 f i systeminfo.obj
 0001:0000fbfb       ??_E?$basic_stringstream@DU?$char_traits@D@std@@V?$allocator@D@2@@std@@$4PPPPPPPM@A@AEPAXI@Z 00410bfb f i systeminfo.obj
 0001:0000fc03       ??_E?$basic_ifstream@DU?$char_traits@D@std@@@std@@$4PPPPPPPM@A@AEPAXI@Z 00410c03 f i systeminfo.obj
 0001:0000fc0b       ??1_Fac_node@std@@QAE@XZ   00410c0b f i msvcprt:locale0_implib.obj
 0001:0000fc3c       ??1_Fac_tidy_reg_t@std@@QAE@XZ 00410c3c f i msvcprt:locale0_implib.obj
 0001:0000fc63       ?_Facet_Register@std@@YAXPAV_Facet_base@1@@Z 00410c63 f   msvcprt:locale0_implib.obj
 0001:0000fc8f       ?_Lock@?$basic_streambuf@DU?$char_traits@D@std@@@std@@UAEXXZ 00410c8f f   msvcprt:MSVCP140.dll
 0001:0000fc95       ?_Unlock@?$basic_streambuf@DU?$char_traits@D@std@@@std@@UAEXXZ 00410c95 f   msvcprt:MSVCP140.dll
 0001:0000fc9b       ?showmanyc@?$basic_streambuf@DU?$char_traits@D@std@@@std@@MAE_JXZ 00410c9b f   msvcprt:MSVCP140.dll
 0001:0000fca1       ?uflow@?$basic_streambuf@DU?$char_traits@D@std@@@std@@MAEHXZ 00410ca1 f   msvcprt:MSVCP140.dll
 0001:0000fca7       ?xsgetn@?$basic_streambuf@DU?$char_traits@D@std@@@std@@MAE_JPAD_J@Z 00410ca7 f   msvcprt:MSVCP140.dll
 0001:0000fcad       ?xsputn@?$basic_streambuf@DU?$char_traits@D@std@@@std@@MAE_JPBD_J@Z 00410cad f   msvcprt:MSVCP140.dll
 0001:0000fcb3       ?setbuf@?$basic_streambuf@DU?$char_traits@D@std@@@std@@MAEPAV12@PAD_J@Z 00410cb3 f   msvcprt:MSVCP140.dll
 0001:0000fcb9       ?sync@?$basic_streambuf@DU?$char_traits@D@std@@@std@@MAEHXZ 00410cb9 f   msvcprt:MSVCP140.dll
 0001:0000fcbf       ?imbue@?$basic_streambuf@DU?$char_traits@D@std@@@std@@MAEXABVlocale@2@@Z 00410cbf f   msvcprt:MSVCP140.dll
 0001:0000fcc5       @__security_check_cookie@4 00410cc5 f   MSVCRT:secchk.obj
 0001:0000fcd6       ??2@YAPAXI@Z               00410cd6 f   MSVCRT:new_scalar.obj
 0001:0000fd06       ??3@YAXPAXI@Z              00410d06 f   MSVCRT:delete_scalar_size.obj
 0001:0000fd14       ??_Etype_info@@UAEPAXI@Z   00410d14 f i MSVCRT:std_type_info_static.obj
 0001:0000fd14       ??_Gtype_info@@UAEPAXI@Z   00410d14 f i MSVCRT:std_type_info_static.obj
 0001:0000fd37       ??_M@YGXPAXIIP6EX0@Z@Z     00410d37 f   MSVCRT:ehvecdtr.obj
 0001:0000fdbc       ?__ArrayUnwind@@YGXPAXIIP6EX0@Z@Z 00410dbc f   MSVCRT:ehvecdtr.obj
 0001:0000fe90       ___scrt_acquire_startup_lock 00410e90 f   MSVCRT:utility.obj
 0001:0000fec2       ___scrt_initialize_crt     00410ec2 f   MSVCRT:utility.obj
 0001:0000fefb       ___scrt_initialize_onexit_tables 00410efb f   MSVCRT:utility.obj
 0001:0000ff82       ___scrt_is_nonwritable_in_current_image 00410f82 f   MSVCRT:utility.obj
 0001:00010016       ___scrt_release_startup_lock 00411016 f   MSVCRT:utility.obj
 0001:00010033       ___scrt_uninitialize_crt   00411033 f   MSVCRT:utility.obj
 0001:0001005b       __onexit                   0041105b f   MSVCRT:utility.obj
 0001:00010088       _atexit                    00411088 f   MSVCRT:utility.obj
 0001:000102de       _WinMainCRTStartup         004112de f   MSVCRT:exe_winmain.obj
 0001:000102e8       @_guard_check_icall_nop@4  004112e8 f i MSVCRT:guard_support.obj
 0001:000102e8       __initialize_denormal_control 004112e8 f i MSVCRT:denormal_control.obj
 0001:000102e8       __initialize_invalid_parameter_handler 004112e8 f i MSVCRT:invalid_parameter_handler.obj
 0001:000102eb       ___raise_securityfailure   004112eb f   MSVCRT:gs_report.obj
 0001:00010313       ___report_gsfailure        00411313 f   MSVCRT:gs_report.obj
 0001:0001040d       ___report_rangecheckfailure 0041140d f   MSVCRT:gs_report.obj
 0001:00010419       ___report_securityfailure  00411419 f   MSVCRT:gs_report.obj
 0001:000104e8       ??0bad_alloc@std@@QAE@XZ   004114e8 f i MSVCRT:throw_bad_alloc.obj
 0001:00010500       ?__scrt_throw_std_bad_alloc@@YAXXZ 00411500 f   MSVCRT:throw_bad_alloc.obj
 0001:0001051d       ??3@YAXPAX@Z               0041151d f   MSVCRT:delete_scalar.obj
 0001:00010530       __SEH_prolog4              00411530 f   MSVCRT:sehprolg4.obj
 0001:00010576       __except_handler4          00411576 f   MSVCRT:chandler4gs.obj
 0001:000105a5       ___isa_available_init      004115a5 f   MSVCRT:cpu_disp.obj
 0001:00010776       __get_startup_argv_mode    00411776 f   MSVCRT:argv_mode.obj
 0001:0001077a       ___scrt_is_ucrt_dll_in_use 0041177a f   MSVCRT:ucrt_detection.obj
 0001:00010786       ___scrt_fastfail           00411786 f   MSVCRT:utility_desktop.obj
 0001:000108a1       ___scrt_get_show_window_mode 004118a1 f   MSVCRT:utility_desktop.obj
 0001:000108d2       ___scrt_initialize_mta     004118d2 f   MSVCRT:utility_desktop.obj
 0001:000108e0       _Curl_ssl_backend          004118e0 f   libcurl:vtls.obj
 0001:000108e0       __matherr                  004118e0 f   MSVCRT:matherr.obj
 0001:000108e0       _Curl_resolver_global_init 004118e0 f   libcurl:asyn-thread.obj
 0001:000108e0       ___scrt_stub_for_initialize_mta 004118e0 f   MSVCRT:utility_desktop.obj
 0001:000108e0       _Curl_posttransfer         004118e0 f   libcurl:transfer.obj
 0001:000108e0       __get_startup_commit_mode  004118e0 f   MSVCRT:commit_mode.obj
 0001:000108e0       ___scrt_exe_initialize_mta 004118e0 f   MSVCRT:utility_desktop.obj
 0001:000108e0       __get_startup_thread_locale_mode 004118e0 f   MSVCRT:thread_locale.obj
 0001:000108e0       __get_startup_new_mode     004118e0 f   MSVCRT:new_mode.obj
 0001:000108e0       ___scrt_initialize_winrt   004118e0 f   MSVCRT:utility_desktop.obj
 0001:000108e0       _Curl_if2ip                004118e0 f   libcurl:if2ip.obj
 0001:000108e3       ___scrt_is_managed_app     004118e3 f   MSVCRT:utility_desktop.obj
 0001:00010926       ___scrt_set_unhandled_exception_filter 00411926 f   MSVCRT:utility_desktop.obj
 0001:00010932       ___scrt_unhandled_exception_filter@4 00411932 f   MSVCRT:utility_desktop.obj
 0001:00010988       __crt_debugger_hook        00411988 f   MSVCRT:utility_desktop.obj
 0001:000109dd       ___security_init_cookie    004119dd f   MSVCRT:gs_support.obj
 0001:00010a28       __get_startup_file_mode    00411a28 f   MSVCRT:file_mode.obj
 0001:00010a2e       ?__scrt_initialize_type_info@@YAXXZ 00411a2e f   MSVCRT:tncleanup.obj
 0001:00010a40       ___vcrt_uninitialize       00411a40 f   MSVCRT:ucrt_stubs.obj
 0001:00010a40       ___scrt_stub_for_acrt_uninitialize 00411a40 f   MSVCRT:ucrt_stubs.obj
 0001:00010a40       ___vcrt_initialize         00411a40 f   MSVCRT:ucrt_stubs.obj
 0001:00010a40       ___acrt_initialize         00411a40 f   MSVCRT:ucrt_stubs.obj
 0001:00010a40       __should_initialize_environment 00411a40 f   MSVCRT:env_mode.obj
 0001:00010a40       _Curl_auth_is_ntlm_supported 00411a40 f   libcurl:ntlm.obj
 0001:00010a40       _Curl_auth_is_digest_supported 00411a40 f   libcurl:digest.obj
 0001:00010a40       ___scrt_stub_for_acrt_initialize 00411a40 f   MSVCRT:ucrt_stubs.obj
 0001:00010a40       ___acrt_uninitialize       00411a40 f   MSVCRT:ucrt_stubs.obj
 0001:00010a43       __initialize_default_precision 00411a43 f   MSVCRT:default_precision.obj
 0001:00010a64       ___local_stdio_scanf_options 00411a64 f i MSVCRT:default_local_stdio_options.obj
 0001:00010a6a       ___scrt_initialize_default_local_stdio_options 00411a6a f   MSVCRT:default_local_stdio_options.obj
 0001:00010a87       ___scrt_is_user_matherr_present 00411a87 f   MSVCRT:matherr_detection.obj
 0001:00010a93       ___scrt_get_dyn_tls_init_callback 00411a93 f   MSVCRT:dyn_tls_init.obj
 0001:00010a99       ___scrt_get_dyn_tls_dtor_callback 00411a99 f   MSVCRT:dyn_tls_dtor.obj
 0001:00010a9f       __RTC_Initialize           00411a9f f   MSVCRT:initsect.obj
 0001:00010acb       __RTC_Terminate            00411acb f   MSVCRT:initsect.obj
 0001:00010b00       _curl_easy_cleanup         00411b00 f   libcurl:easy.obj
 0001:00010b20       _curl_easy_init            00411b20 f   libcurl:easy.obj
 0001:00010b60       _curl_easy_perform         00411b60 f   libcurl:easy.obj
 0001:00010b80       _curl_global_init          00411b80 f   libcurl:easy.obj
 0001:00010da0       _Curl_setblobopt           00411da0 f   libcurl:setopt.obj
 0001:00010e40       _Curl_setstropt            00411e40 f   libcurl:setopt.obj
 0001:00010eb0       _Curl_vsetopt              00411eb0 f   libcurl:setopt.obj
 0001:00013b20       _curl_easy_setopt          00414b20 f   libcurl:setopt.obj
 0001:00013c10       _Curl_slist_append_nodup   00414c10 f   libcurl:slist.obj
 0001:00013c50       _curl_slist_append         00414c50 f   libcurl:slist.obj
 0001:00013c90       _curl_slist_free_all       00414c90 f   libcurl:slist.obj
 0001:00013cf0       _Curl_attach_connnection   00414cf0 f   libcurl:multi.obj
 0001:00013d20       _Curl_detach_connnection   00414d20 f   libcurl:multi.obj
 0001:00013d50       _Curl_expire               00414d50 f   libcurl:multi.obj
 0001:00013eb0       _Curl_expire_clear         00414eb0 f   libcurl:multi.obj
 0001:00013f50       _Curl_expire_done          00414f50 f   libcurl:multi.obj
 0001:00013f60       _Curl_multi_closed         00414f60 f   libcurl:multi.obj
 0001:00013fc0       _Curl_multi_handle         00414fc0 f   libcurl:multi.obj
 0001:00014110       _Curl_multi_max_host_connections 00415110 f   libcurl:multi.obj
 0001:00014130       _Curl_multi_max_total_connections 00415130 f   libcurl:multi.obj
 0001:00014150       _Curl_multiplex_wanted     00415150 f   libcurl:multi.obj
 0001:00014170       _Curl_preconnect           00415170 f   libcurl:multi.obj
 0001:000141b0       _Curl_set_in_callback      004151b0 f   libcurl:multi.obj
 0001:000141e0       _Curl_update_timer         004151e0 f   libcurl:multi.obj
 0001:00014410       _curl_multi_add_handle     00415410 f   libcurl:multi.obj
 0001:000145a0       _curl_multi_cleanup        004155a0 f   libcurl:multi.obj
 0001:000146a0       _curl_multi_info_read      004156a0 f   libcurl:multi.obj
 0001:00014710       _curl_multi_perform        00415710 f   libcurl:multi.obj
 0001:00014820       _curl_multi_poll           00415820 f   libcurl:multi.obj
 0001:00014840       _curl_multi_remove_handle  00415840 f   libcurl:multi.obj
 0001:00014a10       _curl_multi_setopt         00415a10 f   libcurl:multi.obj
 0001:00014b80       _curl_multi_timeout        00415b80 f   libcurl:multi.obj
 0001:000167b0       _Curl_resolver_cleanup     004177b0 f   libcurl:asyn-thread.obj
 0001:00016af0       _Curl_free_idnconverted_hostname 00417af0 f   libcurl:url.obj
 0001:00016b90       _Curl_cookie_add           00417b90 f   libcurl:cookie.obj
 0001:000178c0       _Curl_cookie_cleanup       004188c0 f   libcurl:cookie.obj
 0001:00017910       _Curl_cookie_clearall      00418910 f   libcurl:cookie.obj
 0001:00017950       _Curl_cookie_clearsess     00418950 f   libcurl:cookie.obj
 0001:000179d0       _Curl_cookie_freelist      004189d0 f   libcurl:cookie.obj
 0001:00017a00       _Curl_cookie_getlist       00418a00 f   libcurl:cookie.obj
 0001:00017b70       _Curl_cookie_init          00418b70 f   libcurl:cookie.obj
 0001:00017d50       _Curl_cookie_loadfiles     00418d50 f   libcurl:cookie.obj
 0001:00017dd0       _Curl_flush_cookies        00418dd0 f   libcurl:cookie.obj
 0001:00018820       _sscanf                    00419820 f i libcurl:cookie.obj
 0001:000188d0       _Curl_resolver_cancel      004198d0 f   libcurl:asyn-thread.obj
 0001:000188e0       _Curl_resolver_getaddrinfo 004198e0 f   libcurl:asyn-thread.obj
 0001:000189a0       _Curl_resolver_getsock     004199a0 f   libcurl:asyn-thread.obj
 0001:00018a60       _Curl_resolver_init        00419a60 f   libcurl:asyn-thread.obj
 0001:00018a90       _Curl_resolver_is_resolved 00419a90 f   libcurl:asyn-thread.obj
 0001:00018be0       _Curl_resolver_kill        00419be0 f   libcurl:asyn-thread.obj
 0001:00018c10       _Curl_resolver_wait_resolv 00419c10 f   libcurl:asyn-thread.obj
 0001:000190a0       _Curl_dyn_add              0041a0a0 f   libcurl:dynbuf.obj
 0001:000190d0       _Curl_dyn_addf             0041a0d0 f   libcurl:dynbuf.obj
 0001:000190f0       _Curl_dyn_addn             0041a0f0 f   libcurl:dynbuf.obj
 0001:00019100       _Curl_dyn_free             0041a100 f   libcurl:dynbuf.obj
 0001:00019130       _Curl_dyn_init             0041a130 f   libcurl:dynbuf.obj
 0001:00019160       _Curl_dyn_len              0041a160 f   libcurl:dynbuf.obj
 0001:00019170       _Curl_dyn_uptr             0041a170 f   libcurl:dynbuf.obj
 0001:00019170       _Curl_dyn_ptr              0041a170 f   libcurl:dynbuf.obj
 0001:00019180       _Curl_dyn_reset            0041a180 f   libcurl:dynbuf.obj
 0001:000191a0       _Curl_dyn_vaddf            0041a1a0 f   libcurl:dynbuf.obj
 0001:00019770       _Curl_mime_add_header      0041a770 f   libcurl:mime.obj
 0001:000197d0       _Curl_mime_cleanpart       0041a7d0 f   libcurl:mime.obj
 0001:00019840       _Curl_mime_contenttype     0041a840 f   libcurl:mime.obj
 0001:000198b0       _Curl_mime_initpart        0041a8b0 f   libcurl:mime.obj
 0001:000198f0       _Curl_mime_prepare_headers 0041a8f0 f   libcurl:mime.obj
 0001:00019c00       _Curl_mime_read            0041ac00 f   libcurl:mime.obj
 0001:00019c30       _Curl_mime_rewind          0041ac30 f   libcurl:mime.obj
 0001:00019c50       _Curl_mime_set_subparts    0041ac50 f   libcurl:mime.obj
 0001:00019d20       _Curl_mime_size            0041ad20 f   libcurl:mime.obj
 0001:00019f30       _curl_mime_addpart         0041af30 f   libcurl:mime.obj
 0001:00019f90       _curl_mime_data            0041af90 f   libcurl:mime.obj
 0001:0001a030       _curl_mime_data_cb         0041b030 f   libcurl:mime.obj
 0001:0001a080       _curl_mime_filedata        0041b080 f   libcurl:mime.obj
 0001:0001a1a0       _curl_mime_filename        0041b1a0 f   libcurl:mime.obj
 0001:0001a1f0       _curl_mime_free            0041b1f0 f   libcurl:mime.obj
 0001:0001a240       _curl_mime_headers         0041b240 f   libcurl:mime.obj
 0001:0001a290       _curl_mime_init            0041b290 f   libcurl:mime.obj
 0001:0001a310       _curl_mime_name            0041b310 f   libcurl:mime.obj
 0001:0001a360       _curl_mime_subparts        0041b360 f   libcurl:mime.obj
 0001:0001a380       _curl_mime_type            0041b380 f   libcurl:mime.obj
 0001:0001b010       _Curl_conncache_add_conn   0041c010 f   libcurl:conncache.obj
 0001:0001b110       _Curl_conncache_close_all_connections 0041c110 f   libcurl:conncache.obj
 0001:0001b1c0       _Curl_conncache_destroy    0041c1c0 f   libcurl:conncache.obj
 0001:0001b1e0       _Curl_conncache_extract_bundle 0041c1e0 f   libcurl:conncache.obj
 0001:0001b290       _Curl_conncache_extract_oldest 0041c290 f   libcurl:conncache.obj
 0001:0001b3c0       _Curl_conncache_find_bundle 0041c3c0 f   libcurl:conncache.obj
 0001:0001b460       _Curl_conncache_foreach    0041c460 f   libcurl:conncache.obj
 0001:0001b530       _Curl_conncache_init       0041c530 f   libcurl:conncache.obj
 0001:0001b5a0       _Curl_conncache_remove_conn 0041c5a0 f   libcurl:conncache.obj
 0001:0001b630       _Curl_conncache_return_conn 0041c630 f   libcurl:conncache.obj
 0001:0001b6b0       _Curl_conncache_size       0041c6b0 f   libcurl:conncache.obj
 0001:0001c170       _Curl_builtin_scheme       0041d170 f   libcurl:url.obj
 0001:0001c1b0       _Curl_close                0041d1b0 f   libcurl:url.obj
 0001:0001c530       _Curl_connect              0041d530 f   libcurl:url.obj
 0001:0001c5f0       _Curl_disconnect           0041d5f0 f   libcurl:url.obj
 0001:0001c680       _Curl_free_request_state   0041d680 f   libcurl:url.obj
 0001:0001c6f0       _Curl_freeset              0041d6f0 f   libcurl:url.obj
 0001:0001c7c0       _Curl_idnconvert_hostname  0041d7c0 f   libcurl:url.obj
 0001:0001c7f0       _Curl_init_do              0041d7f0 f   libcurl:url.obj
 0001:0001c8c0       _Curl_init_userdefined     0041d8c0 f   libcurl:url.obj
 0001:0001cb10       _Curl_is_ASCII_name        0041db10 f   libcurl:url.obj
 0001:0001cb40       _Curl_open                 0041db40 f   libcurl:url.obj
 0001:0001cc20       _Curl_parse_login_details  0041dc20 f   libcurl:url.obj
 0001:0001ce40       _Curl_setup_conn           0041de40 f   libcurl:url.obj
 0001:0001cf40       _Curl_uc_to_curlcode       0041df40 f   libcurl:url.obj
 0001:0001cf80       _Curl_verboseconnect       0041df80 f   libcurl:url.obj
 0001:0001ff70       _Curl_initinfo             00420f70 f   libcurl:getinfo.obj
 0001:00020110       _Curl_memdup               00421110 f   libcurl:strdup.obj
 0001:00020140       _Curl_saferealloc          00421140 f   libcurl:strdup.obj
 0001:00020170       _Curl_client_write         00421170 f   libcurl:sendf.obj
 0001:000201a0       _Curl_debug                004211a0 f   libcurl:sendf.obj
 0001:00020230       _Curl_failf                00421230 f   libcurl:sendf.obj
 0001:000202f0       _Curl_infof                004212f0 f   libcurl:sendf.obj
 0001:000203b0       _Curl_read                 004213b0 f   libcurl:sendf.obj
 0001:00020420       _Curl_read_plain           00421420 f   libcurl:sendf.obj
 0001:00020470       _Curl_recv_has_postponed_data 00421470 f   libcurl:sendf.obj
 0001:000204a0       _Curl_recv_plain           004214a0 f   libcurl:sendf.obj
 0001:000205a0       _Curl_send_plain           004215a0 f   libcurl:sendf.obj
 0001:00020690       _Curl_write                00421690 f   libcurl:sendf.obj
 0001:00020700       _Curl_write_plain          00421700 f   libcurl:sendf.obj
 0001:00020ac0       _Curl_addr2string          00421ac0 f   libcurl:connect.obj
 0001:00020b60       _Curl_closesocket          00421b60 f   libcurl:connect.obj
 0001:00020be0       _Curl_conn_data_pending    00421be0 f   libcurl:connect.obj
 0001:00020c30       _Curl_connalive            00421c30 f   libcurl:connect.obj
 0001:00020c70       _Curl_conncontrol          00421c70 f   libcurl:connect.obj
 0001:00020cc0       _Curl_connecthost          00421cc0 f   libcurl:connect.obj
 0001:00020e30       _Curl_conninfo_local       00421e30 f   libcurl:connect.obj
 0001:00020f10       _Curl_conninfo_remote      00421f10 f   libcurl:connect.obj
 0001:00021010       _Curl_is_connected         00422010 f   libcurl:connect.obj
 0001:00021540       _Curl_persistconninfo      00422540 f   libcurl:connect.obj
 0001:00021610       _Curl_sndbufset            00422610 f   libcurl:connect.obj
 0001:000216b0       _Curl_socket               004226b0 f   libcurl:connect.obj
 0001:000217d0       _Curl_timeleft             004227d0 f   libcurl:connect.obj
 0001:00021950       _Curl_updateconninfo       00422950 f   libcurl:connect.obj
 0001:00022720       _curlx_read                00423720 f   libcurl:warnless.obj
 0001:00022740       _curlx_uztosz              00423740 f   libcurl:warnless.obj
 0001:00022740       _curlx_sltosi              00423740 f   libcurl:warnless.obj
 0001:00022740       _curlx_uztosi              00423740 f   libcurl:warnless.obj
 0001:00022750       _curlx_sotouz              00423750 f   libcurl:warnless.obj
 0001:00022750       _curlx_uztoui              00423750 f   libcurl:warnless.obj
 0001:00022750       _curlx_sltoui              00423750 f   libcurl:warnless.obj
 0001:00022760       _curlx_uitous              00423760 f   libcurl:warnless.obj
 0001:00022760       _curlx_sltous              00423760 f   libcurl:warnless.obj
 0001:00022760       _curlx_ultous              00423760 f   libcurl:warnless.obj
 0001:00022770       _curlx_ultouc              00423770 f   libcurl:warnless.obj
 0001:00022780       _curlx_write               00423780 f   libcurl:warnless.obj
 0001:000227a0       _Curl_http_auth_cleanup_digest 004237a0 f   libcurl:http_digest.obj
 0001:000227d0       _Curl_input_digest         004237d0 f   libcurl:http_digest.obj
 0001:00022840       _Curl_output_digest        00423840 f   libcurl:http_digest.obj
 0001:000229a0       _Curl_load_library         004239a0 f   libcurl:system_win32.obj
 0001:00022af0       _Curl_win32_init           00423af0 f   libcurl:system_win32.obj
 0001:00022bb0       _Curl_alpnid2str           00423bb0 f   libcurl:altsvc.obj
 0001:00022be0       _Curl_altsvc_cleanup       00423be0 f   libcurl:altsvc.obj
 0001:00022c30       _Curl_altsvc_ctrl          00423c30 f   libcurl:altsvc.obj
 0001:00022c50       _Curl_altsvc_init          00423c50 f   libcurl:altsvc.obj
 0001:00022c80       _Curl_altsvc_load          00423c80 f   libcurl:altsvc.obj
 0001:00022c90       _Curl_altsvc_lookup        00423c90 f   libcurl:altsvc.obj
 0001:00022d30       _Curl_altsvc_parse         00423d30 f   libcurl:altsvc.obj
 0001:00023210       _Curl_altsvc_save          00424210 f   libcurl:altsvc.obj
 0001:00023850       _Curl_raw_toupper          00424850 f   libcurl:strcase.obj
 0001:00023870       _Curl_safe_strcasecompare  00424870 f   libcurl:strcase.obj
 0001:000238a0       _Curl_strcasecompare       004248a0 f   libcurl:strcase.obj
 0001:00023910       _Curl_strncasecompare      00424910 f   libcurl:strcase.obj
 0001:000239a0       _Curl_strntolower          004249a0 f   libcurl:strcase.obj
 0001:000239e0       _Curl_strntoupper          004249e0 f   libcurl:strcase.obj
 0001:00023a20       _curl_strequal             00424a20 f   libcurl:strcase.obj
 0001:00023a30       _curl_strnequal            00424a30 f   libcurl:strcase.obj
 0001:00023b30       _Curl_all_content_encodings 00424b30 f   libcurl:content_encoding.obj
 0001:00023c30       _Curl_build_unencoding_stack 00424c30 f   libcurl:content_encoding.obj
 0001:00023d40       _Curl_unencode_cleanup     00424d40 f   libcurl:content_encoding.obj
 0001:00023d80       _Curl_unencode_write       00424d80 f   libcurl:content_encoding.obj
 0001:00023e60       _Curl_share_lock           00424e60 f   libcurl:share.obj
 0001:00023ea0       _Curl_share_unlock         00424ea0 f   libcurl:share.obj
 0001:00023ee0       _Curl_now                  00424ee0 f   libcurl:timeval.obj
 0001:00023f80       _Curl_timediff             00424f80 f   libcurl:timeval.obj
 0001:00024010       _Curl_timediff_us          00425010 f   libcurl:timeval.obj
 0001:00024080       _Curl_llist_count          00425080 f   libcurl:llist.obj
 0001:00024080       _Curl_ftp_parselist_geterror 00425080 f   libcurl:ftplistparser.obj
 0001:00024090       _Curl_llist_destroy        00425090 f   libcurl:llist.obj
 0001:000240c0       _Curl_llist_init           004250c0 f   libcurl:llist.obj
 0001:000240f0       _Curl_llist_insert_next    004250f0 f   libcurl:llist.obj
 0001:00024170       _Curl_llist_remove         00425170 f   libcurl:llist.obj
 0001:000241f0       _Curl_hash_add             004251f0 f   libcurl:hash.obj
 0001:00024280       _Curl_hash_clean           00425280 f   libcurl:hash.obj
 0001:000242a0       _Curl_hash_clean_with_criterium 004252a0 f   libcurl:hash.obj
 0001:00024320       _Curl_hash_delete          00425320 f   libcurl:hash.obj
 0001:000243a0       _Curl_hash_destroy         004253a0 f   libcurl:hash.obj
 0001:000243f0       _Curl_hash_init            004253f0 f   libcurl:hash.obj
 0001:00024480       _Curl_hash_next_element    00425480 f   libcurl:hash.obj
 0001:000244f0       _Curl_hash_pick            004254f0 f   libcurl:hash.obj
 0001:00024560       _Curl_hash_start_iterate   00425560 f   libcurl:hash.obj
 0001:00024580       _Curl_hash_str             00425580 f   libcurl:hash.obj
 0001:000245d0       _Curl_str_key_compare      004255d0 f   libcurl:hash.obj
 0001:000246c0       _Curl_ipv6works            004256c0 f   libcurl:hostip6.obj
 0001:00024710       _Curl_ipvalid              00425710 f   libcurl:hostip6.obj
 0001:00024730       _Curl_cache_addr           00425730 f   libcurl:hostip.obj
 0001:00024850       _Curl_fetch_addr           00425850 f   libcurl:hostip.obj
 0001:000248a0       _Curl_hostcache_clean      004258a0 f   libcurl:hostip.obj
 0001:000248f0       _Curl_hostcache_prune      004258f0 f   libcurl:hostip.obj
 0001:00024960       _Curl_loadhostpairs        00425960 f   libcurl:hostip.obj
 0001:00024df0       _Curl_mk_dnscache          00425df0 f   libcurl:hostip.obj
 0001:00024e20       _Curl_num_addresses        00425e20 f   libcurl:hostip.obj
 0001:00024e40       _Curl_once_resolved        00425e40 f   libcurl:hostip.obj
 0001:00024ea0       _Curl_printable_address    00425ea0 f   libcurl:hostip.obj
 0001:00024ef0       _Curl_resolv               00425ef0 f   libcurl:hostip.obj
 0001:00025120       _Curl_resolv_check         00426120 f   libcurl:hostip.obj
 0001:00025150       _Curl_resolv_getsock       00426150 f   libcurl:hostip.obj
 0001:00025170       _Curl_resolv_timeout       00426170 f   libcurl:hostip.obj
 0001:000251b0       _Curl_resolv_unlock        004261b0 f   libcurl:hostip.obj
 0001:00025200       _Curl_resolver_error       00426200 f   libcurl:hostip.obj
 0001:00025620       _Curl_splay                00426620 f   libcurl:splay.obj
 0001:00025780       _Curl_splaygetbest         00426780 f   libcurl:splay.obj
 0001:00025830       _Curl_splayinsert          00426830 f   libcurl:splay.obj
 0001:00025930       _Curl_splayremove          00426930 f   libcurl:splay.obj
 0001:00025af0       _Curl_http                 00426af0 f   libcurl:http.obj
 0001:000260c0       _Curl_http_done            004270c0 f   libcurl:http.obj
 0001:000261a0       _Curl_http_connect         004271a0 f   libcurl:http.obj
 0001:00026220       _Curl_add_custom_headers   00427220 f   libcurl:http.obj
 0001:00026550       _Curl_add_timecondition    00427550 f   libcurl:http.obj
 0001:00026690       _Curl_buffer_send          00427690 f   libcurl:http.obj
 0001:00026910       _Curl_checkProxyheaders    00427910 f   libcurl:http.obj
 0001:00026990       _Curl_compareheader        00427990 f   libcurl:http.obj
 0001:00026a60       _Curl_copy_header_value    00427a60 f   libcurl:http.obj
 0001:00026b30       _Curl_http_auth_act        00427b30 f   libcurl:http.obj
 0001:00026d40       _Curl_http_body            00427d40 f   libcurl:http.obj
 0001:00026f20       _Curl_http_bodysend        00427f20 f   libcurl:http.obj
 0001:00027660       _Curl_http_compile_trailers 00428660 f   libcurl:http.obj
 0001:000276f0       _Curl_http_cookies         004286f0 f   libcurl:http.obj
 0001:00027880       _Curl_http_firstwrite      00428880 f   libcurl:http.obj
 0001:00027990       _Curl_http_header          00428990 f   libcurl:http.obj
 0001:00028060       _Curl_http_host            00429060 f   libcurl:http.obj
 0001:00028290       _Curl_http_input_auth      00429290 f   libcurl:http.obj
 0001:00028460       _Curl_http_method          00429460 f   libcurl:http.obj
 0001:00028510       _Curl_http_output_auth     00429510 f   libcurl:http.obj
 0001:00028660       _Curl_http_range           00429660 f   libcurl:http.obj
 0001:000287a0       _Curl_http_readwrite_headers 004297a0 f   libcurl:http.obj
 0001:00029040       _Curl_http_resume          0042a040 f   libcurl:http.obj
 0001:00029230       _Curl_http_statusline      0042a230 f   libcurl:http.obj
 0001:00029350       _Curl_http_target          0042a350 f   libcurl:http.obj
 0001:00029540       _Curl_http_useragent       0042a540 f   libcurl:http.obj
 0001:00029f80       _Curl_wildcard_dtor        0042af80 f   libcurl:wildcard.obj
 0001:00029ff0       _Curl_wildcard_init        0042aff0 f   libcurl:wildcard.obj
 0001:0002a030       _Curl_socketpair           0042b030 f   libcurl:socketpair.obj
 0001:0002a220       _Curl_checkheaders         0042b220 f   libcurl:transfer.obj
 0001:0002a280       _Curl_done_sending         0042b280 f   libcurl:transfer.obj
 0001:0002a2b0       _Curl_fillreadbuffer       0042b2b0 f   libcurl:transfer.obj
 0001:0002a670       _Curl_follow               0042b670 f   libcurl:transfer.obj
 0001:0002a9d0       _Curl_get_upload_buffer    0042b9d0 f   libcurl:transfer.obj
 0001:0002aa10       _Curl_init_CONNECT         0042ba10 f   libcurl:transfer.obj
 0001:0002aa30       _Curl_meets_timecondition  0042ba30 f   libcurl:transfer.obj
 0001:0002aaa0       _Curl_pretransfer          0042baa0 f   libcurl:transfer.obj
 0001:0002adc0       _Curl_readrewind           0042bdc0 f   libcurl:transfer.obj
 0001:0002af30       _Curl_readwrite            0042bf30 f   libcurl:transfer.obj
 0001:0002b250       _Curl_retry_request        0042c250 f   libcurl:transfer.obj
 0001:0002b3b0       _Curl_setup_transfer       0042c3b0 f   libcurl:transfer.obj
 0001:0002b550       _Curl_single_getsock       0042c550 f   libcurl:transfer.obj
 0001:0002c0d0       _curlx_nonblock            0042d0d0 f   libcurl:nonblock.obj
 0001:0002c100       _Curl_pgrsDone             0042d100 f   libcurl:progress.obj
 0001:0002c160       _Curl_pgrsLimitWaitTime    0042d160 f   libcurl:progress.obj
 0001:0002c230       _Curl_pgrsResetTransferSizes 0042d230 f   libcurl:progress.obj
 0001:0002c250       _Curl_pgrsSetDownloadCounter 0042d250 f   libcurl:progress.obj
 0001:0002c270       _Curl_pgrsSetDownloadSize  0042d270 f   libcurl:progress.obj
 0001:0002c2c0       _Curl_pgrsSetUploadCounter 0042d2c0 f   libcurl:progress.obj
 0001:0002c2e0       _Curl_pgrsSetUploadSize    0042d2e0 f   libcurl:progress.obj
 0001:0002c330       _Curl_pgrsStartNow         0042d330 f   libcurl:progress.obj
 0001:0002c3d0       _Curl_pgrsTime             0042d3d0 f   libcurl:progress.obj
 0001:0002c540       _Curl_pgrsUpdate           0042d540 f   libcurl:progress.obj
 0001:0002c6d0       _Curl_ratelimit            0042d6d0 f   libcurl:progress.obj
 0001:0002d2d0       _Curl_poll                 0042e2d0 f   libcurl:select.obj
 0001:0002d580       _Curl_socket_check         0042e580 f   libcurl:select.obj
 0001:0002d690       _Curl_wait_ms              0042e690 f   libcurl:select.obj
 0001:0002d810       _Curl_speedcheck           0042e810 f   libcurl:speedcheck.obj
 0001:0002d910       _Curl_speedinit            0042e910 f   libcurl:speedcheck.obj
 0001:0002e2a0       _Curl_connect_complete     0042f2a0 f   libcurl:http_proxy.obj
 0001:0002e2c0       _Curl_connect_free         0042f2c0 f   libcurl:http_proxy.obj
 0001:0002e2f0       _Curl_connect_ongoing      0042f2f0 f   libcurl:http_proxy.obj
 0001:0002e310       _Curl_proxyCONNECT         0042f310 f   libcurl:http_proxy.obj
 0001:0002e370       _Curl_proxy_connect        0042f370 f   libcurl:http_proxy.obj
 0001:0002e570       _Curl_SOCKS4               0042f570 f   libcurl:socks.obj
 0001:0002ebf0       _Curl_SOCKS5               0042fbf0 f   libcurl:socks.obj
 0001:0002f7c0       _Curl_SOCKS_getsock        004307c0 f   libcurl:socks.obj
 0001:0002f840       _Curl_dyn_vprintf          00430840 f   libcurl:mprintf.obj
 0001:0002f900       _curl_maprintf             00430900 f   libcurl:mprintf.obj
 0001:0002f920       _curl_mfprintf             00430920 f   libcurl:mprintf.obj
 0001:0002f940       _curl_msnprintf            00430940 f   libcurl:mprintf.obj
 0001:0002f960       _curl_mvaprintf            00430960 f   libcurl:mprintf.obj
 0001:0002f9e0       _curl_mvsnprintf           004309e0 f   libcurl:mprintf.obj
 0001:00030dc0       _curlx_win32_access        00431dc0 f   libcurl:curl_multibyte.obj
 0001:00030dd0       _curlx_win32_fopen         00431dd0 f   libcurl:curl_multibyte.obj
 0001:00030de0       _curlx_win32_open          00431de0 f   libcurl:curl_multibyte.obj
 0001:00030e10       _curlx_win32_stat          00431e10 f   libcurl:curl_multibyte.obj
 0001:00030e20       _Curl_strtok_r             00431e20 f   libcurl:strtok.obj
 0001:00030ea0       _curlx_strtoofft           00431ea0 f   libcurl:strtoofft.obj
 0001:00030f60       _Curl_get_line             00431f60 f   libcurl:curl_get_line.obj
 0001:00030fd0       _Curl_memrchr              00431fd0 f   libcurl:curl_memrchr.obj
 0001:00031000       _Curl_inet_pton            00432000 f   libcurl:inet_pton.obj
 0001:00031310       _Curl_getdate_capped       00432310 f   libcurl:parsedate.obj
 0001:00031380       _Curl_gmtime               00432380 f   libcurl:parsedate.obj
 0001:00031a40       _Curl_rand                 00432a40 f   libcurl:rand.obj
 0001:00031aa0       _Curl_rand_hex             00432aa0 f   libcurl:rand.obj
 0001:00031be0       _Curl_rename               00432be0 f   libcurl:rename.obj
 0001:00031cc0       _Curl_freeaddrinfo         00432cc0 f   libcurl:curl_addrinfo.obj
 0001:00031cf0       _Curl_getaddrinfo_ex       00432cf0 f   libcurl:curl_addrinfo.obj
 0001:00031e80       _Curl_he2ai                00432e80 f   libcurl:curl_addrinfo.obj
 0001:00031fc0       _Curl_ip2addr              00432fc0 f   libcurl:curl_addrinfo.obj
 0001:00032090       _Curl_str2addr             00433090 f   libcurl:curl_addrinfo.obj
 0001:00032120       _Curl_unix2addr            00433120 f   libcurl:curl_addrinfo.obj
 0001:000321d0       _Curl_addrinfo_callback    004331d0 f   libcurl:hostasyn.obj
 0001:00032260       _Curl_getaddrinfo          00433260 f   libcurl:hostasyn.obj
 0001:00032270       _Curl_thread_create        00433270 f   libcurl:curl_threads.obj
 0001:000322a0       _Curl_thread_destroy       004332a0 f   libcurl:curl_threads.obj
 0001:000322b0       _Curl_thread_join          004332b0 f   libcurl:curl_threads.obj
 0001:000347e0       _Curl_pop3_write           004357e0 f   libcurl:pop3.obj
 0001:00035a00       _Curl_smtp_escape_eob      00436a00 f   libcurl:smtp.obj
 0001:00037c30       _Curl_GetFTPResponse       00438c30 f   libcurl:ftp.obj
 0001:000411c0       _Curl_rtsp_parseheader     004421c0 f   libcurl:rtsp.obj
 0001:00043140       _curl_getenv               00444140 f   libcurl:getenv.obj
 0001:00043150       _Curl_is_absolute_url      00444150 f   libcurl:urlapi.obj
 0001:00043560       _curl_url                  00444560 f   libcurl:urlapi.obj
 0001:00043570       _curl_url_cleanup          00444570 f   libcurl:urlapi.obj
 0001:00043590       _curl_url_dup              00444590 f   libcurl:urlapi.obj
 0001:000436b0       _curl_url_get              004446b0 f   libcurl:urlapi.obj
 0001:00043bc0       _curl_url_set              00444bc0 f   libcurl:urlapi.obj
 0001:00044cd0       _Curl_isalnum              00445cd0 f   libcurl:curl_ctype.obj
 0001:00044cf0       _Curl_isalpha              00445cf0 f   libcurl:curl_ctype.obj
 0001:00044d10       _Curl_iscntrl              00445d10 f   libcurl:curl_ctype.obj
 0001:00044d30       _Curl_isdigit              00445d30 f   libcurl:curl_ctype.obj
 0001:00044d50       _Curl_isgraph              00445d50 f   libcurl:curl_ctype.obj
 0001:00044d70       _Curl_islower              00445d70 f   libcurl:curl_ctype.obj
 0001:00044d90       _Curl_isprint              00445d90 f   libcurl:curl_ctype.obj
 0001:00044db0       _Curl_isspace              00445db0 f   libcurl:curl_ctype.obj
 0001:00044dd0       _Curl_isupper              00445dd0 f   libcurl:curl_ctype.obj
 0001:00044df0       _Curl_isxdigit             00445df0 f   libcurl:curl_ctype.obj
 0001:00044e10       _Curl_parsenetrc           00445e10 f   libcurl:netrc.obj
 0001:00045370       _Curl_clone_primary_ssl_config 00446370 f   libcurl:vtls.obj
 0001:00045510       _Curl_free_primary_ssl_config 00446510 f   libcurl:vtls.obj
 0001:000455c0       _Curl_ssl_config_matches   004465c0 f   libcurl:vtls.obj
 0001:000457e0       _Curl_isunreserved         004467e0 f   libcurl:escape.obj
 0001:00045870       _Curl_urldecode            00446870 f   libcurl:escape.obj
 0001:00045990       _Curl_http_auth_cleanup_ntlm 00446990 f   libcurl:http_ntlm.obj
 0001:000459c0       _Curl_input_ntlm           004469c0 f   libcurl:http_ntlm.obj
 0001:00045ad0       _Curl_output_ntlm          00446ad0 f   libcurl:http_ntlm.obj
 0001:00045ce0       _Curl_strerror             00446ce0 f   libcurl:strerror.obj
 0001:00045e00       _curl_easy_strerror        00446e00 f   libcurl:strerror.obj
 0001:00046620       _Curl_ipv6_scope           00447620 f   libcurl:if2ip.obj
 0001:000466c0       _Curl_inet_ntop            004476c0 f   libcurl:inet_ntop.obj
 0001:000469f0       _curlx_verify_windows_version 004479f0 f   libcurl:version_win32.obj
 0001:00046b50       _Curl_auth_create_digest_http_message 00447b50 f   libcurl:digest.obj
 0001:00046bc0       _Curl_auth_create_digest_md5_message 00447bc0 f   libcurl:digest.obj
 0001:00047110       _Curl_auth_decode_digest_http_message 00448110 f   libcurl:digest.obj
 0001:000475d0       _Curl_auth_digest_cleanup  004485d0 f   libcurl:digest.obj
 0001:00047650       _Curl_auth_digest_get_pair 00448650 f   libcurl:digest.obj
 0001:00047f30       _Curl_chunked_strerror     00448f30 f   libcurl:http_chunks.obj
 0001:00047f90       _Curl_httpchunk_init       00448f90 f   libcurl:http_chunks.obj
 0001:00047fc0       _Curl_httpchunk_read       00448fc0 f   libcurl:http_chunks.obj
 0001:00048350       _Curl_doh                  00449350 f   libcurl:doh.obj
 0001:00048470       _Curl_doh_is_resolved      00449470 f   libcurl:doh.obj
 0001:000498c0       _Curl_getformdata          0044a8c0 f   libcurl:formdata.obj
 0001:00049bf0       _Curl_base64_decode        0044abf0 f   libcurl:base64.obj
 0001:00049cf0       _Curl_base64_encode        0044acf0 f   libcurl:base64.obj
 0001:00049d20       _Curl_base64url_encode     0044ad20 f   libcurl:base64.obj
 0001:00049fc0       _Curl_auth_cleanup_ntlm    0044afc0 f   libcurl:ntlm.obj
 0001:00049ff0       _Curl_auth_create_ntlm_type1_message 0044aff0 f   libcurl:ntlm.obj
 0001:0004a0a0       _Curl_auth_create_ntlm_type3_message 0044b0a0 f   libcurl:ntlm.obj
 0001:0004a640       _Curl_auth_decode_ntlm_type2_message 0044b640 f   libcurl:ntlm.obj
 0001:0004a860       _Curl_output_aws_sigv4     0044b860 f   libcurl:http_aws_sigv4.obj
 0001:0004b270       _Curl_fileinfo_alloc       0044c270 f   libcurl:fileinfo.obj
 0001:0004b280       _Curl_fileinfo_cleanup     0044c280 f   libcurl:fileinfo.obj
 0001:0004b2b0       _Curl_pp_disconnect        0044c2b0 f   libcurl:pingpong.obj
 0001:0004b2e0       _Curl_pp_flushsend         0044c2e0 f   libcurl:pingpong.obj
 0001:0004b360       _Curl_pp_getsock           0044c360 f   libcurl:pingpong.obj
 0001:0004b390       _Curl_pp_init              0044c390 f   libcurl:pingpong.obj
 0001:0004b3d0       _Curl_pp_moredata          0044c3d0 f   libcurl:pingpong.obj
 0001:0004b400       _Curl_pp_readresp          0044c400 f   libcurl:pingpong.obj
 0001:0004b6c0       _Curl_pp_sendf             0044c6c0 f   libcurl:pingpong.obj
 0001:0004b6e0       _Curl_pp_setup             0044c6e0 f   libcurl:pingpong.obj
 0001:0004b700       _Curl_pp_state_timeout     0044c700 f   libcurl:pingpong.obj
 0001:0004b7d0       _Curl_pp_statemach         0044c7d0 f   libcurl:pingpong.obj
 0001:0004b920       _Curl_pp_vsendf            0044c920 f   libcurl:pingpong.obj
 0001:0004ba20       _Curl_sasl_can_authenticate 0044ca20 f   libcurl:curl_sasl.obj
 0001:0004ba50       _Curl_sasl_cleanup         0044ca50 f   libcurl:curl_sasl.obj
 0001:0004ba70       _Curl_sasl_continue        0044ca70 f   libcurl:curl_sasl.obj
 0001:0004bf20       _Curl_sasl_decode_mech     0044cf20 f   libcurl:curl_sasl.obj
 0001:0004c020       _Curl_sasl_init            0044d020 f   libcurl:curl_sasl.obj
 0001:0004c060       _Curl_sasl_parse_url_auth_option 0044d060 f   libcurl:curl_sasl.obj
 0001:0004c0e0       _Curl_sasl_start           0044d0e0 f   libcurl:curl_sasl.obj
 0001:0004c570       _Curl_MD5_final            0044d570 f   libcurl:md5.obj
 0001:0004c5a0       _Curl_MD5_init             0044d5a0 f   libcurl:md5.obj
 0001:0004c5f0       _Curl_MD5_update           0044d5f0 f   libcurl:md5.obj
 0001:0004c5f0       _Curl_HMAC_update          0044d5f0 f   libcurl:hmac.obj
 0001:0004c610       _Curl_md5it                0044d610 f   libcurl:md5.obj
 0001:0004c650       _Curl_gethostname          0044d650 f   libcurl:curl_gethostname.obj
 0001:0004c690       _Curl_ftp_parselist        0044d690 f   libcurl:ftplistparser.obj
 0001:0004d230       _Curl_ftp_parselist_data_alloc 0044e230 f   libcurl:ftplistparser.obj
 0001:0004d240       _Curl_ftp_parselist_data_free 0044e240 f   libcurl:ftplistparser.obj
 0001:0004d4c0       _Curl_range                0044e4c0 f   libcurl:curl_range.obj
 0001:0004d620       _Curl_ntlm_core_lm_resp    0044e620 f   libcurl:curl_ntlm_core.obj
 0001:0004d660       _Curl_ntlm_core_mk_lm_hash 0044e660 f   libcurl:curl_ntlm_core.obj
 0001:0004d710       _Curl_ntlm_core_mk_lmv2_resp 0044e710 f   libcurl:curl_ntlm_core.obj
 0001:0004d790       _Curl_ntlm_core_mk_nt_hash 0044e790 f   libcurl:curl_ntlm_core.obj
 0001:0004d820       _Curl_ntlm_core_mk_ntlmv2_hash 0044e820 f   libcurl:curl_ntlm_core.obj
 0001:0004d8b0       _Curl_ntlm_core_mk_ntlmv2_resp 0044e8b0 f   libcurl:curl_ntlm_core.obj
 0001:0004dc10       _Curl_read16_be            0044ec10 f   libcurl:curl_endian.obj
 0001:0004dc30       _Curl_read16_le            0044ec30 f   libcurl:curl_endian.obj
 0001:0004dc50       _Curl_read32_le            0044ec50 f   libcurl:curl_endian.obj
 0001:0004dc80       _Curl_dedotdotify          0044ec80 f   libcurl:dotdot.obj
 0001:0004df00       _Curl_auth_build_spn       0044ef00 f   libcurl:vauth.obj
 0001:0004e000       _Curl_sha256it             0044f000 f   libcurl:sha256.obj
 0001:0004e040       _Curl_HMAC_final           0044f040 f   libcurl:hmac.obj
 0001:0004e090       _Curl_HMAC_init            0044f090 f   libcurl:hmac.obj
 0001:0004e1a0       _Curl_hmacit               0044f1a0 f   libcurl:hmac.obj
 0001:0004e1f0       _Curl_auth_create_external_message 0044f1f0 f   libcurl:cleartext.obj
 0001:0004e200       _Curl_auth_create_login_message 0044f200 f   libcurl:cleartext.obj
 0001:0004e270       _Curl_auth_create_plain_message 0044f270 f   libcurl:cleartext.obj
 0001:0004e380       _Curl_auth_create_cram_md5_message 0044f380 f   libcurl:cram.obj
 0001:0004e4d0       _Curl_auth_decode_cram_md5_message 0044f4d0 f   libcurl:cram.obj
 0001:0004e520       _Curl_auth_create_oauth_bearer_message 0044f520 f   libcurl:oauth2.obj
 0001:0004e5a0       _Curl_auth_create_xoauth_bearer_message 0044f5a0 f   libcurl:oauth2.obj
 0001:0004e600       _Curl_fnmatch              0044f600 f   libcurl:curl_fnmatch.obj
 0001:0004ef20       _Curl_des_set_odd_parity   0044ff20 f   libcurl:curl_des.obj
 0001:0004ef70       _Curl_md4it                0044ff70 f   libcurl:md4.obj
 0001:0004eff3       ___WSAFDIsSet@8            0044fff3 f   ws2_32:WS2_32.dll
 0001:0004eff9       ___CxxFrameHandler3        0044fff9 f   vcruntime:VCRUNTIME140.dll
 0001:0004efff       ___std_terminate           0044ffff f   vcruntime:VCRUNTIME140.dll
 0001:0004f005       ___current_exception       00450005 f   vcruntime:VCRUNTIME140.dll
 0001:0004f00b       ___current_exception_context 0045000b f   vcruntime:VCRUNTIME140.dll
 0001:0004f011       __CxxThrowException@8      00450011 f   vcruntime:VCRUNTIME140.dll
 0001:0004f017       __except_handler4_common   00450017 f   vcruntime:VCRUNTIME140.dll
 0001:0004f01d       _memset                    0045001d f   vcruntime:VCRUNTIME140.dll
 0001:0004f023       _memcpy                    00450023 f   vcruntime:VCRUNTIME140.dll
 0001:0004f029       _memmove                   00450029 f   vcruntime:VCRUNTIME140.dll
 0001:0004f02f       _memchr                    0045002f f   vcruntime:VCRUNTIME140.dll
 0001:0004f035       __callnewh                 00450035 f   ucrt:api-ms-win-crt-heap-l1-1-0.dll
 0001:0004f03b       _malloc                    0045003b f   ucrt:api-ms-win-crt-heap-l1-1-0.dll
 0001:0004f041       _terminate                 00450041 f   ucrt:api-ms-win-crt-runtime-l1-1-0.dll
 0001:0004f047       __configure_narrow_argv    00450047 f   ucrt:api-ms-win-crt-runtime-l1-1-0.dll
 0001:0004f04d       __initialize_narrow_environment 0045004d f   ucrt:api-ms-win-crt-runtime-l1-1-0.dll
 0001:0004f053       __initialize_onexit_table  00450053 f   ucrt:api-ms-win-crt-runtime-l1-1-0.dll
 0001:0004f059       __register_onexit_function 00450059 f   ucrt:api-ms-win-crt-runtime-l1-1-0.dll
 0001:0004f05f       __crt_atexit               0045005f f   ucrt:api-ms-win-crt-runtime-l1-1-0.dll
 0001:0004f065       __cexit                    00450065 f   ucrt:api-ms-win-crt-runtime-l1-1-0.dll
 0001:0004f06b       __seh_filter_exe           0045006b f   ucrt:api-ms-win-crt-runtime-l1-1-0.dll
 0001:0004f071       __set_app_type             00450071 f   ucrt:api-ms-win-crt-runtime-l1-1-0.dll
 0001:0004f077       ___setusermatherr          00450077 f   ucrt:api-ms-win-crt-math-l1-1-0.dll
 0001:0004f07d       __get_narrow_winmain_command_line 0045007d f   ucrt:api-ms-win-crt-runtime-l1-1-0.dll
 0001:0004f083       __initterm                 00450083 f   ucrt:api-ms-win-crt-runtime-l1-1-0.dll
 0001:0004f089       __initterm_e               00450089 f   ucrt:api-ms-win-crt-runtime-l1-1-0.dll
 0001:0004f08f       _exit                      0045008f f   ucrt:api-ms-win-crt-runtime-l1-1-0.dll
 0001:0004f095       __exit                     00450095 f   ucrt:api-ms-win-crt-runtime-l1-1-0.dll
 0001:0004f09b       __set_fmode                0045009b f   ucrt:api-ms-win-crt-stdio-l1-1-0.dll
 0001:0004f0a1       __c_exit                   004500a1 f   ucrt:api-ms-win-crt-runtime-l1-1-0.dll
 0001:0004f0a7       __register_thread_local_exe_atexit_callback 004500a7 f   ucrt:api-ms-win-crt-runtime-l1-1-0.dll
 0001:0004f0ad       __configthreadlocale       004500ad f   ucrt:api-ms-win-crt-locale-l1-1-0.dll
 0001:0004f0b3       __set_new_mode             004500b3 f   ucrt:api-ms-win-crt-heap-l1-1-0.dll
 0001:0004f0b9       ___p__commode              004500b9 f   ucrt:api-ms-win-crt-stdio-l1-1-0.dll
 0001:0004f0bf       _free                      004500bf f   ucrt:api-ms-win-crt-heap-l1-1-0.dll
 0001:0004f0c5       __controlfp_s              004500c5 f   ucrt:api-ms-win-crt-runtime-l1-1-0.dll
 0001:0004f0cb       _realloc                   004500cb f   ucrt:api-ms-win-crt-heap-l1-1-0.dll
 0001:0004f0d1       _calloc                    004500d1 f   ucrt:api-ms-win-crt-heap-l1-1-0.dll
 0001:0004f0e0       __alldiv                   004500e0 f   MSVCRT:lldiv.obj
 0001:0004f190       __chkstk                   00450190 f   MSVCRT:chkstk.obj
 0001:0004f190       __alloca_probe             00450190 f   MSVCRT:chkstk.obj
 0001:0004f1c0       __dtol3                    004501c0 f   MSVCRT:ftol3.obj
 0001:0004f270       __ltod3                    00450270 f   MSVCRT:ftol3.obj
 0001:0004f2c0       __alldvrm                  004502c0 f   MSVCRT:lldvrm.obj
 0001:0004f3a0       __allmul                   004503a0 f   MSVCRT:llmul.obj
 0001:0004f3e0       __allrem                   004503e0 f   MSVCRT:llrem.obj
 0001:0004f4a0       __aulldvrm                 004504a0 f   MSVCRT:ulldvrm.obj
 0001:0004f535       __strdup                   00450535 f   ucrt:api-ms-win-crt-string-l1-1-0.dll
 0001:0004f535       _strdup                    00450535 f   ucrt:api-ms-win-crt-string-l1-1-0.dll
 0001:0004f53b       __filter_x86_sse2_floating_point_exception 0045053b f   MSVCRT:x86_exception_filter.obj
 0001:0004f53b       __filter_x86_sse2_floating_point_exception_default 0045053b f   MSVCRT:x86_exception_filter.obj
 0002:00000000       __imp__AdjustTokenPrivileges@24 00454000     advapi32:ADVAPI32.dll
 0002:00000004       __imp__CryptImportKey@24   00454004     advapi32:ADVAPI32.dll
 0002:00000008       __imp__CryptDestroyKey@4   00454008     advapi32:ADVAPI32.dll
 0002:0000000c       __imp__CryptDestroyHash@4  0045400c     advapi32:ADVAPI32.dll
 0002:00000010       __imp__CryptHashData@16    00454010     advapi32:ADVAPI32.dll
 0002:00000014       __imp__CryptCreateHash@20  00454014     advapi32:ADVAPI32.dll
 0002:00000018       __imp__CryptGetHashParam@20 00454018     advapi32:ADVAPI32.dll
 0002:0000001c       __imp__CryptReleaseContext@8 0045401c     advapi32:ADVAPI32.dll
 0002:00000020       __imp__CryptAcquireContextA@20 00454020     advapi32:ADVAPI32.dll
 0002:00000024       __imp__CryptEncrypt@28     00454024     advapi32:ADVAPI32.dll
 0002:00000028       __imp__LookupPrivilegeValueA@12 00454028     advapi32:ADVAPI32.dll
 0002:0000002c       __imp__OpenProcessToken@12 0045402c     advapi32:ADVAPI32.dll
 0002:00000030       \177ADVAPI32_NULL_THUNK_DATA 00454030     advapi32:ADVAPI32.dll
 0002:00000034       __imp__CreateSolidBrush@4  00454034     gdi32:GDI32.dll
 0002:00000038       \177GDI32_NULL_THUNK_DATA  00454038     gdi32:GDI32.dll
 0002:0000003c       __imp__GetCurrentThreadId@0 0045403c     kernel32:KERNEL32.dll
 0002:00000040       __imp__GetSystemTimeAsFileTime@4 00454040     kernel32:KERNEL32.dll
 0002:00000044       __imp__InitializeSListHead@4 00454044     kernel32:KERNEL32.dll
 0002:00000048       __imp__EnterCriticalSection@4 00454048     kernel32:KERNEL32.dll
 0002:0000004c       __imp__LeaveCriticalSection@4 0045404c     kernel32:KERNEL32.dll
 0002:00000050       __imp__GetCurrentProcessId@0 00454050     kernel32:KERNEL32.dll
 0002:00000054       __imp__DeleteCriticalSection@4 00454054     kernel32:KERNEL32.dll
 0002:00000058       __imp__SleepEx@8           00454058     kernel32:KERNEL32.dll
 0002:0000005c       __imp__QueryPerformanceFrequency@4 0045405c     kernel32:KERNEL32.dll
 0002:00000060       __imp__GetSystemDirectoryA@8 00454060     kernel32:KERNEL32.dll
 0002:00000064       __imp__QueryPerformanceCounter@4 00454064     kernel32:KERNEL32.dll
 0002:00000068       __imp__InitializeCriticalSectionEx@12 00454068     kernel32:KERNEL32.dll
 0002:0000006c       __imp__GetStartupInfoW@4   0045406c     kernel32:KERNEL32.dll
 0002:00000070       __imp__IsDebuggerPresent@0 00454070     kernel32:KERNEL32.dll
 0002:00000074       __imp__IsProcessorFeaturePresent@4 00454074     kernel32:KERNEL32.dll
 0002:00000078       __imp__GetModuleHandleW@4  00454078     kernel32:KERNEL32.dll
 0002:0000007c       __imp__GetModuleHandleA@4  0045407c     kernel32:KERNEL32.dll
 0002:00000080       __imp__GetProcAddress@8    00454080     kernel32:KERNEL32.dll
 0002:00000084       __imp__LoadLibraryA@4      00454084     kernel32:KERNEL32.dll
 0002:00000088       __imp__GetTickCount@0      00454088     kernel32:KERNEL32.dll
 0002:0000008c       __imp__Sleep@4             0045408c     kernel32:KERNEL32.dll
 0002:00000090       __imp__MoveFileExA@12      00454090     kernel32:KERNEL32.dll
 0002:00000094       __imp__WaitForSingleObjectEx@12 00454094     kernel32:KERNEL32.dll
 0002:00000098       __imp__GetStdHandle@4      00454098     kernel32:KERNEL32.dll
 0002:0000009c       __imp__GetFileType@4       0045409c     kernel32:KERNEL32.dll
 0002:000000a0       __imp__ReadFile@20         004540a0     kernel32:KERNEL32.dll
 0002:000000a4       __imp__PeekNamedPipe@24    004540a4     kernel32:KERNEL32.dll
 0002:000000a8       __imp__WaitForMultipleObjects@16 004540a8     kernel32:KERNEL32.dll
 0002:000000ac       __imp__GetEnvironmentVariableA@12 004540ac     kernel32:KERNEL32.dll
 0002:000000b0       __imp__GetLastError@0      004540b0     kernel32:KERNEL32.dll
 0002:000000b4       __imp__SetLastError@4      004540b4     kernel32:KERNEL32.dll
 0002:000000b8       __imp__FormatMessageW@28   004540b8     kernel32:KERNEL32.dll
 0002:000000bc       __imp__VerSetConditionMask@16 004540bc     kernel32:KERNEL32.dll
 0002:000000c0       __imp__VerifyVersionInfoA@16 004540c0     kernel32:KERNEL32.dll
 0002:000000c4       __imp__TerminateProcess@8  004540c4     kernel32:KERNEL32.dll
 0002:000000c8       __imp__SetUnhandledExceptionFilter@4 004540c8     kernel32:KERNEL32.dll
 0002:000000cc       __imp__AllocConsole@0      004540cc     kernel32:KERNEL32.dll
 0002:000000d0       __imp__K32EnumProcessModules@16 004540d0     kernel32:KERNEL32.dll
 0002:000000d4       __imp__ReadProcessMemory@20 004540d4     kernel32:KERNEL32.dll
 0002:000000d8       __imp__CloseHandle@4       004540d8     kernel32:KERNEL32.dll
 0002:000000dc       __imp__K32GetModuleFileNameExA@16 004540dc     kernel32:KERNEL32.dll
 0002:000000e0       __imp__OpenProcess@12      004540e0     kernel32:KERNEL32.dll
 0002:000000e4       __imp__GetCurrentProcess@0 004540e4     kernel32:KERNEL32.dll
 0002:000000e8       __imp__UnhandledExceptionFilter@4 004540e8     kernel32:KERNEL32.dll
 0002:000000ec       \177KERNEL32_NULL_THUNK_DATA 004540ec     kernel32:KERNEL32.dll
 0002:000000f0       __imp_?_Getcat@?$codecvt@DDU_Mbstatet@@@std@@SAIPAPBVfacet@locale@2@PBV42@@Z 004540f0     msvcprt:MSVCP140.dll
 0002:000000f4       __imp_??6?$basic_ostream@DU?$char_traits@D@std@@@std@@QAEAAV01@_J@Z 004540f4     msvcprt:MSVCP140.dll
 0002:000000f8       __imp_?sgetc@?$basic_streambuf@DU?$char_traits@D@std@@@std@@QAEHXZ 004540f8     msvcprt:MSVCP140.dll
 0002:000000fc       __imp_?unshift@?$codecvt@DDU_Mbstatet@@@std@@QBEHAAU_Mbstatet@@PAD1AAPAD@Z 004540fc     msvcprt:MSVCP140.dll
 0002:00000100       __imp_??0?$basic_streambuf@DU?$char_traits@D@std@@@std@@IAE@XZ 00454100     msvcprt:MSVCP140.dll
 0002:00000104       __imp_?_Init@?$basic_streambuf@DU?$char_traits@D@std@@@std@@IAEXXZ 00454104     msvcprt:MSVCP140.dll
 0002:00000108       __imp_?in@?$codecvt@DDU_Mbstatet@@@std@@QBEHAAU_Mbstatet@@PBD1AAPBDPAD3AAPAD@Z 00454108     msvcprt:MSVCP140.dll
 0002:0000010c       __imp_?out@?$codecvt@DDU_Mbstatet@@@std@@QBEHAAU_Mbstatet@@PBD1AAPBDPAD3AAPAD@Z 0045410c     msvcprt:MSVCP140.dll
 0002:00000110       __imp_?snextc@?$basic_streambuf@DU?$char_traits@D@std@@@std@@QAEHXZ 00454110     msvcprt:MSVCP140.dll
 0002:00000114       __imp_?_Pninc@?$basic_streambuf@DU?$char_traits@D@std@@@std@@IAEPADXZ 00454114     msvcprt:MSVCP140.dll
 0002:00000118       __imp_??0?$basic_ios@DU?$char_traits@D@std@@@std@@IAE@XZ 00454118     msvcprt:MSVCP140.dll
 0002:0000011c       __imp_??0?$basic_istream@DU?$char_traits@D@std@@@std@@QAE@PAV?$basic_streambuf@DU?$char_traits@D@std@@@1@_N@Z 0045411c     msvcprt:MSVCP140.dll
 0002:00000120       __imp_??1?$basic_streambuf@DU?$char_traits@D@std@@@std@@UAE@XZ 00454120     msvcprt:MSVCP140.dll
 0002:00000124       __imp_?_Lock@?$basic_streambuf@DU?$char_traits@D@std@@@std@@UAEXXZ 00454124     msvcprt:MSVCP140.dll
 0002:00000128       __imp_?_Unlock@?$basic_streambuf@DU?$char_traits@D@std@@@std@@UAEXXZ 00454128     msvcprt:MSVCP140.dll
 0002:0000012c       __imp_?showmanyc@?$basic_streambuf@DU?$char_traits@D@std@@@std@@MAE_JXZ 0045412c     msvcprt:MSVCP140.dll
 0002:00000130       __imp_?uflow@?$basic_streambuf@DU?$char_traits@D@std@@@std@@MAEHXZ 00454130     msvcprt:MSVCP140.dll
 0002:00000134       __imp_?xsgetn@?$basic_streambuf@DU?$char_traits@D@std@@@std@@MAE_JPAD_J@Z 00454134     msvcprt:MSVCP140.dll
 0002:00000138       __imp_?xsputn@?$basic_streambuf@DU?$char_traits@D@std@@@std@@MAE_JPBD_J@Z 00454138     msvcprt:MSVCP140.dll
 0002:0000013c       __imp_?setbuf@?$basic_streambuf@DU?$char_traits@D@std@@@std@@MAEPAV12@PAD_J@Z 0045413c     msvcprt:MSVCP140.dll
 0002:00000140       __imp_?sync@?$basic_streambuf@DU?$char_traits@D@std@@@std@@MAEHXZ 00454140     msvcprt:MSVCP140.dll
 0002:00000144       __imp_?imbue@?$basic_streambuf@DU?$char_traits@D@std@@@std@@MAEXABVlocale@2@@Z 00454144     msvcprt:MSVCP140.dll
 0002:00000148       __imp_??1?$basic_ios@DU?$char_traits@D@std@@@std@@UAE@XZ 00454148     msvcprt:MSVCP140.dll
 0002:0000014c       __imp_??1?$basic_istream@DU?$char_traits@D@std@@@std@@UAE@XZ 0045414c     msvcprt:MSVCP140.dll
 0002:00000150       __imp_??1?$basic_iostream@DU?$char_traits@D@std@@@std@@UAE@XZ 00454150     msvcprt:MSVCP140.dll
 0002:00000154       __imp_?getloc@ios_base@std@@QBE?AVlocale@2@XZ 00454154     msvcprt:MSVCP140.dll
 0002:00000158       __imp_?_Getcat@?$ctype@D@std@@SAIPAPBVfacet@locale@2@PBV42@@Z 00454158     msvcprt:MSVCP140.dll
 0002:0000015c       __imp_?always_noconv@codecvt_base@std@@QBE_NXZ 0045415c     msvcprt:MSVCP140.dll
 0002:00000160       __imp_??Bid@locale@std@@QAEIXZ 00454160     msvcprt:MSVCP140.dll
 0002:00000164       __imp_??0?$basic_iostream@DU?$char_traits@D@std@@@std@@QAE@PAV?$basic_streambuf@DU?$char_traits@D@std@@@1@@Z 00454164     msvcprt:MSVCP140.dll
 0002:00000168       __imp_?_Ipfx@?$basic_istream@DU?$char_traits@D@std@@@std@@QAE_N_N@Z 00454168     msvcprt:MSVCP140.dll
 0002:0000016c       __imp_?id@?$ctype@D@std@@2V0locale@2@A 0045416c     msvcprt:MSVCP140.dll
 0002:00000170       __imp_?id@?$codecvt@DDU_Mbstatet@@@std@@2V0locale@2@A 00454170     msvcprt:MSVCP140.dll
 0002:00000174       __imp_?_Getgloballocale@locale@std@@CAPAV_Locimp@12@XZ 00454174     msvcprt:MSVCP140.dll
 0002:00000178       __imp_??0_Lockit@std@@QAE@H@Z 00454178     msvcprt:MSVCP140.dll
 0002:0000017c       __imp_??1_Lockit@std@@QAE@XZ 0045417c     msvcprt:MSVCP140.dll
 0002:00000180       __imp_??6?$basic_ostream@DU?$char_traits@D@std@@@std@@QAEAAV01@H@Z 00454180     msvcprt:MSVCP140.dll
 0002:00000184       __imp_??6?$basic_ostream@DU?$char_traits@D@std@@@std@@QAEAAV01@P6AAAV01@AAV01@@Z@Z 00454184     msvcprt:MSVCP140.dll
 0002:00000188       __imp_?setstate@?$basic_ios@DU?$char_traits@D@std@@@std@@QAEXH_N@Z 00454188     msvcprt:MSVCP140.dll
 0002:0000018c       __imp_?flush@?$basic_ostream@DU?$char_traits@D@std@@@std@@QAEAAV12@XZ 0045418c     msvcprt:MSVCP140.dll
 0002:00000190       __imp_?_Osfx@?$basic_ostream@DU?$char_traits@D@std@@@std@@QAEXXZ 00454190     msvcprt:MSVCP140.dll
 0002:00000194       __imp_?sputc@?$basic_streambuf@DU?$char_traits@D@std@@@std@@QAEHD@Z 00454194     msvcprt:MSVCP140.dll
 0002:00000198       __imp_?put@?$basic_ostream@DU?$char_traits@D@std@@@std@@QAEAAV12@D@Z 00454198     msvcprt:MSVCP140.dll
 0002:0000019c       __imp_?widen@?$basic_ios@DU?$char_traits@D@std@@@std@@QBEDD@Z 0045419c     msvcprt:MSVCP140.dll
 0002:000001a0       __imp_?sputn@?$basic_streambuf@DU?$char_traits@D@std@@@std@@QAE_JPBD_J@Z 004541a0     msvcprt:MSVCP140.dll
 0002:000001a4       __imp_?_Xlength_error@std@@YAXPBD@Z 004541a4     msvcprt:MSVCP140.dll
 0002:000001a8       __imp_?_Xout_of_range@std@@YAXPBD@Z 004541a8     msvcprt:MSVCP140.dll
 0002:000001ac       __imp_?_Xinvalid_argument@std@@YAXPBD@Z 004541ac     msvcprt:MSVCP140.dll
 0002:000001b0       __imp_?uncaught_exception@std@@YA_NXZ 004541b0     msvcprt:MSVCP140.dll
 0002:000001b4       __imp_?cout@std@@3V?$basic_ostream@DU?$char_traits@D@std@@@1@A 004541b4     msvcprt:MSVCP140.dll
 0002:000001b8       \177MSVCP140_NULL_THUNK_DATA 004541b8     msvcprt:MSVCP140.dll
 0002:000001bc       __imp__GetMessageA@16      004541bc     user32:USER32.dll
 0002:000001c0       __imp__DispatchMessageA@4  004541c0     user32:USER32.dll
 0002:000001c4       __imp__GetWindowRect@8     004541c4     user32:USER32.dll
 0002:000001c8       __imp__DestroyWindow@4     004541c8     user32:USER32.dll
 0002:000001cc       __imp__ShowWindow@8        004541cc     user32:USER32.dll
 0002:000001d0       __imp__GetForegroundWindow@0 004541d0     user32:USER32.dll
 0002:000001d4       __imp__MoveWindow@24       004541d4     user32:USER32.dll
 0002:000001d8       __imp__GetWindowThreadProcessId@8 004541d8     user32:USER32.dll
 0002:000001dc       __imp__CreateWindowExA@48  004541dc     user32:USER32.dll
 0002:000001e0       __imp__SetLayeredWindowAttributes@16 004541e0     user32:USER32.dll
 0002:000001e4       __imp__TranslateMessage@4  004541e4     user32:USER32.dll
 0002:000001e8       __imp__UnregisterClassA@8  004541e8     user32:USER32.dll
 0002:000001ec       __imp__PostQuitMessage@4   004541ec     user32:USER32.dll
 0002:000001f0       __imp__FindWindowA@8       004541f0     user32:USER32.dll
 0002:000001f4       __imp__RegisterClassExA@4  004541f4     user32:USER32.dll
 0002:000001f8       __imp__UpdateWindow@4      004541f8     user32:USER32.dll
 0002:000001fc       __imp__DefWindowProcA@16   004541fc     user32:USER32.dll
 0002:00000200       \177USER32_NULL_THUNK_DATA 00454200     user32:USER32.dll
 0002:00000204       __imp__memchr              00454204     vcruntime:VCRUNTIME140.dll
 0002:00000208       __imp__strrchr             00454208     vcruntime:VCRUNTIME140.dll
 0002:0000020c       __imp__strchr              0045420c     vcruntime:VCRUNTIME140.dll
 0002:00000210       __imp__memmove             00454210     vcruntime:VCRUNTIME140.dll
 0002:00000214       __imp__memcpy              00454214     vcruntime:VCRUNTIME140.dll
 0002:00000218       __imp__memset              00454218     vcruntime:VCRUNTIME140.dll
 0002:0000021c       __imp__strstr              0045421c     vcruntime:VCRUNTIME140.dll
 0002:00000220       __imp____CxxFrameHandler3  00454220     vcruntime:VCRUNTIME140.dll
 0002:00000224       __imp____std_exception_destroy 00454224     vcruntime:VCRUNTIME140.dll
 0002:00000228       __imp____std_exception_copy 00454228     vcruntime:VCRUNTIME140.dll
 0002:0000022c       __imp____std_terminate     0045422c     vcruntime:VCRUNTIME140.dll
 0002:00000230       __imp____current_exception 00454230     vcruntime:VCRUNTIME140.dll
 0002:00000234       __imp____current_exception_context 00454234     vcruntime:VCRUNTIME140.dll
 0002:00000238       __imp___CxxThrowException@8 00454238     vcruntime:VCRUNTIME140.dll
 0002:0000023c       __imp___except_handler4_common 0045423c     vcruntime:VCRUNTIME140.dll
 0002:00000240       \177VCRUNTIME140_NULL_THUNK_DATA 00454240     vcruntime:VCRUNTIME140.dll
 0002:00000244       __imp__ldap_memfree        00454244     wldap32:WLDAP32.dll
 0002:00000248       __imp__ldap_get_dn         00454248     wldap32:WLDAP32.dll
 0002:0000024c       __imp__ldap_value_free_len 0045424c     wldap32:WLDAP32.dll
 0002:00000250       __imp__ldap_get_values_len 00454250     wldap32:WLDAP32.dll
 0002:00000254       __imp__ldap_next_attribute 00454254     wldap32:WLDAP32.dll
 0002:00000258       __imp__ber_free            00454258     wldap32:WLDAP32.dll
 0002:0000025c       __imp__ldap_simple_bind_s  0045425c     wldap32:WLDAP32.dll
 0002:00000260       __imp__ldap_first_attribute 00454260     wldap32:WLDAP32.dll
 0002:00000264       __imp__ldap_set_option     00454264     wldap32:WLDAP32.dll
 0002:00000268       __imp__ldap_unbind_s       00454268     wldap32:WLDAP32.dll
 0002:0000026c       __imp__ldap_sslinit        0045426c     wldap32:WLDAP32.dll
 0002:00000270       __imp__ldap_next_entry     00454270     wldap32:WLDAP32.dll
 0002:00000274       __imp__ldap_init           00454274     wldap32:WLDAP32.dll
 0002:00000278       __imp__ldap_search_s       00454278     wldap32:WLDAP32.dll
 0002:0000027c       __imp__ldap_err2string     0045427c     wldap32:WLDAP32.dll
 0002:00000280       __imp__ldap_msgfree        00454280     wldap32:WLDAP32.dll
 0002:00000284       __imp__ldap_first_entry    00454284     wldap32:WLDAP32.dll
 0002:00000288       \177WLDAP32_NULL_THUNK_DATA 00454288     wldap32:WLDAP32.dll
 0002:0000028c       __imp__getsockopt@20       0045428c     ws2_32:WS2_32.dll
 0002:00000290       __imp__htons@4             00454290     ws2_32:WS2_32.dll
 0002:00000294       __imp__ntohs@4             00454294     ws2_32:WS2_32.dll
 0002:00000298       __imp__setsockopt@20       00454298     ws2_32:WS2_32.dll
 0002:0000029c       __imp__getsockname@12      0045429c     ws2_32:WS2_32.dll
 0002:000002a0       __imp__getpeername@12      004542a0     ws2_32:WS2_32.dll
 0002:000002a4       __imp__connect@12          004542a4     ws2_32:WS2_32.dll
 0002:000002a8       __imp__WSASetLastError@4   004542a8     ws2_32:WS2_32.dll
 0002:000002ac       __imp__WSAIoctl@36         004542ac     ws2_32:WS2_32.dll
 0002:000002b0       __imp__WSAStartup@8        004542b0     ws2_32:WS2_32.dll
 0002:000002b4       __imp__WSACleanup@0        004542b4     ws2_32:WS2_32.dll
 0002:000002b8       __imp__accept@12           004542b8     ws2_32:WS2_32.dll
 0002:000002bc       __imp__htonl@4             004542bc     ws2_32:WS2_32.dll
 0002:000002c0       __imp__listen@8            004542c0     ws2_32:WS2_32.dll
 0002:000002c4       __imp__ioctlsocket@12      004542c4     ws2_32:WS2_32.dll
 0002:000002c8       __imp____WSAFDIsSet@8      004542c8     ws2_32:WS2_32.dll
 0002:000002cc       __imp__select@20           004542cc     ws2_32:WS2_32.dll
 0002:000002d0       __imp__getaddrinfo@16      004542d0     ws2_32:WS2_32.dll
 0002:000002d4       __imp__freeaddrinfo@4      004542d4     ws2_32:WS2_32.dll
 0002:000002d8       __imp__WSACloseEvent@4     004542d8     ws2_32:WS2_32.dll
 0002:000002dc       __imp__WSACreateEvent@0    004542dc     ws2_32:WS2_32.dll
 0002:000002e0       __imp__WSAEnumNetworkEvents@12 004542e0     ws2_32:WS2_32.dll
 0002:000002e4       __imp__WSAEventSelect@12   004542e4     ws2_32:WS2_32.dll
 0002:000002e8       __imp__recvfrom@24         004542e8     ws2_32:WS2_32.dll
 0002:000002ec       __imp__sendto@24           004542ec     ws2_32:WS2_32.dll
 0002:000002f0       __imp__gethostname@8       004542f0     ws2_32:WS2_32.dll
 0002:000002f4       __imp__bind@12             004542f4     ws2_32:WS2_32.dll
 0002:000002f8       __imp__WSAGetLastError@0   004542f8     ws2_32:WS2_32.dll
 0002:000002fc       __imp__send@16             004542fc     ws2_32:WS2_32.dll
 0002:00000300       __imp__recv@16             00454300     ws2_32:WS2_32.dll
 0002:00000304       __imp__closesocket@4       00454304     ws2_32:WS2_32.dll
 0002:00000308       __imp__socket@12           00454308     ws2_32:WS2_32.dll
 0002:0000030c       \177WS2_32_NULL_THUNK_DATA 0045430c     ws2_32:WS2_32.dll
 0002:00000310       __imp__atoi                00454310     ucrt:api-ms-win-crt-convert-l1-1-0.dll
 0002:00000314       __imp__wcstombs            00454314     ucrt:api-ms-win-crt-convert-l1-1-0.dll
 0002:00000318       __imp__strtoll             00454318     ucrt:api-ms-win-crt-convert-l1-1-0.dll
 0002:0000031c       __imp__strtol              0045431c     ucrt:api-ms-win-crt-convert-l1-1-0.dll
 0002:00000320       __imp__strtoul             00454320     ucrt:api-ms-win-crt-convert-l1-1-0.dll
 0002:00000324       \177api-ms-win-crt-convert-l1-1-0_NULL_THUNK_DATA 00454324     ucrt:api-ms-win-crt-convert-l1-1-0.dll
 0002:00000328       __imp___fstat64            00454328     ucrt:api-ms-win-crt-filesystem-l1-1-0.dll
 0002:0000032c       __imp___stat64             0045432c     ucrt:api-ms-win-crt-filesystem-l1-1-0.dll
 0002:00000330       __imp___access             00454330     ucrt:api-ms-win-crt-filesystem-l1-1-0.dll
 0002:00000334       __imp___lock_file          00454334     ucrt:api-ms-win-crt-filesystem-l1-1-0.dll
 0002:00000338       __imp___unlock_file        00454338     ucrt:api-ms-win-crt-filesystem-l1-1-0.dll
 0002:0000033c       __imp__unlink              0045433c     ucrt:api-ms-win-crt-filesystem-l1-1-0.dll
 0002:0000033c       __imp___unlink             0045433c     ucrt:api-ms-win-crt-filesystem-l1-1-0.dll
 0002:00000340       \177api-ms-win-crt-filesystem-l1-1-0_NULL_THUNK_DATA 00454340     ucrt:api-ms-win-crt-filesystem-l1-1-0.dll
 0002:00000344       __imp__malloc              00454344     ucrt:api-ms-win-crt-heap-l1-1-0.dll
 0002:00000348       __imp__realloc             00454348     ucrt:api-ms-win-crt-heap-l1-1-0.dll
 0002:0000034c       __imp__calloc              0045434c     ucrt:api-ms-win-crt-heap-l1-1-0.dll
 0002:00000350       __imp___callnewh           00454350     ucrt:api-ms-win-crt-heap-l1-1-0.dll
 0002:00000354       __imp__free                00454354     ucrt:api-ms-win-crt-heap-l1-1-0.dll
 0002:00000358       __imp___set_new_mode       00454358     ucrt:api-ms-win-crt-heap-l1-1-0.dll
 0002:0000035c       \177api-ms-win-crt-heap-l1-1-0_NULL_THUNK_DATA 0045435c     ucrt:api-ms-win-crt-heap-l1-1-0.dll
 0002:00000360       __imp___configthreadlocale 00454360     ucrt:api-ms-win-crt-locale-l1-1-0.dll
 0002:00000364       \177api-ms-win-crt-locale-l1-1-0_NULL_THUNK_DATA 00454364     ucrt:api-ms-win-crt-locale-l1-1-0.dll
 0002:00000368       __imp____setusermatherr    00454368     ucrt:api-ms-win-crt-math-l1-1-0.dll
 0002:0000036c       \177api-ms-win-crt-math-l1-1-0_NULL_THUNK_DATA 0045436c     ucrt:api-ms-win-crt-math-l1-1-0.dll
 0002:00000370       __imp___mbspbrk            00454370     ucrt:api-ms-win-crt-multibyte-l1-1-0.dll
 0002:00000374       \177api-ms-win-crt-multibyte-l1-1-0_NULL_THUNK_DATA 00454374     ucrt:api-ms-win-crt-multibyte-l1-1-0.dll
 0002:00000378       __imp___controlfp_s        00454378     ucrt:api-ms-win-crt-runtime-l1-1-0.dll
 0002:0000037c       __imp___beginthreadex      0045437c     ucrt:api-ms-win-crt-runtime-l1-1-0.dll
 0002:00000380       __imp___crt_atexit         00454380     ucrt:api-ms-win-crt-runtime-l1-1-0.dll
 0002:00000384       __imp___register_onexit_function 00454384     ucrt:api-ms-win-crt-runtime-l1-1-0.dll
 0002:00000388       __imp___cexit              00454388     ucrt:api-ms-win-crt-runtime-l1-1-0.dll
 0002:0000038c       __imp___getpid             0045438c     ucrt:api-ms-win-crt-runtime-l1-1-0.dll
 0002:00000390       __imp___seh_filter_exe     00454390     ucrt:api-ms-win-crt-runtime-l1-1-0.dll
 0002:00000394       __imp___invalid_parameter_noinfo_noreturn 00454394     ucrt:api-ms-win-crt-runtime-l1-1-0.dll
 0002:00000398       __imp____sys_nerr          00454398     ucrt:api-ms-win-crt-runtime-l1-1-0.dll
 0002:0000039c       __imp__strerror            0045439c     ucrt:api-ms-win-crt-runtime-l1-1-0.dll
 0002:000003a0       __imp___set_app_type       004543a0     ucrt:api-ms-win-crt-runtime-l1-1-0.dll
 0002:000003a4       __imp___get_narrow_winmain_command_line 004543a4     ucrt:api-ms-win-crt-runtime-l1-1-0.dll
 0002:000003a8       __imp___initterm           004543a8     ucrt:api-ms-win-crt-runtime-l1-1-0.dll
 0002:000003ac       __imp___initialize_onexit_table 004543ac     ucrt:api-ms-win-crt-runtime-l1-1-0.dll
 0002:000003b0       __imp___initterm_e         004543b0     ucrt:api-ms-win-crt-runtime-l1-1-0.dll
 0002:000003b4       __imp___initialize_narrow_environment 004543b4     ucrt:api-ms-win-crt-runtime-l1-1-0.dll
 0002:000003b8       __imp___configure_narrow_argv 004543b8     ucrt:api-ms-win-crt-runtime-l1-1-0.dll
 0002:000003bc       __imp__terminate           004543bc     ucrt:api-ms-win-crt-runtime-l1-1-0.dll
 0002:000003c0       __imp__system              004543c0     ucrt:api-ms-win-crt-runtime-l1-1-0.dll
 0002:000003c4       __imp__exit                004543c4     ucrt:api-ms-win-crt-runtime-l1-1-0.dll
 0002:000003c8       __imp___errno              004543c8     ucrt:api-ms-win-crt-runtime-l1-1-0.dll
 0002:000003cc       __imp___register_thread_local_exe_atexit_callback 004543cc     ucrt:api-ms-win-crt-runtime-l1-1-0.dll
 0002:000003d0       __imp___c_exit             004543d0     ucrt:api-ms-win-crt-runtime-l1-1-0.dll
 0002:000003d4       __imp___exit               004543d4     ucrt:api-ms-win-crt-runtime-l1-1-0.dll
 0002:000003d8       \177api-ms-win-crt-runtime-l1-1-0_NULL_THUNK_DATA 004543d8     ucrt:api-ms-win-crt-runtime-l1-1-0.dll
 0002:000003dc       __imp__fclose              004543dc     ucrt:api-ms-win-crt-stdio-l1-1-0.dll
 0002:000003e0       __imp__fgetc               004543e0     ucrt:api-ms-win-crt-stdio-l1-1-0.dll
 0002:000003e4       __imp___set_fmode          004543e4     ucrt:api-ms-win-crt-stdio-l1-1-0.dll
 0002:000003e8       __imp__fflush              004543e8     ucrt:api-ms-win-crt-stdio-l1-1-0.dll
 0002:000003ec       __imp___close              004543ec     ucrt:api-ms-win-crt-stdio-l1-1-0.dll
 0002:000003ec       __imp__close               004543ec     ucrt:api-ms-win-crt-stdio-l1-1-0.dll
 0002:000003f0       __imp__fputc               004543f0     ucrt:api-ms-win-crt-stdio-l1-1-0.dll
 0002:000003f4       __imp____stdio_common_vsprintf 004543f4     ucrt:api-ms-win-crt-stdio-l1-1-0.dll
 0002:000003f8       __imp____p__commode        004543f8     ucrt:api-ms-win-crt-stdio-l1-1-0.dll
 0002:000003fc       __imp___lseeki64           004543fc     ucrt:api-ms-win-crt-stdio-l1-1-0.dll
 0002:00000400       __imp__freopen_s           00454400     ucrt:api-ms-win-crt-stdio-l1-1-0.dll
 0002:00000404       __imp___open               00454404     ucrt:api-ms-win-crt-stdio-l1-1-0.dll
 0002:00000408       __imp__fopen               00454408     ucrt:api-ms-win-crt-stdio-l1-1-0.dll
 0002:0000040c       __imp____acrt_iob_func     0045440c     ucrt:api-ms-win-crt-stdio-l1-1-0.dll
 0002:00000410       __imp__fseek               00454410     ucrt:api-ms-win-crt-stdio-l1-1-0.dll
 0002:00000414       __imp__feof                00454414     ucrt:api-ms-win-crt-stdio-l1-1-0.dll
 0002:00000418       __imp__read                00454418     ucrt:api-ms-win-crt-stdio-l1-1-0.dll
 0002:00000418       __imp___read               00454418     ucrt:api-ms-win-crt-stdio-l1-1-0.dll
 0002:0000041c       __imp__write               0045441c     ucrt:api-ms-win-crt-stdio-l1-1-0.dll
 0002:0000041c       __imp___write              0045441c     ucrt:api-ms-win-crt-stdio-l1-1-0.dll
 0002:00000420       __imp____stdio_common_vsscanf 00454420     ucrt:api-ms-win-crt-stdio-l1-1-0.dll
 0002:00000424       __imp__fputs               00454424     ucrt:api-ms-win-crt-stdio-l1-1-0.dll
 0002:00000428       __imp___get_stream_buffer_pointers 00454428     ucrt:api-ms-win-crt-stdio-l1-1-0.dll
 0002:0000042c       __imp___fseeki64           0045442c     ucrt:api-ms-win-crt-stdio-l1-1-0.dll
 0002:00000430       __imp__fread               00454430     ucrt:api-ms-win-crt-stdio-l1-1-0.dll
 0002:00000434       __imp__fsetpos             00454434     ucrt:api-ms-win-crt-stdio-l1-1-0.dll
 0002:00000438       __imp__ungetc              00454438     ucrt:api-ms-win-crt-stdio-l1-1-0.dll
 0002:0000043c       __imp___popen              0045443c     ucrt:api-ms-win-crt-stdio-l1-1-0.dll
 0002:00000440       __imp__setvbuf             00454440     ucrt:api-ms-win-crt-stdio-l1-1-0.dll
 0002:00000444       __imp__fgetpos             00454444     ucrt:api-ms-win-crt-stdio-l1-1-0.dll
 0002:00000448       __imp__fwrite              00454448     ucrt:api-ms-win-crt-stdio-l1-1-0.dll
 0002:0000044c       __imp__fgets               0045444c     ucrt:api-ms-win-crt-stdio-l1-1-0.dll
 0002:00000450       __imp___pclose             00454450     ucrt:api-ms-win-crt-stdio-l1-1-0.dll
 0002:00000454       \177api-ms-win-crt-stdio-l1-1-0_NULL_THUNK_DATA 00454454     ucrt:api-ms-win-crt-stdio-l1-1-0.dll
 0002:00000458       __imp__tolower             00454458     ucrt:api-ms-win-crt-string-l1-1-0.dll
 0002:0000045c       __imp___strdup             0045445c     ucrt:api-ms-win-crt-string-l1-1-0.dll
 0002:0000045c       __imp__strdup              0045445c     ucrt:api-ms-win-crt-string-l1-1-0.dll
 0002:00000460       __imp__strncmp             00454460     ucrt:api-ms-win-crt-string-l1-1-0.dll
 0002:00000464       __imp__strpbrk             00454464     ucrt:api-ms-win-crt-string-l1-1-0.dll
 0002:00000468       __imp__strspn              00454468     ucrt:api-ms-win-crt-string-l1-1-0.dll
 0002:0000046c       __imp__strncpy             0045446c     ucrt:api-ms-win-crt-string-l1-1-0.dll
 0002:00000470       __imp__strcspn             00454470     ucrt:api-ms-win-crt-string-l1-1-0.dll
 0002:00000474       \177api-ms-win-crt-string-l1-1-0_NULL_THUNK_DATA 00454474     ucrt:api-ms-win-crt-string-l1-1-0.dll
 0002:00000478       __imp___gmtime64           00454478     ucrt:api-ms-win-crt-time-l1-1-0.dll
 0002:0000047c       __imp___time64             0045447c     ucrt:api-ms-win-crt-time-l1-1-0.dll
 0002:00000480       __imp__strftime            00454480     ucrt:api-ms-win-crt-time-l1-1-0.dll
 0002:00000484       __imp___localtime64        00454484     ucrt:api-ms-win-crt-time-l1-1-0.dll
 0002:00000488       \177api-ms-win-crt-time-l1-1-0_NULL_THUNK_DATA 00454488     ucrt:api-ms-win-crt-time-l1-1-0.dll
 0002:0000048c       __imp__qsort               0045448c     ucrt:api-ms-win-crt-utility-l1-1-0.dll
 0002:00000490       \177api-ms-win-crt-utility-l1-1-0_NULL_THUNK_DATA 00454490     ucrt:api-ms-win-crt-utility-l1-1-0.dll
 0002:00000494       __imp__Direct3DCreate9@4   00454494     d3d9:d3d9.dll
 0002:00000498       \177d3d9_NULL_THUNK_DATA   00454498     d3d9:d3d9.dll
 0002:0000049c       __imp__D3DXCreateLine@8    0045449c     d3dx9:d3dx9_43.dll
 0002:000004a0       __imp__D3DXCreateFontA@48  004544a0     d3dx9:d3dx9_43.dll
 0002:000004a4       \177d3dx9_43_NULL_THUNK_DATA 004544a4     d3dx9:d3dx9_43.dll
 0002:000004a8       ___guard_check_icall_fptr  004544a8     MSVCRT:guard_support.obj
 0002:000004ac       ___xc_a                    004544ac     MSVCRT:initializers.obj
 0002:000005f4       ___xc_z                    004545f4     MSVCRT:initializers.obj
 0002:000005f8       ___xi_a                    004545f8     MSVCRT:initializers.obj
 0002:00000604       ___xi_z                    00454604     MSVCRT:initializers.obj
 0002:00000608       ___xp_a                    00454608     MSVCRT:initializers.obj
 0002:0000060c       ___xp_z                    0045460c     MSVCRT:initializers.obj
 0002:00000610       ___xt_a                    00454610     MSVCRT:initializers.obj
 0002:00000614       ___xt_z                    00454614     MSVCRT:initializers.obj
 0002:00000624       ??_7type_info@@6B@         00454624     MSVCRT:std_type_info_static.obj
 0002:00000634       ??_7exception@std@@6B@     00454634     MSVCRT:throw_bad_alloc.obj
 0002:00000640       ??_7bad_alloc@std@@6B@     00454640     MSVCRT:throw_bad_alloc.obj
 0002:00000648       ??_C@_0P@GHFPNOJB@bad?5allocation@ 00454648     MSVCRT:throw_bad_alloc.obj
 0002:0000065c       ??_7bad_array_new_length@std@@6B@ 0045465c     MSVCRT:throw_bad_alloc.obj
 0002:00000664       ??_C@_0CJ@FAHCKHJA@easy?5handle?5already?5used?5in?5mult@ 00454664     libcurl:easy.obj
 0002:0000068d       ??_C@_00CNPNBAHC@?$AA@     0045468d     libcurl:setopt.obj
 0002:00000690       ??_C@_03NIFPGLBG@ALL?$AA@  00454690     libcurl:setopt.obj
 0002:00000694       ??_C@_04BFMIILII@SESS?$AA@ 00454694     libcurl:setopt.obj
 0002:0000069c       ??_C@_05KALGKIBB@FLUSH?$AA@ 0045469c     libcurl:setopt.obj
 0002:000006a4       ??_C@_06DCHFNDBF@RELOAD?$AA@ 004546a4     libcurl:setopt.obj
 0002:000006ac       ??_C@_0M@ICGHKGOK@Set?9Cookie?3?$AA@ 004546ac     libcurl:setopt.obj
 0002:00000710       ??_C@_0CH@LECELJNK@Connection?5?$CD?$CFld?5to?5host?5?$CFs?5left?5@ 00454710     libcurl:multi.obj
 0002:00000738       ??_C@_03OFAPEBGM@?$CFs?6?$AA@ 00454738     libcurl:multi.obj
 0002:0000073c       ??_C@_0CN@BEDJOLPM@Resolving?5timed?5out?5after?5?$CFI64d?5@ 0045473c     libcurl:multi.obj
 0002:0000076c       ??_C@_0CO@PINFDPJN@Connection?5timed?5out?5after?5?$CFI64d@ 0045476c     libcurl:multi.obj
 0002:000007a0       ??_C@_0FE@NBLGEINA@Operation?5timed?5out?5after?5?$CFI64d?5@ 004547a0     libcurl:multi.obj
 0002:000007f8       ??_C@_0EH@GJEAMCHA@Operation?5timed?5out?5after?5?$CFI64d?5@ 004547f8     libcurl:multi.obj
 0002:00000840       ??_C@_0CH@NOKKCOPP@Transfer?5was?5pending?0?5now?5try?5an@ 00454840     libcurl:multi.obj
 0002:00000868       ??_C@_0CG@EBAFLAEC@Hostname?5?8?$CFs?8?5was?5found?5in?5DNS?5c@ 00454868     libcurl:multi.obj
 0002:00000890       ??_C@_0CJ@OALAEPML@Internal?5error?5removing?5splay?5no@ 00454890     libcurl:multi.obj
 0002:000008bc       ??_C@_0CJ@EHKACPHP@Internal?5error?5clearing?5splay?5no@ 004548bc     libcurl:multi.obj
 0002:000008e8       ??_C@_01KMDKNFGN@?1?$AA@   004548e8     libcurl:cookie.obj
 0002:000008ec       ??_C@_0CE@BBKJHKDF@ignoring?5failed?5cookie_init?5for?5@ 004548ec     libcurl:cookie.obj
 0002:00000910       ??_C@_09IPAEKDAI@localhost?$AA@ 00454910     libcurl:cookie.obj
 0002:0000091c       ??_C@_0BK@IIFEHJP@?$CF4095?$FL?$FO?$DL?$AN?6?$DN?$FN?5?$DN?$CF4095?$FL?$FO?$DL?$AN?6?$FN?$AA@ 0045491c     libcurl:cookie.obj
 0002:00000938       ??_C@_0DE@IBKAGOK@oversized?5cookie?5dropped?0?5name?1v@ 00454938     libcurl:cookie.obj
 0002:0000096c       ??_C@_09OLPEHKPE@__Secure?9?$AA@ 0045496c     libcurl:cookie.obj
 0002:00000978       ??_C@_07DBHHKFCO@__Host?9?$AA@ 00454978     libcurl:cookie.obj
 0002:00000980       ??_C@_06CKKGAKDB@secure?$AA@ 00454980     libcurl:cookie.obj
 0002:00000988       ??_C@_08LKPJDOCJ@httponly?$AA@ 00454988     libcurl:cookie.obj
 0002:00000994       ??_C@_04LNEJFJGI@path?$AA@ 00454994     libcurl:cookie.obj
 0002:0000099c       ??_C@_06LKIIGAOE@domain?$AA@ 0045499c     libcurl:cookie.obj
 0002:000009a4       ??_C@_01JLIPDDHJ@?3?$AA@   004549a4     libcurl:cookie.obj
 0002:000009a8       ??_C@_0CO@IPHLIEKA@skipped?5cookie?5with?5bad?5tailmatc@ 004549a8     libcurl:cookie.obj
 0002:000009d8       ??_C@_07CPCPJPKL@version?$AA@ 004549d8     libcurl:cookie.obj
 0002:000009e0       ??_C@_07PEFKGEJF@max?9age?$AA@ 004549e0     libcurl:cookie.obj
 0002:000009e8       ??_C@_07MJGJEDBB@expires?$AA@ 004549e8     libcurl:cookie.obj
 0002:000009f0       ??_C@_0L@KAKJBGGD@?$CDHttpOnly_?$AA@ 004549f0     libcurl:cookie.obj
 0002:000009fc       ??_C@_01GPOEFGEJ@?7?$AA@   004549fc     libcurl:cookie.obj
 0002:00000a00       ??_C@_04HCDDPBNL@TRUE?$AA@ 00454a00     libcurl:cookie.obj
 0002:00000a08       ??_C@_05MAJJAKPI@FALSE?$AA@ 00454a08     libcurl:cookie.obj
 0002:00000a10       ??_C@_08IMELJCAM@Replaced?$AA@ 00454a10     libcurl:cookie.obj
 0002:00000a1c       ??_C@_05BNECJBCE@Added?$AA@ 00454a1c     libcurl:cookie.obj
 0002:00000a24       ??_C@_0DI@KHDIKDMI@?$CFs?5cookie?5?$CFs?$DN?$CC?$CFs?$CC?5for?5domain?5?$CFs?0@ 00454a24     libcurl:cookie.obj
 0002:00000a5c       ??_C@_04CGFJFPFD@none?$AA@ 00454a5c     libcurl:cookie.obj
 0002:00000a64       ??_C@_01JOAMLHOP@?9?$AA@   00454a64     libcurl:cookie.obj
 0002:00000a68       ??_C@_02BMJICGCB@rt?$AA@   00454a68     libcurl:cookie.obj
 0002:00000a6c       ??_C@_07CIFAGBMG@unknown?$AA@ 00454a6c     libcurl:cookie.obj
 0002:00000a74       ??_C@_01LFCBOECM@?4?$AA@   00454a74     libcurl:cookie.obj
 0002:00000a78       ??_C@_0BM@FIJJOLNN@?$CFs?$CFs?$CFs?7?$CFs?7?$CFs?7?$CFs?7?$CFI64d?7?$CFs?7?$CFs?$AA@ 00454a78     libcurl:cookie.obj
 0002:00000a94       ??_C@_09HFHMDOBG@?$CFs?4?$CFs?4tmp?$AA@ 00454a94     libcurl:cookie.obj
 0002:00000aa0       ??_C@_02BKFDOEMK@wt?$AA@   00454aa0     libcurl:cookie.obj
 0002:00000aa8       ??_C@_0IE@HIOMJDLH@?$CD?5Netscape?5HTTP?5Cookie?5File?6?$CD?5ht@ 00454aa8     libcurl:cookie.obj
 0002:00000b2c       ??_C@_0BJ@LMHKHCLE@?$CD?6?$CD?5Fatal?5libcurl?5error?6?$AA@ 00454b2c     libcurl:cookie.obj
 0002:00000b48       ??_C@_0CH@EIDBEPEM@WARNING?3?5failed?5to?5save?5cookies?5@ 00454b48     libcurl:cookie.obj
 0002:00000b70       ??_C@_02DPKJAMEF@?$CFd?$AA@ 00454b70     libcurl:asyn-thread.obj
 0002:00000b74       ??_C@_0CF@DENKCHCB@getaddrinfo?$CI?$CJ?5thread?5failed?5to?5s@ 00454b74     libcurl:asyn-thread.obj
 0002:00000d94       ??_C@_04JFHMGKLD@?4gif?$AA@ 00454d94     libcurl:mime.obj
 0002:00000d9c       ??_C@_09HADNJIG@image?1gif?$AA@ 00454d9c     libcurl:mime.obj
 0002:00000da8       ??_C@_04GNPKBLNA@?4jpg?$AA@ 00454da8     libcurl:mime.obj
 0002:00000db0       ??_C@_0L@PJKHLKFB@image?1jpeg?$AA@ 00454db0     libcurl:mime.obj
 0002:00000dbc       ??_C@_05KPIGABMB@?4jpeg?$AA@ 00454dbc     libcurl:mime.obj
 0002:00000dc4       ??_C@_04EEOGCCFB@?4png?$AA@ 00454dc4     libcurl:mime.obj
 0002:00000dcc       ??_C@_09NGJJJBGE@image?1png?$AA@ 00454dcc     libcurl:mime.obj
 0002:00000dd8       ??_C@_04EEGGHPHH@?4svg?$AA@ 00454dd8     libcurl:mime.obj
 0002:00000de0       ??_C@_0O@MMMFMLNF@image?1svg?$CLxml?$AA@ 00454de0     libcurl:mime.obj
 0002:00000df0       ??_C@_04LCMACLFG@?4txt?$AA@ 00454df0     libcurl:mime.obj
 0002:00000df8       ??_C@_0L@NPNLKGOJ@text?1plain?$AA@ 00454df8     libcurl:mime.obj
 0002:00000e04       ??_C@_04DKBFJDAN@?4htm?$AA@ 00454e04     libcurl:mime.obj
 0002:00000e0c       ??_C@_09KABDMIOB@text?1html?$AA@ 00454e0c     libcurl:mime.obj
 0002:00000e18       ??_C@_05LHMDENIF@?4html?$AA@ 00454e18     libcurl:mime.obj
 0002:00000e20       ??_C@_04FAGKJGMG@?4pdf?$AA@ 00454e20     libcurl:mime.obj
 0002:00000e28       ??_C@_0BA@MHMDKHOF@application?1pdf?$AA@ 00454e28     libcurl:mime.obj
 0002:00000e38       ??_C@_04GAOAGNCM@?4xml?$AA@ 00454e38     libcurl:mime.obj
 0002:00000e40       ??_C@_0BA@PHEJFMAP@application?1xml?$AA@ 00454e40     libcurl:mime.obj
 0002:00000e50       ??_C@_06FNFBAEBE@binary?$AA@ 00454e50     libcurl:mime.obj
 0002:00000e58       ??_C@_04DFPGIIHA@8bit?$AA@ 00454e58     libcurl:mime.obj
 0002:00000e60       ??_C@_04LHKGBPKB@7bit?$AA@ 00454e60     libcurl:mime.obj
 0002:00000e68       ??_C@_06JEFEFGEJ@base64?$AA@ 00454e68     libcurl:mime.obj
 0002:00000e70       ??_C@_0BB@CAHAECFA@quoted?9printable?$AA@ 00454e70     libcurl:mime.obj
 0002:00000e84       ??_C@_02JDPG@rb?$AA@       00454e84     libcurl:mime.obj
 0002:00000e88       ??_C@_0N@LAFFMKKA@Content?9Type?$AA@ 00454e88     libcurl:mime.obj
 0002:00000e98       ??_C@_02PCIJFNDE@?$AN?6?$AA@ 00454e98     libcurl:mime.obj
 0002:00000e9c       ??_C@_04LOEPKDGL@?$AN?6?9?9?$AA@ 00454e9c     libcurl:mime.obj
 0002:00000ea4       ??_C@_04KAODOPGN@?9?9?$AN?6?$AA@ 00454ea4     libcurl:mime.obj
 0002:00000eac       ??_C@_0BP@IAECJDB@Can?8t?5add?5itself?5as?5a?5subpart?$CB?$AA@ 00454eac     libcurl:mime.obj
 0002:00000ecc       ??_C@_0M@MJDFHGPO@?$DL?5boundary?$DN?$AA@ 00454ecc     libcurl:mime.obj
 0002:00000ed8       ??_C@_0BF@JGMBPGGP@Content?9Type?3?5?$CFs?$CFs?$CFs?$AA@ 00454ed8     libcurl:mime.obj
 0002:00000ef0       ??_C@_0BA@LBPJGHIO@multipart?1mixed?$AA@ 00454ef0     libcurl:mime.obj
 0002:00000f00       ??_C@_0BJ@JDCJMJCJ@application?1octet?9stream?$AA@ 00454f00     libcurl:mime.obj
 0002:00000f1c       ??_C@_0BE@LMOOGHBG@Content?9Disposition?$AA@ 00454f1c     libcurl:mime.obj
 0002:00000f30       ??_C@_0L@LMJJPMNG@multipart?1?$AA@ 00454f30     libcurl:mime.obj
 0002:00000f3c       ??_C@_0L@HBDHCFKP@attachment?$AA@ 00454f3c     libcurl:mime.obj
 0002:00000f48       ??_C@_01BJJEKLCA@?$CC?$AA@ 00454f48     libcurl:mime.obj
 0002:00000f4c       ??_C@_0N@EBLPPAMO@?$DL?5filename?$DN?$CC?$AA@ 00454f4c     libcurl:mime.obj
 0002:00000f5c       ??_C@_08LCJOLIGB@?$DL?5name?$DN?$CC?$AA@ 00454f5c     libcurl:mime.obj
 0002:00000f68       ??_C@_0CE@DDNMPDM@Content?9Disposition?3?5?$CFs?$CFs?$CFs?$CFs?$CFs?$CF@ 00454f68     libcurl:mime.obj
 0002:00000f8c       ??_C@_0BK@MJFMDPAI@Content?9Transfer?9Encoding?$AA@ 00454f8c     libcurl:mime.obj
 0002:00000fa8       ??_C@_0BO@GPACEDCJ@Content?9Transfer?9Encoding?3?5?$CFs?$AA@ 00454fa8     libcurl:mime.obj
 0002:00000fc8       ??_C@_0BE@PILCJFLE@multipart?1form?9data?$AA@ 00454fc8     libcurl:mime.obj
 0002:00000fdc       ??_C@_09DMEGNLGK@form?9data?$AA@ 00454fdc     libcurl:mime.obj
 0002:00000ff0       __xmm@2d2d2d2d2d2d2d2d2d2d2d2d2d2d2d2d 00454ff0     libcurl:mime.obj
 0002:00001000       ??_C@_05MLEOJOPP@?$CFld?$CFs?$AA@ 00455000     libcurl:conncache.obj
 0002:00001008       ??_C@_0DD@OLONMPCM@Connection?5cache?5is?5full?0?5closin@ 00455008     libcurl:conncache.obj
 0002:000010cc       ??_C@_0O@PKKFKPHL@?$DMno?5protocol?$DO?$AA@ 004550cc     libcurl:url.obj
 0002:000010dc       ??_C@_0BI@DDGGAIOA@Closing?5connection?5?$CFld?6?$AA@ 004550dc     libcurl:url.obj
 0002:000010f4       ??_C@_0DB@DJFDJCOE@Too?5old?5connection?5?$CI?$CFld?5seconds?$CJ@ 004550f4     libcurl:url.obj
 0002:00001128       ??_C@_0CC@JFLBHGMD@Connection?5?$CFld?5seems?5to?5be?5dead?$CB@ 00455128     libcurl:url.obj
 0002:0000114c       ??_C@_0O@EFAPFLJF@can?5multiplex?$AA@ 0045514c     libcurl:url.obj
 0002:0000115c       ??_C@_08HGENMDLD@serially?$AA@ 0045515c     libcurl:url.obj
 0002:00001168       ??_C@_0CD@OCDJOGEP@Found?5bundle?5for?5host?5?$CFs?3?5?$CFp?5?$FL?$CFs@ 00455168     libcurl:url.obj
 0002:0000118c       ??_C@_0CM@DIEBCPAL@Server?5doesn?8t?5support?5multiplex@ 0045518c     libcurl:url.obj
 0002:000011b8       ??_C@_0CI@GFGFLNAA@Server?5doesn?8t?5support?5multiplex@ 004551b8     libcurl:url.obj
 0002:000011e0       ??_C@_0CE@OANFFLBC@Could?5multiplex?0?5but?5not?5asked?5t@ 004551e0     libcurl:url.obj
 0002:00001204       ??_C@_0CK@OJMDJFJB@Can?5not?5multiplex?0?5even?5if?5we?5wa@ 00455204     libcurl:url.obj
 0002:00001230       ??_C@_0DG@ICACGPNK@Connection?5?$CD?$CFld?5is?5still?5name?5re@ 00455230     libcurl:url.obj
 0002:00001268       ??_C@_0DA@HEGJMKAL@Connection?5?$CD?$CFld?5isn?8t?5open?5enoug@ 00455268     libcurl:url.obj
 0002:00001298       ??_C@_0BP@IJOBPHC@Multiplexed?5connection?5found?$CB?6?$AA@ 00455298     libcurl:url.obj
 0002:000012b8       ??_C@_0DP@IINEECKA@Found?5pending?5candidate?5for?5reus@ 004552b8     libcurl:url.obj
 0002:000012f8       ??_C@_0CG@GIJHGMPJ@Connected?5to?5?$CFs?5?$CI?$CFs?$CJ?5port?5?$CFld?5?$CI?$CD@ 004552f8     libcurl:url.obj
 0002:00001320       ??_C@_0DG@OJGGOHOC@IDN?5support?5not?5present?0?5can?8t?5p@ 00455320     libcurl:url.obj
 0002:00001358       ??_C@_0DD@CPLPHJPM@Protocol?5?$CC?$CFs?$CC?5not?5supported?5or?5d@ 00455358     libcurl:url.obj
 0002:0000138c       ??_C@_0BI@BEHOBPHB@Invalid?5zoneid?3?5?$CFs?$DL?5?$CFs?6?$AA@ 0045538c     libcurl:url.obj
 0002:000013a4       ??_C@_07NCHOALFK@?$CFs?3?1?1?$CFs?$AA@ 004553a4     libcurl:url.obj
 0002:000013ac       ??_C@_04DAMGJPCA@file?$AA@ 004553ac     libcurl:url.obj
 0002:000013b4       ??_C@_06OJJNHGNN@?$CFI64d?9?$AA@ 004553b4     libcurl:url.obj
 0002:000013bc       ??_C@_02KEGNLNML@?0?5?$AA@ 004553bc     libcurl:url.obj
 0002:000013c0       ??_C@_01NBENCBCI@?$CK?$AA@ 004553c0     libcurl:url.obj
 0002:000013c4       ??_C@_06PIGEBLLD@_proxy?$AA@ 004553c4     libcurl:url.obj
 0002:000013cc       ??_C@_0L@BKCFCEPH@http_proxy?$AA@ 004553cc     libcurl:url.obj
 0002:000013d8       ??_C@_09IFLEAELB@all_proxy?$AA@ 004553d8     libcurl:url.obj
 0002:000013e4       ??_C@_09HKPIAANK@ALL_PROXY?$AA@ 004553e4     libcurl:url.obj
 0002:000013f0       ??_C@_0CE@MLGGMLP@Uses?5proxy?5env?5variable?5?$CFs?5?$DN?$DN?5?8?$CF@ 004553f0     libcurl:url.obj
 0002:00001414       ??_C@_05BCHGOAMK@https?$AA@ 00455414     libcurl:url.obj
 0002:0000141c       ??_C@_07FDHAHIOH@socks5h?$AA@ 0045541c     libcurl:url.obj
 0002:00001424       ??_C@_06IAICDOJI@socks5?$AA@ 00455424     libcurl:url.obj
 0002:0000142c       ??_C@_07IDHAKJJJ@socks4a?$AA@ 0045542c     libcurl:url.obj
 0002:00001434       ??_C@_06JJJJAPNJ@socks4?$AA@ 00455434     libcurl:url.obj
 0002:0000143c       ??_C@_05LBOKJHLG@socks?$AA@ 0045543c     libcurl:url.obj
 0002:00001444       ??_C@_04IAFLKNP@http?$AA@  00455444     libcurl:url.obj
 0002:0000144c       ??_C@_0CC@CEKBDKLM@Unsupported?5proxy?5scheme?5for?5?8?$CFs@ 0045544c     libcurl:url.obj
 0002:00001470       ??_C@_0CB@HLNKMBJD@Unsupported?5proxy?5syntax?5in?5?8?$CFs?8@ 00455470     libcurl:url.obj
 0002:00001498       ??_C@_0EK@MGMANAOF@Unsupported?5proxy?5?8?$CFs?8?0?5libcurl?5@ 00455498     libcurl:url.obj
 0002:000014e4       ??_C@_0BA@GJPPEADO@memory?5shortage?$AA@ 004554e4     libcurl:url.obj
 0002:000014f4       ??_C@_08BOGLDIEC@no_proxy?$AA@ 004554f4     libcurl:url.obj
 0002:00001500       ??_C@_08KOHKDPPJ@NO_PROXY?$AA@ 00455500     libcurl:url.obj
 0002:0000150c       ??_C@_0DG@MFBPPKBC@Couldn?8t?5find?5host?5?$CFs?5in?5the?5?$CFs?5@ 0045550c     libcurl:url.obj
 0002:00001544       ??_C@_09BMFBKPHA@anonymous?$AA@ 00455544     libcurl:url.obj
 0002:00001550       ??_C@_0BA@LJIKBFGM@ftp?$EAexample?4com?$AA@ 00455550     libcurl:url.obj
 0002:00001560       ??_C@_03MMIJIMKH@?$CF25?$AA@ 00455560     libcurl:url.obj
 0002:00001564       ??_C@_0CN@NDBDIMOC@Please?5URL?5encode?5?$CF?$CF?5as?5?$CF?$CF25?0?5se@ 00455564     libcurl:url.obj
 0002:00001594       ??_C@_0BN@IHHAEPKG@Invalid?5IPv6?5address?5format?6?$AA@ 00455594     libcurl:url.obj
 0002:000015b4       ??_C@_0DF@IONEKJDD@No?5valid?5port?5number?5in?5connect?5@ 004555b4     libcurl:url.obj
 0002:000015ec       ??_C@_01LBDDMOBJ@?$FN?$AA@ 004555ec     libcurl:url.obj
 0002:000015f0       ??_C@_01OHGJGJJP@?$FL?$AA@ 004555f0     libcurl:url.obj
 0002:000015f4       ??_C@_06DIJPEION@?$CFs?$CFs?$CFs?$AA@ 004555f4     libcurl:url.obj
 0002:000015fc       ??_C@_0BM@PMENCPCA@Connecting?5to?5hostname?3?5?$CFs?6?$AA@ 004555fc     libcurl:url.obj
 0002:00001618       ??_C@_0BI@BICCPIEJ@Connecting?5to?5port?3?5?$CFd?6?$AA@ 00455618     libcurl:url.obj
 0002:00001630       ??_C@_0DA@NFHFFFEO@Alt?9svc?5connecting?5from?5?$FL?$CFs?$FN?$CFs?3?$CF@ 00455630     libcurl:url.obj
 0002:00001660       ??_C@_0CA@PCHAHPEF@Unix?5socket?5path?5too?5long?3?5?8?$CFs?8?$AA@ 00455660     libcurl:url.obj
 0002:00001680       ??_C@_0BL@CBGJLMGC@Could?5not?5resolve?5host?3?5?$CFs?$AA@ 00455680     libcurl:url.obj
 0002:0000169c       ??_C@_0BM@PBLGFFN@Couldn?8t?5resolve?5proxy?5?8?$CFs?8?$AA@ 0045569c     libcurl:url.obj
 0002:000016b8       ??_C@_05BFHPMDA@proxy?$AA@ 004556b8     libcurl:url.obj
 0002:000016c0       ??_C@_04OODOLJMA@host?$AA@ 004556c0     libcurl:url.obj
 0002:000016c8       ??_C@_0DB@KBMGPDLF@Re?9using?5existing?5connection?$CB?5?$CI?$CD@ 004556c8     libcurl:url.obj
 0002:000016fc       ??_C@_0CN@MPPLPHGC@No?5more?5connections?5allowed?5to?5h@ 004556fc     libcurl:url.obj
 0002:0000172c       ??_C@_0CD@DJOOMEOI@No?5connections?5available?5in?5cach@ 0045572c     libcurl:url.obj
 0002:00001750       ??_C@_0BL@LKODOMNP@No?5connections?5available?4?6?$AA@ 00455750     libcurl:url.obj
 0002:0000176c       ??_C@_0CO@KHIJKMHA@NTLM?5picked?5AND?5auth?5done?5set?0?5c@ 0045576c     libcurl:url.obj
 0002:0000179c       ??_C@_0DE@GICFFDLJ@NTLM?9proxy?5picked?5AND?5auth?5done?5@ 0045579c     libcurl:url.obj
 0002:000017d0       ??_C@_04BINJNOJD@HEAD?$AA@ 004557d0     libcurl:getinfo.obj
 0002:000017d8       ??_C@_04HCJEIHPL@POST?$AA@ 004557d8     libcurl:getinfo.obj
 0002:000017e0       ??_C@_03KBBGFLEK@PUT?$AA@  004557e0     libcurl:getinfo.obj
 0002:000017e4       ??_C@_03HAPOJHBM@GET?$AA@  004557e4     libcurl:getinfo.obj
 0002:00001800       ??_C@_04MPPNMCOK@?4?4?4?6?$AA@ 00455800     libcurl:sendf.obj
 0002:00001808       ??_C@_03KHICJKCI@?4?4?4?$AA@ 00455808     libcurl:sendf.obj
 0002:0000180c       ??_C@_0BB@JCBOFDKN@Send?5failure?3?5?$CFs?$AA@ 0045580c     libcurl:sendf.obj
 0002:00001820       ??_C@_0BB@GOGKBCCD@Recv?5failure?3?5?$CFs?$AA@ 00455820     libcurl:sendf.obj
 0002:00001834       ??_C@_0DD@KHGMOPKJ@Write?5callback?5asked?5for?5PAUSE?5w@ 00455834     libcurl:sendf.obj
 0002:00001868       ??_C@_0CG@EMCHOAAB@Failure?5writing?5output?5to?5destin@ 00455868     libcurl:sendf.obj
 0002:00001890       ??_C@_0BG@OFFCIDAN@Failed?5writing?5header?$AA@ 00455890     libcurl:sendf.obj
 0002:000018a8       ??_C@_0CF@PEMBPPBD@Failed?5to?5set?5SO_KEEPALIVE?5on?5fd@ 004558a8     libcurl:connect.obj
 0002:000018d0       ??_C@_0CP@NKGEMNPP@Failed?5to?5set?5SIO_KEEPALIVE_VALS@ 004558d0     libcurl:connect.obj
 0002:00001900       ??_C@_03FIFADKBL@if?$CB?$AA@ 00455900     libcurl:connect.obj
 0002:00001904       ??_C@_05BHBFOJOK@host?$CB?$AA@ 00455904     libcurl:connect.obj
 0002:0000190c       ??_C@_0CA@NNLJLENH@Couldn?8t?5bind?5to?5interface?5?8?$CFs?8?$AA@ 0045590c     libcurl:connect.obj
 0002:0000192c       ??_C@_0DF@GKHAKMGC@Local?5Interface?5?$CFs?5is?5ip?5?$CFs?5usin@ 0045592c     libcurl:connect.obj
 0002:00001964       ??_C@_0DA@OPBJKDFD@Name?5?8?$CFs?8?5family?5?$CFi?5resolved?5to?5@ 00455964     libcurl:connect.obj
 0002:00001994       ??_C@_0BG@CIMNBOAN@Couldn?8t?5bind?5to?5?8?$CFs?8?$AA@ 00455994     libcurl:connect.obj
 0002:000019ac       ??_C@_0CH@DDKDPEAI@getsockname?$CI?$CJ?5failed?5with?5errno?5@ 004559ac     libcurl:connect.obj
 0002:000019d4       ??_C@_0BB@PLFEKLHG@Local?5port?3?5?$CFhu?6?$AA@ 004559d4     libcurl:connect.obj
 0002:000019e8       ??_C@_0CM@IFAJKKEJ@Bind?5to?5local?5port?5?$CFhu?5failed?0?5t@ 004559e8     libcurl:connect.obj
 0002:00001a14       ??_C@_0BO@NNMFENBA@bind?5failed?5with?5errno?5?$CFd?3?5?$CFs?$AA@ 00455a14     libcurl:connect.obj
 0002:00001a34       ??_C@_0CH@IBJKPDAO@getpeername?$CI?$CJ?5failed?5with?5errno?5@ 00455a34     libcurl:connect.obj
 0002:00001a5c       ??_C@_0CL@PFOECMOH@ssrem?5inet_ntop?$CI?$CJ?5failed?5with?5er@ 00455a5c     libcurl:connect.obj
 0002:00001a88       ??_C@_0CL@FJICKPK@ssloc?5inet_ntop?$CI?$CJ?5failed?5with?5er@ 00455a88     libcurl:connect.obj
 0002:00001ab4       ??_C@_0BP@FBEALKHG@unknown?5proxytype?5option?5given?$AA@ 00455ab4     libcurl:connect.obj
 0002:00001ad4       ??_C@_0BE@GAEGKOEF@Connection?5time?9out?$AA@ 00455ad4     libcurl:connect.obj
 0002:00001ae8       ??_C@_0CG@OOKPFHPB@After?5?$CFI64dms?5connect?5time?0?5move@ 00455ae8     libcurl:connect.obj
 0002:00001b10       ??_C@_0CD@INOOPIKI@connect?5to?5?$CFs?5port?5?$CFld?5failed?3?5?$CF@ 00455b10     libcurl:connect.obj
 0002:00001b34       ??_C@_0CF@PFFPOJAN@Failed?5to?5connect?5to?5?$CFs?5port?5?$CFld@ 00455b34     libcurl:connect.obj
 0002:00001b5c       ??_C@_0BP@MAILANNH@Could?5not?5set?5TCP_NODELAY?3?5?$CFs?6?$AA@ 00455b5c     libcurl:connect.obj
 0002:00001b7c       ??_C@_0CN@NLCIOFFH@sa_addr?5inet_ntop?$CI?$CJ?5failed?5with?5@ 00455b7c     libcurl:connect.obj
 0002:00001bac       ??_C@_0BD@MPJNDNNC@?5?5Trying?5?$CFs?3?$CFd?4?4?4?6?$AA@ 00455bac     libcurl:connect.obj
 0002:00001bc0       ??_C@_0CD@EAMEJFBB@Immediate?5connect?5fail?5for?5?$CFs?3?5?$CF@ 00455bc0     libcurl:connect.obj
 0002:00001be4       ??_C@_06MHCCOJOO@Digest?$AA@ 00455be4     libcurl:http_digest.obj
 0002:00001bec       ??_C@_04EBNJJJJI@?$CF?4?$CKs?$AA@ 00455bec     libcurl:http_digest.obj
 0002:00001bf4       ??_C@_06MJEPAECD@Proxy?9?$AA@ 00455bf4     libcurl:http_digest.obj
 0002:00001bfc       ??_C@_0BN@NPMGGCBO@?$CFsAuthorization?3?5Digest?5?$CFs?$AN?6?$AA@ 00455bfc     libcurl:http_digest.obj
 0002:00001c1c       ??_C@_0N@BBCKHBCL@iphlpapi?4dll?$AA@ 00455c1c     libcurl:system_win32.obj
 0002:00001c2c       ??_C@_0P@GFPCJLDD@if_nametoindex?$AA@ 00455c2c     libcurl:system_win32.obj
 0002:00001c3c       ??_C@_08PNLNEKOB@kernel32?$AA@ 00455c3c     libcurl:system_win32.obj
 0002:00001c48       ??_C@_0P@GILJFMCJ@LoadLibraryExA?$AA@ 00455c48     libcurl:system_win32.obj
 0002:00001c58       ??_C@_02HHAEMJFE@?2?1?$AA@ 00455c58     libcurl:system_win32.obj
 0002:00001c5c       ??_C@_0BA@NMFGOKJN@AddDllDirectory?$AA@ 00455c5c     libcurl:system_win32.obj
 0002:00001c6c       ??_C@_02IACHLLMH@h1?$AA@   00455c6c     libcurl:altsvc.obj
 0002:00001c70       ??_C@_02KLAKOIAE@h2?$AA@   00455c70     libcurl:altsvc.obj
 0002:00001c74       ??_C@_02LCBBNJEF@h3?$AA@   00455c74     libcurl:altsvc.obj
 0002:00001c78       ??_C@_0CM@DAEANJFD@?$CF10s?5?$CF512s?5?$CFu?5?$CF10s?5?$CF512s?5?$CFu?5?$CC?$CF64@ 00455c78     libcurl:altsvc.obj
 0002:00001ca4       ??_C@_0DF@DAAFPCNG@?$CFs?5?$CFs?5?$CFu?5?$CFs?5?$CFs?5?$CFu?5?$CC?$CFd?$CF02d?$CF02d?5?$CF0@ 00455ca4     libcurl:altsvc.obj
 0002:00001ce0       ??_C@_0HG@JDCLPEEL@?$CD?5Your?5alt?9svc?5cache?4?5https?3?1?1cu@ 00455ce0     libcurl:altsvc.obj
 0002:00001d58       ??_C@_0CH@GNONCAKC@Excessive?5alt?9svc?5header?0?5ignori@ 00455d58     libcurl:altsvc.obj
 0002:00001d80       ??_C@_05MEHLAELG@clear?$AA@ 00455d80     libcurl:altsvc.obj
 0002:00001d88       ??_C@_0CK@IFODLHOH@Excessive?5alt?9svc?5host?5name?0?5ign@ 00455d88     libcurl:altsvc.obj
 0002:00001db4       ??_C@_0CK@IIDJBGKI@Unknown?5alt?9svc?5port?5number?0?5ign@ 00455db4     libcurl:altsvc.obj
 0002:00001de0       ??_C@_02DMFHCEHI@ma?$AA@   00455de0     libcurl:altsvc.obj
 0002:00001de4       ??_C@_07EMFBDGOD@persist?$AA@ 00455de4     libcurl:altsvc.obj
 0002:00001dec       ??_C@_0BO@EALCHFOF@Added?5alt?9svc?3?5?$CFs?3?$CFd?5over?5?$CFs?6?$AA@ 00455dec     libcurl:altsvc.obj
 0002:00001e0c       ??_C@_0CM@MLGGHAPD@Unknown?5alt?9svc?5protocol?5?$CC?$CFs?$CC?0?5s@ 00455e0c     libcurl:altsvc.obj
 0002:00001e88       ??_C@_08LBJOIDDC@identity?$AA@ 00455e88     libcurl:content_encoding.obj
 0002:00001e98       ??_C@_0EO@CHCFCBOE@Unrecognized?5content?5encoding?5ty@ 00455e98     libcurl:content_encoding.obj
 0002:00001ee8       ??_C@_07KCKHAHHI@chunked?$AA@ 00455ee8     libcurl:content_encoding.obj
 0002:00001ef0       ??_C@_03CNODDBJO@?3?$CFu?$AA@ 00455ef0     libcurl:hostip.obj
 0002:00001ef4       ??_C@_0CJ@BHEFAGPN@Hostname?5in?5DNS?5cache?5was?5stale?0@ 00455ef4     libcurl:hostip.obj
 0002:00001f20       ??_C@_0BH@EAPFBJAK@Shuffling?5?$CFi?5addresses?$AA@ 00455f20     libcurl:hostip.obj
 0002:00001f38       ??_C@_0CE@NGLGBBNH@Hostname?5?$CFs?5was?5found?5in?5DNS?5cac@ 00455f38     libcurl:hostip.obj
 0002:00001f5c       ??_C@_0M@CAIHMLOC@?$CF255?$FL?$FO?3?$FN?3?$CFd?$AA@ 00455f5c     libcurl:hostip.obj
 0002:00001f68       ??_C@_0DE@ELJFMFMM@Couldn?8t?5parse?5CURLOPT_RESOLVE?5r@ 00455f68     libcurl:hostip.obj
 0002:00001f9c       ??_C@_0CF@FMMIAGMF@Resolve?5address?5?8?$CFs?8?5found?5illeg@ 00455f9c     libcurl:hostip.obj
 0002:00001fc4       ??_C@_0CM@LICJDDJG@Couldn?8t?5parse?5CURLOPT_RESOLVE?5e@ 00455fc4     libcurl:hostip.obj
 0002:00001ff0       ??_C@_0CN@JHBOBPLC@RESOLVE?5?$CFs?3?$CFd?5is?5?9?5old?5addresses@ 00455ff0     libcurl:hostip.obj
 0002:00002020       ??_C@_0BB@KFONHPNE@?5?$CInon?9permanent?$CJ?$AA@ 00456020     libcurl:hostip.obj
 0002:00002034       ??_C@_0BP@KGHHPNAO@Added?5?$CFs?3?$CFd?3?$CFs?5to?5DNS?5cache?$CFs?6?$AA@ 00456034     libcurl:hostip.obj
 0002:00002054       ??_C@_0DF@FGOBCBFC@RESOLVE?5?$CFs?3?$CFd?5is?5wildcard?0?5enabl@ 00456054     libcurl:hostip.obj
 0002:0000208c       ??_C@_0BJ@MIAHLHBF@Could?5not?5resolve?5?$CFs?3?5?$CFs?$AA@ 0045608c     libcurl:hostip.obj
 0002:000020b8       ??_C@_04MEDPFIKH@HTTP?$AA@ 004560b8     libcurl:http.obj
 0002:000020c0       ??_C@_0CD@KELEPDPB@HTTP?13?5requested?5for?5non?9HTTPS?5U@ 004560c0     libcurl:http.obj
 0002:000020e8       _Curl_handler_http         004560e8     libcurl:http.obj
 0002:00002134       ??_C@_05CCMOGDN@?$CFs?3?$CFs?$AA@ 00456134     libcurl:http.obj
 0002:0000213c       ??_C@_0BM@NMNAGCIL@?$CFsAuthorization?3?5Basic?5?$CFs?$AN?6?$AA@ 0045613c     libcurl:http.obj
 0002:00002158       ??_C@_0BL@JHLMAFGM@Authorization?3?5Bearer?5?$CFs?$AN?6?$AA@ 00456158     libcurl:http.obj
 0002:00002174       ??_C@_0BK@HOMHMGOD@Rewind?5stream?5after?5send?6?$AA@ 00456174     libcurl:http.obj
 0002:00002190       ??_C@_0DB@DNAPMGHO@NTLM?5send?0?5close?5instead?5of?5send@ 00456190     libcurl:http.obj
 0002:000021c4       ??_C@_0BK@CMMBNKGD@Forcing?5HTTP?11?41?5for?5NTLM?$AA@ 004561c4     libcurl:http.obj
 0002:000021e0       ??_C@_0CF@BBGENOPF@The?5requested?5URL?5returned?5error@ 004561e0     libcurl:http.obj
 0002:00002208       ??_C@_09HPCLDLMD@AWS_SIGV4?$AA@ 00456208     libcurl:http.obj
 0002:00002214       ??_C@_04KGCGDDND@NTLM?$AA@ 00456214     libcurl:http.obj
 0002:0000221c       ??_C@_0BE@PPNONACO@Proxy?9authorization?$AA@ 0045621c     libcurl:http.obj
 0002:00002230       ??_C@_0O@NAFGPKMI@Authorization?$AA@ 00456230     libcurl:http.obj
 0002:00002240       ??_C@_05NIKDGMHP@Basic?$AA@ 00456240     libcurl:http.obj
 0002:00002248       ??_C@_0P@LAMGMCAB@Authorization?3?$AA@ 00456248     libcurl:http.obj
 0002:00002258       ??_C@_06NPEPPOGN@Bearer?$AA@ 00456258     libcurl:http.obj
 0002:00002260       ??_C@_05GPLPJAG@Proxy?$AA@ 00456260     libcurl:http.obj
 0002:00002268       ??_C@_06LGMEBDBC@Server?$AA@ 00456268     libcurl:http.obj
 0002:00002270       ??_C@_0CB@BNDOODNM@?$CFs?5auth?5using?5?$CFs?5with?5user?5?8?$CFs?8?6@ 00456270     libcurl:http.obj
 0002:00002294       ??_C@_0CI@DKAENECE@Authentication?5problem?4?5Ignoring@ 00456294     libcurl:http.obj
 0002:000022bc       ??_C@_0CI@DIJIGOJK@Ignoring?5duplicate?5digest?5auth?5h@ 004562bc     libcurl:http.obj
 0002:000022e4       ??_C@_04JIEPCJPP@TCP6?$AA@ 004562e4     libcurl:http.obj
 0002:000022ec       ??_C@_04KKHJELHN@TCP4?$AA@ 004562ec     libcurl:http.obj
 0002:000022f4       ??_C@_0BH@GGJGKPOP@PROXY?5?$CFs?5?$CFs?5?$CFs?5?$CFi?5?$CFi?$AN?6?$AA@ 004562f4     libcurl:http.obj
 0002:0000230c       ??_C@_0BI@KEPAADBC@Empty?5reply?5from?5server?$AA@ 0045630c     libcurl:http.obj
 0002:00002324       ??_C@_03GCKCNDHP@1?41?$AA@ 00456324     libcurl:http.obj
 0002:00002328       ??_C@_03HLLJOCDO@1?40?$AA@ 00456328     libcurl:http.obj
 0002:0000232c       ??_C@_06GHDJNLIG@Expect?$AA@ 0045632c     libcurl:http.obj
 0002:00002334       ??_C@_0N@IOPAKPOD@100?9continue?$AA@ 00456334     libcurl:http.obj
 0002:00002344       ??_C@_07CBBFMBLH@Expect?3?$AA@ 00456344     libcurl:http.obj
 0002:0000234c       ??_C@_0BH@JCEGEJFB@Expect?3?5100?9continue?$AN?6?$AA@ 0045634c     libcurl:http.obj
 0002:00002364       ??_C@_01EEMJAFIK@?6?$AA@   00456364     libcurl:http.obj
 0002:00002368       ??_C@_0DB@KNJCCOIM@Malformatted?5trailing?5header?5?$CB?5S@ 00456368     libcurl:http.obj
 0002:0000239c       ??_C@_05LJIPCHEG@Host?3?$AA@ 0045639c     libcurl:http.obj
 0002:000023a4       ??_C@_0O@PDMPCIFL@Content?9Type?3?$AA@ 004563a4     libcurl:http.obj
 0002:000023b4       ??_C@_0BA@DIGAFIOK@Content?9Length?3?$AA@ 004563b4     libcurl:http.obj
 0002:000023c4       ??_C@_0M@HJBFCNNB@Connection?3?$AA@ 004563c4     libcurl:http.obj
 0002:000023d0       ??_C@_0BD@DNFFOCFM@Transfer?9Encoding?3?$AA@ 004563d0     libcurl:http.obj
 0002:000023e4       ??_C@_07HKOKENHM@Cookie?3?$AA@ 004563e4     libcurl:http.obj
 0002:000023ec       ??_C@_04LLEBNMDN@?$CFs?$AN?6?$AA@ 004563ec     libcurl:http.obj
 0002:000023f4       ??_C@_0BC@PCIFJBEC@Invalid?5TIMEVALUE?$AA@ 004563f4     libcurl:http.obj
 0002:00002408       ??_C@_0BC@GJLFBBBL@If?9Modified?9Since?$AA@ 00456408     libcurl:http.obj
 0002:0000241c       ??_C@_0BE@DDBHAKNF@If?9Unmodified?9Since?$AA@ 0045641c     libcurl:http.obj
 0002:00002430       ??_C@_0O@FICEOEAF@Last?9Modified?$AA@ 00456430     libcurl:http.obj
 0002:00002440       ??_C@_0CJ@PBKGCGNN@?$CFs?3?5?$CFs?0?5?$CF02d?5?$CFs?5?$CF4d?5?$CF02d?3?$CF02d?3?$CF0@ 00456440     libcurl:http.obj
 0002:0000246c       ??_C@_0L@DMPACEMJ@User?9Agent?$AA@ 0045646c     libcurl:http.obj
 0002:00002478       ??_C@_04CPPPJGME@Host?$AA@ 00456478     libcurl:http.obj
 0002:00002480       ??_C@_09PEHAMPH@Host?3?$CFs?$AN?6?$AA@ 00456480     libcurl:http.obj
 0002:0000248c       ??_C@_0P@CKOLCGKA@Host?3?5?$CFs?$CFs?$CFs?$AN?6?$AA@ 0045648c     libcurl:http.obj
 0002:0000249c       ??_C@_0BC@DBODHBND@Host?3?5?$CFs?$CFs?$CFs?3?$CFd?$AN?6?$AA@ 0045649c     libcurl:http.obj
 0002:000024b0       ??_C@_03LMDBDBEG@ftp?$AA@  004564b0     libcurl:http.obj
 0002:000024b4       ??_C@_06ODENPNKJ@?$DLtype?$DN?$AA@ 004564b4     libcurl:http.obj
 0002:000024bc       ??_C@_08MMJPNGCD@?$DLtype?$DN?$CFc?$AA@ 004564bc     libcurl:http.obj
 0002:000024c8       ??_C@_03EMGHGGCK@?$DP?$CFs?$AA@ 004564c8     libcurl:http.obj
 0002:000024cc       ??_C@_0BC@ELHLFCNH@Transfer?9Encoding?$AA@ 004564cc     libcurl:http.obj
 0002:000024e0       ??_C@_0CL@OGPNFEKJ@Chunky?5upload?5is?5not?5supported?5b@ 004564e0     libcurl:http.obj
 0002:0000250c       ??_C@_0BN@HCMGFBOG@Transfer?9Encoding?3?5chunked?$AN?6?$AA@ 0045650c     libcurl:http.obj
 0002:0000252c       ??_C@_0P@HOJGPHBA@Content?9Length?$AA@ 0045652c     libcurl:http.obj
 0002:0000253c       ??_C@_0BI@LJIKFNCE@Content?9Length?3?5?$CFI64d?$AN?6?$AA@ 0045653c     libcurl:http.obj
 0002:00002554       ??_C@_0BL@KJBPLOOA@Failed?5sending?5PUT?5request?$AA@ 00456554     libcurl:http.obj
 0002:00002570       ??_C@_0BG@DPJOPI@Content?9Length?3?50?$AN?6?$AN?6?$AA@ 00456570     libcurl:http.obj
 0002:00002588       ??_C@_0BM@OJEBFGIF@Failed?5sending?5POST?5request?$AA@ 00456588     libcurl:http.obj
 0002:000025a4       ??_C@_0DC@DMFLICKC@Content?9Type?3?5application?1x?9www?9@ 004565a4     libcurl:http.obj
 0002:000025d8       ??_C@_04GMEAFLDM@?$CFx?$AN?6?$AA@ 004565d8     libcurl:http.obj
 0002:000025e0       ??_C@_05CPFNAGPN@0?$AN?6?$AN?6?$AA@ 004565e0     libcurl:http.obj
 0002:000025e8       ??_C@_0CB@KDDFLMMJ@Failed?5sending?5HTTP?5POST?5request@ 004565e8     libcurl:http.obj
 0002:0000260c       ??_C@_0BM@FKBPNPDJ@Failed?5sending?5HTTP?5request?$AA@ 0045660c     libcurl:http.obj
 0002:00002628       ??_C@_06EGBLANDJ@Cookie?$AA@ 00456628     libcurl:http.obj
 0002:00002630       ??_C@_08MMENPDPI@Cookie?3?5?$AA@ 00456630     libcurl:http.obj
 0002:0000263c       ??_C@_02LNAEAIDO@?$DL?5?$AA@ 0045663c     libcurl:http.obj
 0002:00002640       ??_C@_07CHANAGMK@?$CFs?$CFs?$DN?$CFs?$AA@ 00456640     libcurl:http.obj
 0002:00002648       ??_C@_04HDOCAJNK@?$CFs?$CFs?$AA@ 00456648     libcurl:http.obj
 0002:00002650       ??_C@_05CFMCGLCK@Range?$AA@ 00456650     libcurl:http.obj
 0002:00002658       ??_C@_0BC@MAJANMND@Range?3?5bytes?$DN?$CFs?$AN?6?$AA@ 00456658     libcurl:http.obj
 0002:0000266c       ??_C@_0O@PLGHKCFM@Content?9Range?$AA@ 0045666c     libcurl:http.obj
 0002:0000267c       ??_C@_0CF@GOIFFLMO@Content?9Range?3?5bytes?50?9?$CFI64d?1?$CFI6@ 0045667c     libcurl:http.obj
 0002:000026a4       ??_C@_0CF@JBBBEEAB@Content?9Range?3?5bytes?5?$CFs?$CFI64d?1?$CFI6@ 004566a4     libcurl:http.obj
 0002:000026cc       ??_C@_0CA@KGFKCJEO@Content?9Range?3?5bytes?5?$CFs?1?$CFI64d?$AN?6?$AA@ 004566cc     libcurl:http.obj
 0002:000026ec       ??_C@_0BG@FAJPNPNB@Could?5not?5seek?5stream?$AA@ 004566ec     libcurl:http.obj
 0002:00002704       ??_C@_0CL@LFKAINMC@Could?5only?5read?5?$CFI64d?5bytes?5from@ 00456704     libcurl:http.obj
 0002:00002730       ??_C@_0CB@BPNMMFKO@File?5already?5completely?5uploaded@ 00456730     libcurl:http.obj
 0002:00002754       ??_C@_0BM@KNDLFPLE@Ignoring?5the?5response?9body?6?$AA@ 00456754     libcurl:http.obj
 0002:00002770       ??_C@_0CK@ELFDNGAB@The?5entire?5document?5is?5already?5d@ 00456770     libcurl:http.obj
 0002:000027a0       ??_C@_0EA@PGICDNJG@HTTP?5server?5doesn?8t?5seem?5to?5supp@ 004567a0     libcurl:http.obj
 0002:000027e0       ??_C@_0BP@BDCHAEKO@Simulate?5a?5HTTP?5304?5response?$CB?6?$AA@ 004567e0     libcurl:http.obj
 0002:00002800       ??_C@_05DFPCBGAP@?$CFs?$DP?$CFs?$AA@ 00456800     libcurl:http.obj
 0002:00002808       ??_C@_07EJAMNJLN@Referer?$AA@ 00456808     libcurl:http.obj
 0002:00002810       ??_C@_0O@JOAPDPIB@Referer?3?5?$CFs?$AN?6?$AA@ 00456810     libcurl:http.obj
 0002:00002820       ??_C@_0BA@KDJCHKHJ@Accept?9Encoding?$AA@ 00456820     libcurl:http.obj
 0002:00002830       ??_C@_0BG@NKBLEFIE@Accept?9Encoding?3?5?$CFs?$AN?6?$AA@ 00456830     libcurl:http.obj
 0002:00002848       ??_C@_06MDEHPNLG@Accept?$AA@ 00456848     libcurl:http.obj
 0002:00002850       ??_C@_0O@GHCMGJMD@Accept?3?5?$CK?1?$CK?$AN?6?$AA@ 00456850     libcurl:http.obj
 0002:00002860       ??_C@_03IKGEINEE@?$CFs?5?$AA@ 00456860     libcurl:http.obj
 0002:00002864       ??_C@_08DCLKEDJA@Alt?9Used?$AA@ 00456864     libcurl:http.obj
 0002:00002870       ??_C@_0BC@NLLFJIJM@Alt?9Used?3?5?$CFs?3?$CFd?$AN?6?$AA@ 00456870     libcurl:http.obj
 0002:00002884       ??_C@_0BB@MLFPABGO@Proxy?9Connection?$AA@ 00456884     libcurl:http.obj
 0002:00002898       ??_C@_0BP@HADNPFIL@Proxy?9Connection?3?5Keep?9Alive?$AN?6?$AA@ 00456898     libcurl:http.obj
 0002:000028b8       ??_C@_0CD@NHMGHKMA@?5HTTP?1?$CFs?$AN?6?$CFs?$CFs?$CFs?$CFs?$CFs?$CFs?$CFs?$CFs?$CFs?$CFs?$CFs@ 004568b8     libcurl:http.obj
 0002:000028dc       ??_C@_0DG@MEACOPGN@upload?5completely?5sent?5off?3?5?$CFI64@ 004568dc     libcurl:http.obj
 0002:00002914       ??_C@_05FKGKDBHO@HTTP?1?$AA@ 00456914     libcurl:http.obj
 0002:0000291c       ??_C@_05GFPACIDK@RTSP?1?$AA@ 0045691c     libcurl:http.obj
 0002:00002924       ??_C@_0BL@GFBKPFMO@Maximum?5file?5size?5exceeded?$AA@ 00456924     libcurl:http.obj
 0002:00002940       ??_C@_0CB@KGLAHIH@Overflow?5Content?9Length?3?5value?$CB?6@ 00456940     libcurl:http.obj
 0002:00002964       ??_C@_0BO@DIBNEJMM@Invalid?5Content?9Length?3?5value?$AA@ 00456964     libcurl:http.obj
 0002:00002984       ??_C@_0L@FFDPOIEG@keep?9alive?$AA@ 00456984     libcurl:http.obj
 0002:00002990       ??_C@_0BC@IPGIMNCH@Proxy?9Connection?3?$AA@ 00456990     libcurl:http.obj
 0002:000029a4       ??_C@_0CO@NNECKAAI@HTTP?11?40?5proxy?5connection?5set?5to@ 004569a4     libcurl:http.obj
 0002:000029d4       ??_C@_05LBOHBHFK@close?$AA@ 004569d4     libcurl:http.obj
 0002:000029dc       ??_C@_0CG@GBJOIAPM@HTTP?11?41?5proxy?5connection?5set?5cl@ 004569dc     libcurl:http.obj
 0002:00002a04       ??_C@_0CI@DLONMNKD@HTTP?11?40?5connection?5set?5to?5keep?5@ 00456a04     libcurl:http.obj
 0002:00002a2c       ??_C@_0BC@FGDKEGD@Content?9Encoding?3?$AA@ 00456a2c     libcurl:http.obj
 0002:00002a40       ??_C@_0N@OFDPOHHB@Retry?9After?3?$AA@ 00456a40     libcurl:http.obj
 0002:00002a50       ??_C@_0P@EHIPKEAE@Content?9Range?3?$AA@ 00456a50     libcurl:http.obj
 0002:00002a60       ??_C@_0P@FFJLAOBC@Last?9Modified?3?$AA@ 00456a60     libcurl:http.obj
 0002:00002a70       ??_C@_0BC@EALNDOCH@WWW?9Authenticate?3?$AA@ 00456a70     libcurl:http.obj
 0002:00002a84       ??_C@_0BE@IHHLHIBG@Proxy?9authenticate?3?$AA@ 00456a84     libcurl:http.obj
 0002:00002a98       ??_C@_09GILIFLDG@Location?3?$AA@ 00456a98     libcurl:http.obj
 0002:00002aa4       ??_C@_08KKJBEKGK@Alt?9Svc?3?$AA@ 00456aa4     libcurl:http.obj
 0002:00002ab0       ??_C@_0CD@KMCBNFEI@HTTP?51?40?0?5assume?5close?5after?5bod@ 00456ab0     libcurl:http.obj
 0002:00002ad4       ??_C@_0CD@KCIPCEBM@Received?5HTTP?10?49?5when?5not?5allow@ 00456ad4     libcurl:http.obj
 0002:00002af8       ??_C@_0O@HIILDMIH@Received?5101?6?$AA@ 00456af8     libcurl:http.obj
 0002:00002b08       ??_C@_0DJ@MIHKJEOL@no?5chunk?0?5no?5close?0?5no?5size?4?5Ass@ 00456b08     libcurl:http.obj
 0002:00002b44       ??_C@_0DH@BADDOKJP@Connection?5closure?5while?5negotia@ 00456b44     libcurl:http.obj
 0002:00002b7c       ??_C@_0CB@CMHNBKGH@Got?5417?5while?5waiting?5for?5a?5100?6@ 00456b7c     libcurl:http.obj
 0002:00002ba0       ??_C@_0CN@PJJLOEM@HTTP?5error?5before?5end?5of?5send?0?5k@ 00456ba0     libcurl:http.obj
 0002:00002bd0       ??_C@_0CN@NJNEALCI@HTTP?5error?5before?5end?5of?5send?0?5s@ 00456bd0     libcurl:http.obj
 0002:00002c00       ??_C@_0CH@COOIMIHN@Keep?5sending?5data?5to?5get?5tossed?5@ 00456c00     libcurl:http.obj
 0002:00002c28       ??_C@_0BD@MJKOHCIC@?5HTTP?1?$CF1d?4?$CF1d?$CFc?$CF3d?$AA@ 00456c28     libcurl:http.obj
 0002:00002c3c       ??_C@_0BA@KFEEPMFA@?5HTTP?1?$CF1?$FL23?$FN?5?$CFd?$AA@ 00456c3c     libcurl:http.obj
 0002:00002c4c       ??_C@_0CN@OHBDOBD@Unsupported?5HTTP?5version?5?$CI?$CFu?4?$CFd?$CJ@ 00456c4c     libcurl:http.obj
 0002:00002c7c       ??_C@_0CC@JKBOGHFA@Lying?5server?0?5not?5serving?5HTTP?12@ 00456c7c     libcurl:http.obj
 0002:00002ca0       ??_C@_0CI@LFNOECD@Mark?5bundle?5as?5not?5supporting?5mu@ 00456ca0     libcurl:http.obj
 0002:00002cc8       ??_C@_09ENILIIEL@?5HTTP?5?$CF3d?$AA@ 00456cc8     libcurl:http.obj
 0002:00002cd4       ??_C@_0CF@HNNLNLIA@Unsupported?5HTTP?5version?5in?5resp@ 00456cd4     libcurl:http.obj
 0002:00002cfc       ??_C@_0BD@IHBBDGA@?5RTSP?1?$CF1d?4?$CF1d?$CFc?$CF3d?$AA@ 00456cfc     libcurl:http.obj
 0002:00002d10       ??_C@_02BBAHNLBA@?$CFp?$AA@ 00456d10     libcurl:socketpair.obj
 0002:00002d14       ??_C@_0DM@ENEANEJF@Moving?5trailers?5state?5machine?5fr@ 00456d14     libcurl:transfer.obj
 0002:00002d50       ??_C@_0CP@HJNKABJC@operation?5aborted?5by?5trailing?5he@ 00456d50     libcurl:transfer.obj
 0002:00002d80       ??_C@_0CC@PPBDDFKE@Successfully?5compiled?5trailers?4?$AN@ 00456d80     libcurl:transfer.obj
 0002:00002da4       ??_C@_0BO@MMBEFIGJ@operation?5aborted?5by?5callback?$AA@ 00456da4     libcurl:transfer.obj
 0002:00002dc4       ??_C@_0DC@KLEIDKKI@Read?5callback?5asked?5for?5PAUSE?5wh@ 00456dc4     libcurl:transfer.obj
 0002:00002df8       ??_C@_0CD@HAMJCOCA@read?5function?5returned?5funny?5val@ 00456df8     libcurl:transfer.obj
 0002:00002e1c       ??_C@_05DOCBBEPK@?$CFzx?$CFs?$AA@ 00456e1c     libcurl:transfer.obj
 0002:00002e24       ??_C@_0DB@OHDOBAMJ@Signaling?5end?5of?5chunked?5upload?5@ 00456e24     libcurl:transfer.obj
 0002:00002e58       ??_C@_0DI@GAABNBIG@Signaling?5end?5of?5chunked?5upload?5@ 00456e58     libcurl:transfer.obj
 0002:00002e90       ??_C@_0BN@LINFGIKF@Cannot?5rewind?5mime?1post?5data?$AA@ 00456e90     libcurl:transfer.obj
 0002:00002eb0       ??_C@_0CA@DIJIHPOF@seek?5callback?5returned?5error?5?$CFd?$AA@ 00456eb0     libcurl:transfer.obj
 0002:00002ed0       ??_C@_0CA@FAMFIPII@the?5ioctl?5callback?5returned?5?$CFd?6?$AA@ 00456ed0     libcurl:transfer.obj
 0002:00002ef0       ??_C@_0CB@KPKNOGEG@ioctl?5callback?5returned?5error?5?$CFd@ 00456ef0     libcurl:transfer.obj
 0002:00002f14       ??_C@_0CG@CHEKEDLE@necessary?5data?5rewind?5wasn?8t?5pos@ 00456f14     libcurl:transfer.obj
 0002:00002f3c       ??_C@_0CK@FAJPFEAA@The?5requested?5document?5is?5not?5ne@ 00456f3c     libcurl:transfer.obj
 0002:00002f68       ??_C@_0CK@HMOOBMAB@The?5requested?5document?5is?5not?5ol@ 00456f68     libcurl:transfer.obj
 0002:00002f94       ??_C@_0DI@LKBFDFDE@Excess?5found?3?5excess?5?$DN?5?$CFzd?5url?5?$DN@ 00456f94     libcurl:transfer.obj
 0002:00002fcc       ??_C@_0CK@CJJBEGPJ@Failed?5reading?5the?5chunked?9encod@ 00456fcc     libcurl:transfer.obj
 0002:00002ff8       ??_C@_0BH@ONNJJKOC@?$CFs?5in?5chunked?9encoding?$AA@ 00456ff8     libcurl:transfer.obj
 0002:00003010       ??_C@_0CJ@LNLGBBHG@Leftovers?5after?5chunking?3?5?$CF?5I64d@ 00457010     libcurl:transfer.obj
 0002:00003040       ??_C@_0FM@BBNOIMMG@Excess?5found?5in?5a?5read?3?5excess?5?$DN@ 00457040     libcurl:transfer.obj
 0002:0000309c       ??_C@_0DJ@GJLMKBJF@we?5are?5done?5reading?5and?5this?5is?5@ 0045709c     libcurl:transfer.obj
 0002:000030d8       ??_C@_0CA@FDBKFCML@Failed?5to?5alloc?5scratch?5buffer?$CB?$AA@ 004570d8     libcurl:transfer.obj
 0002:000030f8       ??_C@_0CF@KMDHNAMD@We?5are?5completely?5uploaded?5and?5f@ 004570f8     libcurl:transfer.obj
 0002:00003120       ??_C@_0BL@EMJDLKIE@select?1poll?5returned?5error?$AA@ 00457120     libcurl:transfer.obj
 0002:0000313c       ??_C@_0BP@GGMDICAN@Done?5waiting?5for?5100?9continue?6?$AA@ 0045713c     libcurl:transfer.obj
 0002:0000315c       ??_C@_0DD@EDBBFLBK@transfer?5closed?5with?5?$CFI64d?5bytes@ 0045715c     libcurl:transfer.obj
 0002:00003190       ??_C@_0DF@NKPPDLKD@transfer?5closed?5with?5outstanding@ 00457190     libcurl:transfer.obj
 0002:000031c8       ??_C@_0M@BHCFJOKI@No?5URL?5set?$CB?$AA@ 004571c8     libcurl:transfer.obj
 0002:000031d4       ??_C@_0BB@CAJCOHBO@User?9Agent?3?5?$CFs?$AN?6?$AA@ 004571d4     libcurl:transfer.obj
 0002:000031e8       ??_C@_0CB@MELNCDNE@Maximum?5?$CI?$CFld?$CJ?5redirects?5followed@ 004571e8     libcurl:transfer.obj
 0002:0000320c       ??_C@_0CJ@KJEMPLIM@Issue?5another?5request?5to?5this?5UR@ 0045720c     libcurl:transfer.obj
 0002:00003238       ??_C@_0BJ@HBHELCBA@Switch?5from?5POST?5to?5GET?6?$AA@ 00457238     libcurl:transfer.obj
 0002:00003254       ??_C@_0O@HGEEJMOP@Switch?5to?5?$CFs?6?$AA@ 00457254     libcurl:transfer.obj
 0002:00003264       ??_C@_0CK@CDCMFBLO@REFUSED_STREAM?0?5retrying?5a?5fresh@ 00457264     libcurl:transfer.obj
 0002:00003290       ??_C@_0DB@JBFLNIDB@Connection?5died?0?5tried?5?$CFd?5times?5@ 00457290     libcurl:transfer.obj
 0002:000032c4       ??_C@_0DM@GDKKDADD@Connection?5died?0?5retrying?5a?5fres@ 004572c4     libcurl:transfer.obj
 0002:00003300       ??_C@_08JGCGJPK@?9?9?3?9?9?3?9?9?$AA@ 00457300     libcurl:progress.obj
 0002:0000330c       ??_C@_0BH@DDKMEPEA@?$CF2I64d?3?$CF02I64d?3?$CF02I64d?$AA@ 0045730c     libcurl:progress.obj
 0002:00003324       ??_C@_0BB@HBEGKPFM@?$CF3I64dd?5?$CF02I64dh?$AA@ 00457324     libcurl:progress.obj
 0002:00003338       ??_C@_07HBLPGDFD@?$CF7I64dd?$AA@ 00457338     libcurl:progress.obj
 0002:00003340       ??_C@_06JPBNOAO@?$CF5I64d?$AA@ 00457340     libcurl:progress.obj
 0002:00003348       ??_C@_07MHMPGFAB@?$CF4I64dk?$AA@ 00457348     libcurl:progress.obj
 0002:00003350       ??_C@_0P@HINFNDLG@?$CF2I64d?4?$CF0I64dM?$AA@ 00457350     libcurl:progress.obj
 0002:00003360       ??_C@_07EBBOGCF@?$CF4I64dM?$AA@ 00457360     libcurl:progress.obj
 0002:00003368       ??_C@_0P@ICDKDLDM@?$CF2I64d?4?$CF0I64dG?$AA@ 00457368     libcurl:progress.obj
 0002:00003378       ??_C@_07POPOAOKP@?$CF4I64dG?$AA@ 00457378     libcurl:progress.obj
 0002:00003380       ??_C@_07JPBBEPDN@?$CF4I64dT?$AA@ 00457380     libcurl:progress.obj
 0002:00003388       ??_C@_07PLHNIKDJ@?$CF4I64dP?$AA@ 00457388     libcurl:progress.obj
 0002:00003390       ??_C@_0CP@JLABFKHL@?$CK?$CK?5Resuming?5transfer?5from?5byte?5p@ 00457390     libcurl:progress.obj
 0002:000033c0       ??_C@_0KC@DNGKHLLM@?5?5?$CF?$CF?5Total?5?5?5?5?$CF?$CF?5Received?5?$CF?$CF?5Xfe@ 004573c0     libcurl:progress.obj
 0002:00003464       ??_C@_0DF@JLDNJIPD@?$AN?$CF3I64d?5?$CFs?5?5?$CF3I64d?5?$CFs?5?5?$CF3I64d?5?$CFs@ 00457464     libcurl:progress.obj
 0002:0000349c       ??_C@_0BB@GAJGHPCC@Callback?5aborted?$AA@ 0045749c     libcurl:progress.obj
 0002:000034b0       __real@408f400000000000    004574b0     libcurl:progress.obj
 0002:000034b8       ??_C@_0EN@COANIBDN@Operation?5too?5slow?4?5Less?5than?5?$CFl@ 004574b8     libcurl:speedcheck.obj
 0002:00003508       ??_C@_0BK@PNKMNPKO@allocate?5connect?5buffer?$CB?6?$AA@ 00457508     libcurl:http_proxy.obj
 0002:00003524       ??_C@_0BK@OHJCNBEA@CONNECT?5phase?5completed?$CB?6?$AA@ 00457524     libcurl:http_proxy.obj
 0002:00003540       ??_C@_09FJKLDKHO@?$CFs?$CFs?$CFs?3?$CFd?$AA@ 00457540     libcurl:http_proxy.obj
 0002:0000354c       ??_C@_0L@LAAIKCML@Host?3?5?$CFs?$AN?6?$AA@ 0045754c     libcurl:http_proxy.obj
 0002:00003558       ??_C@_0CG@JIEEDFAF@Establish?5HTTP?5proxy?5tunnel?5to?5?$CF@ 00457558     libcurl:http_proxy.obj
 0002:00003580       ??_C@_07FNNMGOPK@CONNECT?$AA@ 00457580     libcurl:http_proxy.obj
 0002:00003588       ??_C@_0BN@HGHMBOED@CONNECT?5?$CFs?5HTTP?1?$CFs?$AN?6?$CFs?$CFs?$CFs?$CFs?$AA@ 00457588     libcurl:http_proxy.obj
 0002:000035a8       ??_C@_0CA@KCBNIFEI@Failed?5sending?5CONNECT?5to?5proxy?$AA@ 004575a8     libcurl:http_proxy.obj
 0002:000035c8       ??_C@_0CF@KOLJOBP@Proxy?5CONNECT?5aborted?5due?5to?5tim@ 004575c8     libcurl:http_proxy.obj
 0002:000035f0       ??_C@_0CB@DICNFOOE@Proxy?5CONNECT?5connection?5closed?6@ 004575f0     libcurl:http_proxy.obj
 0002:00003614       ??_C@_0BG@JFLKGDIG@Proxy?5CONNECT?5aborted?$AA@ 00457614     libcurl:http_proxy.obj
 0002:0000362c       ??_C@_0BE@LIFOKNAI@chunk?5reading?5DONE?6?$AA@ 0045762c     libcurl:http_proxy.obj
 0002:00003640       ??_C@_0BM@LDKBIKH@CONNECT?5response?5too?5large?$CB?$AA@ 00457640     libcurl:http_proxy.obj
 0002:0000365c       ??_C@_0CF@EGEEKEED@Ignore?5?$CFI64d?5bytes?5of?5response?9b@ 0045765c     libcurl:http_proxy.obj
 0002:00003684       ??_C@_0BO@ECLLDHEE@Ignore?5chunked?5response?9body?6?$AA@ 00457684     libcurl:http_proxy.obj
 0002:000036a4       ??_C@_0DC@KNKBLKEG@Ignoring?5Content?9Length?5in?5CONNE@ 004576a4     libcurl:http_proxy.obj
 0002:000036d8       ??_C@_0DF@HKNKCFIL@Ignoring?5Transfer?9Encoding?5in?5CO@ 004576d8     libcurl:http_proxy.obj
 0002:00003710       ??_C@_0BL@FDNFJOM@CONNECT?5responded?5chunked?6?$AA@ 00457710     libcurl:http_proxy.obj
 0002:0000372c       ??_C@_0N@HGFACOOI@HTTP?11?4?$CFd?5?$CFd?$AA@ 0045772c     libcurl:http_proxy.obj
 0002:0000373c       ??_C@_0BJ@KOKGPDEF@Connect?5me?5again?5please?6?$AA@ 0045773c     libcurl:http_proxy.obj
 0002:00003758       ??_C@_0CP@GIFMMFLA@Received?5HTTP?5code?5?$CFd?5from?5proxy@ 00457758     libcurl:http_proxy.obj
 0002:00003788       ??_C@_0CF@LHCLBLEC@Proxy?5replied?5?$CFd?5to?5CONNECT?5requ@ 00457788     libcurl:http_proxy.obj
 0002:000037b0       ??_C@_01MCMALHOG@a?$AA@    004577b0     libcurl:socks.obj
 0002:000037b4       ??_C@_0CP@GODCGMBP@SOCKS4?$CFs?3?5connecting?5to?5HTTP?5pro@ 004577b4     libcurl:socks.obj
 0002:000037e4       ??_C@_0BP@BFLNLLPD@SOCKS4?5communication?5to?5?$CFs?3?$CFd?6?$AA@ 004577e4     libcurl:socks.obj
 0002:00003804       ??_C@_0CD@BBPIICAB@SOCKS4?5non?9blocking?5resolve?5of?5?$CF@ 00457804     libcurl:socks.obj
 0002:00003828       ??_C@_0BJ@HAGKBMCP@Hostname?5?8?$CFs?8?5was?5found?6?$AA@ 00457828     libcurl:socks.obj
 0002:00003844       ??_C@_0CO@JJCMGPBJ@SOCKS4?5connect?5to?5IPv4?5?$CFs?5?$CIlocal@ 00457844     libcurl:socks.obj
 0002:00003874       ??_C@_0CG@NKAIHKN@SOCKS4?5connection?5to?5?$CFs?5not?5supp@ 00457874     libcurl:socks.obj
 0002:0000389c       ??_C@_0CL@BDNFEDCD@Failed?5to?5resolve?5?$CC?$CFs?$CC?5for?5SOCKS@ 0045789c     libcurl:socks.obj
 0002:000038c8       ??_C@_0CL@MCOGLIGC@Too?5long?5SOCKS?5proxy?5user?5name?0?5@ 004578c8     libcurl:socks.obj
 0002:000038f4       ??_C@_0BL@JJKDFGHD@SOCKS4?3?5too?5long?5host?5name?$AA@ 004578f4     libcurl:socks.obj
 0002:00003910       ??_C@_0CH@MHLMDCGL@Failed?5to?5send?5SOCKS4?5connect?5re@ 00457910     libcurl:socks.obj
 0002:00003938       ??_C@_0DB@OIJFDGGK@SOCKS4?3?5Failed?5receiving?5connect@ 00457938     libcurl:socks.obj
 0002:0000396c       ??_C@_0BL@EDONHKIC@connection?5to?5proxy?5closed?$AA@ 0045796c     libcurl:socks.obj
 0002:00003988       ??_C@_0DF@PDFOFKGI@SOCKS4?5reply?5has?5wrong?5version?0?5@ 00457988     libcurl:socks.obj
 0002:000039c0       ??_C@_0BL@KEGECNIK@SOCKS4?$CFs?5request?5granted?4?6?$AA@ 004579c0     libcurl:socks.obj
 0002:000039e0       ??_C@_0FG@CLNHBPIC@Can?8t?5complete?5SOCKS4?5connection@ 004579e0     libcurl:socks.obj
 0002:00003a38       ??_C@_0II@IBODGEP@Can?8t?5complete?5SOCKS4?5connection@ 00457a38     libcurl:socks.obj
 0002:00003ac0       ??_C@_0IM@JGJMKCMN@Can?8t?5complete?5SOCKS4?5connection@ 00457ac0     libcurl:socks.obj
 0002:00003b50       ??_C@_0ED@LEIEKNLE@Can?8t?5complete?5SOCKS4?5connection@ 00457b50     libcurl:socks.obj
 0002:00003bb8       ??_C@_0CN@HPHFPLLC@SOCKS5?3?5connecting?5to?5HTTP?5proxy@ 00457bb8     libcurl:socks.obj
 0002:00003be8       ??_C@_0FC@NMNHLDOO@SOCKS5?3?5server?5resolving?5disable@ 00457be8     libcurl:socks.obj
 0002:00003c3c       ??_C@_0DP@BIGHPBCP@warning?3?5unsupported?5value?5passe@ 00457c3c     libcurl:socks.obj
 0002:00003c7c       ??_C@_0CH@GMDFCCKK@Unable?5to?5send?5initial?5SOCKS5?5re@ 00457c7c     libcurl:socks.obj
 0002:00003ca4       ??_C@_0CL@JAKJLHBC@Unable?5to?5receive?5initial?5SOCKS5@ 00457ca4     libcurl:socks.obj
 0002:00003cd0       ??_C@_0BL@PPAECMCI@Connection?5to?5proxy?5closed?$AA@ 00457cd0     libcurl:socks.obj
 0002:00003cec       ??_C@_0DF@KPPCOMKD@Received?5invalid?5version?5in?5init@ 00457cec     libcurl:socks.obj
 0002:00003d24       ??_C@_0DL@FCEPENBN@SOCKS5?5GSSAPI?5per?9message?5authen@ 00457d24     libcurl:socks.obj
 0002:00003d60       ??_C@_0CJ@CHHGJDNO@No?5authentication?5method?5was?5acc@ 00457d60     libcurl:socks.obj
 0002:00003d8c       ??_C@_0DJ@GEDKBFPH@Undocumented?5SOCKS5?5mode?5attempt@ 00457d8c     libcurl:socks.obj
 0002:00003dc8       ??_C@_0CK@NCDGADEO@Excessive?5user?5name?5length?5for?5p@ 00457dc8     libcurl:socks.obj
 0002:00003df4       ??_C@_0CJ@LKBHCEIE@Excessive?5password?5length?5for?5pr@ 00457df4     libcurl:socks.obj
 0002:00003e20       ??_C@_0CP@CMDGNMCE@Failed?5to?5send?5SOCKS5?5sub?9negoti@ 00457e20     libcurl:socks.obj
 0002:00003e50       ??_C@_0DD@BOLKPAMM@Unable?5to?5receive?5SOCKS5?5sub?9neg@ 00457e50     libcurl:socks.obj
 0002:00003e84       ??_C@_0DA@CLHHICIG@User?5was?5rejected?5by?5the?5SOCKS5?5@ 00457e84     libcurl:socks.obj
 0002:00003eb4       ??_C@_0BN@BFPKMOIA@SOCKS5?3?5hostname?5?8?$CFs?8?5found?6?$AA@ 00457eb4     libcurl:socks.obj
 0002:00003ed4       ??_C@_0CL@NCFLJMOD@Failed?5to?5resolve?5?$CC?$CFs?$CC?5for?5SOCKS@ 00457ed4     libcurl:socks.obj
 0002:00003f00       ??_C@_03HODKBCIO@?3?$CFd?$AA@ 00457f00     libcurl:socks.obj
 0002:00003f04       ??_C@_0CO@HBDLPPLI@SOCKS5?5connect?5to?5IPv4?5?$CFs?5?$CIlocal@ 00457f04     libcurl:socks.obj
 0002:00003f34       ??_C@_0CO@OBFNNJOF@SOCKS5?5connect?5to?5IPv6?5?$CFs?5?$CIlocal@ 00457f34     libcurl:socks.obj
 0002:00003f64       ??_C@_0CG@DLFCBHFO@SOCKS5?5connection?5to?5?$CFs?5not?5supp@ 00457f64     libcurl:socks.obj
 0002:00003f8c       ??_C@_0CN@FPICFOPM@SOCKS5?5connect?5to?5?$CFs?3?$CFd?5?$CIremotel@ 00457f8c     libcurl:socks.obj
 0002:00003fbc       ??_C@_0CH@BAFOLCDD@Failed?5to?5send?5SOCKS5?5connect?5re@ 00457fbc     libcurl:socks.obj
 0002:00003fe4       ??_C@_0CO@HHLOPEDO@Failed?5to?5receive?5SOCKS5?5connect@ 00457fe4     libcurl:socks.obj
 0002:00004014       ??_C@_0DF@MICEHEFP@SOCKS5?5reply?5has?5wrong?5version?0?5@ 00458014     libcurl:socks.obj
 0002:0000404c       ??_C@_0CN@LLAFNAAA@Can?8t?5complete?5SOCKS5?5connection@ 0045804c     libcurl:socks.obj
 0002:0000407c       ??_C@_0CF@NJGGJEDC@SOCKS5?5reply?5has?5wrong?5address?5t@ 0045807c     libcurl:socks.obj
 0002:000040a4       ??_C@_0BJ@DJFGPDDE@SOCKS5?5request?5granted?4?6?$AA@ 004580a4     libcurl:socks.obj
 0002:00004120       ??_C@_03PDPKDIOM@I32?$AA@  00458120     libcurl:mprintf.obj
 0002:00004124       ??_C@_03KDGLFNIB@I64?$AA@  00458124     libcurl:mprintf.obj
 0002:00004128       ??_C@_03JALODAI@?$CFld?$AA@ 00458128     libcurl:mprintf.obj
 0002:0000412c       ??_C@_04JAJMFKGM@?4?$CFld?$AA@ 0045812c     libcurl:mprintf.obj
 0002:00004138       __real@4024000000000000    00458138     libcurl:mprintf.obj
 0002:00004178       _Curl_wkday                00458178     libcurl:parsedate.obj
 0002:00004194       _Curl_month                00458194     libcurl:parsedate.obj
 0002:0000454c       ??_C@_03PDAGKDH@Mon?$AA@   0045854c     libcurl:parsedate.obj
 0002:00004550       ??_C@_03NAGEINEP@Tue?$AA@  00458550     libcurl:parsedate.obj
 0002:00004554       ??_C@_03MHOMLAJA@Wed?$AA@  00458554     libcurl:parsedate.obj
 0002:00004558       ??_C@_03IOFIKPDN@Thu?$AA@  00458558     libcurl:parsedate.obj
 0002:0000455c       ??_C@_03IDIOELNC@Fri?$AA@  0045855c     libcurl:parsedate.obj
 0002:00004560       ??_C@_03FEFJNEK@Sat?$AA@   00458560     libcurl:parsedate.obj
 0002:00004564       ??_C@_03KOEHGMDN@Sun?$AA@  00458564     libcurl:parsedate.obj
 0002:00004568       ??_C@_03JIHJHPIE@Jan?$AA@  00458568     libcurl:parsedate.obj
 0002:0000456c       ??_C@_03HJBDCHOM@Feb?$AA@  0045856c     libcurl:parsedate.obj
 0002:00004570       ??_C@_03ODNJBKGA@Mar?$AA@  00458570     libcurl:parsedate.obj
 0002:00004574       ??_C@_03LEOLGMJP@Apr?$AA@  00458574     libcurl:parsedate.obj
 0002:00004578       ??_C@_03CNMDKL@May?$AA@    00458578     libcurl:parsedate.obj
 0002:0000457c       ??_C@_03IDFGHECI@Jun?$AA@  0045857c     libcurl:parsedate.obj
 0002:00004580       ??_C@_03LBGABGKK@Jul?$AA@  00458580     libcurl:parsedate.obj
 0002:00004584       ??_C@_03IFJFEIGA@Aug?$AA@  00458584     libcurl:parsedate.obj
 0002:00004588       ??_C@_03GGCAPAJC@Sep?$AA@  00458588     libcurl:parsedate.obj
 0002:0000458c       ??_C@_03BMAOKBAD@Oct?$AA@  0045858c     libcurl:parsedate.obj
 0002:00004590       ??_C@_03JPJOFNIA@Nov?$AA@  00458590     libcurl:parsedate.obj
 0002:00004594       ??_C@_03MKABNOCG@Dec?$AA@  00458594     libcurl:parsedate.obj
 0002:00004598       ??_C@_06JLEDEDGH@Monday?$AA@ 00458598     libcurl:parsedate.obj
 0002:000045a0       ??_C@_07BAAGCFCM@Tuesday?$AA@ 004585a0     libcurl:parsedate.obj
 0002:000045a8       ??_C@_09DLIGFAKA@Wednesday?$AA@ 004585a8     libcurl:parsedate.obj
 0002:000045b4       ??_C@_08HACCIKIA@Thursday?$AA@ 004585b4     libcurl:parsedate.obj
 0002:000045c0       ??_C@_06JECMNKMI@Friday?$AA@ 004585c0     libcurl:parsedate.obj
 0002:000045c8       ??_C@_08INBOOONO@Saturday?$AA@ 004585c8     libcurl:parsedate.obj
 0002:000045d4       ??_C@_06OOPIFAJ@Sunday?$AA@ 004585d4     libcurl:parsedate.obj
 0002:000045dc       ??_C@_0DK@DJOHIPMC@?$CF31?$FLABCDEFGHIJKLMNOPQRSTUVWXYZab@ 004585dc     libcurl:parsedate.obj
 0002:00004618       ??_C@_0BB@DDKNHMEG@?$CF02d?3?$CF02d?3?$CF02d?$CFn?$AA@ 00458618     libcurl:parsedate.obj
 0002:0000462c       ??_C@_0M@GGPEELHK@?$CF02d?3?$CF02d?$CFn?$AA@ 0045862c     libcurl:parsedate.obj
 0002:00004638       ??_C@_0CB@GKOJBLCO@WARNING?3?5Using?5weak?5random?5seed?6@ 00458638     libcurl:rand.obj
 0002:0000465c       ??_C@_0BB@JCEFLFJE@0123456789abcdef?$AA@ 0045865c     libcurl:rand.obj
 0002:00004670       _Curl_handler_gopher       00458670     libcurl:gopher.obj
 0002:000046bc       ??_C@_06IFFOBMCL@GOPHER?$AA@ 004586bc     libcurl:gopher.obj
 0002:000046c4       ??_C@_0BO@PBGBECFJ@Failed?5sending?5Gopher?5request?$AA@ 004586c4     libcurl:gopher.obj
 0002:000046e4       ??_C@_04MOKDAIJJ@IMAP?$AA@ 004586e4     libcurl:imap.obj
 0002:00004710       _Curl_handler_imap         00458710     libcurl:imap.obj
 0002:0000475c       ??_C@_04CJJOKOB@imap?$AA@  0045875c     libcurl:imap.obj
 0002:00004764       ??_C@_02GIPFHKNO@OK?$AA@   00458764     libcurl:imap.obj
 0002:00004768       ??_C@_0L@LNNPCDBM@CAPABILITY?$AA@ 00458768     libcurl:imap.obj
 0002:00004774       ??_C@_04PCOPKCKE@LIST?$AA@ 00458774     libcurl:imap.obj
 0002:0000477c       ??_C@_05CIPFEEPL@STORE?$AA@ 0045877c     libcurl:imap.obj
 0002:00004784       ??_C@_05JDMAOHF@FETCH?$AA@ 00458784     libcurl:imap.obj
 0002:0000478c       ??_C@_06LCPJPOPK@SELECT?$AA@ 0045878c     libcurl:imap.obj
 0002:00004794       ??_C@_07JOOLACMD@EXAMINE?$AA@ 00458794     libcurl:imap.obj
 0002:0000479c       ??_C@_06GBNAAIDA@SEARCH?$AA@ 0045879c     libcurl:imap.obj
 0002:000047a4       ??_C@_07JEPHAMII@EXPUNGE?$AA@ 004587a4     libcurl:imap.obj
 0002:000047ac       ??_C@_04NFFONMDK@LSUB?$AA@ 004587ac     libcurl:imap.obj
 0002:000047b4       ??_C@_03MJDGODDN@UID?$AA@  004587b4     libcurl:imap.obj
 0002:000047b8       ??_C@_04NMBEDBAI@NOOP?$AA@ 004587b8     libcurl:imap.obj
 0002:000047c0       ??_C@_0CB@FHOJFP@Unexpected?5continuation?5response@ 004587c0     libcurl:imap.obj
 0002:000047e4       ??_C@_08EBJFDHCC@STARTTLS?$AA@ 004587e4     libcurl:imap.obj
 0002:000047f0       ??_C@_0M@HKLLGBJE@LOGIN?5?$CFs?5?$CFs?$AA@ 004587f0     libcurl:imap.obj
 0002:000047fc       ??_C@_0BD@HAAFOLAI@AUTHENTICATE?5?$CFs?5?$CFs?$AA@ 004587fc     libcurl:imap.obj
 0002:00004810       ??_C@_0BA@MBJBMJEE@AUTHENTICATE?5?$CFs?$AA@ 00458810     libcurl:imap.obj
 0002:00004820       ??_C@_02DKCKIIND@?$CFs?$AA@ 00458820     libcurl:imap.obj
 0002:00004824       ??_C@_0CP@IMHCGJPM@No?5known?5authentication?5mechanis@ 00458824     libcurl:imap.obj
 0002:00004854       ??_C@_0M@HEIBGALO@LIST?5?$CC?$CFs?$CC?5?$CK?$AA@ 00458854     libcurl:imap.obj
 0002:00004860       ??_C@_0CB@CNPLJHNG@Cannot?5SELECT?5without?5a?5mailbox?4@ 00458860     libcurl:imap.obj
 0002:00004884       ??_C@_09GMKLHBDP@SELECT?5?$CFs?$AA@ 00458884     libcurl:imap.obj
 0002:00004890       ??_C@_0BK@HINEGIBC@UID?5FETCH?5?$CFs?5BODY?$FL?$CFs?$FN?$DM?$CFs?$DO?$AA@ 00458890     libcurl:imap.obj
 0002:000048ac       ??_C@_0BG@MFEJGEMK@UID?5FETCH?5?$CFs?5BODY?$FL?$CFs?$FN?$AA@ 004588ac     libcurl:imap.obj
 0002:000048c4       ??_C@_0BG@KDICJLOA@FETCH?5?$CFs?5BODY?$FL?$CFs?$FN?$DM?$CFs?$DO?$AA@ 004588c4     libcurl:imap.obj
 0002:000048dc       ??_C@_0BC@DBBDHOGD@FETCH?5?$CFs?5BODY?$FL?$CFs?$FN?$AA@ 004588dc     libcurl:imap.obj
 0002:000048f0       ??_C@_0BM@MDAKNOLA@Cannot?5FETCH?5without?5a?5UID?4?$AA@ 004588f0     libcurl:imap.obj
 0002:0000490c       ??_C@_0CB@OJIMGEKK@Cannot?5APPEND?5without?5a?5mailbox?4@ 0045890c     libcurl:imap.obj
 0002:00004930       ??_C@_0N@CMGFLCKF@Mime?9Version?$AA@ 00458930     libcurl:imap.obj
 0002:00004940       ??_C@_0BC@LJLDDNIA@Mime?9Version?3?51?40?$AA@ 00458940     libcurl:imap.obj
 0002:00004954       ??_C@_0CL@KHDECIDD@Cannot?5APPEND?5with?5unknown?5input@ 00458954     libcurl:imap.obj
 0002:00004980       ??_C@_0BK@BLHEIJNH@APPEND?5?$CFs?5?$CI?2Seen?$CJ?5?$HL?$CFI64d?$HN?$AA@ 00458980     libcurl:imap.obj
 0002:0000499c       ??_C@_0CG@GFOCBLJM@Cannot?5SEARCH?5without?5a?5query?5st@ 0045899c     libcurl:imap.obj
 0002:000049c4       ??_C@_09PAMHLMCN@SEARCH?5?$CFs?$AA@ 004589c4     libcurl:imap.obj
 0002:000049d0       ??_C@_06ICDCDPAM@LOGOUT?$AA@ 004589d0     libcurl:imap.obj
 0002:000049d8       ??_C@_0CM@LEKNMHGJ@PREAUTH?5connection?0?5already?5auth@ 004589d8     libcurl:imap.obj
 0002:00004a04       ??_C@_0CE@FKNEKFDD@Got?5unexpected?5imap?9server?5respo@ 00458a04     libcurl:imap.obj
 0002:00004a28       ??_C@_0O@MEFIGCNE@LOGINDISABLED?$AA@ 00458a28     libcurl:imap.obj
 0002:00004a38       ??_C@_05CKMEMLBN@AUTH?$DN?$AA@ 00458a38     libcurl:imap.obj
 0002:00004a40       ??_C@_0BI@BIKPOJKH@STARTTLS?5not?5supported?4?$AA@ 00458a40     libcurl:imap.obj
 0002:00004a58       ??_C@_0BA@IKAEMKBM@STARTTLS?5denied?$AA@ 00458a58     libcurl:imap.obj
 0002:00004a68       ??_C@_0BJ@KPCPDCOC@Authentication?5cancelled?$AA@ 00458a68     libcurl:imap.obj
 0002:00004a84       ??_C@_0BC@GNMNACJK@Access?5denied?4?5?$CFc?$AA@ 00458a84     libcurl:imap.obj
 0002:00004a98       ??_C@_0CB@HHPEICDC@OK?5?$FLUIDVALIDITY?5?$CF19?$FL0123456789?$FN?$FN@ 00458a98     libcurl:imap.obj
 0002:00004abc       ??_C@_0CA@GGNJMECP@Mailbox?5UIDVALIDITY?5has?5changed?$AA@ 00458abc     libcurl:imap.obj
 0002:00004adc       ??_C@_0O@IFFBAKPD@Select?5failed?$AA@ 00458adc     libcurl:imap.obj
 0002:00004aec       ??_C@_0BP@GLMKNCNJ@Found?5?$CFI64d?5bytes?5to?5download?6?$AA@ 00458aec     libcurl:imap.obj
 0002:00004b0c       ??_C@_0DG@HDINJNJA@Written?5?$CFzu?5bytes?0?5?$CFI64u?5bytes?5a@ 00458b0c     libcurl:imap.obj
 0002:00004b44       ??_C@_0CA@GCPCMMJK@Failed?5to?5parse?5FETCH?5response?4?$AA@ 00458b44     libcurl:imap.obj
 0002:00004b64       ??_C@_06KPMAOGPB@?$CFc?$CF03d?$AA@ 00458b64     libcurl:imap.obj
 0002:00004b6c       ??_C@_05DNIIFBMG@?$CFs?5?$CFs?$AA@ 00458b6c     libcurl:imap.obj
 0002:00004b74       ??_C@_07OHGMEIBP@?$CI?$CJ?$HL?5?$CF?$CK?$FN?$AA@ 00458b74     libcurl:imap.obj
 0002:00004b7c       ??_C@_0M@BOIGKDFF@UIDVALIDITY?$AA@ 00458b7c     libcurl:imap.obj
 0002:00004b88       ??_C@_09NEHACAIH@MAILINDEX?$AA@ 00458b88     libcurl:imap.obj
 0002:00004b94       ??_C@_07OADICAGF@SECTION?$AA@ 00458b94     libcurl:imap.obj
 0002:00004b9c       ??_C@_07GKNKJNCD@PARTIAL?$AA@ 00458b9c     libcurl:imap.obj
 0002:00004ba4       ??_C@_04FKGOMEMC@POP3?$AA@ 00458ba4     libcurl:pop3.obj
 0002:00004bd0       _Curl_handler_pop3         00458bd0     libcurl:pop3.obj
 0002:00004c1c       ??_C@_03NJDAHFJE@pop?$AA@  00458c1c     libcurl:pop3.obj
 0002:00004c20       ??_C@_04IAPIEFNH@CAPA?$AA@ 00458c20     libcurl:pop3.obj
 0002:00004c28       ??_C@_04OKBHFPDP@STLS?$AA@ 00458c28     libcurl:pop3.obj
 0002:00004c30       ??_C@_07BCMGCIGK@USER?5?$CFs?$AA@ 00458c30     libcurl:pop3.obj
 0002:00004c38       ??_C@_04NOJCDH@?$CF02x?$AA@ 00458c38     libcurl:pop3.obj
 0002:00004c40       ??_C@_0L@NCKPAHGC@APOP?5?$CFs?5?$CFs?$AA@ 00458c40     libcurl:pop3.obj
 0002:00004c4c       ??_C@_0L@LFENDKBE@AUTH?5?$CFs?5?$CFs?$AA@ 00458c4c     libcurl:pop3.obj
 0002:00004c58       ??_C@_07GLDNHMJM@AUTH?5?$CFs?$AA@ 00458c58     libcurl:pop3.obj
 0002:00004c60       ??_C@_04DEPMIFPM@RETR?$AA@ 00458c60     libcurl:pop3.obj
 0002:00004c68       ??_C@_04GBOBDPBG@QUIT?$AA@ 00458c68     libcurl:pop3.obj
 0002:00004c70       ??_C@_0CE@PFHNFNOL@Got?5unexpected?5pop3?9server?5respo@ 00458c70     libcurl:pop3.obj
 0002:00004c94       ??_C@_0BE@NGBFBFLB@STLS?5not?5supported?4?$AA@ 00458c94     libcurl:pop3.obj
 0002:00004ca8       ??_C@_0BK@FLOCGBM@Authentication?5failed?3?5?$CFd?$AA@ 00458ca8     libcurl:pop3.obj
 0002:00004cc4       ??_C@_07ECIIGDNP@PASS?5?$CFs?$AA@ 00458cc4     libcurl:pop3.obj
 0002:00004ccc       ??_C@_05EMLFECFL@?$CLAPOP?$AA@ 00458ccc     libcurl:pop3.obj
 0002:00004cd4       ??_C@_05KMJPGPH@?$AN?6?4?$AN?6?$AA@ 00458cd4     libcurl:pop3.obj
 0002:00004cdc       ??_C@_04POBOOGCB@SMTP?$AA@ 00458cdc     libcurl:smtp.obj
 0002:00004d08       _Curl_handler_smtp         00458d08     libcurl:smtp.obj
 0002:00004d54       ??_C@_04DCCEAEFJ@smtp?$AA@ 00458d54     libcurl:smtp.obj
 0002:00004d5c       ??_C@_07LENLNDIO@EHLO?5?$CFs?$AA@ 00458d5c     libcurl:smtp.obj
 0002:00004d64       ??_C@_07EOAJKHJP@HELO?5?$CFs?$AA@ 00458d64     libcurl:smtp.obj
 0002:00004d6c       ??_C@_09KGGPGOEC@?5SMTPUTF8?$AA@ 00458d6c     libcurl:smtp.obj
 0002:00004d78       ??_C@_01EOFPKCAF@?$EA?$AA@ 00458d78     libcurl:smtp.obj
 0002:00004d7c       ??_C@_0O@LLBOEPLL@VRFY?5?$CFs?$CFs?$CFs?$CFs?$AA@ 00458d7c     libcurl:smtp.obj
 0002:00004d8c       ??_C@_04KFDBLEKN@EXPN?$AA@ 00458d8c     libcurl:smtp.obj
 0002:00004d94       ??_C@_07LLFIICBM@?$CFs?5?$CFs?$CFs?$AA@ 00458d94     libcurl:smtp.obj
 0002:00004d9c       ??_C@_04DOKPJKJF@HELP?$AA@ 00458d9c     libcurl:smtp.obj
 0002:00004da4       ??_C@_07IAOBMFMB@?$DM?$CFs?$EA?$CFs?$DO?$AA@ 00458da4     libcurl:smtp.obj
 0002:00004dac       ??_C@_04NNJCMPBN@?$DM?$CFs?$DO?$AA@ 00458dac     libcurl:smtp.obj
 0002:00004db4       ??_C@_02GMAKCBGE@?$DM?$DO?$AA@ 00458db4     libcurl:smtp.obj
 0002:00004db8       ??_C@_05LLAMLEHD@?$CFI64d?$AA@ 00458db8     libcurl:smtp.obj
 0002:00004dc0       ??_C@_06MKNOLBCP@?5SIZE?$DN?$AA@ 00458dc0     libcurl:smtp.obj
 0002:00004dc8       ??_C@_06MJNHIMFM@?5AUTH?$DN?$AA@ 00458dc8     libcurl:smtp.obj
 0002:00004dd0       ??_C@_0BH@CCDJIIDH@MAIL?5FROM?3?$CFs?$CFs?$CFs?$CFs?$CFs?$CFs?$AA@ 00458dd0     libcurl:smtp.obj
 0002:00004de8       ??_C@_0BA@HHMHFILL@RCPT?5TO?3?$DM?$CFs?$EA?$CFs?$DO?$AA@ 00458de8     libcurl:smtp.obj
 0002:00004df8       ??_C@_0N@LGJBDMGK@RCPT?5TO?3?$DM?$CFs?$DO?$AA@ 00458df8     libcurl:smtp.obj
 0002:00004e08       ??_C@_0CI@FJFEAKAL@Got?5unexpected?5smtp?9server?5respo@ 00458e08     libcurl:smtp.obj
 0002:00004e30       ??_C@_0BJ@EDGODDHJ@STARTTLS?5denied?0?5code?5?$CFd?$AA@ 00458e30     libcurl:smtp.obj
 0002:00004e4c       ??_C@_0BJ@DNMHCFHF@Remote?5access?5denied?3?5?$CFd?$AA@ 00458e4c     libcurl:smtp.obj
 0002:00004e68       ??_C@_0CB@HKFOBCB@Unexpectedly?5short?5EHLO?5response@ 00458e68     libcurl:smtp.obj
 0002:00004e8c       ??_C@_0BD@COCKJOPI@Command?5failed?3?5?$CFd?$AA@ 00458e8c     libcurl:smtp.obj
 0002:00004ea0       ??_C@_0BA@FIAGOBAE@MAIL?5failed?3?5?$CFd?$AA@ 00458ea0     libcurl:smtp.obj
 0002:00004eb0       ??_C@_0BA@LOKNLPKK@RCPT?5failed?3?5?$CFd?$AA@ 00458eb0     libcurl:smtp.obj
 0002:00004ec0       ??_C@_0BN@DILLHMBG@RCPT?5failed?3?5?$CFd?5?$CIlast?5error?$CJ?$AA@ 00458ec0     libcurl:smtp.obj
 0002:00004ee0       ??_C@_04DFNBDBBL@DATA?$AA@ 00458ee0     libcurl:smtp.obj
 0002:00004ee8       ??_C@_0BA@BDBJMDJD@DATA?5failed?3?5?$CFd?$AA@ 00458ee8     libcurl:smtp.obj
 0002:00004ef8       ??_C@_04JHCEEOPB@?$AN?6?4?4?$AA@ 00458ef8     libcurl:smtp.obj
 0002:00004f00       ??_C@_0BJ@NPJPFJML@?$CF04d?$CF02d?$CF02d?$CF02d?$CF02d?$CF02d?$AA@ 00458f00     libcurl:ftp.obj
 0002:00004f1c       ??_C@_0CA@CJAAICLH@?$CF04d?$CF02d?$CF02d?5?$CF02d?3?$CF02d?3?$CF02d?5GMT?$AA@ 00458f1c     libcurl:ftp.obj
 0002:00004f3c       ??_C@_0DE@GKBAFMFA@Last?9Modified?3?5?$CFs?0?5?$CF02d?5?$CFs?5?$CF4d?5?$CF@ 00458f3c     libcurl:ftp.obj
 0002:00004f70       ??_C@_0BP@EOJCADGH@unsupported?5MDTM?5reply?5format?6?$AA@ 00458f70     libcurl:ftp.obj
 0002:00004f90       ??_C@_0BK@JLENJKNN@Given?5file?5does?5not?5exist?$AA@ 00458f90     libcurl:ftp.obj
 0002:00004fac       ??_C@_0BK@LIEJIOFD@Skipping?5time?5comparison?6?$AA@ 00458fac     libcurl:ftp.obj
 0002:00004fc8       ??_C@_0BK@DEMDJAEI@Couldn?8t?5set?5desired?5mode?$AA@ 00458fc8     libcurl:ftp.obj
 0002:00004fe4       ??_C@_0DF@NIKHFCK@Got?5a?5?$CF03d?5response?5code?5instead@ 00458fe4     libcurl:ftp.obj
 0002:0000501c       ??_C@_0CB@IDOEMMGJ@ftp?5server?5doesn?8t?5support?5SIZE?6@ 0045901c     libcurl:ftp.obj
 0002:00005040       ??_C@_0CM@HFMKHHME@Offset?5?$CI?$CFI64d?$CJ?5was?5beyond?5file?5s@ 00459040     libcurl:ftp.obj
 0002:0000506c       ??_C@_0CE@DDNCLNDJ@File?5already?5completely?5download@ 0045906c     libcurl:ftp.obj
 0002:00005090       ??_C@_0CO@NFEHDDGP@Instructs?5server?5to?5resume?5from?5@ 00459090     libcurl:ftp.obj
 0002:000050c0       ??_C@_0L@GMAGLFCO@REST?5?$CFI64d?$AA@ 004590c0     libcurl:ftp.obj
 0002:000050cc       ??_C@_0BI@DFLKJFAC@The?5file?5does?5not?5exist?$AA@ 004590cc     libcurl:ftp.obj
 0002:000050e4       ??_C@_0BH@OONDMNFK@Accept?9ranges?3?5bytes?$AN?6?$AA@ 004590e4     libcurl:ftp.obj
 0002:000050fc       ??_C@_0BC@MLOKPHOJ@Couldn?8t?5use?5REST?$AA@ 004590fc     libcurl:ftp.obj
 0002:00005110       ??_C@_0BH@NAGIDHLA@Failed?5FTP?5upload?3?5?$CF0d?$AA@ 00459110     libcurl:ftp.obj
 0002:00005128       ??_C@_0CJ@KNNCCANJ@Data?5conn?5was?5not?5available?5imme@ 00459128     libcurl:ftp.obj
 0002:00005154       ??_C@_06LCIDCBMH@?5bytes?$AA@ 00459154     libcurl:ftp.obj
 0002:0000515c       ??_C@_0BF@OJNOJFMB@Maxdownload?5?$DN?5?$CFI64d?6?$AA@ 0045915c     libcurl:ftp.obj
 0002:00005174       ??_C@_0BP@JBOHHHEF@Getting?5file?5with?5size?3?5?$CFI64d?6?$AA@ 00459174     libcurl:ftp.obj
 0002:00005194       ??_C@_0BE@IHDENKLC@RETR?5response?3?5?$CF03d?$AA@ 00459194     libcurl:ftp.obj
 0002:000051a8       ??_C@_07HLPDJPKF@PBSZ?5?$CFd?$AA@ 004591a8     libcurl:ftp.obj
 0002:000051b0       ??_C@_03LBMKPMDK@FTP?$AA@  004591b0     libcurl:ftp.obj
 0002:000051b4       ??_C@_07NEPAJNMI@ACCT?5?$CFs?$AA@ 004591b4     libcurl:ftp.obj
 0002:000051bc       ??_C@_0CC@FIJBPOPC@ACCT?5requested?5but?5none?5availabl@ 004591bc     libcurl:ftp.obj
 0002:000051e0       ??_C@_0BE@IDFIDIK@Access?5denied?3?5?$CF03d?$AA@ 004591e0     libcurl:ftp.obj
 0002:000051f4       ??_C@_0BO@KPCJJKDD@ACCT?5rejected?5by?5server?3?5?$CF03d?$AA@ 004591f4     libcurl:ftp.obj
 0002:00005220       _Curl_handler_ftp          00459220     libcurl:ftp.obj
 0002:00005284       ??_C@_0CB@MGPFOKOC@Error?5accept?$CI?$CJing?5server?5connect@ 00459284     libcurl:ftp.obj
 0002:000052a8       ??_C@_0CB@CHFILBBG@Connection?5accepted?5from?5server?6@ 004592a8     libcurl:ftp.obj
 0002:000052cc       ??_C@_0BN@OADDFOLF@Checking?5for?5server?5connect?6?$AA@ 004592cc     libcurl:ftp.obj
 0002:000052ec       ??_C@_0DF@ECKOGFBG@Accept?5timeout?5occurred?5while?5wa@ 004592ec     libcurl:ftp.obj
 0002:00005324       ??_C@_0DI@EHJDBFKM@There?5is?5negative?5response?5in?5ca@ 00459324     libcurl:ftp.obj
 0002:0000535c       ??_C@_0DF@BCDKPLJO@Got?5a?5?$CF03d?5ftp?9server?5response?5w@ 0045935c     libcurl:ftp.obj
 0002:00005394       ??_C@_0CH@IPEAPKCM@Error?5while?5waiting?5for?5server?5c@ 00459394     libcurl:ftp.obj
 0002:000053bc       ??_C@_0CN@DICMJIKG@Ready?5to?5accept?5data?5connection?5@ 004593bc     libcurl:ftp.obj
 0002:000053ec       ??_C@_0DA@LIJFNFEC@unsupported?5parameter?5to?5CURLOPT@ 004593ec     libcurl:ftp.obj
 0002:0000541c       ??_C@_0DA@FIFPKHDL@Ctrl?5conn?5has?5data?5while?5waiting@ 0045941c     libcurl:ftp.obj
 0002:0000544c       ??_C@_0DA@NKJCHCEC@Doing?5the?5SSL?1TLS?5handshake?5on?5t@ 0045944c     libcurl:ftp.obj
 0002:0000547c       ??_C@_07JIEIOJCN@PROT?5?$CFc?$AA@ 0045947c     libcurl:ftp.obj
 0002:00005484       ??_C@_0CN@HIFIJJNN@Preparing?5for?5accepting?5server?5o@ 00459484     libcurl:ftp.obj
 0002:000054b4       ??_C@_03POJCPIGP@CCC?$AA@  004594b4     libcurl:ftp.obj
 0002:000054b8       ??_C@_0CK@DIEJGCGD@Failed?5to?5clear?5the?5command?5chan@ 004594b8     libcurl:ftp.obj
 0002:000054e4       ??_C@_04EAEGPFGI@SYST?$AA@ 004594e4     libcurl:ftp.obj
 0002:000054ec       ??_C@_0BE@OCHIMCLN@Entry?5path?5is?5?8?$CFs?8?6?$AA@ 004594ec     libcurl:ftp.obj
 0002:00005500       ??_C@_0BL@LGIJMHED@Failed?5to?5figure?5out?5path?6?$AA@ 00459500     libcurl:ftp.obj
 0002:0000551c       ??_C@_06JNDPFLAI@OS?1400?$AA@ 0045951c     libcurl:ftp.obj
 0002:00005524       ??_C@_0P@JBGEGJKJ@SITE?5NAMEFMT?51?$AA@ 00459524     libcurl:ftp.obj
 0002:00005534       ??_C@_0BO@OHEGJEDF@QUOT?5command?5failed?5with?5?$CF03d?$AA@ 00459534     libcurl:ftp.obj
 0002:00005554       ??_C@_06BFAFDBBO@MKD?5?$CFs?$AA@ 00459554     libcurl:ftp.obj
 0002:0000555c       ??_C@_0DD@PPJPGINE@Server?5denied?5you?5to?5change?5to?5t@ 0045955c     libcurl:ftp.obj
 0002:00005590       ??_C@_0BI@BHKLDLGC@Failed?5to?5MKD?5dir?3?5?$CF03d?$AA@ 00459590     libcurl:ftp.obj
 0002:000055a8       ??_C@_0CA@MIHDFENK@PRET?5command?5not?5accepted?3?5?$CF03d?$AA@ 004595a8     libcurl:ftp.obj
 0002:000055c8       ??_C@_03OIFAJNHF@PWD?$AA@  004595c8     libcurl:ftp.obj
 0002:000055cc       ??_C@_0CA@BPKLCDMI@Remembering?5we?5are?5in?5dir?5?$CC?$CFs?$CC?6?$AA@ 004595cc     libcurl:ftp.obj
 0002:000055ec       ??_C@_04JOBIBMIG@ABOR?$AA@ 004595ec     libcurl:ftp.obj
 0002:000055f4       ??_C@_0CB@ELHFDEFP@Failure?5sending?5ABOR?5command?3?5?$CFs@ 004595f4     libcurl:ftp.obj
 0002:00005618       ??_C@_0BO@IBJECBBL@control?5connection?5looks?5dead?$AA@ 00459618     libcurl:ftp.obj
 0002:00005638       ??_C@_06DBCOIIKD@CWD?5?$CFs?$AA@ 00459638     libcurl:ftp.obj
 0002:00005640       ??_C@_0DA@LKDFHHHG@partial?5download?5completed?0?5clos@ 00459640     libcurl:ftp.obj
 0002:00005670       ??_C@_0BM@KBMOAOIH@Exceeded?5storage?5allocation?$AA@ 00459670     libcurl:ftp.obj
 0002:0000568c       ??_C@_0CB@MBIEKFAL@server?5did?5not?5report?5OK?0?5got?5?$CFd@ 0045968c     libcurl:ftp.obj
 0002:000056b0       ??_C@_0DI@GGNLIACP@Uploaded?5unaligned?5file?5size?5?$CI?$CFI@ 004596b0     libcurl:ftp.obj
 0002:000056e8       ??_C@_0CI@BFHFHKBK@Received?5only?5partial?5file?3?5?$CFI64@ 004596e8     libcurl:ftp.obj
 0002:00005710       ??_C@_0BG@JNDKCNAF@No?5data?5was?5received?$CB?$AA@ 00459710     libcurl:ftp.obj
 0002:00005728       ??_C@_0BN@KKEKOBII@QUOT?5string?5not?5accepted?3?5?$CFs?$AA@ 00459728     libcurl:ftp.obj
 0002:00005748       ??_C@_07LBAFLNFB@TYPE?5?$CFc?$AA@ 00459748     libcurl:ftp.obj
 0002:00005750       ??_C@_0BP@PDGEBKHD@Connecting?5to?5?$CFs?5?$CI?$CFs?$CJ?5port?5?$CFd?6?$AA@ 00459750     libcurl:ftp.obj
 0002:00005770       ??_C@_0BJ@KBDKIMG@getsockname?$CI?$CJ?5failed?3?5?$CFs?$AA@ 00459770     libcurl:ftp.obj
 0002:0000578c       ??_C@_0DD@DMEJNKPI@failed?5to?5resolve?5the?5address?5pr@ 0045978c     libcurl:ftp.obj
 0002:000057c0       ??_C@_0BD@OKODOHGG@socket?5failure?3?5?$CFs?$AA@ 004597c0     libcurl:ftp.obj
 0002:000057d4       ??_C@_0DA@CIIHINBN@bind?$CIport?$DN?$CFhu?$CJ?5on?5non?9local?5addr@ 004597d4     libcurl:ftp.obj
 0002:00005804       ??_C@_0BK@PGDLCBEF@bind?$CIport?$DN?$CFhu?$CJ?5failed?3?5?$CFs?$AA@ 00459804     libcurl:ftp.obj
 0002:00005820       ??_C@_0CE@CGKJCPDM@bind?$CI?$CJ?5failed?0?5we?5ran?5out?5of?5por@ 00459820     libcurl:ftp.obj
 0002:00005844       ??_C@_0CF@BIADGCCG@ftp_perform?5ends?5with?5SECONDARY?3@ 00459844     libcurl:ftp.obj
 0002:0000586c       ??_C@_0P@JIPLFCKK@?$CFs?5?$HM?$CFd?$HM?$CFs?$HM?$CFhu?$HM?$AA@ 0045986c     libcurl:ftp.obj
 0002:0000587c       ??_C@_0CB@BJFEKOJI@Failure?5sending?5EPRT?5command?3?5?$CFs@ 0045987c     libcurl:ftp.obj
 0002:000058a0       ??_C@_06IEKOAMEP@?0?$CFd?0?$CFd?$AA@ 004598a0     libcurl:ftp.obj
 0002:000058a8       ??_C@_0CB@JCGGICMN@Failure?5sending?5PORT?5command?3?5?$CFs@ 004598a8     libcurl:ftp.obj
 0002:000058cc       ??_C@_0BP@PMBCHHFK@Connect?5data?5stream?5passively?6?$AA@ 004598cc     libcurl:ftp.obj
 0002:000058ec       ??_C@_0BM@CBMMJPAN@Wildcard?5?9?5Parsing?5started?6?$AA@ 004598ec     libcurl:ftp.obj
 0002:00005908       ??_C@_04LPPBABPG@NLST?$AA@ 00459908     libcurl:ftp.obj
 0002:00005910       ??_C@_07HDBBNIBK@PRET?5?$CFs?$AA@ 00459910     libcurl:ftp.obj
 0002:00005918       ??_C@_0N@JGBIEHDA@PRET?5STOR?5?$CFs?$AA@ 00459918     libcurl:ftp.obj
 0002:00005928       ??_C@_0N@PCAKCCIM@PRET?5RETR?5?$CFs?$AA@ 00459928     libcurl:ftp.obj
 0002:00005938       ??_C@_07EDEBBIDH@REST?5?$CFd?$AA@ 00459938     libcurl:ftp.obj
 0002:00005940       ??_C@_0BK@EBFHJJOJ@Wildcard?5?9?5START?5of?5?$CC?$CFs?$CC?6?$AA@ 00459940     libcurl:ftp.obj
 0002:0000595c       ??_C@_0CB@HPHNJDIO@Wildcard?5?9?5?$CC?$CFs?$CC?5skipped?5by?5user?6@ 0045995c     libcurl:ftp.obj
 0002:00005980       ??_C@_07DHEHBJLB@SIZE?5?$CFs?$AA@ 00459980     libcurl:ftp.obj
 0002:00005988       ??_C@_01CLKCMJKC@?5?$AA@   00459988     libcurl:ftp.obj
 0002:0000598c       ??_C@_0CB@JNMCPEIN@Failure?5sending?5QUIT?5command?3?5?$CFs@ 0045998c     libcurl:ftp.obj
 0002:000059b0       ??_C@_07DFNLHBNJ@MDTM?5?$CFs?$AA@ 004599b0     libcurl:ftp.obj
 0002:000059b8       ??_C@_0BE@KEOJEJGI@Failed?5to?5read?5data?$AA@ 004599b8     libcurl:ftp.obj
 0002:000059cc       ??_C@_0CC@MLJOLKKA@File?5already?5completely?5uploaded@ 004599cc     libcurl:ftp.obj
 0002:000059f0       ??_C@_07FKAENFJM@APPE?5?$CFs?$AA@ 004599f0     libcurl:ftp.obj
 0002:000059f8       ??_C@_07LAJFDMAF@STOR?5?$CFs?$AA@ 004599f8     libcurl:ftp.obj
 0002:00005a00       ??_C@_0CI@FGKDODBE@Uploading?5to?5a?5URL?5without?5a?5fil@ 00459a00     libcurl:ftp.obj
 0002:00005a28       ??_C@_0CM@BBAADEII@Request?5has?5same?5path?5as?5previou@ 00459a28     libcurl:ftp.obj
 0002:00005a54       ??_C@_07NEIHFJLJ@RETR?5?$CFs?$AA@ 00459a54     libcurl:ftp.obj
 0002:00005a5c       ??_C@_0BN@DGOLGMBJ@Failed?5EPSV?5attempt?0?5exiting?$AA@ 00459a5c     libcurl:ftp.obj
 0002:00005a7c       ??_C@_0CF@LLFCDFKE@Failed?5EPSV?5attempt?4?5Disabling?5E@ 00459a7c     libcurl:ftp.obj
 0002:00005aa4       ??_C@_04KAHNJCEK@PASV?$AA@ 00459aa4     libcurl:ftp.obj
 0002:00005aac       ??_C@_0L@PJBCJFDL@?$CFc?$CFc?$CFc?$CFu?$CFc?$AA@ 00459aac     libcurl:ftp.obj
 0002:00005ab8       ??_C@_0CC@DPAPDPDE@Illegal?5port?5number?5in?5EPSV?5repl@ 00459ab8     libcurl:ftp.obj
 0002:00005adc       ??_C@_0BN@NDEBJJDH@Weirdly?5formatted?5EPSV?5reply?$AA@ 00459adc     libcurl:ftp.obj
 0002:00005afc       ??_C@_0BC@GDCBJEOP@?$CFu?0?$CFu?0?$CFu?0?$CFu?0?$CFu?0?$CFu?$AA@ 00459afc     libcurl:ftp.obj
 0002:00005b10       ??_C@_0CE@JAKPPKFJ@Couldn?8t?5interpret?5the?5227?9respo@ 00459b10     libcurl:ftp.obj
 0002:00005b34       ??_C@_0DJ@BDPONOCF@Skip?5?$CFu?4?$CFu?4?$CFu?4?$CFu?5for?5data?5connec@ 00459b34     libcurl:ftp.obj
 0002:00005b70       ??_C@_0M@CDHNGIPM@?$CFu?4?$CFu?4?$CFu?4?$CFu?$AA@ 00459b70     libcurl:ftp.obj
 0002:00005b7c       ??_C@_0BN@NLMHLNCJ@Bad?5PASV?1EPSV?5response?3?5?$CF03d?$AA@ 00459b7c     libcurl:ftp.obj
 0002:00005b9c       ??_C@_0CA@JCGDHCDD@Can?8t?5resolve?5proxy?5host?5?$CFs?3?$CFhu?$AA@ 00459b9c     libcurl:ftp.obj
 0002:00005bbc       ??_C@_0BO@IFBOOOND@Can?8t?5resolve?5new?5host?5?$CFs?3?$CFhu?$AA@ 00459bbc     libcurl:ftp.obj
 0002:00005bdc       ??_C@_0BG@GHLIGHGL@disabling?5EPRT?5usage?6?$AA@ 00459bdc     libcurl:ftp.obj
 0002:00005bf4       ??_C@_0BC@GNDMALEK@Failed?5to?5do?5PORT?$AA@ 00459bf4     libcurl:ftp.obj
 0002:00005c08       ??_C@_0BO@NCOMJOLE@Connect?5data?5stream?5actively?6?$AA@ 00459c08     libcurl:ftp.obj
 0002:00005c28       ??_C@_0BJ@DGDBOHFM@We?5got?5a?5421?5?9?5timeout?$CB?6?$AA@ 00459c28     libcurl:ftp.obj
 0002:00005c44       ??_C@_0BF@LJJJLKGP@FTP?5response?5timeout?$AA@ 00459c44     libcurl:ftp.obj
 0002:00005c5c       ??_C@_0DC@FEDHDEPK@FTP?5response?5aborted?5due?5to?5sele@ 00459c5c     libcurl:ftp.obj
 0002:00005c90       ??_C@_04PMPMHNFI@FILE?$AA@ 00459c90     libcurl:file.obj
 0002:00005c98       _Curl_handler_file         00459c98     libcurl:file.obj
 0002:00005ce4       ??_C@_0BG@EMIMEGKB@Couldn?8t?5open?5file?5?$CFs?$AA@ 00459ce4     libcurl:file.obj
 0002:00005cfc       ??_C@_0BK@BBIJKCFE@Can?8t?5open?5?$CFs?5for?5writing?$AA@ 00459cfc     libcurl:file.obj
 0002:00005d18       ??_C@_0BJ@PBDLFGHG@Can?8t?5get?5the?5size?5of?5?$CFs?$AA@ 00459d18     libcurl:file.obj
 0002:00005d34       ??_C@_0DG@OCPCIEKF@Last?9Modified?3?5?$CFs?0?5?$CF02d?5?$CFs?5?$CF4d?5?$CF@ 00459d34     libcurl:file.obj
 0002:00005d6c       ??_C@_0BM@JKOBLIFI@Can?8t?5get?5the?5size?5of?5file?4?$AA@ 00459d6c     libcurl:file.obj
 0002:00005d88       ??_C@_0CC@BFDLBKLP@failed?5to?5resume?5file?3?1?1?5transfe@ 00459d88     libcurl:file.obj
 0002:00005db0       _Curl_handler_dict         00459db0     libcurl:dict.obj
 0002:00005dfc       ??_C@_04NOLJEKBF@DICT?$AA@ 00459dfc     libcurl:dict.obj
 0002:00005e04       ??_C@_07EEEBABMF@?1MATCH?3?$AA@ 00459e04     libcurl:dict.obj
 0002:00005e0c       ??_C@_03HLABFPGB@?1M?3?$AA@ 00459e0c     libcurl:dict.obj
 0002:00005e10       ??_C@_06POHFGONG@?1FIND?3?$AA@ 00459e10     libcurl:dict.obj
 0002:00005e18       ??_C@_0BI@HCFEFF@lookup?5word?5is?5missing?6?$AA@ 00459e18     libcurl:dict.obj
 0002:00005e30       ??_C@_07DLHCIBDH@default?$AA@ 00459e30     libcurl:dict.obj
 0002:00005e38       ??_C@_01DCLJPIOD@?$CB?$AA@ 00459e38     libcurl:dict.obj
 0002:00005e3c       ??_C@_0CO@LOIPPG@CLIENT?5libcurl?57?476?41?$AN?6MATCH?5?$CFs?5@ 00459e3c     libcurl:dict.obj
 0002:00005e6c       ??_C@_0BM@NMDEPLOC@Failed?5sending?5DICT?5request?$AA@ 00459e6c     libcurl:dict.obj
 0002:00005e88       ??_C@_08FLILFNPP@?1DEFINE?3?$AA@ 00459e88     libcurl:dict.obj
 0002:00005e94       ??_C@_03HENAGEOO@?1D?3?$AA@ 00459e94     libcurl:dict.obj
 0002:00005e98       ??_C@_08OMCEKKKJ@?1LOOKUP?3?$AA@ 00459e98     libcurl:dict.obj
 0002:00005ea4       ??_C@_0CM@LFFEFHLL@CLIENT?5libcurl?57?476?41?$AN?6DEFINE?5?$CFs@ 00459ea4     libcurl:dict.obj
 0002:00005ed0       ??_C@_0CC@MBNAKKIG@CLIENT?5libcurl?57?476?41?$AN?6?$CFs?$AN?6QUIT?$AN@ 00459ed0     libcurl:dict.obj
 0002:00005ef4       ??_C@_0BH@HDMBNBNK@Width?3?5?$CFd?5?$DL?5Height?3?5?$CFd?$AA@ 00459ef4     libcurl:telnet.obj
 0002:00005f0c       ??_C@_03JAFEDHAF@?5IS?$AA@ 00459f0c     libcurl:telnet.obj
 0002:00005f10       ??_C@_05HEPJGMLF@?5SEND?$AA@ 00459f10     libcurl:telnet.obj
 0002:00005f18       ??_C@_0M@NNAMPCHG@?5INFO?1REPLY?$AA@ 00459f18     libcurl:telnet.obj
 0002:00005f24       ??_C@_05HILGCHMJ@?5NAME?$AA@ 00459f24     libcurl:telnet.obj
 0002:00005f2c       ??_C@_05JEHJOICL@?5?$CC?$CFs?$CC?$AA@ 00459f2c     libcurl:telnet.obj
 0002:00005f34       ??_C@_03MHLONNLM@?5?$DN?5?$AA@ 00459f34     libcurl:telnet.obj
 0002:00005f38       ??_C@_02HAOIJKIC@?$CFc?$AA@ 00459f38     libcurl:telnet.obj
 0002:00005f3c       ??_C@_05MAFEOBBD@?5?$CF?42x?$AA@ 00459f3c     libcurl:telnet.obj
 0002:00005f44       ??_C@_07FIBAJHNC@USER?0?$CFs?$AA@ 00459f44     libcurl:telnet.obj
 0002:00005f4c       ??_C@_0BF@FKHAOHNG@?$CF127?$FL?$FO?$DN?5?$FN?$CF?$CK?$FL?5?$DN?$FN?$CF255s?$AA@ 00459f4c     libcurl:telnet.obj
 0002:00005f64       ??_C@_05EDAGKIGO@TTYPE?$AA@ 00459f64     libcurl:telnet.obj
 0002:00005f6c       ??_C@_07CBBODINF@NEW_ENV?$AA@ 00459f6c     libcurl:telnet.obj
 0002:00005f74       ??_C@_02PINLBAEP@WS?$AA@   00459f74     libcurl:telnet.obj
 0002:00005f78       ??_C@_0N@DFKPNNGO@?$CFhu?$CF?$CK?$FLxX?$FN?$CFhu?$AA@ 00459f78     libcurl:telnet.obj
 0002:00005f88       ??_C@_0CC@NJCHGDLJ@Syntax?5error?5in?5telnet?5option?3?5?$CF@ 00459f88     libcurl:telnet.obj
 0002:00005fac       ??_C@_0BJ@EPEDNNHH@Unknown?5telnet?5option?5?$CFs?$AA@ 00459fac     libcurl:telnet.obj
 0002:00005fc8       ??_C@_0P@IJIBEBBB@?$CFc?$CFc?$CFc?$CFc?$CFs?$CFc?$CFc?$AA@ 00459fc8     libcurl:telnet.obj
 0002:00005fd8       ??_C@_08MMPFKENM@?$CFc?$CFc?$CFc?$CFc?$AA@ 00459fd8     libcurl:telnet.obj
 0002:00005fe4       ??_C@_0P@EIKOJKEK@?$CF127?$FL?$FO?0?$FN?0?$CF127s?$AA@ 00459fe4     libcurl:telnet.obj
 0002:00005ff4       ??_C@_08IFOBLEBG@?$CFc?$CFs?$CFc?$CFs?$AA@ 00459ff4     libcurl:telnet.obj
 0002:00006000       ??_C@_04GJDJEMBE@?$CFc?$CFc?$AA@ 0045a000     libcurl:telnet.obj
 0002:00006008       _Curl_handler_telnet       0045a008     libcurl:telnet.obj
 0002:00006148       ??_C@_0BO@FGKIEAKL@In?5SUBOPTION?5processing?0?5RCVD?$AA@ 0045a148     libcurl:telnet.obj
 0002:00006168       ??_C@_06FJHKNKMG@BINARY?$AA@ 0045a168     libcurl:telnet.obj
 0002:00006170       ??_C@_04CJAHKHLK@ECHO?$AA@ 0045a170     libcurl:telnet.obj
 0002:00006178       ??_C@_03HHNIIJAH@RCP?$AA@  0045a178     libcurl:telnet.obj
 0002:0000617c       ??_C@_0BC@PNOFGINB@SUPPRESS?5GO?5AHEAD?$AA@ 0045a17c     libcurl:telnet.obj
 0002:00006190       ??_C@_04IPKHEEB@NAME?$AA@  0045a190     libcurl:telnet.obj
 0002:00006198       ??_C@_06DNKMJCIK@STATUS?$AA@ 0045a198     libcurl:telnet.obj
 0002:000061a0       ??_C@_0M@EKEOBHGL@TIMING?5MARK?$AA@ 0045a1a0     libcurl:telnet.obj
 0002:000061ac       ??_C@_04BEBEFOLG@RCTE?$AA@ 0045a1ac     libcurl:telnet.obj
 0002:000061b4       ??_C@_04NKLMBLGG@NAOL?$AA@ 0045a1b4     libcurl:telnet.obj
 0002:000061bc       ??_C@_04DMMLEGDL@NAOP?$AA@ 0045a1bc     libcurl:telnet.obj
 0002:000061c4       ??_C@_06BKIMLPPI@NAOCRD?$AA@ 0045a1c4     libcurl:telnet.obj
 0002:000061cc       ??_C@_06MMIDMANN@NAOHTS?$AA@ 0045a1cc     libcurl:telnet.obj
 0002:000061d4       ??_C@_06MJAAEEEL@NAOHTD?$AA@ 0045a1d4     libcurl:telnet.obj
 0002:000061dc       ??_C@_06DGHNEEGG@NAOFFD?$AA@ 0045a1dc     libcurl:telnet.obj
 0002:000061e4       ??_C@_06HMEFOAHB@NAOVTS?$AA@ 0045a1e4     libcurl:telnet.obj
 0002:000061ec       ??_C@_06HJMGGEOH@NAOVTD?$AA@ 0045a1ec     libcurl:telnet.obj
 0002:000061f4       ??_C@_06FJMAKEAC@NAOLFD?$AA@ 0045a1f4     libcurl:telnet.obj
 0002:000061fc       ??_C@_0BL@IAGBODFB@WSACreateEvent?5failed?5?$CI?$CFd?$CJ?$AA@ 0045a1fc     libcurl:telnet.obj
 0002:00006218       ??_C@_0N@MCHGCBGJ@EXTEND?5ASCII?$AA@ 0045a218     libcurl:telnet.obj
 0002:00006228       ??_C@_0L@JJAOJAFM@BYTE?5MACRO?$AA@ 0045a228     libcurl:telnet.obj
 0002:00006234       ??_C@_0M@BFPOMMHF@DE?5TERMINAL?$AA@ 0045a234     libcurl:telnet.obj
 0002:00006240       ??_C@_06NAEEPLEB@SUPDUP?$AA@ 0045a240     libcurl:telnet.obj
 0002:00006248       ??_C@_0O@LDEGDMCH@SUPDUP?5OUTPUT?$AA@ 0045a248     libcurl:telnet.obj
 0002:00006258       ??_C@_0O@GCFNAHCA@SEND?5LOCATION?$AA@ 0045a258     libcurl:telnet.obj
 0002:00006268       ??_C@_09JHNIKOBE@TERM?5TYPE?$AA@ 0045a268     libcurl:telnet.obj
 0002:00006274       ??_C@_0O@OOFFLMHN@END?5OF?5RECORD?$AA@ 0045a274     libcurl:telnet.obj
 0002:00006284       ??_C@_0L@GPKIIPN@TACACS?5UID?$AA@ 0045a284     libcurl:telnet.obj
 0002:00006290       ??_C@_0P@MGPJDEPO@OUTPUT?5MARKING?$AA@ 0045a290     libcurl:telnet.obj
 0002:000062a0       ??_C@_06GGEFDLMA@TTYLOC?$AA@ 0045a2a0     libcurl:telnet.obj
 0002:000062a8       ??_C@_0M@NIKPEBAA@3270?5REGIME?$AA@ 0045a2a8     libcurl:telnet.obj
 0002:000062b4       ??_C@_06BPMGLPAC@X3?5PAD?$AA@ 0045a2b4     libcurl:telnet.obj
 0002:000062bc       ??_C@_04FNDOHDA@NAWS?$AA@  0045a2bc     libcurl:telnet.obj
 0002:000062c4       ??_C@_0L@PJIKHDLG@TERM?5SPEED?$AA@ 0045a2c4     libcurl:telnet.obj
 0002:000062d0       ??_C@_05LOOKNPEJ@LFLOW?$AA@ 0045a2d0     libcurl:telnet.obj
 0002:000062d8       ??_C@_08MFKKBNLA@LINEMODE?$AA@ 0045a2d8     libcurl:telnet.obj
 0002:000062e4       ??_C@_08GPGBHAKO@XDISPLOC?$AA@ 0045a2e4     libcurl:telnet.obj
 0002:000062f0       ??_C@_0M@HACFCEDH@OLD?9ENVIRON?$AA@ 0045a2f0     libcurl:telnet.obj
 0002:000062fc       ??_C@_0P@LGIMEOHB@AUTHENTICATION?$AA@ 0045a2fc     libcurl:telnet.obj
 0002:0000630c       ??_C@_0CB@LGFLAPBC@WSAEnumNetworkEvents?5failed?5?$CI?$CFd?$CJ@ 0045a30c     libcurl:telnet.obj
 0002:00006330       ??_C@_07CAOFPAJK@ENCRYPT?$AA@ 0045a330     libcurl:telnet.obj
 0002:00006338       ??_C@_0M@FMFEGMDG@NEW?9ENVIRON?$AA@ 0045a338     libcurl:telnet.obj
 0002:00006344       ??_C@_03KPJEKKJC@EOF?$AA@  0045a344     libcurl:telnet.obj
 0002:00006348       ??_C@_04GOPMIPNE@SUSP?$AA@ 0045a348     libcurl:telnet.obj
 0002:00006350       ??_C@_05NKJCKGFJ@ABORT?$AA@ 0045a350     libcurl:telnet.obj
 0002:00006358       ??_C@_03IBDKHNMH@EOR?$AA@  0045a358     libcurl:telnet.obj
 0002:0000635c       ??_C@_02ODEKANEE@SE?$AA@   0045a35c     libcurl:telnet.obj
 0002:00006360       ??_C@_03GEANJIEE@NOP?$AA@  0045a360     libcurl:telnet.obj
 0002:00006364       ??_C@_05CFIKNJJG@DMARK?$AA@ 0045a364     libcurl:telnet.obj
 0002:0000636c       ??_C@_03JDBDNMEF@BRK?$AA@  0045a36c     libcurl:telnet.obj
 0002:00006370       ??_C@_02MFEOMNPG@IP?$AA@   0045a370     libcurl:telnet.obj
 0002:00006374       ??_C@_08IMJOJNO@Time?9out?$AA@ 0045a374     libcurl:telnet.obj
 0002:00006380       ??_C@_02GAHJCNA@AO?$AA@    0045a380     libcurl:telnet.obj
 0002:00006384       ??_C@_03EAKJJCNE@AYT?$AA@  0045a384     libcurl:telnet.obj
 0002:00006388       ??_C@_0BK@CECPJKBH@WSACloseEvent?5failed?5?$CI?$CFd?$CJ?$AA@ 0045a388     libcurl:telnet.obj
 0002:000063a4       ??_C@_02KNLLHFAA@EC?$AA@   0045a3a4     libcurl:telnet.obj
 0002:000063a8       ??_C@_02CKCDGJMP@EL?$AA@   0045a3a8     libcurl:telnet.obj
 0002:000063ac       ??_C@_02JMAJMDOM@GA?$AA@   0045a3ac     libcurl:telnet.obj
 0002:000063b0       ??_C@_02KMALJLID@SB?$AA@   0045a3b0     libcurl:telnet.obj
 0002:000063b4       ??_C@_04HALOHICD@WILL?$AA@ 0045a3b4     libcurl:telnet.obj
 0002:000063bc       ??_C@_04NEEKGLMI@WONT?$AA@ 0045a3bc     libcurl:telnet.obj
 0002:000063c4       ??_C@_02MMFADL@DO?$AA@     0045a3c4     libcurl:telnet.obj
 0002:000063c8       ??_C@_04PDAKIGJK@DONT?$AA@ 0045a3c8     libcurl:telnet.obj
 0002:000063d0       ??_C@_03JCKLMMGF@IAC?$AA@  0045a3d0     libcurl:telnet.obj
 0002:000063d4       ??_C@_06KENCDLMH@TELNET?$AA@ 0045a3d4     libcurl:telnet.obj
 0002:000063dc       ??_C@_0L@FLCLEAPM@?$CFs?5IAC?5?$CFs?6?$AA@ 0045a3dc     libcurl:telnet.obj
 0002:000063e8       ??_C@_0L@ECECPFAJ@?$CFs?5IAC?5?$CFd?6?$AA@ 0045a3e8     libcurl:telnet.obj
 0002:000063f4       ??_C@_05OKMMCHFL@EXOPL?$AA@ 0045a3f4     libcurl:telnet.obj
 0002:000063fc       ??_C@_09GPBPOFIE@?$CFs?5?$CFs?5?$CFs?6?$AA@ 0045a3fc     libcurl:telnet.obj
 0002:00006408       ??_C@_09HGHGFAHB@?$CFs?5?$CFs?5?$CFd?6?$AA@ 0045a408     libcurl:telnet.obj
 0002:00006414       ??_C@_09GIKFGCFC@?$CFs?5?$CFd?5?$CFd?6?$AA@ 0045a414     libcurl:telnet.obj
 0002:00006420       ??_C@_0BJ@GCKINNGG@Sending?5data?5failed?5?$CI?$CFd?$CJ?$AA@ 0045a420     libcurl:telnet.obj
 0002:0000643c       ??_C@_04EOHHCNGM@SENT?$AA@ 0045a43c     libcurl:telnet.obj
 0002:00006444       ??_C@_04OILLLJJ@RCVD?$AA@  0045a444     libcurl:telnet.obj
 0002:0000644c       ??_C@_0L@FPLNPMDD@?$CFs?5IAC?5SB?5?$AA@ 0045a44c     libcurl:telnet.obj
 0002:00006458       ??_C@_0BA@MMHHHFDG@?$CIterminated?5by?5?$AA@ 0045a458     libcurl:telnet.obj
 0002:00006468       ??_C@_03IOOJPBPG@?$CFu?5?$AA@ 0045a468     libcurl:telnet.obj
 0002:0000646c       ??_C@_0BA@IHPPDJFF@?0?5not?5IAC?5SE?$CB?$CJ?5?$AA@ 0045a46c     libcurl:telnet.obj
 0002:0000647c       ??_C@_0BD@CLPAOCOB@?$CIEmpty?5suboption?$DP?$CJ?$AA@ 0045a47c     libcurl:telnet.obj
 0002:00006490       ??_C@_0BB@BBIGPKKK@?$CFs?5?$CIunsupported?$CJ?$AA@ 0045a490     libcurl:telnet.obj
 0002:000064a4       ??_C@_0N@IAAHJJEB@?$CFd?5?$CIunknown?$CJ?$AA@ 0045a4a4     libcurl:telnet.obj
 0002:000064b4       ??_C@_0CL@NOIDGMJA@Received?5last?5DATA?5packet?5block?5@ 0045a4b4     libcurl:tftp.obj
 0002:000064e0       ??_C@_0DO@LHJHEMEL@Received?5unexpected?5DATA?5packet?5@ 0045a4e0     libcurl:tftp.obj
 0002:00006520       ??_C@_0DB@CJGPFEOC@Timeout?5waiting?5for?5block?5?$CFd?5ACK@ 0045a520     libcurl:tftp.obj
 0002:00006554       ??_C@_0BI@BHFNNNHL@tftp_rx?3?5internal?5error?$AA@ 0045a554     libcurl:tftp.obj
 0002:0000656c       ??_C@_0CJ@LBPPEMJL@Received?5ACK?5for?5block?5?$CFd?0?5expec@ 0045a56c     libcurl:tftp.obj
 0002:00006598       ??_C@_0CM@BNMFOENM@tftp_tx?3?5giving?5up?5waiting?5for?5b@ 0045a598     libcurl:tftp.obj
 0002:000065c4       ??_C@_0CD@DGDGOEOE@tftp_tx?3?5internal?5error?0?5event?3?5@ 0045a5c4     libcurl:tftp.obj
 0002:000065e8       ??_C@_0O@BONHPLEA@TFTP?5finished?$AA@ 0045a5e8     libcurl:tftp.obj
 0002:000065f8       ??_C@_0BN@LMNCOGNC@Internal?5state?5machine?5error?$AA@ 0045a5f8     libcurl:tftp.obj
 0002:00006618       _Curl_handler_tftp         0045a618     libcurl:tftp.obj
 0002:00006664       ??_C@_0BC@JMLCPALC@bind?$CI?$CJ?5failed?$DL?5?$CFs?$AA@ 0045a664     libcurl:tftp.obj
 0002:00006678       ??_C@_0BK@KEKALNLH@Received?5too?5short?5packet?$AA@ 0045a678     libcurl:tftp.obj
 0002:00006694       ??_C@_0BA@OIPDKKBA@TFTP?5error?3?5?$CFs?6?$AA@ 0045a694     libcurl:tftp.obj
 0002:000066a4       ??_C@_0CC@GGFBEDBJ@Internal?5error?3?5Unexpected?5packe@ 0045a6a4     libcurl:tftp.obj
 0002:000066c8       ??_C@_0BG@GPKMDEIC@TFTP?5response?5timeout?$AA@ 0045a6c8     libcurl:tftp.obj
 0002:000066e0       ??_C@_06PHEPAMBA@?$DLmode?$DN?$AA@ 0045a6e0     libcurl:tftp.obj
 0002:000066e8       ??_C@_04JLDPLNDA@TFTP?$AA@ 0045a6e8     libcurl:tftp.obj
 0002:000066f0       ??_C@_0DN@DDJEILNF@set?5timeouts?5for?5state?5?$CFd?$DL?5Total@ 0045a6f0     libcurl:tftp.obj
 0002:00006730       ??_C@_0CA@PGCHPLAI@Malformed?5ACK?5packet?0?5rejecting?$AA@ 0045a730     libcurl:tftp.obj
 0002:00006750       ??_C@_0BM@GELOOIAH@got?5option?$DN?$CI?$CFs?$CJ?5value?$DN?$CI?$CFs?$CJ?6?$AA@ 0045a750     libcurl:tftp.obj
 0002:0000676c       ??_C@_07JPIGAOKK@blksize?$AA@ 0045a76c     libcurl:tftp.obj
 0002:00006774       ??_C@_0CH@GOMNMHP@invalid?5blocksize?5value?5in?5OACK?5@ 0045a774     libcurl:tftp.obj
 0002:0000679c       ??_C@_0CF@EKACJECO@blksize?5is?5larger?5than?5max?5suppo@ 0045a79c     libcurl:tftp.obj
 0002:000067c4       ??_C@_07JMKCEEPK@?$CFs?5?$CI?$CFd?$CJ?$AA@ 0045a7c4     libcurl:tftp.obj
 0002:000067cc       ??_C@_0CG@BNJFBJFK@blksize?5is?5smaller?5than?5min?5supp@ 0045a7cc     libcurl:tftp.obj
 0002:000067f4       ??_C@_0CP@HBGJMNNA@server?5requested?5blksize?5larger?5@ 0045a7f4     libcurl:tftp.obj
 0002:00006824       ??_C@_08KEEEBANB@?$CFs?5?$CI?$CFld?$CJ?$AA@ 0045a824     libcurl:tftp.obj
 0002:00006830       ??_C@_09GLAMPMBA@requested?$AA@ 0045a830     libcurl:tftp.obj
 0002:0000683c       ??_C@_0BJ@PECOFDN@blksize?5parsed?5from?5OACK?$AA@ 0045a83c     libcurl:tftp.obj
 0002:00006858       ??_C@_0BB@OFCPCICB@?$CFs?5?$CI?$CFd?$CJ?5?$CFs?5?$CI?$CFd?$CJ?6?$AA@ 0045a858     libcurl:tftp.obj
 0002:0000686c       ??_C@_05GHDOEBHJ@tsize?$AA@ 0045a86c     libcurl:tftp.obj
 0002:00006874       ??_C@_0BH@BLDLMHGE@tsize?5parsed?5from?5OACK?$AA@ 0045a874     libcurl:tftp.obj
 0002:0000688c       ??_C@_09LJPEONI@?$CFs?5?$CI?$CFld?$CJ?6?$AA@ 0045a88c     libcurl:tftp.obj
 0002:00006898       ??_C@_0CK@LPILMKIM@invalid?5tsize?5?9?3?$CFs?3?9?5value?5in?5OA@ 0045a898     libcurl:tftp.obj
 0002:000068c4       ??_C@_0BH@NFEFKEBL@Connected?5for?5transmit?$AA@ 0045a8c4     libcurl:tftp.obj
 0002:000068dc       ??_C@_0BG@KPOBMFLM@Connected?5for?5receive?$AA@ 0045a8dc     libcurl:tftp.obj
 0002:000068f4       ??_C@_05IIBPGMLM@octet?$AA@ 0045a8f4     libcurl:tftp.obj
 0002:000068fc       ??_C@_08KKALNFMM@netascii?$AA@ 0045a8fc     libcurl:tftp.obj
 0002:00006908       ??_C@_0BI@BPHCFCIJ@TFTP?5file?5name?5too?5long?$AA@ 0045a908     libcurl:tftp.obj
 0002:00006920       ??_C@_08OAFHMCGI@?$CFs?$CFc?$CFs?$CFc?$AA@ 0045a920     libcurl:tftp.obj
 0002:0000692c       ??_C@_07DDHNKDGP@timeout?$AA@ 0045a92c     libcurl:tftp.obj
 0002:00006934       ??_C@_0CC@KFGMHGKB@TFTP?5buffer?5too?5small?5for?5option@ 0045a934     libcurl:tftp.obj
 0002:00006958       ??_C@_0CA@EOCLEEDH@tftp_send_first?3?5internal?5error?$AA@ 0045a958     libcurl:tftp.obj
 0002:00006978       _Curl_handler_ldap         0045a978     libcurl:ldap.obj
 0002:000069c8       _Curl_handler_ldaps        0045a9c8     libcurl:ldap.obj
 0002:00006a14       ??_C@_04HLELMIGD@LDAP?$AA@ 0045aa14     libcurl:ldap.obj
 0002:00006a1c       ??_C@_05EFFGHFLN@LDAPS?$AA@ 0045aa1c     libcurl:ldap.obj
 0002:00006a24       ??_C@_0BH@BDPOFBOA@Microsoft?5Corporation?4?$AA@ 0045aa24     libcurl:ldap.obj
 0002:00006a3c       ??_C@_0DC@DDHGKLDE@LDAP?5local?3?5LDAP?5Vendor?5?$DN?5?$CFs?5?$DL?5L@ 0045aa3c     libcurl:ldap.obj
 0002:00006a70       ??_C@_0BA@HJNHPBP@LDAP?5local?3?5?$CFs?6?$AA@ 0045aa70     libcurl:ldap.obj
 0002:00006a80       ??_C@_0P@BAGOOPBK@LDAP?5local?3?5?$CFs?$AA@ 0045aa80     libcurl:ldap.obj
 0002:00006a90       ??_C@_09OEKGEILE@encrypted?$AA@ 0045aa90     libcurl:ldap.obj
 0002:00006a9c       ??_C@_09HOMJNLCK@cleartext?$AA@ 0045aa9c     libcurl:ldap.obj
 0002:00006aa8       ??_C@_0CP@FAIPPKFC@LDAP?5local?3?5trying?5to?5establish?5@ 0045aaa8     libcurl:ldap.obj
 0002:00006ad8       ??_C@_0CF@JGNKKLCE@LDAP?5local?3?5Cannot?5connect?5to?5?$CFs@ 0045aad8     libcurl:ldap.obj
 0002:00006b00       ??_C@_0CG@CNFHGIPC@LDAP?5local?3?5bind?5via?5ldap_win_bi@ 0045ab00     libcurl:ldap.obj
 0002:00006b28       ??_C@_0BA@BDNMEOJM@LDAP?5remote?3?5?$CFs?$AA@ 0045ab28     libcurl:ldap.obj
 0002:00006b38       ??_C@_04FDBNJNIB@DN?3?5?$AA@ 0045ab38     libcurl:ldap.obj
 0002:00006b40       ??_C@_02LMMGGCAJ@?3?5?$AA@ 0045ab40     libcurl:ldap.obj
 0002:00006b44       ??_C@_07HNLIELCI@?$DLbinary?$AA@ 0045ab44     libcurl:ldap.obj
 0002:00006b4c       ??_C@_0CA@LPADKPML@There?5are?5more?5than?5?$CFd?5entries?6?$AA@ 0045ab4c     libcurl:ldap.obj
 0002:00006b6c       ??_C@_03OHDNLOHO@one?$AA@  0045ab6c     libcurl:ldap.obj
 0002:00006b70       ??_C@_07ILFEIDOB@onetree?$AA@ 0045ab70     libcurl:ldap.obj
 0002:00006b78       ??_C@_04BHIIPFEC@base?$AA@ 0045ab78     libcurl:ldap.obj
 0002:00006b80       ??_C@_03KCMAIMAP@sub?$AA@  0045ab80     libcurl:ldap.obj
 0002:00006b84       ??_C@_07NIJMFPAJ@subtree?$AA@ 0045ab84     libcurl:ldap.obj
 0002:00006b8c       ??_C@_01IHBHIGKO@?0?$AA@   0045ab8c     libcurl:ldap.obj
 0002:00006b90       ??_C@_0BI@PJGIPNBN@Failed?5writing?5RTP?5data?$AA@ 0045ab90     libcurl:rtsp.obj
 0002:00006ba8       ??_C@_04OLCAMBAB@RTSP?$AA@ 0045aba8     libcurl:rtsp.obj
 0002:00006bb0       ??_C@_0DM@GEFBOCAL@The?5CSeq?5of?5this?5request?5?$CFld?5did@ 0045abb0     libcurl:rtsp.obj
 0002:00006bec       ??_C@_0CH@PLNGLCEI@Got?5an?5RTP?5Receive?5with?5a?5CSeq?5o@ 0045abec     libcurl:rtsp.obj
 0002:00006c18       _Curl_handler_rtsp         0045ac18     libcurl:rtsp.obj
 0002:00006c64       ??_C@_0BJ@IIOCCFNL@Got?5invalid?5RTSP?5request?$AA@ 0045ac64     libcurl:rtsp.obj
 0002:00006c80       ??_C@_07KDKMIPIP@OPTIONS?$AA@ 0045ac80     libcurl:rtsp.obj
 0002:00006c88       ??_C@_08DKNLJHMJ@DESCRIBE?$AA@ 0045ac88     libcurl:rtsp.obj
 0002:00006c94       ??_C@_08HCNIHNDL@ANNOUNCE?$AA@ 0045ac94     libcurl:rtsp.obj
 0002:00006ca0       ??_C@_05MAJHNKMG@SETUP?$AA@ 0045aca0     libcurl:rtsp.obj
 0002:00006ca8       ??_C@_04MKCNCBEG@PLAY?$AA@ 0045aca8     libcurl:rtsp.obj
 0002:00006cb0       ??_C@_05DIAHPDGL@PAUSE?$AA@ 0045acb0     libcurl:rtsp.obj
 0002:00006cb8       ??_C@_08JNACAMMP@TEARDOWN?$AA@ 0045acb8     libcurl:rtsp.obj
 0002:00006cc4       ??_C@_0O@GCENIMNJ@GET_PARAMETER?$AA@ 0045acc4     libcurl:rtsp.obj
 0002:00006cd4       ??_C@_0O@BNFDDPKO@SET_PARAMETER?$AA@ 0045acd4     libcurl:rtsp.obj
 0002:00006ce4       ??_C@_06KOEFFJON@RECORD?$AA@ 0045ace4     libcurl:rtsp.obj
 0002:00006cec       ??_C@_0CH@PJHKLBD@Got?5invalid?5RTSP?5request?3?5RTSPRE@ 0045acec     libcurl:rtsp.obj
 0002:00006d14       ??_C@_0DN@HHEKACHB@Refusing?5to?5issue?5an?5RTSP?5reques@ 0045ad14     libcurl:rtsp.obj
 0002:00006d54       ??_C@_09LOBALFEM@Transport?$AA@ 0045ad54     libcurl:rtsp.obj
 0002:00006d60       ??_C@_0BA@LGEHOCAD@Transport?3?5?$CFs?$AN?6?$AA@ 0045ad60     libcurl:rtsp.obj
 0002:00006d70       ??_C@_0DN@KLGPNCLM@Refusing?5to?5issue?5an?5RTSP?5SETUP?5@ 0045ad70     libcurl:rtsp.obj
 0002:00006db0       ??_C@_0BK@PJBJHPJP@Accept?3?5application?1sdp?$AN?6?$AA@ 0045adb0     libcurl:rtsp.obj
 0002:00006dcc       ??_C@_0M@CDDEOJHP@Range?3?5?$CFs?$AN?6?$AA@ 0045adcc     libcurl:rtsp.obj
 0002:00006dd8       ??_C@_04IHAOMLEL@CSeq?$AA@ 0045add8     libcurl:rtsp.obj
 0002:00006de0       ??_C@_0CH@ONHNBNNP@CSeq?5cannot?5be?5set?5as?5a?5custom?5h@ 0045ade0     libcurl:rtsp.obj
 0002:00006e08       ??_C@_07FFOFCADM@Session?$AA@ 0045ae08     libcurl:rtsp.obj
 0002:00006e10       ??_C@_0CN@HJLGEJGN@Session?5ID?5cannot?5be?5set?5as?5a?5cu@ 0045ae10     libcurl:rtsp.obj
 0002:00006e40       ??_C@_0BM@GGGCCKFL@?$CFs?5?$CFs?5RTSP?11?40?$AN?6CSeq?3?5?$CFld?$AN?6?$AA@ 0045ae40     libcurl:rtsp.obj
 0002:00006e5c       ??_C@_0O@LAIMJOHG@Session?3?5?$CFs?$AN?6?$AA@ 0045ae5c     libcurl:rtsp.obj
 0002:00006e6c       ??_C@_0BB@JAHKEOEL@?$CFs?$CFs?$CFs?$CFs?$CFs?$CFs?$CFs?$CFs?$AA@ 0045ae6c     libcurl:rtsp.obj
 0002:00006e80       ??_C@_0CA@DANBHCCB@Content?9Type?3?5text?1parameters?$AN?6?$AA@ 0045ae80     libcurl:rtsp.obj
 0002:00006ea0       ??_C@_0CA@NAIPKPJL@Content?9Type?3?5application?1sdp?$AN?6?$AA@ 0045aea0     libcurl:rtsp.obj
 0002:00006ec0       ??_C@_0BM@PNHMAKEG@Failed?5sending?5RTSP?5request?$AA@ 0045aec0     libcurl:rtsp.obj
 0002:00006edc       ??_C@_0CD@OOIHJNBP@Got?5an?5error?5writing?5an?5RTP?5pack@ 0045aedc     libcurl:rtsp.obj
 0002:00006f00       ??_C@_0CC@GKOAKHDG@Cannot?5write?5a?50?5size?5RTP?5packet@ 0045af00     libcurl:rtsp.obj
 0002:00006f24       ??_C@_0BB@GCCOHJON@Cannot?5pause?5RTP?$AA@ 0045af24     libcurl:rtsp.obj
 0002:00006f38       ??_C@_05MECAEIKK@CSeq?3?$AA@ 0045af38     libcurl:rtsp.obj
 0002:00006f40       ??_C@_05PNKNJGHI@?3?5?$CFld?$AA@ 0045af40     libcurl:rtsp.obj
 0002:00006f48       ??_C@_0CF@LBAGGOHD@Unable?5to?5read?5the?5CSeq?5header?3?5@ 0045af48     libcurl:rtsp.obj
 0002:00006f70       ??_C@_08KJDEHNO@Session?3?$AA@ 0045af70     libcurl:rtsp.obj
 0002:00006f7c       ??_C@_0BH@GCDEOPPG@Got?5a?5blank?5Session?5ID?$AA@ 0045af7c     libcurl:rtsp.obj
 0002:00006f94       ??_C@_0DC@HDNNNEDB@Got?5RTSP?5Session?5ID?5Line?5?$FL?$CFs?$FN?0?5b@ 0045af94     libcurl:rtsp.obj
 0002:00006fc8       ??_C@_03LNAOLDLL@SMB?$AA@  0045afc8     libcurl:smb.obj
 0002:00006fcc       ??_C@_0P@CNIFBIKC@?$AA?$AM?$AA?$ACNT?5LM?50?412?$AA@ 0045afcc     libcurl:smb.obj
 0002:00006fdc       ??_C@_0O@EMCJKFGJ@i386?9pc?9win32?$AA@ 0045afdc     libcurl:smb.obj
 0002:00006fec       ??_C@_04CFJDMNEE@curl?$AA@ 0045afec     libcurl:smb.obj
 0002:00006ff4       ??_C@_02HDBGODGB@?2?2?$AA@ 0045aff4     libcurl:smb.obj
 0002:00006ff8       ??_C@_01KICIPPFI@?2?$AA@   0045aff8     libcurl:smb.obj
 0002:00006ffc       ??_C@_05EHMBKEBF@?$DP?$DP?$DP?$DP?$DP?$AA@ 0045affc     libcurl:smb.obj
 0002:00007004       ??_C@_0BF@MGOADBKP@Invalid?5input?5packet?$AA@ 0045b004     libcurl:smb.obj
 0002:00007020       _Curl_handler_smb          0045b020     libcurl:smb.obj
 0002:0000706c       ??_C@_04FPGNOCOB@MQTT?$AA@ 0045b06c     libcurl:mqtt.obj
 0002:00007074       ??_C@_0BG@MNJJKFG@Using?5client?5id?5?8?$CFs?8?6?$AA@ 0045b074     libcurl:mqtt.obj
 0002:0000708c       ??_C@_02KJFMPGEN@?$OA?$AA?$AA@ 0045b08c     libcurl:mqtt.obj
 0002:00007090       ??_C@_0CD@NLBEEENO@Expected?5?$CF02x?$CF02x?5but?5got?5?$CF02x?$CF0@ 0045b090     libcurl:mqtt.obj
 0002:000070b4       ??_C@_0BL@DNONOMHF@Error?3?5No?5topic?5specified?4?$AA@ 0045b0b4     libcurl:mqtt.obj
 0002:000070d0       ??_C@_0BA@OEKHBJOJ@Got?5DISCONNECT?6?$AA@ 0045b0d0     libcurl:mqtt.obj
 0002:000070e0       ??_C@_0BN@MGHEPCAC@Remaining?5length?3?5?$CFzd?5bytes?6?$AA@ 0045b0e0     libcurl:mqtt.obj
 0002:00007100       ??_C@_0P@DEFHBOED@EEEE?5AAAAGAIN?6?$AA@ 0045b100     libcurl:mqtt.obj
 0002:00007110       ??_C@_0BF@GACMGODJ@server?5disconnected?6?$AA@ 0045b110     libcurl:mqtt.obj
 0002:00007128       ??_C@_0CD@OJHBBMOE@Error?5?$CFd?5sending?5MQTT?5CONN?5reque@ 0045b128     libcurl:mqtt.obj
 0002:00007150       _Curl_handler_mqtt         0045b150     libcurl:mqtt.obj
 0002:0000719c       ??_C@_0BI@BABCFLCJ@mqtt_doing?3?5state?5?$FL?$CFd?$FN?6?$AA@ 0045b19c     libcurl:mqtt.obj
 0002:000071b4       ??_C@_0BG@OAAPNLCI@State?5not?5handled?5yet?$AA@ 0045b1b4     libcurl:mqtt.obj
 0002:000071f0       ??_C@_02CBLDBPFN@?1?1?$AA@ 0045b1f0     libcurl:urlapi.obj
 0002:000071f4       ??_C@_06JBHEDIOK@?$CF?$CF?$CF02x?$AA@ 0045b1f4     libcurl:urlapi.obj
 0002:000071fc       ??_C@_0CE@LAJONJKD@?$FL?$CF?$CK45?$FL0123456789abcdefABCDEF?3?4?$FN?$CF@ 0045b1fc     libcurl:urlapi.obj
 0002:00007220       ??_C@_0L@JMDPGJCF@?$CF?$CK?$FL?$FO?$FN?$FN?$CFc?$CFn?$AA@ 0045b220     libcurl:urlapi.obj
 0002:0000722c       ??_C@_0BJ@GCDIHJFL@0123456789abcdefABCDEF?3?4?$AA@ 0045b22c     libcurl:urlapi.obj
 0002:00007248       ??_C@_02IFGANFKF@25?$AA@   0045b248     libcurl:urlapi.obj
 0002:0000724c       ??_C@_0L@BMEILEPM@localhost?1?$AA@ 0045b24c     libcurl:urlapi.obj
 0002:00007258       ??_C@_0L@PEIKEDOA@127?40?40?41?1?$AA@ 0045b258     libcurl:urlapi.obj
 0002:00007264       ??_C@_04JEAENMLI@ftp?4?$AA@ 0045b264     libcurl:urlapi.obj
 0002:0000726c       ??_C@_05DIBGJHGB@dict?4?$AA@ 0045b26c     libcurl:urlapi.obj
 0002:00007274       ??_C@_04BCIDKIGN@dict?$AA@ 0045b274     libcurl:urlapi.obj
 0002:0000727c       ??_C@_05IBNFLBOK@ldap?4?$AA@ 0045b27c     libcurl:urlapi.obj
 0002:00007284       ??_C@_04LHHBCKBL@ldap?$AA@ 0045b284     libcurl:urlapi.obj
 0002:0000728c       ??_C@_05NMAIECCI@imap?4?$AA@ 0045b28c     libcurl:urlapi.obj
 0002:00007294       ??_C@_05BJICMEHI@smtp?4?$AA@ 0045b294     libcurl:urlapi.obj
 0002:0000729c       ??_C@_05BIGIEBHI@pop3?4?$AA@ 0045b29c     libcurl:urlapi.obj
 0002:000072a4       ??_C@_04DNAACBI@pop3?$AA@  0045b2a4     libcurl:urlapi.obj
 0002:000072ac       ??_C@_01IPJKGB@?$CD?$AA@   0045b2ac     libcurl:urlapi.obj
 0002:000072b0       ??_C@_0O@IHCFMOPH@file?3?1?1?$CFs?$CFs?$CFs?$AA@ 0045b2b0     libcurl:urlapi.obj
 0002:000072c0       ??_C@_07FIPDGBND@?$CF?$CF25?$CFs?$FN?$AA@ 0045b2c0     libcurl:urlapi.obj
 0002:000072c8       ??_C@_01OGPIMHDM@?$DP?$AA@ 0045b2c8     libcurl:urlapi.obj
 0002:000072cc       ??_C@_01ICJEACDI@?$DL?$AA@ 0045b2cc     libcurl:urlapi.obj
 0002:000072d0       ??_C@_0CE@OBDBGLCL@?$CFs?3?1?1?$CFs?$CFs?$CFs?$CFs?$CFs?$CFs?$CFs?$CFs?$CFs?$CFs?$CFs?$CFs?$CFs?$CF@ 0045b2d0     libcurl:urlapi.obj
 0002:00007378       ??_C@_03ILLHFMNI@?5?7?6?$AA@ 0045b378     libcurl:netrc.obj
 0002:0000737c       ??_C@_07MHDNFCJE@machine?$AA@ 0045b37c     libcurl:netrc.obj
 0002:00007384       ??_C@_05DAOAAINN@login?$AA@ 0045b384     libcurl:netrc.obj
 0002:0000738c       ??_C@_08NLHBPEGP@password?$AA@ 0045b38c     libcurl:netrc.obj
 0002:00007398       ??_C@_04GHGFPGNC@HOME?$AA@ 0045b398     libcurl:netrc.obj
 0002:000073a0       ??_C@_0L@JFCCGFMF@?$CFs?$CFs?4netrc?$AA@ 0045b3a0     libcurl:netrc.obj
 0002:000073ac       ??_C@_0L@NPDNLOFK@?$CFs?$CFs_netrc?$AA@ 0045b3ac     libcurl:netrc.obj
 0002:000073b8       ??_C@_0BF@HLLGBJGK@NTLM?5auth?5restarted?6?$AA@ 0045b3b8     libcurl:http_ntlm.obj
 0002:000073d0       ??_C@_0BJ@HCCPNMOH@NTLM?5handshake?5rejected?6?$AA@ 0045b3d0     libcurl:http_ntlm.obj
 0002:000073ec       ??_C@_0CJ@MLNEPBAC@NTLM?5handshake?5failure?5?$CIinternal@ 0045b3ec     libcurl:http_ntlm.obj
 0002:00007418       ??_C@_0BL@EBFLOACM@?$CFsAuthorization?3?5NTLM?5?$CFs?$AN?6?$AA@ 0045b418     libcurl:http_ntlm.obj
 0002:00007434       ??_C@_08INEPGKHH@No?5error?$AA@ 0045b434     libcurl:strerror.obj
 0002:00007440       ??_C@_0BF@MEALNKLO@Unsupported?5protocol?$AA@ 0045b440     libcurl:strerror.obj
 0002:00007458       ??_C@_0BG@JPNCGCLF@Failed?5initialization?$AA@ 0045b458     libcurl:strerror.obj
 0002:00007470       ??_C@_0CM@JDMFNFNN@URL?5using?5bad?1illegal?5format?5or?5@ 0045b470     libcurl:strerror.obj
 0002:000074a0       ??_C@_0GN@KLBPDHPC@A?5requested?5feature?0?5protocol?5or@ 0045b4a0     libcurl:strerror.obj
 0002:00007510       ??_C@_0BM@JKHJDDPC@Couldn?8t?5resolve?5proxy?5name?$AA@ 0045b510     libcurl:strerror.obj
 0002:0000752c       ??_C@_0BL@CLPICHFB@Couldn?8t?5resolve?5host?5name?$AA@ 0045b52c     libcurl:strerror.obj
 0002:00007548       ??_C@_0BL@BDHAOFN@Couldn?8t?5connect?5to?5server?$AA@ 0045b548     libcurl:strerror.obj
 0002:00007564       ??_C@_0BD@GDNMKEAK@Weird?5server?5reply?$AA@ 0045b564     libcurl:strerror.obj
 0002:00007578       ??_C@_0CB@NKJGLEPP@Access?5denied?5to?5remote?5resource@ 0045b578     libcurl:strerror.obj
 0002:0000759c       ??_C@_0CP@GDKINGFF@FTP?3?5The?5server?5failed?5to?5connec@ 0045b59c     libcurl:strerror.obj
 0002:000075cc       ??_C@_0CM@JHMKLKFK@FTP?3?5Accepting?5server?5connect?5ha@ 0045b5cc     libcurl:strerror.obj
 0002:000075f8       ??_C@_0DB@DKHIAOH@FTP?3?5The?5server?5did?5not?5accept?5t@ 0045b5f8     libcurl:strerror.obj
 0002:0000762c       ??_C@_0BI@CNGAPMMH@FTP?3?5unknown?5PASS?5reply?$AA@ 0045b62c     libcurl:strerror.obj
 0002:00007644       ??_C@_0BI@GFIAPCKD@FTP?3?5unknown?5PASV?5reply?$AA@ 0045b644     libcurl:strerror.obj
 0002:0000765c       ??_C@_0CB@PEGAMKPE@FTP?3?5unknown?5227?5response?5format@ 0045b65c     libcurl:strerror.obj
 0002:00007680       ??_C@_0DE@KGBALKDA@FTP?3?5can?8t?5figure?5out?5the?5host?5i@ 0045b680     libcurl:strerror.obj
 0002:000076b4       ??_C@_0CB@HOOHONND@Error?5in?5the?5HTTP2?5framing?5layer@ 0045b6b4     libcurl:strerror.obj
 0002:000076d8       ??_C@_0BM@OGPMHHJ@FTP?3?5couldn?8t?5set?5file?5type?$AA@ 0045b6d8     libcurl:strerror.obj
 0002:000076f4       ??_C@_0BL@ODNPPPLA@Transferred?5a?5partial?5file?$AA@ 0045b6f4     libcurl:strerror.obj
 0002:00007710       ??_C@_0DI@LLJCFNFF@FTP?3?5couldn?8t?5retrieve?5?$CIRETR?5fai@ 0045b710     libcurl:strerror.obj
 0002:00007748       ??_C@_0BN@GGHOIADB@Quote?5command?5returned?5error?$AA@ 0045b748     libcurl:strerror.obj
 0002:00007768       ??_C@_0BO@BCKEJEKM@HTTP?5response?5code?5said?5error?$AA@ 0045b768     libcurl:strerror.obj
 0002:00007788       ??_C@_0DB@IMNDCIAA@Failed?5writing?5received?5data?5to?5@ 0045b788     libcurl:strerror.obj
 0002:000077bc       ??_C@_0CM@GACCEIFL@Upload?5failed?5?$CIat?5start?1before?5i@ 0045b7bc     libcurl:strerror.obj
 0002:000077e8       ??_C@_0DF@NBDLHGLH@Failed?5to?5open?1read?5local?5data?5f@ 0045b7e8     libcurl:strerror.obj
 0002:00007820       ??_C@_0O@NALGGDJF@Out?5of?5memory?$AA@ 0045b820     libcurl:strerror.obj
 0002:00007830       ??_C@_0BE@EKAJAHAD@Timeout?5was?5reached?$AA@ 0045b830     libcurl:strerror.obj
 0002:00007844       ??_C@_0BJ@IDOBBECI@FTP?3?5command?5PORT?5failed?$AA@ 0045b844     libcurl:strerror.obj
 0002:00007860       ??_C@_0BJ@GCLHLJAN@FTP?3?5command?5REST?5failed?$AA@ 0045b860     libcurl:strerror.obj
 0002:0000787c       ??_C@_0DA@JICMAFCG@Requested?5range?5was?5not?5delivere@ 0045b87c     libcurl:strerror.obj
 0002:000078ac       ??_C@_0CF@HBEMJAO@Internal?5problem?5setting?5up?5the?5@ 0045b8ac     libcurl:strerror.obj
 0002:000078d4       ??_C@_0BC@BFLONMCD@SSL?5connect?5error?$AA@ 0045b8d4     libcurl:strerror.obj
 0002:000078e8       ??_C@_0BJ@PKKEKELC@Couldn?8t?5resume?5download?$AA@ 0045b8e8     libcurl:strerror.obj
 0002:00007904       ??_C@_0BN@LDKECGHJ@Couldn?8t?5read?5a?5file?3?1?1?5file?$AA@ 0045b904     libcurl:strerror.obj
 0002:00007924       ??_C@_0BC@LBJDCDKB@LDAP?3?5cannot?5bind?$AA@ 0045b924     libcurl:strerror.obj
 0002:00007938       ??_C@_0BE@BFMFHGMM@LDAP?3?5search?5failed?$AA@ 0045b938     libcurl:strerror.obj
 0002:0000794c       ??_C@_0DB@KKNDLNIK@A?5required?5function?5in?5the?5libra@ 0045b94c     libcurl:strerror.obj
 0002:00007980       ??_C@_0DB@KJJLMJOB@Operation?5was?5aborted?5by?5an?5appl@ 0045b980     libcurl:strerror.obj
 0002:000079b4       ??_C@_0CM@GEPFAHDP@A?5libcurl?5function?5was?5given?5a?5b@ 0045b9b4     libcurl:strerror.obj
 0002:000079e0       ??_C@_0CE@NLIKOML@Failed?5binding?5local?5connection?5@ 0045b9e0     libcurl:strerror.obj
 0002:00007a04       ??_C@_0CH@DFMKCAJO@Number?5of?5redirects?5hit?5maximum?5@ 0045ba04     libcurl:strerror.obj
 0002:00007a2c       ??_C@_0CL@GBAGOIGJ@An?5unknown?5option?5was?5passed?5in?5@ 0045ba2c     libcurl:strerror.obj
 0002:00007a58       ??_C@_0BI@GPIPAJAH@Malformed?5telnet?5option?$AA@ 0045ba58     libcurl:strerror.obj
 0002:00007a70       ??_C@_0CO@JJKEOCN@Server?5returned?5nothing?5?$CIno?5head@ 0045ba70     libcurl:strerror.obj
 0002:00007aa0       ??_C@_0BM@GLLPPMBF@SSL?5crypto?5engine?5not?5found?$AA@ 0045baa0     libcurl:strerror.obj
 0002:00007abc       ??_C@_0CJ@HENCHBOB@Can?5not?5set?5SSL?5crypto?5engine?5as@ 0045babc     libcurl:strerror.obj
 0002:00007ae8       ??_C@_0CH@DINFHAAN@Failed?5to?5initialise?5SSL?5crypto?5@ 0045bae8     libcurl:strerror.obj
 0002:00007b10       ??_C@_0CA@CBOACNIE@Failed?5sending?5data?5to?5the?5peer?$AA@ 0045bb10     libcurl:strerror.obj
 0002:00007b30       ??_C@_0CK@JABNOBEN@Failure?5when?5receiving?5data?5from@ 0045bb30     libcurl:strerror.obj
 0002:00007b5c       ??_C@_0CH@IGBGAMEJ@Problem?5with?5the?5local?5SSL?5certi@ 0045bb5c     libcurl:strerror.obj
 0002:00007b84       ??_C@_0CC@IOEMABMM@Couldn?8t?5use?5specified?5SSL?5ciphe@ 0045bb84     libcurl:strerror.obj
 0002:00007ba8       ??_C@_0DC@MAPCLGNF@SSL?5peer?5certificate?5or?5SSH?5remo@ 0045bba8     libcurl:strerror.obj
 0002:00007bdc       ??_C@_0DE@DEFDNJHO@Problem?5with?5the?5SSL?5CA?5cert?5?$CIpa@ 0045bbdc     libcurl:strerror.obj
 0002:00007c10       ??_C@_0DG@BCBHMDOA@Unrecognized?5or?5bad?5HTTP?5Content@ 0045bc10     libcurl:strerror.obj
 0002:00007c48       ??_C@_0BB@NNNAEHGN@Invalid?5LDAP?5URL?$AA@ 0045bc48     libcurl:strerror.obj
 0002:00007c5c       ??_C@_0BL@CJHAPGCI@Requested?5SSL?5level?5failed?$AA@ 0045bc5c     libcurl:strerror.obj
 0002:00007c78       ??_C@_0CH@HOHNDJFI@Failed?5to?5shut?5down?5the?5SSL?5conn@ 0045bc78     libcurl:strerror.obj
 0002:00007ca0       ??_C@_0DI@OEDDMGMA@Failed?5to?5load?5CRL?5file?5?$CIpath?$DP?5a@ 0045bca0     libcurl:strerror.obj
 0002:00007cd8       ??_C@_0CN@PNDCIOI@Issuer?5check?5against?5peer?5certif@ 0045bcd8     libcurl:strerror.obj
 0002:00007d08       ??_C@_0DG@HNNLFELE@Send?5failed?5since?5rewinding?5of?5t@ 0045bd08     libcurl:strerror.obj
 0002:00007d40       ??_C@_0N@LMNBNGOH@Login?5denied?$AA@ 0045bd40     libcurl:strerror.obj
 0002:00007d50       ??_C@_0BF@MMMLEDNM@TFTP?3?5File?5Not?5Found?$AA@ 0045bd50     libcurl:strerror.obj
 0002:00007d68       ??_C@_0BH@CPEHAKGC@TFTP?3?5Access?5Violation?$AA@ 0045bd68     libcurl:strerror.obj
 0002:00007d80       ??_C@_0CB@HICDEKOD@Disk?5full?5or?5allocation?5exceeded@ 0045bd80     libcurl:strerror.obj
 0002:00007da4       ??_C@_0BI@FHLDKMPM@TFTP?3?5Illegal?5operation?$AA@ 0045bda4     libcurl:strerror.obj
 0002:00007dbc       ??_C@_0BK@FHGNFCEK@TFTP?3?5Unknown?5transfer?5ID?$AA@ 0045bdbc     libcurl:strerror.obj
 0002:00007dd8       ??_C@_0BL@LCPLBBDI@Remote?5file?5already?5exists?$AA@ 0045bdd8     libcurl:strerror.obj
 0002:00007df4       ??_C@_0BD@HHOJBMKC@TFTP?3?5No?5such?5user?$AA@ 0045bdf4     libcurl:strerror.obj
 0002:00007e08       ??_C@_0BC@CGNMGHHJ@Conversion?5failed?$AA@ 0045be08     libcurl:strerror.obj
 0002:00007e1c       ??_C@_0DE@HIBGAHH@Caller?5must?5register?5CURLOPT_CON@ 0045be1c     libcurl:strerror.obj
 0002:00007e50       ??_C@_0BG@IGAJKGEI@Remote?5file?5not?5found?$AA@ 0045be50     libcurl:strerror.obj
 0002:00007e68       ??_C@_0BH@LIBGKEPA@Error?5in?5the?5SSH?5layer?$AA@ 0045be68     libcurl:strerror.obj
 0002:00007e80       ??_C@_0BP@PKAGPAKC@Socket?5not?5ready?5for?5send?1recv?$AA@ 0045be80     libcurl:strerror.obj
 0002:00007ea0       ??_C@_0CD@KOGOJFPD@RTSP?5CSeq?5mismatch?5or?5invalid?5CS@ 0045bea0     libcurl:strerror.obj
 0002:00007ec4       ??_C@_0BD@JIDDONAN@RTSP?5session?5error?$AA@ 0045bec4     libcurl:strerror.obj
 0002:00007ed8       ??_C@_0BO@DHDGALJN@Unable?5to?5parse?5FTP?5file?5list?$AA@ 0045bed8     libcurl:strerror.obj
 0002:00007ef8       ??_C@_0BG@NNCCNDKN@Chunk?5callback?5failed?$AA@ 0045bef8     libcurl:strerror.obj
 0002:00007f10       ??_C@_0CE@LHGEKMEA@The?5max?5connection?5limit?5is?5reac@ 0045bf10     libcurl:strerror.obj
 0002:00007f34       ??_C@_0DA@PMPKPBFL@SSL?5public?5key?5does?5not?5match?5pi@ 0045bf34     libcurl:strerror.obj
 0002:00007f64       ??_C@_0DC@PMBIKFPE@SSL?5server?5certificate?5status?5ve@ 0045bf64     libcurl:strerror.obj
 0002:00007f98       ??_C@_0CJ@PHNFPMLB@Stream?5error?5in?5the?5HTTP?12?5frami@ 0045bf98     libcurl:strerror.obj
 0002:00007fc4       ??_C@_0CJ@IFPPFNBC@API?5function?5called?5from?5within?5@ 0045bfc4     libcurl:strerror.obj
 0002:00007ff0       ??_C@_0CN@PKGNGNMF@An?5authentication?5function?5retur@ 0045bff0     libcurl:strerror.obj
 0002:00008020       ??_C@_0N@IECDEAGO@HTTP?13?5error?$AA@ 0045c020     libcurl:strerror.obj
 0002:00008030       ??_C@_0BG@PCGCKLBM@QUIC?5connection?5error?$AA@ 0045c030     libcurl:strerror.obj
 0002:00008048       ??_C@_0BG@DPKHLLKF@proxy?5handshake?5error?$AA@ 0045c048     libcurl:strerror.obj
 0002:00008060       ??_C@_0O@NIPGCINC@Unknown?5error?$AA@ 0045c060     libcurl:strerror.obj
 0002:00008070       ??_C@_0BB@HPBICEIN@Call?5interrupted?$AA@ 0045c070     libcurl:strerror.obj
 0002:00008084       ??_C@_08IEJNJKPH@Bad?5file?$AA@ 0045c084     libcurl:strerror.obj
 0002:00008090       ??_C@_0L@PPOOPPLI@Bad?5access?$AA@ 0045c090     libcurl:strerror.obj
 0002:0000809c       ??_C@_0N@OFCOFIJG@Bad?5argument?$AA@ 0045c09c     libcurl:strerror.obj
 0002:000080ac       ??_C@_0BC@PALKPJEA@Invalid?5arguments?$AA@ 0045c0ac     libcurl:strerror.obj
 0002:000080c0       ??_C@_0BI@OFCJJGOL@Out?5of?5file?5descriptors?$AA@ 0045c0c0     libcurl:strerror.obj
 0002:000080d8       ??_C@_0BB@KJIOCALL@Call?5would?5block?$AA@ 0045c0d8     libcurl:strerror.obj
 0002:000080ec       ??_C@_0BK@LAFJNHKK@Blocking?5call?5in?5progress?$AA@ 0045c0ec     libcurl:strerror.obj
 0002:00008108       ??_C@_0BL@BCCPNPNK@Descriptor?5is?5not?5a?5socket?$AA@ 0045c108     libcurl:strerror.obj
 0002:00008124       ??_C@_0BJ@PJJDHGPA@Need?5destination?5address?$AA@ 0045c124     libcurl:strerror.obj
 0002:00008140       ??_C@_0BB@FIFBBOKN@Bad?5message?5size?$AA@ 0045c140     libcurl:strerror.obj
 0002:00008154       ??_C@_0N@HKFEGNLE@Bad?5protocol?$AA@ 0045c154     libcurl:strerror.obj
 0002:00008164       ??_C@_0BP@CMLHIFII@Protocol?5option?5is?5unsupported?$AA@ 0045c164     libcurl:strerror.obj
 0002:00008184       ??_C@_0BI@KIGPDANH@Protocol?5is?5unsupported?$AA@ 0045c184     libcurl:strerror.obj
 0002:0000819c       ??_C@_0BG@PJCKEJGL@Socket?5is?5unsupported?$AA@ 0045c19c     libcurl:strerror.obj
 0002:000081b4       ??_C@_0BI@EDJAHLMH@Operation?5not?5supported?$AA@ 0045c1b4     libcurl:strerror.obj
 0002:000081cc       ??_C@_0BN@GMEBDOHK@Address?5family?5not?5supported?$AA@ 0045c1cc     libcurl:strerror.obj
 0002:000081ec       ??_C@_0BO@EBCCBLCJ@Protocol?5family?5not?5supported?$AA@ 0045c1ec     libcurl:strerror.obj
 0002:0000820c       ??_C@_0BH@LOKACPE@Address?5already?5in?5use?$AA@ 0045c20c     libcurl:strerror.obj
 0002:00008224       ??_C@_0BG@LPGNEDFC@Address?5not?5available?$AA@ 0045c224     libcurl:strerror.obj
 0002:0000823c       ??_C@_0N@BLPKELHL@Network?5down?$AA@ 0045c23c     libcurl:strerror.obj
 0002:0000824c       ??_C@_0BE@BCKBHKGP@Network?5unreachable?$AA@ 0045c24c     libcurl:strerror.obj
 0002:00008260       ??_C@_0BH@IGDKJAJA@Network?5has?5been?5reset?$AA@ 0045c260     libcurl:strerror.obj
 0002:00008278       ??_C@_0BH@CAGNAMLD@Connection?5was?5aborted?$AA@ 0045c278     libcurl:strerror.obj
 0002:00008290       ??_C@_0BF@ONIPBLIH@Connection?5was?5reset?$AA@ 0045c290     libcurl:strerror.obj
 0002:000082a8       ??_C@_0BA@OCGNHFCH@No?5buffer?5space?$AA@ 0045c2a8     libcurl:strerror.obj
 0002:000082b8       ??_C@_0BM@CCONNCKE@Socket?5is?5already?5connected?$AA@ 0045c2b8     libcurl:strerror.obj
 0002:000082d4       ??_C@_0BI@ILAOGBJJ@Socket?5is?5not?5connected?$AA@ 0045c2d4     libcurl:strerror.obj
 0002:000082ec       ??_C@_0BK@KFOKKGHA@Socket?5has?5been?5shut?5down?$AA@ 0045c2ec     libcurl:strerror.obj
 0002:00008308       ??_C@_0BE@JFIGGPOD@Too?5many?5references?$AA@ 0045c308     libcurl:strerror.obj
 0002:0000831c       ??_C@_09OGKCMDDI@Timed?5out?$AA@ 0045c31c     libcurl:strerror.obj
 0002:00008328       ??_C@_0BD@NPDMPPFP@Connection?5refused?$AA@ 0045c328     libcurl:strerror.obj
 0002:0000833c       ??_C@_06BPCOEKJC@Loop?$DP?$DP?$AA@ 0045c33c     libcurl:strerror.obj
 0002:00008344       ??_C@_0O@CGIEAMHJ@Name?5too?5long?$AA@ 0045c344     libcurl:strerror.obj
 0002:00008354       ??_C@_09IKKBPHPB@Host?5down?$AA@ 0045c354     libcurl:strerror.obj
 0002:00008360       ??_C@_0BB@BJPAGEMG@Host?5unreachable?$AA@ 0045c360     libcurl:strerror.obj
 0002:00008374       ??_C@_09HNKMHKD@Not?5empty?$AA@ 0045c374     libcurl:strerror.obj
 0002:00008380       ??_C@_0BG@HNPEDFFM@Process?5limit?5reached?$AA@ 0045c380     libcurl:strerror.obj
 0002:00008398       ??_C@_0P@DAFGFIDC@Too?5many?5users?$AA@ 0045c398     libcurl:strerror.obj
 0002:000083a8       ??_C@_09OLCJIOMK@Bad?5quota?$AA@ 0045c3a8     libcurl:strerror.obj
 0002:000083b4       ??_C@_0BD@OAJEPCAF@Something?5is?5stale?$AA@ 0045c3b4     libcurl:strerror.obj
 0002:000083c8       ??_C@_0N@CMGGHDDP@Remote?5error?$AA@ 0045c3c8     libcurl:strerror.obj
 0002:000083d8       ??_C@_0N@NFBNFHML@Disconnected?$AA@ 0045c3d8     libcurl:strerror.obj
 0002:000083e8       ??_C@_0BN@NBHIJNDO@Winsock?5library?5is?5not?5ready?$AA@ 0045c3e8     libcurl:strerror.obj
 0002:00008408       ??_C@_0CA@GOKMBGKE@Winsock?5library?5not?5initialised?$AA@ 0045c408     libcurl:strerror.obj
 0002:00008428       ??_C@_0BO@CMBHKIGC@Winsock?5version?5not?5supported?$AA@ 0045c428     libcurl:strerror.obj
 0002:00008448       ??_C@_0P@CAFMJNJH@Host?5not?5found?$AA@ 0045c448     libcurl:strerror.obj
 0002:00008458       ??_C@_0BK@LIMDACMA@Host?5not?5found?0?5try?5again?$AA@ 0045c458     libcurl:strerror.obj
 0002:00008474       ??_C@_0CK@PHGIEDKM@Unrecoverable?5error?5in?5call?5to?5n@ 0045c474     libcurl:strerror.obj
 0002:000084a0       ??_C@_0CB@PAPDILAI@No?5data?5record?5of?5requested?5type@ 0045c4a0     libcurl:strerror.obj
 0002:000084c4       ??_C@_0BH@LLHLFDOA@Unknown?5error?5?$CFd?5?$CI?$CF?$CDx?$CJ?$AA@ 0045c4c4     libcurl:strerror.obj
 0002:000084dc       ??_C@_0M@PCENNPGA@?$CFd?4?$CFd?4?$CFd?4?$CFd?$AA@ 0045c4dc     libcurl:inet_ntop.obj
 0002:000084e8       ??_C@_03OPHMLOFF@?$CFlx?$AA@ 0045c4e8     libcurl:inet_ntop.obj
 0002:000084ec       ??_C@_04DPLCCHJC@auth?$AA@ 0045c4ec     libcurl:digest.obj
 0002:000084f4       ??_C@_08DMLLJBKJ@auth?9int?$AA@ 0045c4f4     libcurl:digest.obj
 0002:00008500       ??_C@_09HPCMDFJO@auth?9conf?$AA@ 0045c500     libcurl:digest.obj
 0002:0000850c       ??_C@_07EJNHPKHG@nonce?$DN?$CC?$AA@ 0045c50c     libcurl:digest.obj
 0002:00008514       ??_C@_07HAABIMLH@realm?$DN?$CC?$AA@ 0045c514     libcurl:digest.obj
 0002:0000851c       ??_C@_0L@HDBLKLNB@algorithm?$DN?$AA@ 0045c51c     libcurl:digest.obj
 0002:00008528       ??_C@_05HFBPPANL@qop?$DN?$CC?$AA@ 0045c528     libcurl:digest.obj
 0002:00008530       ??_C@_08KNCPHIAE@00000001?$AA@ 0045c530     libcurl:digest.obj
 0002:0000853c       ??_C@_0N@PMNNBFMH@AUTHENTICATE?$AA@ 0045c53c     libcurl:digest.obj
 0002:0000854c       ??_C@_08EBDNNOOM@md5?9sess?$AA@ 0045c54c     libcurl:digest.obj
 0002:00008558       ??_C@_0FL@LNDBMOBB@username?$DN?$CC?$CFs?$CC?0realm?$DN?$CC?$CFs?$CC?0nonce?$DN?$CC@ 0045c558     libcurl:digest.obj
 0002:000085b4       ??_C@_05OOEDLKEB@nonce?$AA@ 0045c5b4     libcurl:digest.obj
 0002:000085bc       ??_C@_05BFAEFKPM@stale?$AA@ 0045c5bc     libcurl:digest.obj
 0002:000085c4       ??_C@_04LOAJBDKD@true?$AA@ 0045c5c4     libcurl:digest.obj
 0002:000085cc       ??_C@_05ELABLNGD@realm?$AA@ 0045c5cc     libcurl:digest.obj
 0002:000085d4       ??_C@_06CJCOLNBB@opaque?$AA@ 0045c5d4     libcurl:digest.obj
 0002:000085dc       ??_C@_03GBIMBCPB@qop?$AA@  0045c5dc     libcurl:digest.obj
 0002:000085e0       ??_C@_09JPNFBOJG@algorithm?$AA@ 0045c5e0     libcurl:digest.obj
 0002:000085ec       ??_C@_08DKLKDOBJ@MD5?9sess?$AA@ 0045c5ec     libcurl:digest.obj
 0002:000085f8       ??_C@_03GCGHEHKJ@MD5?$AA@  0045c5f8     libcurl:digest.obj
 0002:000085fc       ??_C@_07DKFLFLPF@SHA?9256?$AA@ 0045c5fc     libcurl:digest.obj
 0002:00008604       ??_C@_0N@EOLPNNCE@SHA?9256?9SESS?$AA@ 0045c604     libcurl:digest.obj
 0002:00008614       ??_C@_0M@ODMGHIGE@SHA?9512?9256?$AA@ 0045c614     libcurl:digest.obj
 0002:00008620       ??_C@_0BB@LFGPIGKB@SHA?9512?9256?9SESS?$AA@ 0045c620     libcurl:digest.obj
 0002:00008634       ??_C@_08MPDCKPHM@userhash?$AA@ 0045c634     libcurl:digest.obj
 0002:00008640       ??_C@_08LDENPILD@?$CFs?3?$CFs?3?$CFs?$AA@ 0045c640     libcurl:digest.obj
 0002:0000864c       ??_C@_0BE@DBLPOOMB@?$CFs?3?$CFs?3?$CF08x?3?$CFs?3?$CFs?3?$CFs?$AA@ 0045c64c     libcurl:digest.obj
 0002:00008660       ??_C@_0FN@LPOMOJKE@username?$DN?$CC?$CFs?$CC?0?5realm?$DN?$CC?$CFs?$CC?0?5nonce@ 0045c660     libcurl:digest.obj
 0002:000086c0       ??_C@_0DP@IEBMKLAD@username?$DN?$CC?$CFs?$CC?0?5realm?$DN?$CC?$CFs?$CC?0?5nonce@ 0045c6c0     libcurl:digest.obj
 0002:00008700       ??_C@_0BA@BIMHECMC@?$CFs?0?5opaque?$DN?$CC?$CFs?$CC?$AA@ 0045c700     libcurl:digest.obj
 0002:00008710       ??_C@_0BB@JNPNCBL@?$CFs?0?5algorithm?$DN?$CFs?$AA@ 0045c710     libcurl:digest.obj
 0002:00008724       ??_C@_0BC@HNHNJNFB@?$CFs?0?5userhash?$DNtrue?$AA@ 0045c724     libcurl:digest.obj
 0002:00008738       ??_C@_0BM@ILAEFAML@Too?5long?5hexadecimal?5number?$AA@ 0045c738     libcurl:http_chunks.obj
 0002:00008754       ??_C@_0CI@EPIPCBEA@Illegal?5or?5missing?5hexadecimal?5s@ 0045c754     libcurl:http_chunks.obj
 0002:0000877c       ??_C@_0BJ@JKKKEMNN@Malformed?5encoding?5found?$AA@ 0045c77c     libcurl:http_chunks.obj
 0002:00008798       ??_C@_0BL@NBOBMEI@Bad?5content?9encoding?5found?$AA@ 0045c798     libcurl:http_chunks.obj
 0002:000087ec       ??_C@_09JLCBMBBK@Bad?5label?$AA@ 0045c7ec     libcurl:doh.obj
 0002:000087f8       ??_C@_0N@OBIJMHDD@Out?5of?5range?$AA@ 0045c7f8     libcurl:doh.obj
 0002:00008808       ??_C@_0L@IEBIAGNN@Label?5loop?$AA@ 0045c808     libcurl:doh.obj
 0002:00008814       ??_C@_09OCNDOFP@Too?5small?$AA@ 0045c814     libcurl:doh.obj
 0002:00008820       ??_C@_0N@FHJOLNAK@RDATA?5length?$AA@ 0045c820     libcurl:doh.obj
 0002:00008830       ??_C@_09OCLBHOEO@Malformat?$AA@ 0045c830     libcurl:doh.obj
 0002:0000883c       ??_C@_09DBMBBPHM@Bad?5RCODE?$AA@ 0045c83c     libcurl:doh.obj
 0002:00008848       ??_C@_0BA@OKMFLAL@Unexpected?5TYPE?$AA@ 0045c848     libcurl:doh.obj
 0002:00008858       ??_C@_0BB@EAJHLOKN@Unexpected?5CLASS?$AA@ 0045c858     libcurl:doh.obj
 0002:0000886c       ??_C@_0L@KKIPEPDM@No?5content?$AA@ 0045c86c     libcurl:doh.obj
 0002:00008878       ??_C@_06FFHBNKND@Bad?5ID?$AA@ 0045c878     libcurl:doh.obj
 0002:00008880       ??_C@_0P@JHEEOJHM@bad?5error?5code?$AA@ 0045c880     libcurl:doh.obj
 0002:00008890       ??_C@_0CG@CKDPOMBN@a?5DOH?5request?5is?5completed?0?5?$CFu?5t@ 0045c890     libcurl:doh.obj
 0002:000088b8       ??_C@_0BA@NDOGDMBN@DOH?5request?5?$CFs?6?$AA@ 0045c8b8     libcurl:doh.obj
 0002:000088c8       ??_C@_0CB@KOMHFCDO@Failed?5to?5encode?5DOH?5packet?5?$FL?$CFd?$FN@ 0045c8c8     libcurl:doh.obj
 0002:000088ec       ??_C@_09OLGCPDFN@?$CFs?$DPdns?$DN?$CFs?$AA@ 0045c8ec     libcurl:doh.obj
 0002:000088f8       ??_C@_0CG@KIGAOFHM@Content?9Type?3?5application?1dns?9me@ 0045c8f8     libcurl:doh.obj
 0002:00008920       ??_C@_0BB@DKILCKOO@TTL?3?5?$CFu?5seconds?6?$AA@ 0045c920     libcurl:doh.obj
 0002:00008934       ??_C@_0BE@FOEBOIJB@DOH?5A?3?5?$CFu?4?$CFu?4?$CFu?4?$CFu?6?$AA@ 0045c934     libcurl:doh.obj
 0002:00008948       ??_C@_0L@NNFPBGFL@DOH?5AAAA?3?5?$AA@ 0045c948     libcurl:doh.obj
 0002:00008954       ??_C@_0L@NCOIGGIO@?$CFs?$CF02x?$CF02x?$AA@ 0045c954     libcurl:doh.obj
 0002:00008960       ??_C@_0L@GJHHPGAI@CNAME?3?5?$CFs?6?$AA@ 0045c960     libcurl:doh.obj
 0002:0000896c       ??_C@_01FHEEJDEE@A?$AA@    0045c96c     libcurl:doh.obj
 0002:00008970       ??_C@_04OHNMNPPA@AAAA?$AA@ 0045c970     libcurl:doh.obj
 0002:00008978       ??_C@_0BK@IFADNFO@Could?5not?5DOH?9resolve?3?5?$CFs?$AA@ 0045c978     libcurl:doh.obj
 0002:00008994       ??_C@_0BI@CENMKCHB@DOH?3?5?$CFs?5type?5?$CFs?5for?5?$CFs?6?$AA@ 0045c994     libcurl:doh.obj
 0002:000089ac       ??_C@_0BD@FBBLOGDK@DOH?5Host?5name?3?5?$CFs?6?$AA@ 0045c9ac     libcurl:doh.obj
 0002:00008a4c       ??_C@_06BHJPINKK@?$CFc?$CFc?$DN?$DN?$AA@ 0045ca4c     libcurl:base64.obj
 0002:00008a54       ??_C@_07KPHDOBAP@?$CFc?$CFc?$CFc?$DN?$AA@ 0045ca54     libcurl:base64.obj
 0002:00008a60       ??_C@_0GC@KMDLLNFG@NTLM?5handshake?5failure?5?$CIbad?5type@ 0045ca60     libcurl:ntlm.obj
 0002:00008ac4       ??_C@_0CP@KIFOOILK@NTLM?5handshake?5failure?5?$CIempty?5ty@ 0045cac4     libcurl:ntlm.obj
 0002:00008af4       ??_C@_0CN@NILNEGOG@NTLM?5handshake?5failure?5?$CIbad?5type@ 0045caf4     libcurl:ntlm.obj
 0002:00008b24       ??_C@_0DN@EOPIHEDC@NTLMSSP?$CFc?$AB?$CFc?$CFc?$CFc?$CFc?$CFc?$CFc?$CFc?$CFc?$CFc?$CFc?$CFc@ 0045cb24     libcurl:ntlm.obj
 0002:00008b64       ??_C@_0CL@BCOKKCBO@gethostname?$CI?$CJ?5failed?0?5continuing@ 0045cb64     libcurl:ntlm.obj
 0002:00008b90       ??_C@_0HJ@CLKEMMBI@NTLMSSP?$CFc?$AD?$CFc?$CFc?$CFc?$CFc?$CFc?$CFc?$CFc?$CFc?$CFc?$CFc?$CFc@ 0045cb90     libcurl:ntlm.obj
 0002:00008c0c       ??_C@_0BO@JAAKONFE@incoming?5NTLM?5message?5too?5big?$AA@ 0045cc0c     libcurl:ntlm.obj
 0002:00008c2c       ??_C@_0CC@OKCALBLA@user?5?$CL?5domain?5?$CL?5host?5name?5too?5bi@ 0045cc2c     libcurl:ntlm.obj
 0002:00008c50       ??_C@_07NPDBOIDH@aws?3amz?$AA@ 0045cc50     libcurl:http_aws_sigv4.obj
 0002:00008c58       ??_C@_0BP@KLOELJLG@first?5provider?5can?8t?5be?5empty?6?$AA@ 0045cc58     libcurl:http_aws_sigv4.obj
 0002:00008c78       ??_C@_0CA@EAHCMJLP@second?5provider?5can?8t?5be?5empty?6?$AA@ 0045cc78     libcurl:http_aws_sigv4.obj
 0002:00008c98       ??_C@_0BH@GCAPKOHK@region?5can?8t?5be?5empty?6?$AA@ 0045cc98     libcurl:http_aws_sigv4.obj
 0002:00008cb0       ??_C@_0BI@DONEAKFM@service?5can?8t?5be?5empty?6?$AA@ 0045ccb0     libcurl:http_aws_sigv4.obj
 0002:00008cc8       ??_C@_0CL@KGLCCDEP@service?5missing?5in?5parameters?5or@ 0045ccc8     libcurl:http_aws_sigv4.obj
 0002:00008cf4       ??_C@_0CK@MPAFOPCI@region?5missing?5in?5parameters?5or?5@ 0045ccf4     libcurl:http_aws_sigv4.obj
 0002:00008d20       ??_C@_0P@IKNEGPFP@?$CFY?$CFm?$CFdT?$CFH?$CFM?$CFSZ?$AA@ 0045cd20     libcurl:http_aws_sigv4.obj
 0002:00008d30       ??_C@_0CG@LGOKAMLB@content?9type?3?$CFs?6host?3?$CFs?6x?9?$CFs?9dat@ 0045cd30     libcurl:http_aws_sigv4.obj
 0002:00008d58       ??_C@_0BM@KIONJGIN@content?9type?$DLhost?$DLx?9?$CFs?9date?$AA@ 0045cd58     libcurl:http_aws_sigv4.obj
 0002:00008d74       ??_C@_0BG@KFBJEMGA@host?3?$CFs?6x?9?$CFs?9date?3?$CFs?6?$AA@ 0045cd74     libcurl:http_aws_sigv4.obj
 0002:00008d8c       ??_C@_0P@LBLFCGEL@host?$DLx?9?$CFs?9date?$AA@ 0045cd8c     libcurl:http_aws_sigv4.obj
 0002:00008d9c       ??_C@_0BC@PHFFPANB@?$CFs?6?$CFs?6?$CFs?6?$CFs?6?$CFs?6?$CFs?$AA@ 0045cd9c     libcurl:http_aws_sigv4.obj
 0002:00008db0       ??_C@_0M@HICACENB@?$CFs4_request?$AA@ 0045cdb0     libcurl:http_aws_sigv4.obj
 0002:00008dbc       ??_C@_0M@CFLEPOPB@?$CFs?1?$CFs?1?$CFs?1?$CFs?$AA@ 0045cdbc     libcurl:http_aws_sigv4.obj
 0002:00008dc8       ??_C@_0BJ@CMHLPGHN@?$CFs4?9HMAC?9SHA256?6?$CFs?6?$CFs?6?$CFs?$AA@ 0045cdc8     libcurl:http_aws_sigv4.obj
 0002:00008de4       ??_C@_05OCPDJBAO@?$CFs4?$CFs?$AA@ 0045cde4     libcurl:http_aws_sigv4.obj
 0002:00008df0       ??_C@_0GB@FIOPLDOD@Authorization?3?5?$CFs4?9HMAC?9SHA256?5C@ 0045cdf0     libcurl:http_aws_sigv4.obj
 0002:00008e54       ??_C@_0BI@OMBEIMIN@server?5response?5timeout?$AA@ 0045ce54     libcurl:pingpong.obj
 0002:00008e6c       ??_C@_0BC@FLDALOLK@select?1poll?5error?$AA@ 0045ce6c     libcurl:pingpong.obj
 0002:00008e80       ??_C@_0CH@HOGDLIGJ@cached?5response?5data?5too?5big?5to?5@ 0045ce80     libcurl:pingpong.obj
 0002:00008ea8       ??_C@_0BI@KBMAOGBB@response?5reading?5failed?$AA@ 0045cea8     libcurl:pingpong.obj
 0002:00008ec0       ??_C@_0EG@IFEGJIDG@Excessive?5server?5response?5line?5l@ 0045cec0     libcurl:pingpong.obj
 0002:00008f98       ??_C@_05PLHGOPJD@LOGIN?$AA@ 0045cf98     libcurl:curl_sasl.obj
 0002:00008fa0       ??_C@_05ONKJAIHP@PLAIN?$AA@ 0045cfa0     libcurl:curl_sasl.obj
 0002:00008fa8       ??_C@_08DNNNMLKI@CRAM?9MD5?$AA@ 0045cfa8     libcurl:curl_sasl.obj
 0002:00008fb4       ??_C@_0L@ELGHJPGH@DIGEST?9MD5?$AA@ 0045cfb4     libcurl:curl_sasl.obj
 0002:00008fc0       ??_C@_06HIDJEBJA@GSSAPI?$AA@ 0045cfc0     libcurl:curl_sasl.obj
 0002:00008fc8       ??_C@_08JHLDEHEK@EXTERNAL?$AA@ 0045cfc8     libcurl:curl_sasl.obj
 0002:00008fd4       ??_C@_07ENDMEEPL@XOAUTH2?$AA@ 0045cfd4     libcurl:curl_sasl.obj
 0002:00008fdc       ??_C@_0M@CNKKGKLC@OAUTHBEARER?$AA@ 0045cfdc     libcurl:curl_sasl.obj
 0002:00008fe8       ??_C@_0M@NPGGIEFL@SCRAM?9SHA?91?$AA@ 0045cfe8     libcurl:curl_sasl.obj
 0002:00008ff4       ??_C@_0O@KJDAFCA@SCRAM?9SHA?9256?$AA@ 0045cff4     libcurl:curl_sasl.obj
 0002:00009004       ??_C@_04GJKECPKB@AQ?$DN?$DN?$AA@ 0045d004     libcurl:curl_sasl.obj
 0002:0000900c       ??_C@_0CK@LABGPHKL@Unsupported?5SASL?5authentication?5@ 0045d00c     libcurl:curl_sasl.obj
 0002:00009038       _Curl_DIGEST_MD5           0045d038     libcurl:md5.obj
 0002:0000904c       _Curl_HMAC_MD5             0045d04c     libcurl:md5.obj
 0002:00009064       ??_C@_04BBDFLMDN@?5?9?$DO?5?$AA@ 0045d064     libcurl:ftplistparser.obj
 0002:0000906c       ??_C@_06NIJHKJLJ@total?5?$AA@ 0045d06c     libcurl:ftplistparser.obj
 0002:00009074       ??_C@_08IKJPBGEL@rwx?9tTsS?$AA@ 0045d074     libcurl:ftplistparser.obj
 0002:00009080       ??_C@_0M@GKMDGLA@0123456789?9?$AA@ 0045d080     libcurl:ftplistparser.obj
 0002:0000908c       ??_C@_0P@BIDONHD@APM0123456789?3?$AA@ 0045d08c     libcurl:ftplistparser.obj
 0002:0000909c       ??_C@_05FIBHJBBH@?$DMDIR?$DO?$AA@ 0045d09c     libcurl:ftplistparser.obj
 0002:000090ac       ??_C@_0CB@NDKGBGMP@?$CFc?$CFc?$CFc?$CFc?$CFc?$CFc?$CFc?$CFc?$CFc?$CFc?$CFc?$CFc?$CFc?$CFc?$CFc?$CFc@ 0045d0ac     libcurl:curl_ntlm_core.obj
 0002:000090d0       ??_C@_02CAHBHFGK@?4?1?$AA@ 0045d0d0     libcurl:dotdot.obj
 0002:000090d4       ??_C@_03LOJJKLGJ@?4?4?1?$AA@ 0045d0d4     libcurl:dotdot.obj
 0002:000090d8       ??_C@_03GCFMMAM@?1?4?1?$AA@ 0045d0d8     libcurl:dotdot.obj
 0002:000090dc       ??_C@_02DIKICOBM@?1?4?$AA@ 0045d0dc     libcurl:dotdot.obj
 0002:000090e0       ??_C@_04BKGODLLN@?1?4?4?1?$AA@ 0045d0e0     libcurl:dotdot.obj
 0002:000090e8       ??_C@_03BPDOPNEN@?1?4?4?$AA@ 0045d0e8     libcurl:dotdot.obj
 0002:000090ec       ??_C@_02DJGKEECL@?4?4?$AA@ 0045d0ec     libcurl:dotdot.obj
 0002:000090f0       ??_C@_08ICCJALCC@?$CFs?1?$CFs?$EA?$CFs?$AA@ 0045d0f0     libcurl:vauth.obj
 0002:000090fc       ??_C@_05GFOLEBJA@?$CFs?1?$CFs?$AA@ 0045d0fc     libcurl:vauth.obj
 0002:00009104       ??_C@_05GKOKGMF@?$CFs?$EA?$CFs?$AA@ 0045d104     libcurl:vauth.obj
 0002:0000910c       _Curl_HMAC_SHA256          0045d10c     libcurl:sha256.obj
 0002:00009128       ??_C@_01NEMOKFLO@?$DN?$AA@ 0045d128     libcurl:cleartext.obj
 0002:00009130       ??_C@_0EE@GBENNIBO@?$CFs?5?$CF02x?$CF02x?$CF02x?$CF02x?$CF02x?$CF02x?$CF02x?$CF@ 0045d130     libcurl:cram.obj
 0002:00009174       ??_C@_0CB@GNAMIMBB@n?0a?$DN?$CFs?0?$ABhost?$DN?$CFs?$ABauth?$DNBearer?5?$CFs?$AB?$AB@ 0045d174     libcurl:oauth2.obj
 0002:00009198       ??_C@_0CK@MLPCPAOG@n?0a?$DN?$CFs?0?$ABhost?$DN?$CFs?$ABport?$DN?$CFld?$ABauth?$DNBe@ 0045d198     libcurl:oauth2.obj
 0002:000091c4       ??_C@_0BJ@HPFOJHGD@user?$DN?$CFs?$ABauth?$DNBearer?5?$CFs?$AB?$AB?$AA@ 0045d1c4     libcurl:oauth2.obj
 0002:000091e0       ??_C@_05ODNOIFML@digit?$AA@ 0045d1e0     libcurl:curl_fnmatch.obj
 0002:000091e8       ??_C@_05IIMHCHIO@alnum?$AA@ 0045d1e8     libcurl:curl_fnmatch.obj
 0002:000091f0       ??_C@_05IAEKHIAN@alpha?$AA@ 0045d1f0     libcurl:curl_fnmatch.obj
 0002:000091f8       ??_C@_06BAPHGFFK@xdigit?$AA@ 0045d1f8     libcurl:curl_fnmatch.obj
 0002:00009200       ??_C@_05IJDJACGD@print?$AA@ 0045d200     libcurl:curl_fnmatch.obj
 0002:00009208       ??_C@_05KCJBMLII@graph?$AA@ 0045d208     libcurl:curl_fnmatch.obj
 0002:00009210       ??_C@_05OLNILLAB@space?$AA@ 0045d210     libcurl:curl_fnmatch.obj
 0002:00009218       ??_C@_05BABJKOGB@blank?$AA@ 0045d218     libcurl:curl_fnmatch.obj
 0002:00009220       ??_C@_05NECKJAMC@upper?$AA@ 0045d220     libcurl:curl_fnmatch.obj
 0002:00009228       ??_C@_05IPJEPLHL@lower?$AA@ 0045d228     libcurl:curl_fnmatch.obj
 0002:00009248       ??_C@_0N@GIPHPLLM@Warcraft?5III@ 0045d248     Main.obj
 0002:00009258       ??_C@_0BD@MNCONHPM@6C0180180180180484@ 0045d258     Main.obj
 0002:0000926c       ??_C@_01NOFIACDB@w@        0045d26c     Main.obj
 0002:00009270       ??_C@_07GPDNMNG@CONOUT$@   0045d270     Main.obj
 0002:00009278       ??_C@_05JLNEMJLN@dummy@    0045d278     Main.obj
 0002:00009280       ??_C@_0M@CBKKAKMP@Bahnschrift@ 0045d280     Main.obj
 0002:0000928c       ??_C@_0BB@ICFLKOPM@SeDebugPrivilege@ 0045d28c     Main.obj
 0002:000092a0       ??_C@_08EPCMHBKI@Game?4dll@ 0045d2a0     Main.obj
 0002:000092ac       ?colors@@3PAKA             0045d2ac     Main.obj
 0002:000092dc       ?key@@3PBDB                0045d2dc     Main.obj
 0002:000092e0       ??_C@_0BC@EOODALEL@Unknown?5exception@ 0045d2e0     protect.obj
 0002:000092f4       ??_C@_0BF@KINCDENJ@bad?5array?5new?5length@ 0045d2f4     protect.obj
 0002:0000930c       ??_C@_0BA@JFNIOLAK@string?5too?5long@ 0045d30c     protect.obj
 0002:0000931c       ??_C@_0BG@HGEDEDEC@invalid?5stoi?5argument@ 0045d31c     protect.obj
 0002:00009334       ??_C@_0BL@MFFNMGGC@stoi?5argument?5out?5of?5range@ 0045d334     protect.obj
 0002:0000934f       ??_C@_00CNPNBAHC@@         0045d34f     protect.obj
 0002:00009350       ??_C@_04JHBMAIMM@?$CF01X@  0045d350     protect.obj
 0002:00009358       ??_C@_05NADPPHDM@Key?3?5@  0045d358     protect.obj
 0002:00009360       ??_C@_0DP@JMIKLEIH@http?3?1?1showcase?4api?4linx?4twenty@ 0045d360     protect.obj
 0002:000093a0       ??_C@_01JLIPDDHJ@?3@       0045d3a0     protect.obj
 0002:000093a4       ??_C@_01CLKCMJKC@?5@       0045d3a4     protect.obj
 0002:000093a8       ??_C@_01LFCBOECM@?4@       0045d3a8     protect.obj
 0002:000093ac       ??_C@_0BI@CFPLBAOH@invalid?5string?5position@ 0045d3ac     protect.obj
 0002:000093c4       ??_C@_0BH@KOGMOJCH@invalid?5stoll?5argument@ 0045d3c4     systeminfo.obj
 0002:000093dc       ??_C@_0BM@BPCBEBLO@stoll?5argument?5out?5of?5range@ 0045d3dc     systeminfo.obj
 0002:000093f8       ??_C@_08EPJLHIJG@bad?5cast@ 0045d3f8     systeminfo.obj
 0002:00009408       ??_C@_0FF@ODEOEJDF@wmic?5?1namespace?3?2?2root?2wmi?5PATH@ 0045d408     systeminfo.obj
 0002:00009460       ??_C@_06PONDCDME@ERROR?3@  0045d460     systeminfo.obj
 0002:00009468       ??_C@_0DN@ILJDKAAO@wmic?5cpu?5get?5?1format?3list?5?$HM?5fin@ 0045d468     systeminfo.obj
 0002:000094a8       ??_C@_0BD@PGHEEDII@CurrentClockSpeed?$DN@ 0045d4a8     systeminfo.obj
 0002:000094bc       ??_C@_05DCIFAFBG@Name?$DN@ 0045d4bc     systeminfo.obj
 0002:000094c4       ??_C@_0P@BHLKPIPI@NumberOfCores?$DN@ 0045d4c4     systeminfo.obj
 0002:000094d4       ??_C@_0O@HNEOCNDC@Manufacturer?$DN@ 0045d4d4     systeminfo.obj
 0002:000094e4       ??_C@_0L@BAIIMEAH@DataWidth?$DN@ 0045d4e4     systeminfo.obj
 0002:000094f0       ??_C@_0N@NPABCCND@L2CacheSize?$DN@ 0045d4f0     systeminfo.obj
 0002:00009500       ??_C@_0N@EEKEGOLM@L3CacheSize?$DN@ 0045d500     systeminfo.obj
 0002:00009510       ??_C@_02LODOGJEL@KB@       0045d510     systeminfo.obj
 0002:00009514       ??_C@_07NBCGADJA@Unknown@  0045d514     systeminfo.obj
 0002:0000951c       ??_C@_03BMJMONAH@MHz@      0045d51c     systeminfo.obj
 0002:00009520       ??_C@_03NDFEINMN@x86@      0045d520     systeminfo.obj
 0002:00009524       ??_C@_06HDPOADAK@x86_64@   0045d524     systeminfo.obj
 0002:0000952c       ??_C@_0BL@LFOFMABP@wmic?5cpu?5get?5?1format?3?5list@ 0045d52c     systeminfo.obj
 0002:00009548       ??_C@_09KGLINCJH@AssetTag?$DN@ 0045d548     systeminfo.obj
 0002:00009554       ??_C@_0N@JEAIMEKG@VoltageCaps?$DN@ 0045d554     systeminfo.obj
 0002:00009564       ??_C@_01LIIJDEN@?$AN@      0045d564     systeminfo.obj
 0002:00009568       ??_C@_06HLMMPIBG@NVIDIA@   0045d568     systeminfo.obj
 0002:00009570       ??_C@_05OPFLDEAH@INTEL@    0045d570     systeminfo.obj
 0002:00009578       ??_C@_03BBEEILCJ@AMD@      0045d578     systeminfo.obj
 0002:0000957c       ??_C@_0BG@JEIDHDPM@AdapterCompatibility?$DN@ 0045d57c     systeminfo.obj
 0002:00009594       ??_C@_0M@MFMICOBC@AdapterRAM?$DN@ 0045d594     systeminfo.obj
 0002:000095a0       ??_C@_0BE@HFKIHEFN@CurrentRefreshRate?$DN@ 0045d5a0     systeminfo.obj
 0002:000095b4       ??_C@_0P@ECEAHKCA@DriverVersion?$DN@ 0045d5b4     systeminfo.obj
 0002:000095c4       ??_C@_0BD@PJIEMGDB@VideoArchitecture?$DN@ 0045d5c4     systeminfo.obj
 0002:000095d8       ??_C@_0BA@COFLHODM@VideoMemoryType@ 0045d5d8     systeminfo.obj
 0002:000095e8       ??_C@_0BG@KAJCOKNL@VideoModeDescription?$DN@ 0045d5e8     systeminfo.obj
 0002:00009600       ??_C@_0BA@IDIFCJOL@VideoProcessor?$DN@ 0045d600     systeminfo.obj
 0002:00009610       ??_C@_08EBLFLHLH@Caption?$DN@ 0045d610     systeminfo.obj
 0002:0000961c       ??_C@_07IOEJHCEF@?5Bytes?$CJ@ 0045d61c     systeminfo.obj
 0002:00009624       ??_C@_04MNLDOMOG@MB?5?$CI@ 0045d624     systeminfo.obj
 0002:0000962c       ??_C@_06LFCPCEPB@?5Bytes@  0045d62c     systeminfo.obj
 0002:00009634       ??_C@_05BBOGGNLJ@Other@    0045d634     systeminfo.obj
 0002:0000963c       ??_C@_03MLKNDCDB@CGA@      0045d63c     systeminfo.obj
 0002:00009640       ??_C@_03OOMGGNON@EGA@      0045d640     systeminfo.obj
 0002:00009644       ??_C@_03KMGKJFJM@VGA@      0045d644     systeminfo.obj
 0002:00009648       ??_C@_04DELPAIIG@SVGA@     0045d648     systeminfo.obj
 0002:00009650       ??_C@_03CJDEPLFL@MDA@      0045d650     systeminfo.obj
 0002:00009654       ??_C@_03COJKNHLC@HGC@      0045d654     systeminfo.obj
 0002:00009658       ??_C@_04IMKIIGMI@MCGA@     0045d658     systeminfo.obj
 0002:00009660       ??_C@_05ENECEAKG@8514A@    0045d660     systeminfo.obj
 0002:00009668       ??_C@_03EMLFOCKP@XGA@      0045d668     systeminfo.obj
 0002:0000966c       ??_C@_0BE@HCJIGBPB@Linear?5Frame?5Buffer@ 0045d66c     systeminfo.obj
 0002:00009680       ??_C@_07BIPCJPON@PC?5?9?598@ 0045d680     systeminfo.obj
 0002:00009688       ??_C@_04NLAFCDBP@VRAM@     0045d688     systeminfo.obj
 0002:00009690       ??_C@_04MBCFOHPN@DRAM@     0045d690     systeminfo.obj
 0002:00009698       ??_C@_04BDOFKMGP@SRAM@     0045d698     systeminfo.obj
 0002:000096a0       ??_C@_04OGGFAKKP@WRAM@     0045d6a0     systeminfo.obj
 0002:000096a8       ??_C@_07FKCCEMEA@EDO_RAM@  0045d6a8     systeminfo.obj
 0002:000096b0       ??_C@_0BH@DEHCDIJM@Burst?5Synchronous?5DRAM@ 0045d6b0     systeminfo.obj
 0002:000096c8       ??_C@_0BF@IJELNNLE@Pipelined?5Burst?5SRAM@ 0045d6c8     systeminfo.obj
 0002:000096e0       ??_C@_05DPAJMJIB@CDRAM@    0045d6e0     systeminfo.obj
 0002:000096e8       ??_C@_05DECLMEEA@3DRAM@    0045d6e8     systeminfo.obj
 0002:000096f0       ??_C@_05DMNPMLBK@SDRAM@    0045d6f0     systeminfo.obj
 0002:000096f8       ??_C@_05HLHPLBMK@SGRAM@    0045d6f8     systeminfo.obj
 0002:00009700       ??_C@_0DC@PMLGMCKE@wmic?5path?5Win32_VideoController@ 0045d700     systeminfo.obj
 0002:00009734       ??_C@_0BF@MNNLIBBB@CurrentBitsPerPixel?$DN@ 0045d734     systeminfo.obj
 0002:00009750       ??_C@_0EF@JNOHMMK@wmic?5path?5Win32_PnPEntity?5get?5?1@ 0045d750     systeminfo.obj
 0002:00009798       ??_C@_08EKPLPCOK@Product?$DN@ 0045d798     systeminfo.obj
 0002:000097a4       ??_C@_0N@NCLCEBBL@Description?$DN@ 0045d7a4     systeminfo.obj
 0002:000097b4       ??_C@_07CPHKODAM@Chipset@  0045d7b4     systeminfo.obj
 0002:000097bc       ??_C@_0O@OFNCEPFA@SerialNumber?$DN@ 0045d7bc     systeminfo.obj
 0002:000097cc       ??_C@_08KJDCJPOC@Version?$DN@ 0045d7cc     systeminfo.obj
 0002:000097d8       ??_C@_0CB@BDBEEPBD@wmic?5baseboard?5get?5?1format?3?5lis@ 0045d7d8     systeminfo.obj
 0002:000097fc       ??_C@_0BH@BLPEBJGK@RequiresDaughterBoard?$DN@ 0045d7fc     systeminfo.obj
 0002:00009814       ??_C@_06PNJJNEK@Width?$DN@ 0045d814     systeminfo.obj
 0002:0000981c       ??_C@_0BA@HJFKPBCC@OSArchitecture?$DN@ 0045d81c     systeminfo.obj
 0002:0000982c       ??_C@_0BA@INGADHEL@RegisteredUser?$DN@ 0045d82c     systeminfo.obj
 0002:0000983c       ??_C@_0N@ODOKOKID@InstallDate?$DN@ 0045d83c     systeminfo.obj
 0002:0000984c       ??_C@_0N@JEMEBDNJ@BuildNumber?$DN@ 0045d84c     systeminfo.obj
 0002:0000985c       ??_C@_0BA@GCBFFF@LastBootUpTime?$DN@ 0045d85c     systeminfo.obj
 0002:0000986c       ??_C@_0M@CGJKPCAI@BootDevice?$DN@ 0045d86c     systeminfo.obj
 0002:00009878       ??_C@_0BI@PMGAEKHL@TotalVirtualMemorySize?$DN@ 0045d878     systeminfo.obj
 0002:00009890       ??_C@_0BI@HLKHBHBJ@TotalVisibleMemorySize?$DN@ 0045d890     systeminfo.obj
 0002:000098a8       ??_C@_0P@GNHCPJKN@TotalSwapSize?$DN@ 0045d8a8     systeminfo.obj
 0002:000098b8       ??_C@_0BE@DEHHBEC@FreePhysicalMemory?$DN@ 0045d8b8     systeminfo.obj
 0002:000098cc       ??_C@_0DN@FMHPDIHB@wmic?5os?5get?5?1format?3list?5?$HM?5find@ 0045d8cc     systeminfo.obj
 0002:0000990c       ??_C@_0BD@LBCHCOMB@FreeVirtualMemory?$DN@ 0045d90c     systeminfo.obj
 0002:00009920       ??_C@_0DM@IMOGBFPI@wmic?5os?5get?5?1format?3list?5?$HM?5find@ 0045d920     systeminfo.obj
 0002:0000995c       ??_C@_0BI@JAIEFCLJ@FreeSpaceInPagingFiles?$DN@ 0045d95c     systeminfo.obj
 0002:00009978       ??_C@_0EB@OBBKEDCH@wmic?5os?5get?5?1format?3list?5?$HM?5find@ 0045d978     systeminfo.obj
 0002:000099bc       ??_C@_0BJ@FNCKOEAK@SizeStoredInPagingFiles?$DN@ 0045d9bc     systeminfo.obj
 0002:000099d8       ??_C@_0EC@EKOMMEFI@wmic?5os?5get?5?1format?3list?5?$HM?5find@ 0045d9d8     systeminfo.obj
 0002:00009a1c       ??_C@_0P@OEDDHIDF@LocalDateTime?$DN@ 0045da1c     systeminfo.obj
 0002:00009a2c       ??_C@_0DI@PPLPAHM@wmic?5os?5get?5?1format?3list?5?$HM?5find@ 0045da2c     systeminfo.obj
 0002:00009a64       ??_C@_04IDFBDOJP@?5KB?$CJ@ 0045da64     systeminfo.obj
 0002:00009a6c       ??_C@_03MAAJMAHL@?5KB@     0045da6c     systeminfo.obj
 0002:00009a70       ??_C@_0BJ@PEOICEGE@wmic?5os?5get?5?1format?3list@ 0045da70     systeminfo.obj
 0002:00009a8c       ??_C@_0BJ@BADAMLNJ@PortableOperatingSystem?$DN@ 0045da8c     systeminfo.obj
 0002:00009aa8       ??_C@_0BC@KMGAAGMI@WindowsDirectory?$DN@ 0045daa8     systeminfo.obj
 0002:00009abc       ??_C@_0P@CLNGFENG@DeviceLocator?$DN@ 0045dabc     systeminfo.obj
 0002:00009acc       ??_C@_09GMKGCMGO@Capacity?$DN@ 0045dacc     systeminfo.obj
 0002:00009ad8       ??_C@_0M@NJBBNODN@FormFactor?$DN@ 0045dad8     systeminfo.obj
 0002:00009ae4       ??_C@_0M@JCECAJFD@PartNumber?$DN@ 0045dae4     systeminfo.obj
 0002:00009af0       ??_C@_0M@BHDFFOOC@MemoryType?$DN@ 0045daf0     systeminfo.obj
 0002:00009afc       ??_C@_0BG@HOKNLHKH@ConfiguredClockSpeed?$DN@ 0045dafc     systeminfo.obj
 0002:00009b14       ??_C@_06DJAAKCE@Speed?$DN@ 0045db14     systeminfo.obj
 0002:00009b1c       ??_C@_0BA@PHEJNBIO@Syncronous?5DRAM@ 0045db1c     systeminfo.obj
 0002:00009b2c       ??_C@_0L@KFMNNBLH@Cache?5DRAM@ 0045db2c     systeminfo.obj
 0002:00009b38       ??_C@_03HCADPODK@EDO@      0045db38     systeminfo.obj
 0002:00009b3c       ??_C@_05OJFACKJM@EDRAM@    0045db3c     systeminfo.obj
 0002:00009b44       ??_C@_03ILDADBHF@RAM@      0045db44     systeminfo.obj
 0002:00009b48       ??_C@_03IBKOBMHP@ROM@      0045db48     systeminfo.obj
 0002:00009b4c       ??_C@_05LDPHIKKB@Flash@    0045db4c     systeminfo.obj
 0002:00009b54       ??_C@_06EMDDBCNH@EEPROM@   0045db54     systeminfo.obj
 0002:00009b5c       ??_C@_06HNNLAIEK@FEPROM@   0045db5c     systeminfo.obj
 0002:00009b64       ??_C@_05HGKODGNE@EPROM@    0045db64     systeminfo.obj
 0002:00009b6c       ??_C@_05PHIDBILP@RDRAM@    0045db6c     systeminfo.obj
 0002:00009b74       ??_C@_04CJLNMEGN@DDR1@     0045db74     systeminfo.obj
 0002:00009b7c       ??_C@_04CJAJHKO@DDR2@      0045db7c     systeminfo.obj
 0002:00009b84       ??_C@_0O@HNAHBKBC@DDR2?5?9?5FBDIMM@ 0045db84     systeminfo.obj
 0002:00009b94       ??_C@_04BLILKGOP@DDR3@     0045db94     systeminfo.obj
 0002:00009b9c       ??_C@_04EFJAEENA@FBD2@     0045db9c     systeminfo.obj
 0002:00009ba4       ??_C@_03MCPDGLLE@SIP@      0045dba4     systeminfo.obj
 0002:00009ba8       ??_C@_03PDNAEJC@DIP@       0045dba8     systeminfo.obj
 0002:00009bac       ??_C@_03LPPLCEDO@ZIP@      0045dbac     systeminfo.obj
 0002:00009bb0       ??_C@_03HGFDONNN@SOJ@      0045dbb0     systeminfo.obj
 0002:00009bb4       ??_C@_0M@EAHCLNFM@Proprietary@ 0045dbb4     systeminfo.obj
 0002:00009bc0       ??_C@_04JNOHIFJF@SIMM@     0045dbc0     systeminfo.obj
 0002:00009bc8       ??_C@_04EPCHMOAH@DIMM@     0045dbc8     systeminfo.obj
 0002:00009bd0       ??_C@_04OMILFGAM@TSOP@     0045dbd0     systeminfo.obj
 0002:00009bd8       ??_C@_03IJABMKEA@PGA@      0045dbd8     systeminfo.obj
 0002:00009bdc       ??_C@_04KAIHKMCF@RIMM@     0045dbdc     systeminfo.obj
 0002:00009be4       ??_C@_06PIFKKNPH@SODIMM@   0045dbe4     systeminfo.obj
 0002:00009bec       ??_C@_05FNHNIAMC@SRIMM@    0045dbec     systeminfo.obj
 0002:00009bf4       ??_C@_03OLFEBEDN@SMD@      0045dbf4     systeminfo.obj
 0002:00009bf8       ??_C@_04FNCPFOHC@SSMP@     0045dbf8     systeminfo.obj
 0002:00009c00       ??_C@_03ENAIDDFH@QFD@      0045dc00     systeminfo.obj
 0002:00009c04       ??_C@_04EJFDKFAI@TQFP@     0045dc04     systeminfo.obj
 0002:00009c0c       ??_C@_04CBAGFPBL@SOIC@     0045dc0c     systeminfo.obj
 0002:00009c14       ??_C@_03KGPBOIDJ@LCC@      0045dc14     systeminfo.obj
 0002:00009c18       ??_C@_04HJIEAPPD@PLCC@     0045dc18     systeminfo.obj
 0002:00009c20       ??_C@_03HDBBFFFE@BGA@      0045dc20     systeminfo.obj
 0002:00009c24       ??_C@_05CIFANFB@FPBGA@     0045dc24     systeminfo.obj
 0002:00009c2c       ??_C@_03JDMOCCGH@LGA@      0045dc2c     systeminfo.obj
 0002:00009c30       ??_C@_0CC@FIPGLJJI@wmic?5memorychip?5get?5?1format?3?5li@ 0045dc30     systeminfo.obj
 0002:00009c54       ??_C@_04IFFFBHG@2?$DO?$CG1@ 0045dc54     systeminfo.obj
 0002:00009c5c       ??_C@_01PPODPGHN@?$DO@     0045dc5c     systeminfo.obj
 0002:00009c60       ??_C@_02PCIJFNDE@?$AN?6@   0045dc60     systeminfo.obj
 0002:00009c64       ??_C@_02LIIHNNHG@?6?$AN@   0045dc64     systeminfo.obj
 0002:00009c68       ??_C@_01EEMJAFIK@?6@       0045dc68     systeminfo.obj
 0002:00009c6c       ??_C@_05HIBJACPO@?52?$DO?$CG1@ 0045dc6c     systeminfo.obj
 0002:00009c74       ??_C@_01KDCPPGHE@r@        0045dc74     systeminfo.obj
 0002:00009c78       ??_C@_01BJJEKLCA@?$CC@     0045dc78     systeminfo.obj
 0002:00009c7c       ??_C@_0CD@LHOMMFEI@ERROR?3?5Failed?5to?5execute?5comman@ 0045dc7c     systeminfo.obj
 0002:00009ca0       ??_C@_0BA@FOIKENOD@vector?5too?5long@ 0045dca0     systeminfo.obj
 0002:00009cb4       ??_7?$basic_filebuf@DU?$char_traits@D@std@@@std@@6B@ 0045dcb4     systeminfo.obj
 0002:00009cf0       ??_8?$basic_stringstream@DU?$char_traits@D@std@@V?$allocator@D@2@@std@@7B?$basic_ostream@DU?$char_traits@D@std@@@1@@ 0045dcf0     systeminfo.obj
 0002:00009cfc       ??_7bad_cast@std@@6B@      0045dcfc     systeminfo.obj
 0002:00009d08       ??_7?$basic_stringbuf@DU?$char_traits@D@std@@V?$allocator@D@2@@std@@6B@ 0045dd08     systeminfo.obj
 0002:00009d64       ??_7?$basic_stringstream@DU?$char_traits@D@std@@V?$allocator@D@2@@std@@6B@ 0045dd64     systeminfo.obj
 0002:00009d68       ??_8?$basic_ifstream@DU?$char_traits@D@std@@@std@@7B@ 0045dd68     systeminfo.obj
 0002:00009d70       ??_8?$basic_stringstream@DU?$char_traits@D@std@@V?$allocator@D@2@@std@@7B?$basic_istream@DU?$char_traits@D@std@@@1@@ 0045dd70     systeminfo.obj
 0002:00009d7c       ??_7?$basic_ifstream@DU?$char_traits@D@std@@@std@@6B@ 0045dd7c     systeminfo.obj
 0002:00009d80       __real@3c23d70a            0045dd80     Main.obj
 0002:00009d84       __real@3f000000            0045dd84     Main.obj
 0002:00009d88       __real@3faccccd            0045dd88     Main.obj
 0002:00009d8c       __real@41c80000            0045dd8c     Main.obj
 0002:00009d90       __real@420a0000            0045dd90     Main.obj
 0002:00009d94       __real@42480000            0045dd94     Main.obj
 0002:00009d98       __real@42a00000            0045dd98     Main.obj
 0002:00009dd8       __load_config_used         0045ddd8     MSVCRT:loadcfg.obj
 0002:00009ec0       ??_R4type_info@@6B@        0045dec0     MSVCRT:std_type_info_static.obj
 0002:00009ed4       ??_R3type_info@@8          0045ded4     MSVCRT:std_type_info_static.obj
 0002:00009ee4       ??_R2type_info@@8          0045dee4     MSVCRT:std_type_info_static.obj
 0002:00009eec       ??_R1A@?0A@EA@type_info@@8 0045deec     MSVCRT:std_type_info_static.obj
 0002:00009f08       ??_R4exception@std@@6B@    0045df08     protect.obj
 0002:00009f1c       ??_R2bad_array_new_length@std@@8 0045df1c     protect.obj
 0002:00009f2c       ??_R2bad_alloc@std@@8      0045df2c     protect.obj
 0002:00009f38       ??_R1A@?0A@EA@exception@std@@8 0045df38     protect.obj
 0002:00009f54       ??_R1A@?0A@EA@bad_alloc@std@@8 0045df54     protect.obj
 0002:00009f70       ??_R2exception@std@@8      0045df70     protect.obj
 0002:00009f78       ??_R3exception@std@@8      0045df78     protect.obj
 0002:00009f88       ??_R4bad_alloc@std@@6B@    0045df88     protect.obj
 0002:00009f9c       ??_R3bad_array_new_length@std@@8 0045df9c     protect.obj
 0002:00009fac       ??_R3bad_alloc@std@@8      0045dfac     protect.obj
 0002:00009fbc       ??_R4bad_array_new_length@std@@6B@ 0045dfbc     protect.obj
 0002:00009fd0       ??_R1A@?0A@EA@bad_array_new_length@std@@8 0045dfd0     protect.obj
 0002:00009fec       ??_R3?$_Func_base@V?$basic_string@DU?$char_traits@D@std@@V?$allocator@D@2@@std@@ABV12@@std@@8 0045dfec     systeminfo.obj
 0002:00009ffc       ??_R3?$basic_istream@DU?$char_traits@D@std@@@std@@8 0045dffc     systeminfo.obj
 0002:0000a00c       ??_R3?$basic_iostream@DU?$char_traits@D@std@@@std@@8 0045e00c     systeminfo.obj
 0002:0000a01c       ??_R1A@?0A@EA@?$basic_istream@DU?$char_traits@D@std@@@std@@8 0045e01c     systeminfo.obj
 0002:0000a038       ??_R1A@?0A@EA@?$_Func_base@V?$basic_string@DU?$char_traits@D@std@@V?$allocator@D@2@@std@@ABV12@@std@@8 0045e038     systeminfo.obj
 0002:0000a054       ??_R1A@?0A@EA@bad_cast@std@@8 0045e054     systeminfo.obj
 0002:0000a070       ??_R3?$basic_ifstream@DU?$char_traits@D@std@@@std@@8 0045e070     systeminfo.obj
 0002:0000a080       ??_R2?$basic_stringbuf@DU?$char_traits@D@std@@V?$allocator@D@2@@std@@8 0045e080     systeminfo.obj
 0002:0000a08c       ??_R1A@?0A@EA@?$basic_ifstream@DU?$char_traits@D@std@@@std@@8 0045e08c     systeminfo.obj
 0002:0000a0a8       ??_R17A@3EA@?$_Iosb@H@std@@8 0045e0a8     systeminfo.obj
 0002:0000a0c4       ??_R1A@?0A@EA@?$basic_stringstream@DU?$char_traits@D@std@@V?$allocator@D@2@@std@@8 0045e0c4     systeminfo.obj
 0002:0000a0e0       ??_R1A@?0A@EA@?$basic_streambuf@DU?$char_traits@D@std@@@std@@8 0045e0e0     systeminfo.obj
 0002:0000a0fc       ??_R2?$basic_istream@DU?$char_traits@D@std@@@std@@8 0045e0fc     systeminfo.obj
 0002:0000a110       ??_R3?$basic_stringbuf@DU?$char_traits@D@std@@V?$allocator@D@2@@std@@8 0045e110     systeminfo.obj
 0002:0000a120       ??_R2bad_cast@std@@8       0045e120     systeminfo.obj
 0002:0000a12c       ??_R2?$basic_ostream@DU?$char_traits@D@std@@@std@@8 0045e12c     systeminfo.obj
 0002:0000a140       ??_R3?$basic_ios@DU?$char_traits@D@std@@@std@@8 0045e140     systeminfo.obj
 0002:0000a160       ??_R1BA@?0A@EA@?$basic_ostream@DU?$char_traits@D@std@@@std@@8 0045e160     systeminfo.obj
 0002:0000a17c       ??_R4?$basic_ifstream@DU?$char_traits@D@std@@@std@@6B@ 0045e17c     systeminfo.obj
 0002:0000a190       ??_R1A@?0A@EA@ios_base@std@@8 0045e190     systeminfo.obj
 0002:0000a1ac       ??_R1A@?0A@EA@?$basic_ostream@DU?$char_traits@D@std@@@std@@8 0045e1ac     systeminfo.obj
 0002:0000a1c8       ??_R4?$basic_filebuf@DU?$char_traits@D@std@@@std@@6B@ 0045e1c8     systeminfo.obj
 0002:0000a1dc       ??_R2?$basic_streambuf@DU?$char_traits@D@std@@@std@@8 0045e1dc     systeminfo.obj
 0002:0000a1e4       ??_R1A@?0A@EA@?$_Iosb@H@std@@8 0045e1e4     systeminfo.obj
 0002:0000a200       ??_R1A@?0A@EA@?$basic_stringbuf@DU?$char_traits@D@std@@V?$allocator@D@2@@std@@8 0045e200     systeminfo.obj
 0002:0000a21c       ??_R2?$basic_iostream@DU?$char_traits@D@std@@@std@@8 0045e21c     systeminfo.obj
 0002:0000a244       ??_R3bad_cast@std@@8       0045e244     systeminfo.obj
 0002:0000a254       ??_R2?$basic_stringstream@DU?$char_traits@D@std@@V?$allocator@D@2@@std@@8 0045e254     systeminfo.obj
 0002:0000a280       ??_R4bad_cast@std@@6B@     0045e280     systeminfo.obj
 0002:0000a294       ??_R4?$basic_stringbuf@DU?$char_traits@D@std@@V?$allocator@D@2@@std@@6B@ 0045e294     systeminfo.obj
 0002:0000a2a8       ??_R4?$basic_stringstream@DU?$char_traits@D@std@@V?$allocator@D@2@@std@@6B@ 0045e2a8     systeminfo.obj
 0002:0000a2bc       ??_R1A@?0A@EA@?$basic_filebuf@DU?$char_traits@D@std@@@std@@8 0045e2bc     systeminfo.obj
 0002:0000a2d8       ??_R1A@A@3FA@?$basic_ios@DU?$char_traits@D@std@@@std@@8 0045e2d8     systeminfo.obj
 0002:0000a2f4       ??_R3?$basic_filebuf@DU?$char_traits@D@std@@@std@@8 0045e2f4     systeminfo.obj
 0002:0000a304       ??_R2ios_base@std@@8       0045e304     systeminfo.obj
 0002:0000a310       ??_R3?$basic_ostream@DU?$char_traits@D@std@@@std@@8 0045e310     systeminfo.obj
 0002:0000a320       ??_R1A@?0A@EA@?$basic_iostream@DU?$char_traits@D@std@@@std@@8 0045e320     systeminfo.obj
 0002:0000a350       ??_R3ios_base@std@@8       0045e350     systeminfo.obj
 0002:0000a360       ??_R2?$basic_filebuf@DU?$char_traits@D@std@@@std@@8 0045e360     systeminfo.obj
 0002:0000a36c       ??_R3?$basic_streambuf@DU?$char_traits@D@std@@@std@@8 0045e36c     systeminfo.obj
 0002:0000a37c       ??_R3?$basic_stringstream@DU?$char_traits@D@std@@V?$allocator@D@2@@std@@8 0045e37c     systeminfo.obj
 0002:0000a38c       ??_R2?$_Iosb@H@std@@8      0045e38c     systeminfo.obj
 0002:0000a3a0       ??_R1A@A@3EA@ios_base@std@@8 0045e3a0     systeminfo.obj
 0002:0000a3bc       ??_R1A@?0A@EA@?$basic_ios@DU?$char_traits@D@std@@@std@@8 0045e3bc     systeminfo.obj
 0002:0000a3d8       ??_R2?$basic_ifstream@DU?$char_traits@D@std@@@std@@8 0045e3d8     systeminfo.obj
 0002:0000a3f0       ??_R3?$_Iosb@H@std@@8      0045e3f0     systeminfo.obj
 0002:0000a41c       ??_R17?0A@EA@?$_Iosb@H@std@@8 0045e41c     systeminfo.obj
 0002:0000a438       ??_R2?$_Func_base@V?$basic_string@DU?$char_traits@D@std@@V?$allocator@D@2@@std@@ABV12@@std@@8 0045e438     systeminfo.obj
 0002:0000a440       ??_R2?$basic_ios@DU?$char_traits@D@std@@@std@@8 0045e440     systeminfo.obj
 0002:0000a450       ___safe_se_handler_table   0045e450     <linker-defined>
 0002:0000a7f8       ___rtc_iaa                 0045e7f8     MSVCRT:initsect.obj
 0002:0000a7fc       ___rtc_izz                 0045e7fc     MSVCRT:initsect.obj
 0002:0000a800       ___rtc_taa                 0045e800     MSVCRT:initsect.obj
 0002:0000a804       ___rtc_tzz                 0045e804     MSVCRT:initsect.obj
 0002:0000b9bc       __TI2?AVbad_alloc@std@@    0045f9bc     MSVCRT:throw_bad_alloc.obj
 0002:0000b9cc       __CTA2?AVbad_alloc@std@@   0045f9cc     MSVCRT:throw_bad_alloc.obj
 0002:0000b9d8       __CTA3?AVbad_array_new_length@std@@ 0045f9d8     protect.obj
 0002:0000b9e8       __CT??_R0?AVbad_alloc@std@@@8??0bad_alloc@std@@QAE@ABV01@@Z12 0045f9e8     protect.obj
 0002:0000ba04       __CT??_R0?AVexception@std@@@8??0exception@std@@QAE@ABV01@@Z12 0045fa04     protect.obj
 0002:0000ba20       __TI3?AVbad_array_new_length@std@@ 0045fa20     protect.obj
 0002:0000ba30       __CT??_R0?AVbad_array_new_length@std@@@8??0bad_array_new_length@std@@QAE@ABV01@@Z12 0045fa30     protect.obj
 0002:0000ba4c       __CTA2?AVbad_cast@std@@    0045fa4c     systeminfo.obj
 0002:0000ba58       __CT??_R0?AVbad_cast@std@@@8??0bad_cast@std@@QAE@ABV01@@Z12 0045fa58     systeminfo.obj
 0002:0000ba74       __TI2?AVbad_cast@std@@     0045fa74     systeminfo.obj
 0002:0000ba84       __IMPORT_DESCRIPTOR_KERNEL32 0045fa84     kernel32:KERNEL32.dll
 0002:0000ba98       __IMPORT_DESCRIPTOR_USER32 0045fa98     user32:USER32.dll
 0002:0000baac       __IMPORT_DESCRIPTOR_GDI32  0045faac     gdi32:GDI32.dll
 0002:0000bac0       __IMPORT_DESCRIPTOR_ADVAPI32 0045fac0     advapi32:ADVAPI32.dll
 0002:0000bad4       __IMPORT_DESCRIPTOR_MSVCP140 0045fad4     msvcprt:MSVCP140.dll
 0002:0000bae8       __IMPORT_DESCRIPTOR_d3d9   0045fae8     d3d9:d3d9.dll
 0002:0000bafc       __IMPORT_DESCRIPTOR_d3dx9_43 0045fafc     d3dx9:d3dx9_43.dll
 0002:0000bb10       __IMPORT_DESCRIPTOR_WS2_32 0045fb10     ws2_32:WS2_32.dll
 0002:0000bb24       __IMPORT_DESCRIPTOR_WLDAP32 0045fb24     wldap32:WLDAP32.dll
 0002:0000bb38       __IMPORT_DESCRIPTOR_VCRUNTIME140 0045fb38     vcruntime:VCRUNTIME140.dll
 0002:0000bb4c       __IMPORT_DESCRIPTOR_api-ms-win-crt-stdio-l1-1-0 0045fb4c     ucrt:api-ms-win-crt-stdio-l1-1-0.dll
 0002:0000bb60       __IMPORT_DESCRIPTOR_api-ms-win-crt-runtime-l1-1-0 0045fb60     ucrt:api-ms-win-crt-runtime-l1-1-0.dll
 0002:0000bb74       __IMPORT_DESCRIPTOR_api-ms-win-crt-convert-l1-1-0 0045fb74     ucrt:api-ms-win-crt-convert-l1-1-0.dll
 0002:0000bb88       __IMPORT_DESCRIPTOR_api-ms-win-crt-time-l1-1-0 0045fb88     ucrt:api-ms-win-crt-time-l1-1-0.dll
 0002:0000bb9c       __IMPORT_DESCRIPTOR_api-ms-win-crt-filesystem-l1-1-0 0045fb9c     ucrt:api-ms-win-crt-filesystem-l1-1-0.dll
 0002:0000bbb0       __IMPORT_DESCRIPTOR_api-ms-win-crt-heap-l1-1-0 0045fbb0     ucrt:api-ms-win-crt-heap-l1-1-0.dll
 0002:0000bbc4       __IMPORT_DESCRIPTOR_api-ms-win-crt-math-l1-1-0 0045fbc4     ucrt:api-ms-win-crt-math-l1-1-0.dll
 0002:0000bbd8       __IMPORT_DESCRIPTOR_api-ms-win-crt-locale-l1-1-0 0045fbd8     ucrt:api-ms-win-crt-locale-l1-1-0.dll
 0002:0000bbec       __IMPORT_DESCRIPTOR_api-ms-win-crt-string-l1-1-0 0045fbec     ucrt:api-ms-win-crt-string-l1-1-0.dll
 0002:0000bc00       __IMPORT_DESCRIPTOR_api-ms-win-crt-utility-l1-1-0 0045fc00     ucrt:api-ms-win-crt-utility-l1-1-0.dll
 0002:0000bc14       __IMPORT_DESCRIPTOR_api-ms-win-crt-multibyte-l1-1-0 0045fc14     ucrt:api-ms-win-crt-multibyte-l1-1-0.dll
 0002:0000bc28       __NULL_IMPORT_DESCRIPTOR   0045fc28     kernel32:KERNEL32.dll
 0003:00000000       ___scrt_native_dllmain_reason 00462000     MSVCRT:utility.obj
 0003:00000004       ___security_cookie_complement 00462004     MSVCRT:gs_cookie.obj
 0003:00000008       ___security_cookie         00462008     MSVCRT:gs_cookie.obj
 0003:00000010       ___isa_enabled             00462010     MSVCRT:cpu_disp.obj
 0003:00000014       ___scrt_default_matherr    00462014     MSVCRT:matherr.obj
 0003:00000018       _Curl_cmalloc              00462018     libcurl:easy.obj
 0003:0000001c       _Curl_cfree                0046201c     libcurl:easy.obj
 0003:00000020       _Curl_crealloc             00462020     libcurl:easy.obj
 0003:00000024       _Curl_cstrdup              00462024     libcurl:easy.obj
 0003:00000028       _Curl_ccalloc              00462028     libcurl:easy.obj
 0003:00000040       __fltused                  00462040     MSVCRT:fltused.obj
 0003:00000050       ___scrt_ucrt_dll_is_in_use 00462050     MSVCRT:ucrt_stubs.obj
 0003:00000054       ?CLOCK_SPEED_IDENTIFIER_STRING@RAMInfo@@0V?$basic_string@DU?$char_traits@D@std@@V?$allocator@D@2@@std@@B 00462054     systeminfo.obj
 0003:0000006c       ?NUMBER_OF_CORES_IDENTIFIER_STRING@CPUInfo@@0V?$basic_string@DU?$char_traits@D@std@@V?$allocator@D@2@@std@@B 0046206c     systeminfo.obj
 0003:00000084       ?VERSION_IDENTIFIER_STRING@OSInfo@@0V?$basic_string@DU?$char_traits@D@std@@V?$allocator@D@2@@std@@B 00462084     systeminfo.obj
 0003:0000009c       ?TOTAL_VISIBLE_MEMORY_SIZE_IDENTIFIER_STRING@OSInfo@@0V?$basic_string@DU?$char_traits@D@std@@V?$allocator@D@2@@std@@B 0046209c     systeminfo.obj
 0003:000000b4       ?MOTHERBOARD_INFO_END_IDENTIFIER_STRING@MotherboardInfoDelegate@@0V?$basic_string@DU?$char_traits@D@std@@V?$allocator@D@2@@std@@B 004620b4     systeminfo.obj
 0003:000000cc       ?ADAPTER_RAM_IDENTIFIER_STRING@GPUInfo@@0V?$basic_string@DU?$char_traits@D@std@@V?$allocator@D@2@@std@@B 004620cc     systeminfo.obj
 0003:000000e4       ?CURRENT_DATE_TIME_QUERY_STRING@OSInfo@@0V?$basic_string@DU?$char_traits@D@std@@V?$allocator@D@2@@std@@B 004620e4     systeminfo.obj
 0003:000000fc       ?FORM_FACTOR_IDENTIFIER_STRING@RAMInfo@@0V?$basic_string@DU?$char_traits@D@std@@V?$allocator@D@2@@std@@B 004620fc     systeminfo.obj
 0003:00000114       ?RAM_INFO_END_IDENTIFIER_STRING@RAMInfoDelegate@@0V?$basic_string@DU?$char_traits@D@std@@V?$allocator@D@2@@std@@B 00462114     systeminfo.obj
 0003:0000012c       ?RAM_INSTANCE_QUERY_STRING@RAMInfoDelegate@@0V?$basic_string@DU?$char_traits@D@std@@V?$allocator@D@2@@std@@B 0046212c     systeminfo.obj
 0003:00000144       ?VIDEO_MODE_DESCRIPTION_IDENTIFIER_STRING@GPUInfo@@0V?$basic_string@DU?$char_traits@D@std@@V?$allocator@D@2@@std@@B 00462144     systeminfo.obj
 0003:0000015c       ?SERIAL_NUMBER_IDENTIFIER_STRING@RAMInfo@@0V?$basic_string@DU?$char_traits@D@std@@V?$allocator@D@2@@std@@B 0046215c     systeminfo.obj
 0003:00000174       ?USED_SPACE_IN_PAGING_FILE_QUERY_STRING@OSInfo@@0V?$basic_string@DU?$char_traits@D@std@@V?$allocator@D@2@@std@@B 00462174     systeminfo.obj
 0003:0000018c       ?FREE_PHYSICAL_MEMORY_QUERY_STRING@OSInfo@@0V?$basic_string@DU?$char_traits@D@std@@V?$allocator@D@2@@std@@B 0046218c     systeminfo.obj
 0003:000001a4       ?CAPTION_INDENTIFIER_STRING@OSInfo@@0V?$basic_string@DU?$char_traits@D@std@@V?$allocator@D@2@@std@@B 004621a4     systeminfo.obj
 0003:000001bc       ?CPU_INSTANCE_QUERY_STRING@CPUInfoDelegate@@0V?$basic_string@DU?$char_traits@D@std@@V?$allocator@D@2@@std@@B 004621bc     systeminfo.obj
 0003:000001d4       ?LAST_BOOT_UP_TIME_IDENTIFIER_STRING@OSInfo@@0V?$basic_string@DU?$char_traits@D@std@@V?$allocator@D@2@@std@@B 004621d4     systeminfo.obj
 0003:000001ec       ?L2_CACHE_SIZE_IDENTIFIER_STRING@CPUInfo@@0V?$basic_string@DU?$char_traits@D@std@@V?$allocator@D@2@@std@@B 004621ec     systeminfo.obj
 0003:00000204       ?CPU_INFO_QUERY_STRING@CPUInfoDelegate@@0V?$basic_string@DU?$char_traits@D@std@@V?$allocator@D@2@@std@@B 00462204     systeminfo.obj
 0003:0000021c       ?FREE_SPACE_IN_PAGING_FILES_IDENTIFIER_STRING@OSInfo@@0V?$basic_string@DU?$char_traits@D@std@@V?$allocator@D@2@@std@@B 0046221c     systeminfo.obj
 0003:00000234       ?MANUFACTURER_IDENTIFIER_STRING@MotherboardInfo@@0V?$basic_string@DU?$char_traits@D@std@@V?$allocator@D@2@@std@@B 00462234     systeminfo.obj
 0003:0000024c       ?MANUFACTURER_IDENTIFIER_STRING@RAMInfo@@0V?$basic_string@DU?$char_traits@D@std@@V?$allocator@D@2@@std@@B 0046224c     systeminfo.obj
 0003:00000264       ?CHIPSET_QUERY_STRING@MotherboardInfo@@0V?$basic_string@DU?$char_traits@D@std@@V?$allocator@D@2@@std@@B 00462264     systeminfo.obj
 0003:0000027c       ?FREE_VIRTUAL_MEMORY_IDENTIFIER_STRING@OSInfo@@0V?$basic_string@DU?$char_traits@D@std@@V?$allocator@D@2@@std@@B 0046227c     systeminfo.obj
 0003:00000294       ?FREE_SPACE_IN_PAGING_FILES_QUERY_STRING@OSInfo@@0V?$basic_string@DU?$char_traits@D@std@@V?$allocator@D@2@@std@@B 00462294     systeminfo.obj
 0003:000002ac       ?TEMPERATURE_QUERY_STRING@CPUInfo@@0V?$basic_string@DU?$char_traits@D@std@@V?$allocator@D@2@@std@@B 004622ac     systeminfo.obj
 0003:000002c4       ?VIDEO_MEMORY_TYPE_IDENTIFIER_STRING@GPUInfo@@0V?$basic_string@DU?$char_traits@D@std@@V?$allocator@D@2@@std@@B 004622c4     systeminfo.obj
 0003:000002dc       ?CHIPSET_END_IDENTIFIER_STRING@MotherboardInfo@@0V?$basic_string@DU?$char_traits@D@std@@V?$allocator@D@2@@std@@B 004622dc     systeminfo.obj
 0003:000002f4       ?BACKUP_CLOCK_SPEED_IDENTIFIER_STRING@RAMInfo@@0V?$basic_string@DU?$char_traits@D@std@@V?$allocator@D@2@@std@@B 004622f4     systeminfo.obj
 0003:0000030c       ?ARCHITECTURE_IDENTIFIER_STRING@CPUInfo@@0V?$basic_string@DU?$char_traits@D@std@@V?$allocator@D@2@@std@@B 0046230c     systeminfo.obj
 0003:00000324       ?USED_SPACE_IN_PAGING_FILE_IDENTIFIER_STRING@OSInfo@@0V?$basic_string@DU?$char_traits@D@std@@V?$allocator@D@2@@std@@B 00462324     systeminfo.obj
 0003:0000033c       ?SERIAL_NUMBER_IDENTIFIER_STRING@OSInfo@@0V?$basic_string@DU?$char_traits@D@std@@V?$allocator@D@2@@std@@B 0046233c     systeminfo.obj
 0003:00000354       ?MOTHERBOARD_INSTANCE_QUERY_STRING@MotherboardInfoDelegate@@0V?$basic_string@DU?$char_traits@D@std@@V?$allocator@D@2@@std@@B 00462354     systeminfo.obj
 0003:0000036c       ?NAME_IDENTIFIER_STRING@GPUInfo@@0V?$basic_string@DU?$char_traits@D@std@@V?$allocator@D@2@@std@@B 0046236c     systeminfo.obj
 0003:00000384       ?MANUFACTURER_IDENTIFIER_STRING@GPUInfo@@0V?$basic_string@DU?$char_traits@D@std@@V?$allocator@D@2@@std@@B 00462384     systeminfo.obj
 0003:0000039c       ?MEMORY_TYPE_IDENTIFIER_STRING@RAMInfo@@0V?$basic_string@DU?$char_traits@D@std@@V?$allocator@D@2@@std@@B 0046239c     systeminfo.obj
 0003:000003b4       ?CAPACITY_IDENTIFIER_STRING@RAMInfo@@0V?$basic_string@DU?$char_traits@D@std@@V?$allocator@D@2@@std@@B 004623b4     systeminfo.obj
 0003:000003cc       ?BOOT_DEVICE_IDENTIFIER_STRING@OSInfo@@0V?$basic_string@DU?$char_traits@D@std@@V?$allocator@D@2@@std@@B 004623cc     systeminfo.obj
 0003:000003e4       ?ARCHITECTURE_IDENTIFIER_STRING@OSInfo@@0V?$basic_string@DU?$char_traits@D@std@@V?$allocator@D@2@@std@@B 004623e4     systeminfo.obj
 0003:000003fc       ?INSTALL_DATE_IDENTIFIER_STRING@OSInfo@@0V?$basic_string@DU?$char_traits@D@std@@V?$allocator@D@2@@std@@B 004623fc     systeminfo.obj
 0003:00000414       ?AMD_IDENTIFIER_STRING@GPUInfo@@0V?$basic_string@DU?$char_traits@D@std@@V?$allocator@D@2@@std@@B 00462414     systeminfo.obj
 0003:0000042c       ?NVIDIA_IDENTIFIER_STRING@GPUInfo@@0V?$basic_string@DU?$char_traits@D@std@@V?$allocator@D@2@@std@@B 0046242c     systeminfo.obj
 0003:00000444       ?VIDEO_PROCESSOR_IDENTIFIER_STRING@GPUInfo@@0V?$basic_string@DU?$char_traits@D@std@@V?$allocator@D@2@@std@@B 00462444     systeminfo.obj
 0003:0000045c       ?NAME_IDENTIFIER_STRING@MotherboardInfo@@0V?$basic_string@DU?$char_traits@D@std@@V?$allocator@D@2@@std@@B 0046245c     systeminfo.obj
 0003:00000474       ?RAM_INFO_QUERY_STRING@RAMInfoDelegate@@0V?$basic_string@DU?$char_traits@D@std@@V?$allocator@D@2@@std@@B 00462474     systeminfo.obj
 0003:0000048c       ?MANUFACTURER_IDENTIFIER_STRING@OSInfo@@0V?$basic_string@DU?$char_traits@D@std@@V?$allocator@D@2@@std@@B 0046248c     systeminfo.obj
 0003:000004a4       ?PART_NUMBER_IDENTIFIER_STRING@RAMInfo@@0V?$basic_string@DU?$char_traits@D@std@@V?$allocator@D@2@@std@@B 004624a4     systeminfo.obj
 0003:000004bc       ?GPU_INFO_END_IDENTIFIER_STRING@GPUInfoDelegate@@0V?$basic_string@DU?$char_traits@D@std@@V?$allocator@D@2@@std@@B 004624bc     systeminfo.obj
 0003:000004d4       ?VERSION_IDENTIFIER_STRING@MotherboardInfo@@0V?$basic_string@DU?$char_traits@D@std@@V?$allocator@D@2@@std@@B 004624d4     systeminfo.obj
 0003:000004ec       ?NAME_IDENTIFIER_STRING@CPUInfo@@0V?$basic_string@DU?$char_traits@D@std@@V?$allocator@D@2@@std@@B 004624ec     systeminfo.obj
 0003:00000504       ?CURRENT_USER_IDENTIFIER_STRING@OSInfo@@0V?$basic_string@DU?$char_traits@D@std@@V?$allocator@D@2@@std@@B 00462504     systeminfo.obj
 0003:0000051c       ?OS_INSTANCE_QUERY_STRING@OSInfoDelegate@@0V?$basic_string@DU?$char_traits@D@std@@V?$allocator@D@2@@std@@B 0046251c     systeminfo.obj
 0003:00000534       ?MANUFACTURER_IDENTIFIER_STRING@CPUInfo@@0V?$basic_string@DU?$char_traits@D@std@@V?$allocator@D@2@@std@@B 00462534     systeminfo.obj
 0003:0000054c       ?FREE_PHYSICAL_MEMORY_IDENTIFIER_STRING@OSInfo@@0V?$basic_string@DU?$char_traits@D@std@@V?$allocator@D@2@@std@@B 0046254c     systeminfo.obj
 0003:00000564       ?CLOCK_SPEED_QUERY_STRING@CPUInfo@@0V?$basic_string@DU?$char_traits@D@std@@V?$allocator@D@2@@std@@B 00462564     systeminfo.obj
 0003:0000057c       ?TEMPERATURE_ERROR_IDENTIFIER_STRING@CPUInfo@@0V?$basic_string@DU?$char_traits@D@std@@V?$allocator@D@2@@std@@B 0046257c     systeminfo.obj
 0003:00000594       ?REFRESH_RATE_IDENTIFIER_STRING@GPUInfo@@0V?$basic_string@DU?$char_traits@D@std@@V?$allocator@D@2@@std@@B 00462594     systeminfo.obj
 0003:000005ac       ?TOTAL_SWAP_SIZE_IDENTIFIER_STRING@OSInfo@@0V?$basic_string@DU?$char_traits@D@std@@V?$allocator@D@2@@std@@B 004625ac     systeminfo.obj
 0003:000005c4       ?CHIPSET_IDENTIFIER_STRING@MotherboardInfo@@0V?$basic_string@DU?$char_traits@D@std@@V?$allocator@D@2@@std@@B 004625c4     systeminfo.obj
 0003:000005dc       ?CAPTION_IDENTIFIER_STRING@GPUInfo@@0V?$basic_string@DU?$char_traits@D@std@@V?$allocator@D@2@@std@@B 004625dc     systeminfo.obj
 0003:000005f4       ?BUILD_NUMBER_IDENTIFIER_STRING@OSInfo@@0V?$basic_string@DU?$char_traits@D@std@@V?$allocator@D@2@@std@@B 004625f4     systeminfo.obj
 0003:0000060c       ?VIDEO_ARCHITECTURE_IDENTIFIER_STRING@GPUInfo@@0V?$basic_string@DU?$char_traits@D@std@@V?$allocator@D@2@@std@@B 0046260c     systeminfo.obj
 0003:00000624       ?CPU_INFO_END_IDENTIFIER_STRING@CPUInfoDelegate@@0V?$basic_string@DU?$char_traits@D@std@@V?$allocator@D@2@@std@@B 00462624     systeminfo.obj
 0003:0000063c       ?GPU_INFO_QUERY_STRING@GPUInfoDelegate@@0V?$basic_string@DU?$char_traits@D@std@@V?$allocator@D@2@@std@@B 0046263c     systeminfo.obj
 0003:00000654       ?TOTAL_VIRTUAL_MEMORY_SIZE_IDENTIFIER_STRING@OSInfo@@0V?$basic_string@DU?$char_traits@D@std@@V?$allocator@D@2@@std@@B 00462654     systeminfo.obj
 0003:0000066c       ?NAME_IDENTIFIER_STRING@OSInfo@@0V?$basic_string@DU?$char_traits@D@std@@V?$allocator@D@2@@std@@B 0046266c     systeminfo.obj
 0003:00000684       ?OS_INFO_END_IDENTIFIER_STRING@OSInfoDelegate@@0V?$basic_string@DU?$char_traits@D@std@@V?$allocator@D@2@@std@@B 00462684     systeminfo.obj
 0003:0000069c       ?FREE_VIRTUAL_MEMORY_QUERY_STRING@OSInfo@@0V?$basic_string@DU?$char_traits@D@std@@V?$allocator@D@2@@std@@B 0046269c     systeminfo.obj
 0003:000006b4       ?INTEL_IDENTIFIER_STRING@GPUInfo@@0V?$basic_string@DU?$char_traits@D@std@@V?$allocator@D@2@@std@@B 004626b4     systeminfo.obj
 0003:000006cc       ?DRIVER_VERSION_IDENTIFIER_STRING@GPUInfo@@0V?$basic_string@DU?$char_traits@D@std@@V?$allocator@D@2@@std@@B 004626cc     systeminfo.obj
 0003:000006e4       ?CURRENT_CLOCK_SPEED_IDENTIFIER_STRING@CPUInfo@@0V?$basic_string@DU?$char_traits@D@std@@V?$allocator@D@2@@std@@B 004626e4     systeminfo.obj
 0003:000006fc       ?OS_INFO_QUERY_STRING@OSInfoDelegate@@0V?$basic_string@DU?$char_traits@D@std@@V?$allocator@D@2@@std@@B 004626fc     systeminfo.obj
 0003:00000714       ?MOTHERBOARD_INFO_QUERY_STRING@MotherboardInfoDelegate@@0V?$basic_string@DU?$char_traits@D@std@@V?$allocator@D@2@@std@@B 00462714     systeminfo.obj
 0003:0000072c       ?SERIAL_NUMBER_IDENTIFIER_STRING@MotherboardInfo@@0V?$basic_string@DU?$char_traits@D@std@@V?$allocator@D@2@@std@@B 0046272c     systeminfo.obj
 0003:00000744       ?NAME_IDENTIFIER_STRING@RAMInfo@@0V?$basic_string@DU?$char_traits@D@std@@V?$allocator@D@2@@std@@B 00462744     systeminfo.obj
 0003:0000075c       ?GPU_INSTANCE_QUERY_STRING@GPUInfoDelegate@@0V?$basic_string@DU?$char_traits@D@std@@V?$allocator@D@2@@std@@B 0046275c     systeminfo.obj
 0003:00000774       ?CURRENT_DATE_TIME_IDENTIFIER_STRING@OSInfo@@0V?$basic_string@DU?$char_traits@D@std@@V?$allocator@D@2@@std@@B 00462774     systeminfo.obj
 0003:0000078c       ?L3_CACHE_SIZE_IDENTIFIER_STRING@CPUInfo@@0V?$basic_string@DU?$char_traits@D@std@@V?$allocator@D@2@@std@@B 0046278c     systeminfo.obj
 0003:000007a4       ??_R0?AVbad_alloc@std@@@8  004627a4     protect.obj
 0003:000007c0       ??_R0?AVexception@std@@@8  004627c0     protect.obj
 0003:000007dc       ??_R0?AVbad_array_new_length@std@@@8 004627dc     protect.obj
 0003:00000804       ??_R0?AVbad_cast@std@@@8   00462804     systeminfo.obj
 0003:00000858       ??_R0?AVtype_info@@@8      00462858     MSVCRT:std_type_info_static.obj
 0003:00000870       ??_R0?AV?$basic_stringstream@DU?$char_traits@D@std@@V?$allocator@D@2@@std@@@8 00462870     systeminfo.obj
 0003:000008c0       ??_R0?AV?$basic_filebuf@DU?$char_traits@D@std@@@std@@@8 004628c0     systeminfo.obj
 0003:000008fc       ??_R0?AV?$basic_ifstream@DU?$char_traits@D@std@@@std@@@8 004628fc     systeminfo.obj
 0003:00000938       ??_R0?AV?$basic_stringbuf@DU?$char_traits@D@std@@V?$allocator@D@2@@std@@@8 00462938     systeminfo.obj
 0003:00000988       ??_R0?AVios_base@std@@@8   00462988     systeminfo.obj
 0003:000009a4       ??_R0?AV?$basic_iostream@DU?$char_traits@D@std@@@std@@@8 004629a4     systeminfo.obj
 0003:000009e0       ??_R0?AV?$_Func_base@V?$basic_string@DU?$char_traits@D@std@@V?$allocator@D@2@@std@@ABV12@@std@@@8 004629e0     systeminfo.obj
 0003:00000ae4       ??_R0?AV?$_Iosb@H@std@@@8  00462ae4     systeminfo.obj
 0003:00000b00       ??_R0?AV?$basic_streambuf@DU?$char_traits@D@std@@@std@@@8 00462b00     systeminfo.obj
 0003:00000b3c       ??_R0?AV?$basic_istream@DU?$char_traits@D@std@@@std@@@8 00462b3c     systeminfo.obj
 0003:00000b78       ??_R0?AV?$basic_ios@DU?$char_traits@D@std@@@std@@@8 00462b78     systeminfo.obj
 0003:00000bb0       ??_R0?AV?$basic_ostream@DU?$char_traits@D@std@@@std@@@8 00462bb0     systeminfo.obj
 0003:00000bf8       ___scrt_current_native_startup_state 00462bf8     MSVCRT:utility.obj
 0003:00000bfc       ___scrt_native_startup_lock 00462bfc     MSVCRT:utility.obj
 0003:00000c1c       ___castguard_check_failure_os_handled_fptr 00462c1c     MSVCRT:guard_support.obj
 0003:00000f3c       ___isa_available           00462f3c     MSVCRT:cpu_disp.obj
 0003:00000f40       ___favor                   00462f40     MSVCRT:cpu_disp.obj
 0003:00000f44       ___scrt_debugger_hook_flag 00462f44     MSVCRT:utility_desktop.obj
 0003:00000f48       ?__type_info_root_node@@3U__type_info_node@@A 00462f48     MSVCRT:tncleanup.obj
 0003:00000f50       ?_OptionsStorage@?1??__local_stdio_scanf_options@@9@4_KA 00462f50     MSVCRT:default_local_stdio_options.obj
 0003:00000f74       _Curl_if_nametoindex       00462f74     libcurl:system_win32.obj
 0003:00000fa0       ?Form@@3UtagRECT@@A        00462fa0     Main.obj
 0003:00000fb0       ?g_hWnd@@3PAUHWND__@@A     00462fb0     Main.obj
 0003:00000fb4       ?g_d3dpp@@3U_D3DPRESENT_PARAMETERS_@@A 00462fb4     Main.obj
 0003:00000fec       ?g_pd3dDevice@@3PAUIDirect3DDevice9@@A 00462fec     Main.obj
 0003:00000ff0       ?g_line@@3PAUID3DXLine@@A  00462ff0     Main.obj
 0003:00000ff4       ?g_pd3d@@3PAUIDirect3D9@@A 00462ff4     Main.obj
 0003:00000ff8       ?g_hProcess@@3PAXA         00462ff8     Main.obj
 0003:00000ffc       ?screen_height@@3MA        00462ffc     Main.obj
 0003:00001000       ?screen_width@@3MA         00463000     Main.obj
 0003:00001004       ?g_game_dll_base@@3KA      00463004     Main.obj
 0003:00001008       ?g_hWarcraftWnd@@3PAUHWND__@@A 00463008     Main.obj
 0003:00001010       ?view_matrix@@3U_D3DXMATRIXA16@@A 00463010     Main.obj
 0003:00001050       ?view_matrix_temp@@3U_D3DXMATRIXA16@@A 00463050     Main.obj
 0003:00001090       ?_OptionsStorage@?1??__local_stdio_printf_options@@9@4_KA 00463090     protect.obj
 0003:00001098       ?_Psave@?$_Facetptr@V?$ctype@D@std@@@std@@2PBVfacet@locale@2@B 00463098     systeminfo.obj
 0003:0000109c       ?_Psave@?$_Facetptr@V?$codecvt@DDU_Mbstatet@@@std@@@std@@2PBVfacet@locale@2@B 0046309c     systeminfo.obj
 0003:000010a0       ?_Stinit@?1??_Init@?$basic_filebuf@DU?$char_traits@D@std@@@std@@IAEXPAU_iobuf@@W4_Initfl@23@@Z@4U_Mbstatet@@A 004630a0     systeminfo.obj
 0003:000010a8       ___dyn_tls_dtor_callback   004630a8     <common>
 0003:000010ac       ___dyn_tls_init_callback   004630ac     <common>
 0003:000010b0       _Curl_isVistaOrGreater     004630b0     <common>
 0003:000010b8       _Curl_freq                 004630b8     <common>

 entry point at        0001:000102de

 Static symbols

 0001:00000000       ??__Eg_hWarcraftWnd@@YAXXZ 00401000 f   Main.obj
 0001:00000020       ??__E?TEMPERATURE_QUERY_STRING@CPUInfo@@0V?$basic_string@DU?$char_traits@D@std@@V?$allocator@D@2@@std@@B@@YAXXZ 00401020 f   systeminfo.obj
 0001:00000040       ??__E?TEMPERATURE_ERROR_IDENTIFIER_STRING@CPUInfo@@0V?$basic_string@DU?$char_traits@D@std@@V?$allocator@D@2@@std@@B@@YAXXZ 00401040 f   systeminfo.obj
 0001:00000060       ??__E?CLOCK_SPEED_QUERY_STRING@CPUInfo@@0V?$basic_string@DU?$char_traits@D@std@@V?$allocator@D@2@@std@@B@@YAXXZ 00401060 f   systeminfo.obj
 0001:00000080       ??__E?CURRENT_CLOCK_SPEED_IDENTIFIER_STRING@CPUInfo@@0V?$basic_string@DU?$char_traits@D@std@@V?$allocator@D@2@@std@@B@@YAXXZ 00401080 f   systeminfo.obj
 0001:000000a0       ??__E?NAME_IDENTIFIER_STRING@CPUInfo@@0V?$basic_string@DU?$char_traits@D@std@@V?$allocator@D@2@@std@@B@@YAXXZ 004010a0 f   systeminfo.obj
 0001:000000c0       ??__E?NUMBER_OF_CORES_IDENTIFIER_STRING@CPUInfo@@0V?$basic_string@DU?$char_traits@D@std@@V?$allocator@D@2@@std@@B@@YAXXZ 004010c0 f   systeminfo.obj
 0001:000000e0       ??__E?MANUFACTURER_IDENTIFIER_STRING@CPUInfo@@0V?$basic_string@DU?$char_traits@D@std@@V?$allocator@D@2@@std@@B@@YAXXZ 004010e0 f   systeminfo.obj
 0001:00000100       ??__E?ARCHITECTURE_IDENTIFIER_STRING@CPUInfo@@0V?$basic_string@DU?$char_traits@D@std@@V?$allocator@D@2@@std@@B@@YAXXZ 00401100 f   systeminfo.obj
 0001:00000120       ??__E?L2_CACHE_SIZE_IDENTIFIER_STRING@CPUInfo@@0V?$basic_string@DU?$char_traits@D@std@@V?$allocator@D@2@@std@@B@@YAXXZ 00401120 f   systeminfo.obj
 0001:00000140       ??__E?L3_CACHE_SIZE_IDENTIFIER_STRING@CPUInfo@@0V?$basic_string@DU?$char_traits@D@std@@V?$allocator@D@2@@std@@B@@YAXXZ 00401140 f   systeminfo.obj
 0001:00000160       ??__E?CPU_INFO_QUERY_STRING@CPUInfoDelegate@@0V?$basic_string@DU?$char_traits@D@std@@V?$allocator@D@2@@std@@B@@YAXXZ 00401160 f   systeminfo.obj
 0001:00000180       ??__E?CPU_INSTANCE_QUERY_STRING@CPUInfoDelegate@@0V?$basic_string@DU?$char_traits@D@std@@V?$allocator@D@2@@std@@B@@YAXXZ 00401180 f   systeminfo.obj
 0001:000001a0       ??__E?CPU_INFO_END_IDENTIFIER_STRING@CPUInfoDelegate@@0V?$basic_string@DU?$char_traits@D@std@@V?$allocator@D@2@@std@@B@@YAXXZ 004011a0 f   systeminfo.obj
 0001:000001c0       ??__E?NVIDIA_IDENTIFIER_STRING@GPUInfo@@0V?$basic_string@DU?$char_traits@D@std@@V?$allocator@D@2@@std@@B@@YAXXZ 004011c0 f   systeminfo.obj
 0001:000001e0       ??__E?INTEL_IDENTIFIER_STRING@GPUInfo@@0V?$basic_string@DU?$char_traits@D@std@@V?$allocator@D@2@@std@@B@@YAXXZ 004011e0 f   systeminfo.obj
 0001:00000200       ??__E?AMD_IDENTIFIER_STRING@GPUInfo@@0V?$basic_string@DU?$char_traits@D@std@@V?$allocator@D@2@@std@@B@@YAXXZ 00401200 f   systeminfo.obj
 0001:00000220       ??__E?NAME_IDENTIFIER_STRING@GPUInfo@@0V?$basic_string@DU?$char_traits@D@std@@V?$allocator@D@2@@std@@B@@YAXXZ 00401220 f   systeminfo.obj
 0001:00000240       ??__E?MANUFACTURER_IDENTIFIER_STRING@GPUInfo@@0V?$basic_string@DU?$char_traits@D@std@@V?$allocator@D@2@@std@@B@@YAXXZ 00401240 f   systeminfo.obj
 0001:00000260       ??__E?ADAPTER_RAM_IDENTIFIER_STRING@GPUInfo@@0V?$basic_string@DU?$char_traits@D@std@@V?$allocator@D@2@@std@@B@@YAXXZ 00401260 f   systeminfo.obj
 0001:00000280       ??__E?REFRESH_RATE_IDENTIFIER_STRING@GPUInfo@@0V?$basic_string@DU?$char_traits@D@std@@V?$allocator@D@2@@std@@B@@YAXXZ 00401280 f   systeminfo.obj
 0001:000002a0       ??__E?DRIVER_VERSION_IDENTIFIER_STRING@GPUInfo@@0V?$basic_string@DU?$char_traits@D@std@@V?$allocator@D@2@@std@@B@@YAXXZ 004012a0 f   systeminfo.obj
 0001:000002c0       ??__E?VIDEO_ARCHITECTURE_IDENTIFIER_STRING@GPUInfo@@0V?$basic_string@DU?$char_traits@D@std@@V?$allocator@D@2@@std@@B@@YAXXZ 004012c0 f   systeminfo.obj
 0001:000002e0       ??__E?VIDEO_MEMORY_TYPE_IDENTIFIER_STRING@GPUInfo@@0V?$basic_string@DU?$char_traits@D@std@@V?$allocator@D@2@@std@@B@@YAXXZ 004012e0 f   systeminfo.obj
 0001:00000300       ??__E?VIDEO_MODE_DESCRIPTION_IDENTIFIER_STRING@GPUInfo@@0V?$basic_string@DU?$char_traits@D@std@@V?$allocator@D@2@@std@@B@@YAXXZ 00401300 f   systeminfo.obj
 0001:00000320       ??__E?VIDEO_PROCESSOR_IDENTIFIER_STRING@GPUInfo@@0V?$basic_string@DU?$char_traits@D@std@@V?$allocator@D@2@@std@@B@@YAXXZ 00401320 f   systeminfo.obj
 0001:00000340       ??__E?CAPTION_IDENTIFIER_STRING@GPUInfo@@0V?$basic_string@DU?$char_traits@D@std@@V?$allocator@D@2@@std@@B@@YAXXZ 00401340 f   systeminfo.obj
 0001:00000360       ??__E?GPU_INFO_QUERY_STRING@GPUInfoDelegate@@0V?$basic_string@DU?$char_traits@D@std@@V?$allocator@D@2@@std@@B@@YAXXZ 00401360 f   systeminfo.obj
 0001:00000380       ??__E?GPU_INSTANCE_QUERY_STRING@GPUInfoDelegate@@0V?$basic_string@DU?$char_traits@D@std@@V?$allocator@D@2@@std@@B@@YAXXZ 00401380 f   systeminfo.obj
 0001:000003a0       ??__E?GPU_INFO_END_IDENTIFIER_STRING@GPUInfoDelegate@@0V?$basic_string@DU?$char_traits@D@std@@V?$allocator@D@2@@std@@B@@YAXXZ 004013a0 f   systeminfo.obj
 0001:000003c0       ??__E?CHIPSET_QUERY_STRING@MotherboardInfo@@0V?$basic_string@DU?$char_traits@D@std@@V?$allocator@D@2@@std@@B@@YAXXZ 004013c0 f   systeminfo.obj
 0001:000003e0       ??__E?NAME_IDENTIFIER_STRING@MotherboardInfo@@0V?$basic_string@DU?$char_traits@D@std@@V?$allocator@D@2@@std@@B@@YAXXZ 004013e0 f   systeminfo.obj
 0001:00000400       ??__E?MANUFACTURER_IDENTIFIER_STRING@MotherboardInfo@@0V?$basic_string@DU?$char_traits@D@std@@V?$allocator@D@2@@std@@B@@YAXXZ 00401400 f   systeminfo.obj
 0001:00000420       ??__E?CHIPSET_IDENTIFIER_STRING@MotherboardInfo@@0V?$basic_string@DU?$char_traits@D@std@@V?$allocator@D@2@@std@@B@@YAXXZ 00401420 f   systeminfo.obj
 0001:00000440       ??__E?CHIPSET_END_IDENTIFIER_STRING@MotherboardInfo@@0V?$basic_string@DU?$char_traits@D@std@@V?$allocator@D@2@@std@@B@@YAXXZ 00401440 f   systeminfo.obj
 0001:00000460       ??__E?SERIAL_NUMBER_IDENTIFIER_STRING@MotherboardInfo@@0V?$basic_string@DU?$char_traits@D@std@@V?$allocator@D@2@@std@@B@@YAXXZ 00401460 f   systeminfo.obj
 0001:00000480       ??__E?VERSION_IDENTIFIER_STRING@MotherboardInfo@@0V?$basic_string@DU?$char_traits@D@std@@V?$allocator@D@2@@std@@B@@YAXXZ 00401480 f   systeminfo.obj
 0001:000004a0       ??__E?MOTHERBOARD_INFO_QUERY_STRING@MotherboardInfoDelegate@@0V?$basic_string@DU?$char_traits@D@std@@V?$allocator@D@2@@std@@B@@YAXXZ 004014a0 f   systeminfo.obj
 0001:000004c0       ??__E?MOTHERBOARD_INSTANCE_QUERY_STRING@MotherboardInfoDelegate@@0V?$basic_string@DU?$char_traits@D@std@@V?$allocator@D@2@@std@@B@@YAXXZ 004014c0 f   systeminfo.obj
 0001:000004e0       ??__E?MOTHERBOARD_INFO_END_IDENTIFIER_STRING@MotherboardInfoDelegate@@0V?$basic_string@DU?$char_traits@D@std@@V?$allocator@D@2@@std@@B@@YAXXZ 004014e0 f   systeminfo.obj
 0001:00000500       ??__E?ARCHITECTURE_IDENTIFIER_STRING@OSInfo@@0V?$basic_string@DU?$char_traits@D@std@@V?$allocator@D@2@@std@@B@@YAXXZ 00401500 f   systeminfo.obj
 0001:00000520       ??__E?CAPTION_INDENTIFIER_STRING@OSInfo@@0V?$basic_string@DU?$char_traits@D@std@@V?$allocator@D@2@@std@@B@@YAXXZ 00401520 f   systeminfo.obj
 0001:00000540       ??__E?NAME_IDENTIFIER_STRING@OSInfo@@0V?$basic_string@DU?$char_traits@D@std@@V?$allocator@D@2@@std@@B@@YAXXZ 00401540 f   systeminfo.obj
 0001:00000560       ??__E?MANUFACTURER_IDENTIFIER_STRING@OSInfo@@0V?$basic_string@DU?$char_traits@D@std@@V?$allocator@D@2@@std@@B@@YAXXZ 00401560 f   systeminfo.obj
 0001:00000580       ??__E?VERSION_IDENTIFIER_STRING@OSInfo@@0V?$basic_string@DU?$char_traits@D@std@@V?$allocator@D@2@@std@@B@@YAXXZ 00401580 f   systeminfo.obj
 0001:000005a0       ??__E?CURRENT_USER_IDENTIFIER_STRING@OSInfo@@0V?$basic_string@DU?$char_traits@D@std@@V?$allocator@D@2@@std@@B@@YAXXZ 004015a0 f   systeminfo.obj
 0001:000005c0       ??__E?INSTALL_DATE_IDENTIFIER_STRING@OSInfo@@0V?$basic_string@DU?$char_traits@D@std@@V?$allocator@D@2@@std@@B@@YAXXZ 004015c0 f   systeminfo.obj
 0001:000005e0       ??__E?BUILD_NUMBER_IDENTIFIER_STRING@OSInfo@@0V?$basic_string@DU?$char_traits@D@std@@V?$allocator@D@2@@std@@B@@YAXXZ 004015e0 f   systeminfo.obj
 0001:00000600       ??__E?LAST_BOOT_UP_TIME_IDENTIFIER_STRING@OSInfo@@0V?$basic_string@DU?$char_traits@D@std@@V?$allocator@D@2@@std@@B@@YAXXZ 00401600 f   systeminfo.obj
 0001:00000620       ??__E?BOOT_DEVICE_IDENTIFIER_STRING@OSInfo@@0V?$basic_string@DU?$char_traits@D@std@@V?$allocator@D@2@@std@@B@@YAXXZ 00401620 f   systeminfo.obj
 0001:00000640       ??__E?SERIAL_NUMBER_IDENTIFIER_STRING@OSInfo@@0V?$basic_string@DU?$char_traits@D@std@@V?$allocator@D@2@@std@@B@@YAXXZ 00401640 f   systeminfo.obj
 0001:00000660       ??__E?TOTAL_VIRTUAL_MEMORY_SIZE_IDENTIFIER_STRING@OSInfo@@0V?$basic_string@DU?$char_traits@D@std@@V?$allocator@D@2@@std@@B@@YAXXZ 00401660 f   systeminfo.obj
 0001:00000680       ??__E?TOTAL_VISIBLE_MEMORY_SIZE_IDENTIFIER_STRING@OSInfo@@0V?$basic_string@DU?$char_traits@D@std@@V?$allocator@D@2@@std@@B@@YAXXZ 00401680 f   systeminfo.obj
 0001:000006a0       ??__E?TOTAL_SWAP_SIZE_IDENTIFIER_STRING@OSInfo@@0V?$basic_string@DU?$char_traits@D@std@@V?$allocator@D@2@@std@@B@@YAXXZ 004016a0 f   systeminfo.obj
 0001:000006c0       ??__E?FREE_PHYSICAL_MEMORY_IDENTIFIER_STRING@OSInfo@@0V?$basic_string@DU?$char_traits@D@std@@V?$allocator@D@2@@std@@B@@YAXXZ 004016c0 f   systeminfo.obj
 0001:000006e0       ??__E?FREE_PHYSICAL_MEMORY_QUERY_STRING@OSInfo@@0V?$basic_string@DU?$char_traits@D@std@@V?$allocator@D@2@@std@@B@@YAXXZ 004016e0 f   systeminfo.obj
 0001:00000700       ??__E?FREE_VIRTUAL_MEMORY_IDENTIFIER_STRING@OSInfo@@0V?$basic_string@DU?$char_traits@D@std@@V?$allocator@D@2@@std@@B@@YAXXZ 00401700 f   systeminfo.obj
 0001:00000720       ??__E?FREE_VIRTUAL_MEMORY_QUERY_STRING@OSInfo@@0V?$basic_string@DU?$char_traits@D@std@@V?$allocator@D@2@@std@@B@@YAXXZ 00401720 f   systeminfo.obj
 0001:00000740       ??__E?FREE_SPACE_IN_PAGING_FILES_IDENTIFIER_STRING@OSInfo@@0V?$basic_string@DU?$char_traits@D@std@@V?$allocator@D@2@@std@@B@@YAXXZ 00401740 f   systeminfo.obj
 0001:00000760       ??__E?FREE_SPACE_IN_PAGING_FILES_QUERY_STRING@OSInfo@@0V?$basic_string@DU?$char_traits@D@std@@V?$allocator@D@2@@std@@B@@YAXXZ 00401760 f   systeminfo.obj
 0001:00000780       ??__E?USED_SPACE_IN_PAGING_FILE_IDENTIFIER_STRING@OSInfo@@0V?$basic_string@DU?$char_traits@D@std@@V?$allocator@D@2@@std@@B@@YAXXZ 00401780 f   systeminfo.obj
 0001:000007a0       ??__E?USED_SPACE_IN_PAGING_FILE_QUERY_STRING@OSInfo@@0V?$basic_string@DU?$char_traits@D@std@@V?$allocator@D@2@@std@@B@@YAXXZ 004017a0 f   systeminfo.obj
 0001:000007c0       ??__E?CURRENT_DATE_TIME_IDENTIFIER_STRING@OSInfo@@0V?$basic_string@DU?$char_traits@D@std@@V?$allocator@D@2@@std@@B@@YAXXZ 004017c0 f   systeminfo.obj
 0001:000007e0       ??__E?CURRENT_DATE_TIME_QUERY_STRING@OSInfo@@0V?$basic_string@DU?$char_traits@D@std@@V?$allocator@D@2@@std@@B@@YAXXZ 004017e0 f   systeminfo.obj
 0001:00000800       ??__E?OS_INFO_QUERY_STRING@OSInfoDelegate@@0V?$basic_string@DU?$char_traits@D@std@@V?$allocator@D@2@@std@@B@@YAXXZ 00401800 f   systeminfo.obj
 0001:00000820       ??__E?OS_INSTANCE_QUERY_STRING@OSInfoDelegate@@0V?$basic_string@DU?$char_traits@D@std@@V?$allocator@D@2@@std@@B@@YAXXZ 00401820 f   systeminfo.obj
 0001:00000840       ??__E?OS_INFO_END_IDENTIFIER_STRING@OSInfoDelegate@@0V?$basic_string@DU?$char_traits@D@std@@V?$allocator@D@2@@std@@B@@YAXXZ 00401840 f   systeminfo.obj
 0001:00000860       ??__E?NAME_IDENTIFIER_STRING@RAMInfo@@0V?$basic_string@DU?$char_traits@D@std@@V?$allocator@D@2@@std@@B@@YAXXZ 00401860 f   systeminfo.obj
 0001:00000880       ??__E?MANUFACTURER_IDENTIFIER_STRING@RAMInfo@@0V?$basic_string@DU?$char_traits@D@std@@V?$allocator@D@2@@std@@B@@YAXXZ 00401880 f   systeminfo.obj
 0001:000008a0       ??__E?CAPACITY_IDENTIFIER_STRING@RAMInfo@@0V?$basic_string@DU?$char_traits@D@std@@V?$allocator@D@2@@std@@B@@YAXXZ 004018a0 f   systeminfo.obj
 0001:000008c0       ??__E?SERIAL_NUMBER_IDENTIFIER_STRING@RAMInfo@@0V?$basic_string@DU?$char_traits@D@std@@V?$allocator@D@2@@std@@B@@YAXXZ 004018c0 f   systeminfo.obj
 0001:000008e0       ??__E?FORM_FACTOR_IDENTIFIER_STRING@RAMInfo@@0V?$basic_string@DU?$char_traits@D@std@@V?$allocator@D@2@@std@@B@@YAXXZ 004018e0 f   systeminfo.obj
 0001:00000900       ??__E?PART_NUMBER_IDENTIFIER_STRING@RAMInfo@@0V?$basic_string@DU?$char_traits@D@std@@V?$allocator@D@2@@std@@B@@YAXXZ 00401900 f   systeminfo.obj
 0001:00000920       ??__E?MEMORY_TYPE_IDENTIFIER_STRING@RAMInfo@@0V?$basic_string@DU?$char_traits@D@std@@V?$allocator@D@2@@std@@B@@YAXXZ 00401920 f   systeminfo.obj
 0001:00000940       ??__E?CLOCK_SPEED_IDENTIFIER_STRING@RAMInfo@@0V?$basic_string@DU?$char_traits@D@std@@V?$allocator@D@2@@std@@B@@YAXXZ 00401940 f   systeminfo.obj
 0001:00000960       ??__E?BACKUP_CLOCK_SPEED_IDENTIFIER_STRING@RAMInfo@@0V?$basic_string@DU?$char_traits@D@std@@V?$allocator@D@2@@std@@B@@YAXXZ 00401960 f   systeminfo.obj
 0001:00000980       ??__E?RAM_INFO_QUERY_STRING@RAMInfoDelegate@@0V?$basic_string@DU?$char_traits@D@std@@V?$allocator@D@2@@std@@B@@YAXXZ 00401980 f   systeminfo.obj
 0001:000009a0       ??__E?RAM_INSTANCE_QUERY_STRING@RAMInfoDelegate@@0V?$basic_string@DU?$char_traits@D@std@@V?$allocator@D@2@@std@@B@@YAXXZ 004019a0 f   systeminfo.obj
 0001:000009c0       ??__E?RAM_INFO_END_IDENTIFIER_STRING@RAMInfoDelegate@@0V?$basic_string@DU?$char_traits@D@std@@V?$allocator@D@2@@std@@B@@YAXXZ 004019c0 f   systeminfo.obj
 0001:000009dd       ??__F_Fac_tidy_reg@std@@YAXXZ 004019dd f   msvcprt:locale0_implib.obj
 0001:00002e85       __catch$??$?6U?$char_traits@D@std@@@std@@YAAAV?$basic_ostream@DU?$char_traits@D@std@@@0@AAV10@PBD@Z$0 00403e85 f i protect.obj
 0001:00004841       __catch$?getArchitecture@CPUInfo@@ABE?AV?$basic_string@DU?$char_traits@D@std@@V?$allocator@D@2@@std@@AAV23@@Z$0 00405841 f   systeminfo.obj
 0001:00005313       __catch$??0GPUInfo@@QAE@ABV?$vector@V?$basic_string@DU?$char_traits@D@std@@V?$allocator@D@2@@std@@V?$allocator@V?$basic_string@DU?$char_traits@D@std@@V?$allocator@D@2@@std@@@2@@std@@H@Z$0 00406313 f   systeminfo.obj
 0001:00005d58       $LN265                     00406d58     systeminfo.obj
 0001:00005d90       $LN264                     00406d90     systeminfo.obj
 0001:0000605c       $LN264                     0040705c     systeminfo.obj
 0001:00007b9b       __catch$??0OSInfo@@QAE@ABV?$vector@V?$basic_string@DU?$char_traits@D@std@@V?$allocator@D@2@@std@@V?$allocator@V?$basic_string@DU?$char_traits@D@std@@V?$allocator@D@2@@std@@@2@@std@@H@Z$0 00408b9b f   systeminfo.obj
 0001:00008050       __catch$??0OSInfo@@QAE@ABV?$vector@V?$basic_string@DU?$char_traits@D@std@@V?$allocator@D@2@@std@@V?$allocator@V?$basic_string@DU?$char_traits@D@std@@V?$allocator@D@2@@std@@@2@@std@@H@Z$2 00409050 f   systeminfo.obj
 0001:000084ff       __catch$??0OSInfo@@QAE@ABV?$vector@V?$basic_string@DU?$char_traits@D@std@@V?$allocator@D@2@@std@@V?$allocator@V?$basic_string@DU?$char_traits@D@std@@V?$allocator@D@2@@std@@@2@@std@@H@Z$4 004094ff f   systeminfo.obj
 0001:000091d6       __catch$??0RAMInfo@@QAE@ABV?$vector@V?$basic_string@DU?$char_traits@D@std@@V?$allocator@D@2@@std@@V?$allocator@V?$basic_string@DU?$char_traits@D@std@@V?$allocator@D@2@@std@@@2@@std@@H@Z$0 0040a1d6 f   systeminfo.obj
 0001:00009cfe       __catch$?getMemoryType@RAMInfo@@ABE?AV?$basic_string@DU?$char_traits@D@std@@V?$allocator@D@2@@std@@ABV23@@Z$0 0040acfe f   systeminfo.obj
 0001:00009d50       $LN433                     0040ad50     systeminfo.obj
 0001:00009f52       __catch$?getFormFactor@RAMInfo@@ABE?AV?$basic_string@DU?$char_traits@D@std@@V?$allocator@D@2@@std@@ABV23@@Z$0 0040af52 f   systeminfo.obj
 0001:00009fa4       $LN403                     0040afa4     systeminfo.obj
 0001:0000adf0       ??R<lambda_b5565d269da327e336800d80f472b553>@@QBE?AV?$basic_string@DU?$char_traits@D@std@@V?$allocator@D@2@@std@@ABV12@@Z 0040bdf0 f   systeminfo.obj
 0001:0000d643       __catch$??$_Emplace_reallocate@AAV?$vector@V?$basic_string@DU?$char_traits@D@std@@V?$allocator@D@2@@std@@V?$allocator@V?$basic_string@DU?$char_traits@D@std@@V?$allocator@D@2@@std@@@2@@std@@AAH@?$vector@VCPUInfo@@V?$allocator@VCPUInfo@@@std@@@std@@QAEPAVCPUInfo@@QAV2@AAV?$vector@V?$basic_string@DU?$char_traits@D@std@@V?$allocator@D@2@@std@@V?$allocator@V?$basic_string@DU?$char_traits@D@std@@V?$allocator@D@2@@std@@@2@@1@AAH@Z$0 0040e643 f i systeminfo.obj
 0001:0000da31       __catch$??$_Emplace_reallocate@AAV?$vector@V?$basic_string@DU?$char_traits@D@std@@V?$allocator@D@2@@std@@V?$allocator@V?$basic_string@DU?$char_traits@D@std@@V?$allocator@D@2@@std@@@2@@std@@AAH@?$vector@VGPUInfo@@V?$allocator@VGPUInfo@@@std@@@std@@QAEPAVGPUInfo@@QAV2@AAV?$vector@V?$basic_string@DU?$char_traits@D@std@@V?$allocator@D@2@@std@@V?$allocator@V?$basic_string@DU?$char_traits@D@std@@V?$allocator@D@2@@std@@@2@@1@AAH@Z$0 0040ea31 f i systeminfo.obj
 0001:0000dc5a       __catch$??$_Emplace_reallocate@AAV?$vector@V?$basic_string@DU?$char_traits@D@std@@V?$allocator@D@2@@std@@V?$allocator@V?$basic_string@DU?$char_traits@D@std@@V?$allocator@D@2@@std@@@2@@std@@AAH@?$vector@VMotherboardInfo@@V?$allocator@VMotherboardInfo@@@std@@@std@@QAEPAVMotherboardInfo@@QAV2@AAV?$vector@V?$basic_string@DU?$char_traits@D@std@@V?$allocator@D@2@@std@@V?$allocator@V?$basic_string@DU?$char_traits@D@std@@V?$allocator@D@2@@std@@@2@@1@AAH@Z$0 0040ec5a f i systeminfo.obj
 0001:0000df01       __catch$??$_Emplace_reallocate@AAV?$vector@V?$basic_string@DU?$char_traits@D@std@@V?$allocator@D@2@@std@@V?$allocator@V?$basic_string@DU?$char_traits@D@std@@V?$allocator@D@2@@std@@@2@@std@@AAH@?$vector@VOSInfo@@V?$allocator@VOSInfo@@@std@@@std@@QAEPAVOSInfo@@QAV2@AAV?$vector@V?$basic_string@DU?$char_traits@D@std@@V?$allocator@D@2@@std@@V?$allocator@V?$basic_string@DU?$char_traits@D@std@@V?$allocator@D@2@@std@@@2@@1@AAH@Z$0 0040ef01 f i systeminfo.obj
 0001:0000e151       __catch$??$_Emplace_reallocate@AAV?$vector@V?$basic_string@DU?$char_traits@D@std@@V?$allocator@D@2@@std@@V?$allocator@V?$basic_string@DU?$char_traits@D@std@@V?$allocator@D@2@@std@@@2@@std@@AAH@?$vector@VRAMInfo@@V?$allocator@VRAMInfo@@@std@@@std@@QAEPAVRAMInfo@@QAV2@AAV?$vector@V?$basic_string@DU?$char_traits@D@std@@V?$allocator@D@2@@std@@V?$allocator@V?$basic_string@DU?$char_traits@D@std@@V?$allocator@D@2@@std@@@2@@1@AAH@Z$0 0040f151 f i systeminfo.obj
 0001:0000e4a4       __catch$??$_Emplace_reallocate@ABV?$basic_string@DU?$char_traits@D@std@@V?$allocator@D@2@@std@@@?$vector@V?$basic_string@DU?$char_traits@D@std@@V?$allocator@D@2@@std@@V?$allocator@V?$basic_string@DU?$char_traits@D@std@@V?$allocator@D@2@@std@@@2@@std@@QAEPAV?$basic_string@DU?$char_traits@D@std@@V?$allocator@D@2@@1@QAV21@ABV21@@Z$0 0040f4a4 f i systeminfo.obj
 0001:0000e9f6       __catch$??$_Insert_string@DU?$char_traits@D@std@@I@std@@YAAAV?$basic_ostream@DU?$char_traits@D@std@@@0@AAV10@QBDI@Z$0 0040f9f6 f i systeminfo.obj
 0001:0000f570       ?_Delete_this@?$_Func_impl_no_alloc@V<lambda_b5565d269da327e336800d80f472b553>@@V?$basic_string@DU?$char_traits@D@std@@V?$allocator@D@2@@std@@ABV23@@std@@EAEX_N@Z 00410570 f   systeminfo.obj
 0001:0000f590       ?_Get@?$_Func_impl_no_alloc@V<lambda_b5565d269da327e336800d80f472b553>@@V?$basic_string@DU?$char_traits@D@std@@V?$allocator@D@2@@std@@ABV23@@std@@EBEPBXXZ 00410590 f   systeminfo.obj
 0001:0000f5a0       ?_Target_type@?$_Func_impl_no_alloc@V<lambda_b5565d269da327e336800d80f472b553>@@V?$basic_string@DU?$char_traits@D@std@@V?$allocator@D@2@@std@@ABV23@@std@@EBEABVtype_info@@XZ 004105a0 f   systeminfo.obj
 0001:0000f5b0       ?_Do_call@?$_Func_impl_no_alloc@V<lambda_b5565d269da327e336800d80f472b553>@@V?$basic_string@DU?$char_traits@D@std@@V?$allocator@D@2@@std@@ABV23@@std@@EAE?AV?$basic_string@DU?$char_traits@D@std@@V?$allocator@D@2@@2@ABV32@@Z 004105b0 f   systeminfo.obj
 0001:0000f5d0       ?_Copy@?$_Func_impl_no_alloc@V<lambda_b5565d269da327e336800d80f472b553>@@V?$basic_string@DU?$char_traits@D@std@@V?$allocator@D@2@@std@@ABV23@@std@@EBEPAV?$_Func_base@V?$basic_string@DU?$char_traits@D@std@@V?$allocator@D@2@@std@@ABV12@@2@PAX@Z 004105d0 f   systeminfo.obj
 0001:0000f5d0       ?_Move@?$_Func_impl_no_alloc@V<lambda_b5565d269da327e336800d80f472b553>@@V?$basic_string@DU?$char_traits@D@std@@V?$allocator@D@2@@std@@ABV23@@std@@EAEPAV?$_Func_base@V?$basic_string@DU?$char_traits@D@std@@V?$allocator@D@2@@std@@ABV12@@2@PAX@Z 004105d0 f   systeminfo.obj
 0001:0000f750       __catch$??$?5DU?$char_traits@D@std@@V?$allocator@D@1@@std@@YAAAV?$basic_istream@DU?$char_traits@D@std@@@0@$$QAV10@AAV?$basic_string@DU?$char_traits@D@std@@V?$allocator@D@2@@0@@Z$0 00410750 f i systeminfo.obj
 0001:0000fe4c       ?find_pe_section@@YAPAU_IMAGE_SECTION_HEADER@@QAEI@Z 00410e4c f   MSVCRT:utility.obj
 0001:0001009d       ?pre_c_initialization@@YAHXZ 0041109d f   MSVCRT:exe_winmain.obj
 0001:00010148       ?post_pgo_initialization@@YAHXZ 00411148 f   MSVCRT:exe_winmain.obj
 0001:00010150       ?pre_cpp_initialization@@YAXXZ 00411150 f   MSVCRT:exe_winmain.obj
 0001:00010162       ?__scrt_common_main_seh@@YAHXZ 00411162 f   MSVCRT:exe_winmain.obj
 0001:00010530       $$000000                   00411530     MSVCRT:sehprolg4.obj
 0001:000108e0       _pop3_dophase_done         004118e0 f   libcurl:pop3.obj
 0001:00010990       ___get_entropy             00411990 f   MSVCRT:gs_support.obj
 0001:00010ba0       _easy_perform              00411ba0 f   libcurl:easy.obj
 0001:00010c90       _easy_transfer             00411c90 f   libcurl:easy.obj
 0001:00010d10       _global_init               00411d10 f   libcurl:easy.obj
 0001:000133cc       $LN516                     004143cc     libcurl:setopt.obj
 0001:00013510       $LN483                     00414510     libcurl:setopt.obj
 0001:000135e0       $LN517                     004145e0     libcurl:setopt.obj
 0001:0001360c       $LN518                     0041460c     libcurl:setopt.obj
 0001:0001368c       $LN486                     0041468c     libcurl:setopt.obj
 0001:000136f0       $LN519                     004146f0     libcurl:setopt.obj
 0001:00013814       $LN487                     00414814     libcurl:setopt.obj
 0001:000138f4       $LN520                     004148f4     libcurl:setopt.obj
 0001:00013964       $LN492                     00414964     libcurl:setopt.obj
 0001:000139b0       $LN521                     004149b0     libcurl:setopt.obj
 0001:000139fc       $LN493                     004149fc     libcurl:setopt.obj
 0001:00013acc       $LN522                     00414acc     libcurl:setopt.obj
 0001:00013ae4       $LN495                     00414ae4     libcurl:setopt.obj
 0001:00013b04       $LN523                     00414b04     libcurl:setopt.obj
 0001:00013b50       _setstropt_userpwd         00414b50 f   libcurl:setopt.obj
 0001:00013cd0       _slist_get_last            00414cd0 f   libcurl:slist.obj
 0001:000142d0       _add_next_timeout          004152d0 f   libcurl:multi.obj
 0001:000143a0       _before_perform            004153a0 f   libcurl:multi.obj
 0001:000143d0       _close_connect_only        004153d0 f   libcurl:multi.obj
 0001:00014bc0       _doing_getsock             00415bc0 f   libcurl:multi.obj
 0001:00014bf0       _domore_getsock            00415bf0 f   libcurl:multi.obj
 0001:00014c20       _fd_key_compare            00415c20 f   libcurl:multi.obj
 0001:00014c20       _trhash_compare            00415c20 f   libcurl:multi.obj
 0001:00014c40       _hash_fd                   00415c40 f   libcurl:multi.obj
 0001:00014c40       _trhash                    00415c40 f   libcurl:multi.obj
 0001:00014c60       _init_completed            00415c60 f   libcurl:multi.obj
 0001:00014c80       _mstate                    00415c80 f   libcurl:multi.obj
 0001:00014cb0       _multi_addmsg              00415cb0 f   libcurl:multi.obj
 0001:00014cd0       _multi_addtimeout          00415cd0 f   libcurl:multi.obj
 0001:00014d60       _multi_deltimeout          00415d60 f   libcurl:multi.obj
 0001:00014da0       _multi_do                  00415da0 f   libcurl:multi.obj
 0001:00014dc0       _multi_do_more             00415dc0 f   libcurl:multi.obj
 0001:00014df0       _multi_done                00415df0 f   libcurl:multi.obj
 0001:000150e0       _multi_getsock             004160e0 f   libcurl:multi.obj
 0001:0001515c       $LN17                      0041615c     libcurl:multi.obj
 0001:00015190       _multi_ischanged           00416190 f   libcurl:multi.obj
 0001:000151b0       _multi_runsingle           004161b0 f   libcurl:multi.obj
 0001:00015f6c       $LN247                     00416f6c     libcurl:multi.obj
 0001:00015fb0       _multi_timeout             00416fb0 f   libcurl:multi.obj
 0001:000160b0       _multi_wait                004170b0 f   libcurl:multi.obj
 0001:00016550       _process_pending_handles   00417550 f   libcurl:multi.obj
 0001:00016590       _protocol_connect          00417590 f   libcurl:multi.obj
 0001:00016650       _protocol_connecting       00417650 f   libcurl:multi.obj
 0001:00016690       _protocol_doing            00417690 f   libcurl:multi.obj
 0001:000166d0       _protocol_getsock          004176d0 f   libcurl:multi.obj
 0001:00016700       _sh_addentry               00417700 f   libcurl:multi.obj
 0001:00016790       _sh_delentry               00417790 f   libcurl:multi.obj
 0001:000167b0       _sh_freeentry              004177b0 f   libcurl:multi.obj
 0001:000167c0       _sh_getentry               004177c0 f   libcurl:multi.obj
 0001:000167e0       _sh_init                   004177e0 f   libcurl:multi.obj
 0001:00016810       _singlesocket              00417810 f   libcurl:multi.obj
 0001:00016af0       _client_close_writer       00417af0 f   libcurl:content_encoding.obj
 0001:00016af0       _error_close_writer        00417af0 f   libcurl:content_encoding.obj
 0001:00016af0       _identity_close_writer     00417af0 f   libcurl:content_encoding.obj
 0001:00016af0       _trhash_dtor               00417af0 f   libcurl:multi.obj
 0001:00016b00       _waitconnect_getsock       00417b00 f   libcurl:multi.obj
 0001:00016b60       _waitproxyconnect_getsock  00417b60 f   libcurl:multi.obj
 0001:0001789c       $LN309                     0041889c     libcurl:cookie.obj
 0001:00017ea0       _bad_domain                00418ea0 f   libcurl:cookie.obj
 0001:00017ee0       _cookie_hash_domain        00418ee0 f   libcurl:cookie.obj
 0001:00017f50       _cookie_output             00418f50 f   libcurl:cookie.obj
 0001:000181b0       _cookie_sort               004191b0 f   libcurl:cookie.obj
 0001:00018290       _cookie_sort_ct            00419290 f   libcurl:cookie.obj
 0001:000182c0       _cookiehash                004192c0 f   libcurl:cookie.obj
 0001:00018300       _dup_cookie                00419300 f   libcurl:cookie.obj
 0001:00018430       _freecookie                00419430 f   libcurl:cookie.obj
 0001:00018490       _get_netscape_format       00419490 f   libcurl:cookie.obj
 0001:00018540       _get_top_domain            00419540 f   libcurl:cookie.obj
 0001:000185a0       _isip                      004195a0 f   libcurl:cookie.obj
 0001:00018600       _pathmatch                 00419600 f   libcurl:cookie.obj
 0001:00018700       _remove_expired            00419700 f   libcurl:cookie.obj
 0001:00018790       _sanitize_cookie_path      00419790 f   libcurl:cookie.obj
 0001:00018850       _strstore                  00419850 f   libcurl:cookie.obj
 0001:00018870       _tailmatch                 00419870 f   libcurl:cookie.obj
 0001:00018c30       _conn_thread_sync_data     00419c30 f   libcurl:asyn-thread.obj
 0001:00018c50       _destroy_async_data        00419c50 f   libcurl:asyn-thread.obj
 0001:00018d00       _destroy_thread_sync_data  00419d00 f   libcurl:asyn-thread.obj
 0001:00018d60       _getaddrinfo_complete      00419d60 f   libcurl:asyn-thread.obj
 0001:00018d90       _getaddrinfo_thread@4      00419d90 f   libcurl:asyn-thread.obj
 0001:00018e70       _init_resolve_thread       00419e70 f   libcurl:asyn-thread.obj
 0001:00018f60       _init_thread_sync_data     00419f60 f   libcurl:asyn-thread.obj
 0001:00019010       _thread_wait_resolv        0041a010 f   libcurl:asyn-thread.obj
 0001:000191c0       _dyn_nappend               0041a1c0 f   libcurl:dynbuf.obj
 0001:00019290       _encoder_nop_read          0041a290 f   libcurl:mime.obj
 0001:000192e0       _encoder_nop_size          0041a2e0 f   libcurl:mime.obj
 0001:000192f0       _encoder_7bit_read         0041a2f0 f   libcurl:mime.obj
 0001:00019350       _encoder_base64_read       0041a350 f   libcurl:mime.obj
 0001:000194e0       _encoder_base64_size       0041a4e0 f   libcurl:mime.obj
 0001:00019550       _encoder_qp_read           0041a550 f   libcurl:mime.obj
 0001:000196f0       _encoder_qp_size           0041a6f0 f   libcurl:mime.obj
 0001:00019720       _Curl_basename             0041a720 f   libcurl:mime.obj
 0001:00019db0       _add_content_type          0041adb0 f   libcurl:mime.obj
 0001:00019df0       _cleanup_encoder_state     0041adf0 f   libcurl:mime.obj
 0001:00019e10       _cleanup_part_content      0041ae10 f   libcurl:mime.obj
 0001:00019e90       _content_type_match        0041ae90 f   libcurl:mime.obj
 0001:00019ee4       $LN10                      0041aee4     libcurl:mime.obj
 0001:00019eec       $LN8                       0041aeec     libcurl:mime.obj
 0001:0001a3d0       _escape_string             0041b3d0 f   libcurl:mime.obj
 0001:0001a440       _match_header              0041b440 f   libcurl:mime.obj
 0001:0001a480       _mime_file_free            0041b480 f   libcurl:mime.obj
 0001:0001a4c0       _mime_file_read            0041b4c0 f   libcurl:mime.obj
 0001:0001a500       _mime_file_seek            0041b500 f   libcurl:mime.obj
 0001:0001a550       _mime_mem_free             0041b550 f   libcurl:mime.obj
 0001:0001a570       _mime_mem_read             0041b570 f   libcurl:mime.obj
 0001:0001a5d0       _mime_mem_seek             0041b5d0 f   libcurl:mime.obj
 0001:0001a630       _mime_open_file            0041b630 f   libcurl:mime.obj
 0001:0001a660       _mime_part_rewind          0041b660 f   libcurl:mime.obj
 0001:0001a700       _mime_subparts_free        0041b700 f   libcurl:mime.obj
 0001:0001a730       _mime_subparts_read        0041b730 f   libcurl:mime.obj
 0001:0001a89c       $LN35                      0041b89c     libcurl:mime.obj
 0001:0001a8c0       _mime_subparts_seek        0041b8c0 f   libcurl:mime.obj
 0001:0001a930       _mime_subparts_unbind      0041b930 f   libcurl:mime.obj
 0001:0001a960       _mimesetstate              0041b960 f   libcurl:mime.obj
 0001:0001a990       _multipart_size            0041b990 f   libcurl:mime.obj
 0001:0001aa10       _qp_lookahead_eol          0041ba10 f   libcurl:mime.obj
 0001:0001aa70       _read_encoded_part_content 0041ba70 f   libcurl:mime.obj
 0001:0001ab70       _read_part_content         0041bb70 f   libcurl:mime.obj
 0001:0001ac80       _readback_bytes            0041bc80 f   libcurl:mime.obj
 0001:0001ad00       _readback_part             0041bd00 f   libcurl:mime.obj
 0001:0001aee4       $LN42                      0041bee4     libcurl:mime.obj
 0001:0001af10       _search_header             0041bf10 f   libcurl:mime.obj
 0001:0001af50       _slist_size                0041bf50 f   libcurl:mime.obj
 0001:0001afd0       _strippath                 0041bfd0 f   libcurl:mime.obj
 0001:0001b6f0       _bundle_add_conn           0041c6f0 f   libcurl:conncache.obj
 0001:0001b720       _bundle_create             0041c720 f   libcurl:conncache.obj
 0001:0001b770       _bundle_destroy            0041c770 f   libcurl:conncache.obj
 0001:0001b7a0       _bundle_remove_conn        0041c7a0 f   libcurl:conncache.obj
 0001:0001b7f0       _conn_llist_dtor           0041c7f0 f   libcurl:conncache.obj
 0001:0001b810       _conncache_add_bundle      0041c810 f   libcurl:conncache.obj
 0001:0001b850       _conncache_find_first_connection 0041c850 f   libcurl:conncache.obj
 0001:0001b8a0       _conncache_remove_bundle   0041c8a0 f   libcurl:conncache.obj
 0001:0001b910       _free_bundle_hash_entry    0041c910 f   libcurl:conncache.obj
 0001:0001b920       _hashkey                   0041c920 f   libcurl:conncache.obj
 0001:0001b980       _ConnectionExists          0041c980 f   libcurl:url.obj
 0001:0001cff0       _IsMultiplexingPossible    0041dff0 f   libcurl:url.obj
 0001:0001d040       _SocketIsDead              0041e040 f   libcurl:url.obj
 0001:0001d070       _allocate_conn             0041e070 f   libcurl:url.obj
 0001:0001d300       _call_extract_if_dead      0041e300 f   libcurl:url.obj
 0001:0001d330       _check_noproxy             0041e330 f   libcurl:url.obj
 0001:0001d4b0       _conn_free                 0041e4b0 f   libcurl:url.obj
 0001:0001d660       _conn_maxage               0041e660 f   libcurl:url.obj
 0001:0001d6d0       _conn_reset_all_postponed_data 0041e6d0 f   libcurl:url.obj
 0001:0001d6f0       _conn_reset_postponed_data 0041e6f0 f   libcurl:url.obj
 0001:0001d730       _conn_shutdown             0041e730 f   libcurl:url.obj
 0001:0001d7b0       _create_conn               0041e7b0 f   libcurl:url.obj
 0001:0001df90       _create_conn_helper_init_proxy 0041ef90 f   libcurl:url.obj
 0001:0001e290       _detect_proxy              0041f290 f   libcurl:url.obj
 0001:0001e3b0       _extract_if_dead           0041f3b0 f   libcurl:url.obj
 0001:0001e460       _findprotocol              0041f460 f   libcurl:url.obj
 0001:0001e4c0       _get_protocol_family       0041f4c0 f   libcurl:url.obj
 0001:0001e4d0       _override_login            0041f4d0 f   libcurl:url.obj
 0001:0001e6b0       _parse_connect_to_host_port 0041f6b0 f   libcurl:url.obj
 0001:0001e860       _parse_connect_to_slist    0041f860 f   libcurl:url.obj
 0001:0001ea50       _parse_connect_to_string   0041fa50 f   libcurl:url.obj
 0001:0001eb60       _parse_proxy               0041fb60 f   libcurl:url.obj
 0001:0001ef00       _parse_proxy_auth          0041ff00 f   libcurl:url.obj
 0001:0001efa0       _parse_remote_port         0041ffa0 f   libcurl:url.obj
 0001:0001f030       _parseurlandfillconn       00420030 f   libcurl:url.obj
 0001:0001f470       _proxy_info_matches        00420470 f   libcurl:url.obj
 0001:0001f4b0       _prune_dead_connections    004204b0 f   libcurl:url.obj
 0001:0001f5d0       _resolve_server            004205d0 f   libcurl:url.obj
 0001:0001f830       _reuse_conn                00420830 f   libcurl:url.obj
 0001:0001fb50       _set_login                 00420b50 f   libcurl:url.obj
 0001:0001fbd0       _setup_connection_internals 00420bd0 f   libcurl:url.obj
 0001:0001fc10       _setup_range               00420c10 f   libcurl:url.obj
 0001:0001fcd0       _socks_proxy_info_matches  00420cd0 f   libcurl:url.obj
 0001:0001fda0       _strip_trailing_dot        00420da0 f   libcurl:url.obj
 0001:0001fdd0       _up_free                   00420dd0 f   libcurl:url.obj
 0001:0001feb0       _zonefrom_url              00420eb0 f   libcurl:url.obj
 0001:00020740       _chop_write                00421740 f   libcurl:sendf.obj
 0001:000208f0       _get_pre_recved            004218f0 f   libcurl:sendf.obj
 0001:00020970       _pausewrite                00421970 f   libcurl:sendf.obj
 0001:00020a00       _pre_receive_plain         00421a00 f   libcurl:sendf.obj
 0001:000219e0       _ainext                    004229e0 f   libcurl:connect.obj
 0001:00021a20       _bindlocal                 00422a20 f   libcurl:connect.obj
 0001:00021fc0       _connect_SOCKS             00422fc0 f   libcurl:connect.obj
 0001:000220c0       $LN27                      004230c0     libcurl:connect.obj
 0001:000220d0       _post_SOCKS                004230d0 f   libcurl:connect.obj
 0001:00022130       _singleipconnect           00423130 f   libcurl:connect.obj
 0001:000224d0       _tcpkeepalive              004234d0 f   libcurl:connect.obj
 0001:000225b0       _tcpnodelay                004235b0 f   libcurl:connect.obj
 0001:00022630       _trynextip                 00423630 f   libcurl:connect.obj
 0001:000226b0       _verifyconnect             004236b0 f   libcurl:connect.obj
 0001:00023390       _alpn2alpnid               00424390 f   libcurl:altsvc.obj
 0001:000233f0       _altsvc_add                004243f0 f   libcurl:altsvc.obj
 0001:000234f0       _altsvc_create             004244f0 f   libcurl:altsvc.obj
 0001:00023530       _altsvc_createid           00424530 f   libcurl:altsvc.obj
 0001:000235b0       _altsvc_flush              004245b0 f   libcurl:altsvc.obj
 0001:00023610       _altsvc_free               00424610 f   libcurl:altsvc.obj
 0001:00023640       _altsvc_load               00424640 f   libcurl:altsvc.obj
 0001:00023730       _altsvc_out                00424730 f   libcurl:altsvc.obj
 0001:000237d0       _getalnum                  004247d0 f   libcurl:altsvc.obj
 0001:00023a40       _raw_tolower               00424a40 f   libcurl:strcase.obj
 0001:00023a60       _error_init_writer         00424a60 f   libcurl:content_encoding.obj
 0001:00023a60       _identity_init_writer      00424a60 f   libcurl:content_encoding.obj
 0001:00023a80       _identity_unencode_write   00424a80 f   libcurl:content_encoding.obj
 0001:00023aa0       _client_init_writer        00424aa0 f   libcurl:content_encoding.obj
 0001:00023ac0       _client_unencode_write     00424ac0 f   libcurl:content_encoding.obj
 0001:00023af0       _error_unencode_write      00424af0 f   libcurl:content_encoding.obj
 0001:00023da0       _find_encoding             00424da0 f   libcurl:content_encoding.obj
 0001:00023e10       _new_unencoding_writer     00424e10 f   libcurl:content_encoding.obj
 0001:00024640       _hash_element_dtor         00425640 f   libcurl:hash.obj
 0001:00024680       _mk_hash_element           00425680 f   libcurl:hash.obj
 0001:00025250       _Curl_shuffle_addr         00426250 f   libcurl:hostip.obj
 0001:000253c0       _create_hostcache_id       004263c0 f   libcurl:hostip.obj
 0001:00025420       _fetch_addr                00426420 f   libcurl:hostip.obj
 0001:00025560       _freednsentry              00426560 f   libcurl:hostip.obj
 0001:00025590       _hostcache_prune           00426590 f   libcurl:hostip.obj
 0001:000255e0       _hostcache_timestamp_remove 004265e0 f   libcurl:hostip.obj
 0001:00025a50       _http_getsock_do           00426a50 f   libcurl:http.obj
 0001:00025a50       _rtsp_getsock_do           00426a50 f   libcurl:rtsp.obj
 0001:00025a70       _http_setup_conn           00426a70 f   libcurl:http.obj
 0001:00027644       $LN106                     00428644     libcurl:http.obj
 0001:000284f4       $LN18                      004294f4     libcurl:http.obj
 0001:00029580       _add_haproxy_protocol_header 0042a580 f   libcurl:http.obj
 0001:00029650       _checkhttpprefix           0042a650 f   libcurl:http.obj
 0001:000296c0       _checkprefixmax            0042a6c0 f   libcurl:http.obj
 0001:00029710       _checkprotoprefix          0042a710 f   libcurl:http.obj
 0001:00029750       _checkrtspprefix           0042a750 f   libcurl:http.obj
 0001:00029780       _expect100                 0042a780 f   libcurl:http.obj
 0001:00029810       _get_http_string           0042a810 f   libcurl:http.obj
 0001:00029840       _http_output_basic         0042a840 f   libcurl:http.obj
 0001:00029950       _http_output_bearer        0042a950 f   libcurl:http.obj
 0001:00029990       _http_perhapsrewind        0042a990 f   libcurl:http.obj
 0001:00029b2c       $LN34                      0042ab2c     libcurl:http.obj
 0001:00029b40       _http_should_fail          0042ab40 f   libcurl:http.obj
 0001:00029bc0       _output_auth_headers       0042abc0 f   libcurl:http.obj
 0001:00029d50       _pickoneauth               0042ad50 f   libcurl:http.obj
 0001:00029e20       _readmoredata              0042ae20 f   libcurl:http.obj
 0001:00029f30       _use_http_1_1plus          0042af30 f   libcurl:http.obj
 0001:0002a020       _fileinfo_dtor             0042b020 f   libcurl:wildcard.obj
 0001:0002b5d0       _data_pending              0042c5d0 f   libcurl:transfer.obj
 0001:0002b5f0       _readwrite_data            0042c5f0 f   libcurl:transfer.obj
 0001:0002bc40       _readwrite_upload          0042cc40 f   libcurl:transfer.obj
 0001:0002c000       _trailers_left             0042d000 f   libcurl:transfer.obj
 0001:0002c020       _trailers_read             0042d020 f   libcurl:transfer.obj
 0001:0002c080       _win_update_buffer_size    0042d080 f   libcurl:transfer.obj
 0001:0002c50c       $LN22                      0042d50c     libcurl:progress.obj
 0001:0002c7a0       _max5data                  0042d7a0 f   libcurl:progress.obj
 0001:0002c990       _progress_calc             0042d990 f   libcurl:progress.obj
 0001:0002ccb0       _progress_meter            0042dcb0 f   libcurl:progress.obj
 0001:0002d160       _time2str                  0042e160 f   libcurl:progress.obj
 0001:0002d6e0       _our_select                0042e6e0 f   libcurl:select.obj
 0001:0002d930       _CONNECT                   0042e930 f   libcurl:http_proxy.obj
 0001:0002e1f0       _CONNECT_host              0042f1f0 f   libcurl:http_proxy.obj
 0001:0002e4a0       _connect_done              0042f4a0 f   libcurl:http_proxy.obj
 0001:0002e4d0       _connect_init              0042f4d0 f   libcurl:http_proxy.obj
 0001:0002e560       _https_proxy_connect       0042f560 f   libcurl:http_proxy.obj
 0001:0002e560       _imap_perform_upgrade_tls  0042f560 f   libcurl:imap.obj
 0001:0002e560       _pop3_perform_upgrade_tls  0042f560 f   libcurl:pop3.obj
 0001:0002e560       _smtp_perform_upgrade_tls  0042f560 f   libcurl:smtp.obj
 0001:0002ebac       $LN67                      0042fbac     libcurl:socks.obj
 0001:0002ebc8       $LN58                      0042fbc8     libcurl:socks.obj
 0001:0002ebd8       $LN68                      0042fbd8     libcurl:socks.obj
 0001:0002f780       $LN152                     00430780     libcurl:socks.obj
 0001:0002f7fc       $LN9                       004307fc     libcurl:socks.obj
 0001:0002f804       $LN7                       00430804     libcurl:socks.obj
 0001:0002f820       _socksstate                00430820 f   libcurl:socks.obj
 0001:0002f890       _addbyter                  00430890 f   libcurl:mprintf.obj
 0001:0002f8c0       _alloc_addbyter            004308c0 f   libcurl:mprintf.obj
 0001:0002fa40       _dprintf_DollarString      00430a40 f   libcurl:mprintf.obj
 0001:0002fab0       _dprintf_IsQualifierNoDollar 00430ab0 f   libcurl:mprintf.obj
 0001:0002fb04       $LN11                      00430b04     libcurl:mprintf.obj
 0001:0002fb0c       $LN9                       00430b0c     libcurl:mprintf.obj
 0001:0002fb70       _dprintf_Pass1             00430b70 f   libcurl:mprintf.obj
 0001:000300dc       $LN115                     004310dc     libcurl:mprintf.obj
 0001:00030118       $LN109                     00431118     libcurl:mprintf.obj
 0001:00030194       $LN116                     00431194     libcurl:mprintf.obj
 0001:000301d4       $LN110                     004311d4     libcurl:mprintf.obj
 0001:00030208       $LN117                     00431208     libcurl:mprintf.obj
 0001:00030230       _dprintf_formatf           00431230 f   libcurl:mprintf.obj
 0001:00030da4       $LN368                     00431da4     libcurl:mprintf.obj
 0001:00031050       _inet_pton4                00432050 f   libcurl:inet_pton.obj
 0001:00031110       _inet_pton6                00432110 f   libcurl:inet_pton.obj
 0001:000313c0       _checkday                  004323c0 f   libcurl:parsedate.obj
 0001:00031420       _checkmonth                00432420 f   libcurl:parsedate.obj
 0001:00031480       _checktz                   00432480 f   libcurl:parsedate.obj
 0001:000314c0       _parsedate                 004324c0 f   libcurl:parsedate.obj
 0001:00031940       _skip                      00432940 f   libcurl:parsedate.obj
 0001:00031970       _time2epoch                00432970 f   libcurl:parsedate.obj
 0001:00031b50       _randit                    00432b50 f   libcurl:rand.obj
 0001:000322e0       _gopher_do                 004332e0 f   libcurl:gopher.obj
 0001:000324f0       _imap_perform_authenticate 004334f0 f   libcurl:imap.obj
 0001:00032530       _imap_continue_authenticate 00433530 f   libcurl:imap.obj
 0001:00032530       _pop3_continue_auth        00433530 f   libcurl:pop3.obj
 0001:00032530       _smtp_continue_auth        00433530 f   libcurl:smtp.obj
 0001:00032560       _imap_get_message          00433560 f   libcurl:imap.obj
 0001:00032560       _pop3_get_message          00433560 f   libcurl:pop3.obj
 0001:000325e0       _imap_do                   004335e0 f   libcurl:imap.obj
 0001:00032620       _imap_done                 00433620 f   libcurl:imap.obj
 0001:00032770       _imap_connect              00433770 f   libcurl:imap.obj
 0001:00032810       _imap_disconnect           00433810 f   libcurl:imap.obj
 0001:000328a0       _imap_multi_statemach      004338a0 f   libcurl:imap.obj
 0001:000328a0       _pop3_multi_statemach      004338a0 f   libcurl:pop3.obj
 0001:000328a0       _smtp_multi_statemach      004338a0 f   libcurl:smtp.obj
 0001:000328f0       _ftp_getsock               004338f0 f   libcurl:ftp.obj
 0001:000328f0       _imap_getsock              004338f0 f   libcurl:imap.obj
 0001:000328f0       _pop3_getsock              004338f0 f   libcurl:pop3.obj
 0001:000328f0       _smtp_getsock              004338f0 f   libcurl:smtp.obj
 0001:00032900       _imap_doing                00433900 f   libcurl:imap.obj
 0001:00032900       _smtp_doing                00433900 f   libcurl:smtp.obj
 0001:00032930       _imap_setup_connection     00433930 f   libcurl:imap.obj
 0001:00032950       _imap_atom                 00433950 f   libcurl:imap.obj
 0001:00032ab0       _imap_block_statemach      00433ab0 f   libcurl:imap.obj
 0001:00032ab0       _pop3_block_statemach      00433ab0 f   libcurl:pop3.obj
 0001:00032ab0       _smtp_block_statemach      00433ab0 f   libcurl:smtp.obj
 0001:00032b00       _imap_dophase_done         00433b00 f   libcurl:imap.obj
 0001:00032b00       _smtp_dophase_done         00433b00 f   libcurl:smtp.obj
 0001:00032b30       _imap_endofresp            00433b30 f   libcurl:imap.obj
 0001:00032e70       $LN41                      00433e70     libcurl:imap.obj
 0001:00032e88       $LN37                      00433e88     libcurl:imap.obj
 0001:00032ea0       _imap_init                 00433ea0 f   libcurl:imap.obj
 0001:00032ed0       _imap_is_bchar             00433ed0 f   libcurl:imap.obj
 0001:00032ef8       $LN9                       00433ef8     libcurl:imap.obj
 0001:00032f00       $LN7                       00433f00     libcurl:imap.obj
 0001:00032f60       _imap_matchresp            00433f60 f   libcurl:imap.obj
 0001:00032ff0       _imap_parse_custom_request 00433ff0 f   libcurl:imap.obj
 0001:00033070       _imap_parse_url_options    00434070 f   libcurl:imap.obj
 0001:00033140       _imap_parse_url_path       00434140 f   libcurl:imap.obj
 0001:00033410       _imap_perform              00434410 f   libcurl:imap.obj
 0001:00033540       _imap_perform_append       00434540 f   libcurl:imap.obj
 0001:000336a0       _imap_perform_authentication 004346a0 f   libcurl:imap.obj
 0001:00033760       _imap_perform_capability   00434760 f   libcurl:imap.obj
 0001:000337b0       _imap_perform_fetch        004347b0 f   libcurl:imap.obj
 0001:00033880       _imap_perform_list         00434880 f   libcurl:imap.obj
 0001:00033920       _imap_perform_login        00434920 f   libcurl:imap.obj
 0001:000339c0       _imap_perform_logout       004349c0 f   libcurl:imap.obj
 0001:000339f0       _imap_perform_search       004349f0 f   libcurl:imap.obj
 0001:00033a50       _imap_perform_select       00434a50 f   libcurl:imap.obj
 0001:00033b00       _imap_perform_starttls     00434b00 f   libcurl:imap.obj
 0001:00033b30       _imap_regular_transfer     00434b30 f   libcurl:imap.obj
 0001:00033bb0       _imap_sendf                00434bb0 f   libcurl:imap.obj
 0001:00033c50       _imap_state_append_final_resp 00434c50 f   libcurl:imap.obj
 0001:00033c80       _imap_state_append_resp    00434c80 f   libcurl:imap.obj
 0001:00033cd0       _imap_state_auth_resp      00434cd0 f   libcurl:imap.obj
 0001:00033d50       _imap_state_capability_resp 00434d50 f   libcurl:imap.obj
 0001:00033ef0       _imap_state_fetch_final_resp 00434ef0 f   libcurl:imap.obj
 0001:00033f20       _imap_state_fetch_resp     00434f20 f   libcurl:imap.obj
 0001:00034140       _imap_state_listsearch_resp 00435140 f   libcurl:imap.obj
 0001:000341a0       _imap_state_login_resp     004351a0 f   libcurl:imap.obj
 0001:000341e0       _imap_state_select_resp    004351e0 f   libcurl:imap.obj
 0001:00034340       _imap_state_servergreet_resp 00435340 f   libcurl:imap.obj
 0001:000343a0       _imap_state_starttls_resp  004353a0 f   libcurl:imap.obj
 0001:000343f0       _imap_statemachine         004353f0 f   libcurl:imap.obj
 0001:00034554       $LN44                      00435554     libcurl:imap.obj
 0001:00034590       _state                     00435590 f   libcurl:imap.obj
 0001:00034590       _state                     00435590 f   libcurl:pop3.obj
 0001:00034590       _state                     00435590 f   libcurl:smtp.obj
 0001:000345b0       _pop3_do                   004355b0 f   libcurl:pop3.obj
 0001:000345f0       _pop3_done                 004355f0 f   libcurl:pop3.obj
 0001:00034650       _pop3_connect              00435650 f   libcurl:pop3.obj
 0001:000346e0       _pop3_disconnect           004356e0 f   libcurl:pop3.obj
 0001:00034750       _pop3_doing                00435750 f   libcurl:pop3.obj
 0001:00034780       _pop3_setup_connection     00435780 f   libcurl:pop3.obj
 0001:000347a0       _pop3_perform_auth         004357a0 f   libcurl:pop3.obj
 0001:000347a0       _smtp_perform_auth         004357a0 f   libcurl:smtp.obj
 0001:00034960       _pop3_endofresp            00435960 f   libcurl:pop3.obj
 0001:000349f0       _pop3_init                 004359f0 f   libcurl:pop3.obj
 0001:00034a20       _pop3_parse_custom_request 00435a20 f   libcurl:pop3.obj
 0001:00034a50       _pop3_parse_url_options    00435a50 f   libcurl:pop3.obj
 0001:00034b70       _pop3_parse_url_path       00435b70 f   libcurl:pop3.obj
 0001:00034ba0       _pop3_perform              00435ba0 f   libcurl:pop3.obj
 0001:00034bf0       _pop3_perform_apop         00435bf0 f   libcurl:pop3.obj
 0001:00034d30       _pop3_perform_authentication 00435d30 f   libcurl:pop3.obj
 0001:00034e00       _pop3_perform_capa         00435e00 f   libcurl:pop3.obj
 0001:00034e50       _pop3_perform_command      00435e50 f   libcurl:pop3.obj
 0001:00034ef0       _pop3_perform_quit         00435ef0 f   libcurl:pop3.obj
 0001:00034f30       _pop3_perform_starttls     00435f30 f   libcurl:pop3.obj
 0001:00034f70       _pop3_perform_user         00435f70 f   libcurl:pop3.obj
 0001:00034fd0       _pop3_regular_transfer     00435fd0 f   libcurl:pop3.obj
 0001:00035050       _pop3_state_apop_resp      00436050 f   libcurl:pop3.obj
 0001:00035090       _pop3_state_auth_resp      00436090 f   libcurl:pop3.obj
 0001:00035120       _pop3_state_capa_resp      00436120 f   libcurl:pop3.obj
 0001:00035290       _pop3_state_command_resp   00436290 f   libcurl:pop3.obj
 0001:00035340       _pop3_state_pass_resp      00436340 f   libcurl:pop3.obj
 0001:00035380       _pop3_state_servergreet_resp 00436380 f   libcurl:pop3.obj
 0001:000354a0       _pop3_state_starttls_resp  004364a0 f   libcurl:pop3.obj
 0001:000354f0       _pop3_state_user_resp      004364f0 f   libcurl:pop3.obj
 0001:00035560       _pop3_statemachine         00436560 f   libcurl:pop3.obj
 0001:00035680       $LN39                      00436680     libcurl:pop3.obj
 0001:000356b0       _smtp_get_message          004366b0 f   libcurl:smtp.obj
 0001:00035730       _smtp_do                   00436730 f   libcurl:smtp.obj
 0001:00035760       _smtp_done                 00436760 f   libcurl:smtp.obj
 0001:000358e0       _smtp_connect              004368e0 f   libcurl:smtp.obj
 0001:00035970       _smtp_disconnect           00436970 f   libcurl:smtp.obj
 0001:000359e0       _smtp_setup_connection     004369e0 f   libcurl:smtp.obj
 0001:00035be0       _smtp_endofresp            00436be0 f   libcurl:smtp.obj
 0001:00035d00       _smtp_init                 00436d00 f   libcurl:smtp.obj
 0001:00035d30       _smtp_parse_address        00436d30 f   libcurl:smtp.obj
 0001:00035db0       _smtp_parse_custom_request 00436db0 f   libcurl:smtp.obj
 0001:00035de0       _smtp_parse_url_options    00436de0 f   libcurl:smtp.obj
 0001:00035e80       _smtp_parse_url_path       00436e80 f   libcurl:smtp.obj
 0001:00035f00       _smtp_perform              00436f00 f   libcurl:smtp.obj
 0001:00035f90       _smtp_perform_authentication 00436f90 f   libcurl:smtp.obj
 0001:00036020       _smtp_perform_command      00437020 f   libcurl:smtp.obj
 0001:000361b0       _smtp_perform_ehlo         004371b0 f   libcurl:smtp.obj
 0001:00036200       _smtp_perform_helo         00437200 f   libcurl:smtp.obj
 0001:00036240       _smtp_perform_mail         00437240 f   libcurl:smtp.obj
 0001:00036660       _smtp_perform_quit         00437660 f   libcurl:smtp.obj
 0001:000366a0       _smtp_perform_rcpt_to      004376a0 f   libcurl:smtp.obj
 0001:00036750       _smtp_perform_starttls     00437750 f   libcurl:smtp.obj
 0001:00036790       _smtp_regular_transfer     00437790 f   libcurl:smtp.obj
 0001:00036810       _smtp_state_auth_resp      00437810 f   libcurl:smtp.obj
 0001:00036870       _smtp_state_command_resp   00437870 f   libcurl:smtp.obj
 0001:00036960       _smtp_state_data_resp      00437960 f   libcurl:smtp.obj
 0001:000369c0       _smtp_state_ehlo_resp      004379c0 f   libcurl:smtp.obj
 0001:00036bd0       _smtp_state_helo_resp      00437bd0 f   libcurl:smtp.obj
 0001:00036c10       _smtp_state_mail_resp      00437c10 f   libcurl:smtp.obj
 0001:00036c50       _smtp_state_postdata_resp  00437c50 f   libcurl:smtp.obj
 0001:00036c80       _smtp_state_rcpt_resp      00437c80 f   libcurl:smtp.obj
 0001:00036d50       _smtp_state_servergreet_resp 00437d50 f   libcurl:smtp.obj
 0001:00036d90       _smtp_state_starttls_resp  00437d90 f   libcurl:smtp.obj
 0001:00036de0       _smtp_statemachine         00437de0 f   libcurl:smtp.obj
 0001:00036f2c       $LN42                      00437f2c     libcurl:smtp.obj
 0001:00036f60       _ftp_do                    00437f60 f   libcurl:ftp.obj
 0001:00036fd0       _ftp_done                  00437fd0 f   libcurl:ftp.obj
 0001:000374a8       $LN94                      004384a8     libcurl:ftp.obj
 0001:000374b0       $LN60                      004384b0     libcurl:ftp.obj
 0001:00037500       _ftp_connect               00438500 f   libcurl:ftp.obj
 0001:00037580       _ftp_disconnect            00438580 f   libcurl:ftp.obj
 0001:00037610       _ftp_do_more               00438610 f   libcurl:ftp.obj
 0001:00037870       _ftp_multi_statemach       00438870 f   libcurl:ftp.obj
 0001:000378a0       _ftp_domore_getsock        004388a0 f   libcurl:ftp.obj
 0001:00037950       _ftp_doing                 00438950 f   libcurl:ftp.obj
 0001:00037980       _ftp_setup_connection      00438980 f   libcurl:ftp.obj
 0001:00037a40       _AcceptServerConnect       00438a40 f   libcurl:ftp.obj
 0001:00037b80       _AllowServerConnect        00438b80 f   libcurl:ftp.obj
 0001:00037da0       _InitiateTransfer          00438da0 f   libcurl:ftp.obj
 0001:00037e40       _ReceivedServerConnect     00438e40 f   libcurl:ftp.obj
 0001:00037f90       __state                    00438f90 f   libcurl:ftp.obj
 0001:00037fb0       _close_secondarysocket     00438fb0 f   libcurl:ftp.obj
 0001:00037ff0       _control_address           00438ff0 f   libcurl:ftp.obj
 0001:00038020       _freedirs                  00439020 f   libcurl:ftp.obj
 0001:000380a0       _ftp_block_statemach       004390a0 f   libcurl:ftp.obj
 0001:000380f0       _ftp_dophase_done          004390f0 f   libcurl:ftp.obj
 0001:00038180       _ftp_endofresp             00439180 f   libcurl:ftp.obj
 0001:000381f0       _ftp_epsv_disable          004391f0 f   libcurl:ftp.obj
 0001:00038280       _ftp_nb_type               00439280 f   libcurl:ftp.obj
 0001:00038300       _ftp_need_type             00439300 f   libcurl:ftp.obj
 0001:00038330       _ftp_parse_url_path        00439330 f   libcurl:ftp.obj
 0001:00038640       _ftp_pasv_verbose          00439640 f   libcurl:ftp.obj
 0001:000386a0       _ftp_perform               004396a0 f   libcurl:ftp.obj
 0001:00038710       _ftp_quit                  00439710 f   libcurl:ftp.obj
 0001:00038790       _ftp_readresp              00439790 f   libcurl:ftp.obj
 0001:000387f0       _ftp_regular_transfer      004397f0 f   libcurl:ftp.obj
 0001:000388a0       _ftp_sendquote             004398a0 f   libcurl:ftp.obj
 0001:00038960       _ftp_state_acct_resp       00439960 f   libcurl:ftp.obj
 0001:000389a0       _ftp_state_cwd             004399a0 f   libcurl:ftp.obj
 0001:00038a50       _ftp_state_get_resp        00439a50 f   libcurl:ftp.obj
 0001:00038c70       _ftp_state_list            00439c70 f   libcurl:ftp.obj
 0001:00038d80       _ftp_state_loggedin        00439d80 f   libcurl:ftp.obj
 0001:00038dd0       _ftp_state_mdtm            00439dd0 f   libcurl:ftp.obj
 0001:00038e30       _ftp_state_mdtm_resp       00439e30 f   libcurl:ftp.obj
 0001:000390e0       _ftp_state_pasv_resp       0043a0e0 f   libcurl:ftp.obj
 0001:000395a0       _ftp_state_port_resp       0043a5a0 f   libcurl:ftp.obj
 0001:00039630       _ftp_state_prepare_transfer 0043a630 f   libcurl:ftp.obj
 0001:00039700       _ftp_state_pwd             0043a700 f   libcurl:ftp.obj
 0001:00039740       _ftp_state_quote           0043a740 f   libcurl:ftp.obj
 0001:00039900       _ftp_state_rest            0043a900 f   libcurl:ftp.obj
 0001:00039960       _ftp_state_rest_resp       0043a960 f   libcurl:ftp.obj
 0001:00039a50       _ftp_state_retr            0043aa50 f   libcurl:ftp.obj
 0001:00039c20       _ftp_state_retr_prequote   0043ac20 f   libcurl:ftp.obj
 0001:00039c40       _ftp_state_size            0043ac40 f   libcurl:ftp.obj
 0001:00039ca0       _ftp_state_size_resp       0043aca0 f   libcurl:ftp.obj
 0001:00039e80       _ftp_state_stor_prequote   0043ae80 f   libcurl:ftp.obj
 0001:00039ea0       _ftp_state_stor_resp       0043aea0 f   libcurl:ftp.obj
 0001:00039f30       _ftp_state_type            0043af30 f   libcurl:ftp.obj
 0001:00039fa0       _ftp_state_type_resp       0043afa0 f   libcurl:ftp.obj
 0001:0003a050       _ftp_state_ul_setup        0043b050 f   libcurl:ftp.obj
 0001:0003a2b0       _ftp_state_use_pasv        0043b2b0 f   libcurl:ftp.obj
 0001:0003a330       _ftp_state_use_port        0043b330 f   libcurl:ftp.obj
 0001:0003ac70       _ftp_state_user            0043bc70 f   libcurl:ftp.obj
 0001:0003acc0       _ftp_state_user_resp       0043bcc0 f   libcurl:ftp.obj
 0001:0003ade0       _ftp_statemachine          0043bde0 f   libcurl:ftp.obj
 0001:0003b5ec       $LN150                     0043c5ec     libcurl:ftp.obj
 0001:0003b670       _ftp_timeleft_accept       0043c670 f   libcurl:ftp.obj
 0001:0003b730       _init_wc_data              0043c730 f   libcurl:ftp.obj
 0001:0003b8b0       _wc_data_dtor              0043c8b0 f   libcurl:ftp.obj
 0001:0003b8e0       _wc_statemach              0043c8e0 f   libcurl:ftp.obj
 0001:0003bb78       $LN38                      0043cb78     libcurl:ftp.obj
 0001:0003bba0       _file_do                   0043cba0 f   libcurl:file.obj
 0001:0003c060       _file_done                 0043d060 f   libcurl:file.obj
 0001:0003c0b0       _file_connect              0043d0b0 f   libcurl:file.obj
 0001:0003c1b0       _file_disconnect           0043d1b0 f   libcurl:file.obj
 0001:0003c1d0       _file_setup_connection     0043d1d0 f   libcurl:file.obj
 0001:0003c200       _file_upload               0043d200 f   libcurl:file.obj
 0001:0003c470       _dict_do                   0043d470 f   libcurl:dict.obj
 0001:0003c710       _sendf                     0043d710 f   libcurl:dict.obj
 0001:0003c7c0       _unescape_word             0043d7c0 f   libcurl:dict.obj
 0001:0003c860       _telnet_do                 0043d860 f   libcurl:telnet.obj
 0001:0003cc10       _telnet_done               0043dc10 f   libcurl:telnet.obj
 0001:0003cc60       _check_telnet_options      0043dc60 f   libcurl:telnet.obj
 0001:0003cf70       _init_telnet               0043df70 f   libcurl:telnet.obj
 0001:0003cff0       _negotiate                 0043dff0 f   libcurl:telnet.obj
 0001:0003d040       _printoption               0043e040 f   libcurl:telnet.obj
 0001:0003d140       _printsub                  0043e140 f   libcurl:telnet.obj
 0001:0003d408       $LN73                      0043e408     libcurl:telnet.obj
 0001:0003d410       $LN60                      0043e410     libcurl:telnet.obj
 0001:0003d420       $LN74                      0043e420     libcurl:telnet.obj
 0001:0003d430       _rec_do                    0043e430 f   libcurl:telnet.obj
 0001:0003d530       _rec_dont                  0043e530 f   libcurl:telnet.obj
 0001:0003d5d0       _rec_will                  0043e5d0 f   libcurl:telnet.obj
 0001:0003d6a0       _rec_wont                  0043e6a0 f   libcurl:telnet.obj
 0001:0003d750       _send_negotiation          0043e750 f   libcurl:telnet.obj
 0001:0003d7b0       _send_telnet_data          0043e7b0 f   libcurl:telnet.obj
 0001:0003d8d0       _sendsuboption             0043e8d0 f   libcurl:telnet.obj
 0001:0003da40       _set_local_option          0043ea40 f   libcurl:telnet.obj
 0001:0003dae0       _set_remote_option         0043eae0 f   libcurl:telnet.obj
 0001:0003db90       _suboption                 0043eb90 f   libcurl:telnet.obj
 0001:0003de20       _telrcv                    0043ee20 f   libcurl:telnet.obj
 0001:0003e18c       $LN88                      0043f18c     libcurl:telnet.obj
 0001:0003e1b0       $LN89                      0043f1b0     libcurl:telnet.obj
 0001:0003e1d0       _tftp_connect              0043f1d0 f   libcurl:tftp.obj
 0001:0003e3b0       _tftp_disconnect           0043f3b0 f   libcurl:tftp.obj
 0001:0003e400       _tftp_do                   0043f400 f   libcurl:tftp.obj
 0001:0003e460       _tftp_done                 0043f460 f   libcurl:tftp.obj
 0001:0003e4a0       _tftp_setup_connection     0043f4a0 f   libcurl:tftp.obj
 0001:0003e520       _tftp_multi_statemach      0043f520 f   libcurl:tftp.obj
 0001:0003e630       _tftp_doing                0043f630 f   libcurl:tftp.obj
 0001:0003e690       _mqtt_getsock              0043f690 f   libcurl:mqtt.obj
 0001:0003e690       _tftp_getsock              0043f690 f   libcurl:tftp.obj
 0001:0003e6b0       _getrpacketblock           0043f6b0 f   libcurl:tftp.obj
 0001:0003e6d0       _getrpacketevent           0043f6d0 f   libcurl:tftp.obj
 0001:0003e6f0       _setpacketblock            0043f6f0 f   libcurl:tftp.obj
 0001:0003e710       _setpacketevent            0043f710 f   libcurl:tftp.obj
 0001:0003e730       _tftp_connect_for_rx       0043f730 f   libcurl:tftp.obj
 0001:0003e770       _tftp_connect_for_tx       0043f770 f   libcurl:tftp.obj
 0001:0003e7b0       _tftp_option_add           0043f7b0 f   libcurl:tftp.obj
 0001:0003e820       _tftp_option_get           0043f820 f   libcurl:tftp.obj
 0001:0003e890       _tftp_parse_option_ack     0043f890 f   libcurl:tftp.obj
 0001:0003eaa0       _tftp_perform              0043faa0 f   libcurl:tftp.obj
 0001:0003eae0       _tftp_receive_packet       0043fae0 f   libcurl:tftp.obj
 0001:0003ecfc       $LN20                      0043fcfc     libcurl:tftp.obj
 0001:0003ed10       _tftp_rx                   0043fd10 f   libcurl:tftp.obj
 0001:0003efcc       $LN28                      0043ffcc     libcurl:tftp.obj
 0001:0003eff0       _tftp_send_first           0043fff0 f   libcurl:tftp.obj
 0001:0003f40c       $LN40                      0044040c     libcurl:tftp.obj
 0001:0003f430       _tftp_set_timeouts         00440430 f   libcurl:tftp.obj
 0001:0003f530       _tftp_state_machine        00440530 f   libcurl:tftp.obj
 0001:0003f594       $LN25                      00440594     libcurl:tftp.obj
 0001:0003f5b0       _tftp_state_timeout        004405b0 f   libcurl:tftp.obj
 0001:0003f660       _tftp_strnlen              00440660 f   libcurl:tftp.obj
 0001:0003f690       _tftp_translate_code       00440690 f   libcurl:tftp.obj
 0001:0003f6fc       $LN19                      004406fc     libcurl:tftp.obj
 0001:0003f724       $LN17                      00440724     libcurl:tftp.obj
 0001:0003f790       _tftp_tx                   00440790 f   libcurl:tftp.obj
 0001:0003fb08       $LN37                      00440b08     libcurl:tftp.obj
 0001:0003fb20       _ldap_do                   00440b20 f   libcurl:ldap.obj
 0001:000401c0       __ldap_free_urldesc        004411c0 f   libcurl:ldap.obj
 0001:00040220       __ldap_url_parse           00441220 f   libcurl:ldap.obj
 0001:00040280       __ldap_url_parse2          00441280 f   libcurl:ldap.obj
 0001:00040530       _ldap_win_bind             00441530 f   libcurl:ldap.obj
 0001:000405b0       _split_str                 004415b0 f   libcurl:ldap.obj
 0001:00040650       _str2scope                 00441650 f   libcurl:ldap.obj
 0001:000406d0       _rtsp_do                   004416d0 f   libcurl:rtsp.obj
 0001:00040e34       $LN115                     00441e34     libcurl:rtsp.obj
 0001:00040e70       _rtsp_done                 00441e70 f   libcurl:rtsp.obj
 0001:00040f10       _rtsp_connect              00441f10 f   libcurl:rtsp.obj
 0001:00040f60       _rtsp_disconnect           00441f60 f   libcurl:rtsp.obj
 0001:00040f90       _rtsp_rtp_readwrite        00441f90 f   libcurl:rtsp.obj
 0001:00041160       _rtsp_setup_connection     00442160 f   libcurl:rtsp.obj
 0001:00041190       _rtsp_conncheck            00442190 f   libcurl:rtsp.obj
 0001:00041360       _rtp_client_write          00442360 f   libcurl:rtsp.obj
 0001:00041410       _rtsp_connisdead           00442410 f   libcurl:rtsp.obj
 0001:00041460       _smb_setup_connection      00442460 f   libcurl:smb.obj
 0001:00041490       _smb_connect               00442490 f   libcurl:smb.obj
 0001:00041570       _smb_connection_state      00442570 f   libcurl:smb.obj
 0001:000416b0       _smb_do                    004426b0 f   libcurl:smb.obj
 0001:000416e0       _smb_request_state         004426e0 f   libcurl:smb.obj
 0001:00041afc       $LN55                      00442afc     libcurl:smb.obj
 0001:00041b14       $LN56                      00442b14     libcurl:smb.obj
 0001:00041b30       _smb_done                  00442b30 f   libcurl:smb.obj
 0001:00041b60       _smb_disconnect            00442b60 f   libcurl:smb.obj
 0001:00041bc0       _smb_getsock               00442bc0 f   libcurl:smb.obj
 0001:00041be0       _conn_state                00442be0 f   libcurl:smb.obj
 0001:00041c00       _get_posix_time            00442c00 f   libcurl:smb.obj
 0001:00041c30       _request_state             00442c30 f   libcurl:smb.obj
 0001:00041c50       _smb_flush                 00442c50 f   libcurl:smb.obj
 0001:00041cb0       _smb_format_message        00442cb0 f   libcurl:smb.obj
 0001:00041d30       _smb_parse_url_path        00442d30 f   libcurl:smb.obj
 0001:00041e10       _smb_pop_message           00442e10 f   libcurl:smb.obj
 0001:00041e30       _smb_recv_message          00442e30 f   libcurl:smb.obj
 0001:00041ee0       _smb_send                  00442ee0 f   libcurl:smb.obj
 0001:00041f30       _smb_send_and_recv         00442f30 f   libcurl:smb.obj
 0001:00041fe0       _smb_send_close            00442fe0 f   libcurl:smb.obj
 0001:00042020       _smb_send_message          00443020 f   libcurl:smb.obj
 0001:00042070       _smb_send_negotiate        00443070 f   libcurl:smb.obj
 0001:00042090       _smb_send_open             00443090 f   libcurl:smb.obj
 0001:000421a0       _smb_send_read             004431a0 f   libcurl:smb.obj
 0001:00042210       _smb_send_setup            00443210 f   libcurl:smb.obj
 0001:00042410       _smb_send_tree_connect     00443410 f   libcurl:smb.obj
 0001:00042570       _smb_send_tree_disconnect  00443570 f   libcurl:smb.obj
 0001:000425a0       _smb_send_write            004435a0 f   libcurl:smb.obj
 0001:00042670       _mqtt_do                   00443670 f   libcurl:mqtt.obj
 0001:000426c0       _mqtt_doing                004436c0 f   libcurl:mqtt.obj
 0001:00042910       $LN44                      00443910     libcurl:mqtt.obj
 0001:00042930       _mqtt_setup_conn           00443930 f   libcurl:mqtt.obj
 0001:00042960       _mqstate                   00443960 f   libcurl:mqtt.obj
 0001:00042990       _mqtt_connect              00443990 f   libcurl:mqtt.obj
 0001:00042a50       _mqtt_decode_len           00443a50 f   libcurl:mqtt.obj
 0001:00042aa0       _mqtt_disconnect           00443aa0 f   libcurl:mqtt.obj
 0001:00042ac0       _mqtt_encode_len           00443ac0 f   libcurl:mqtt.obj
 0001:00042af0       _mqtt_get_topic            00443af0 f   libcurl:mqtt.obj
 0001:00042b50       _mqtt_publish              00443b50 f   libcurl:mqtt.obj
 0001:00042c60       _mqtt_read_publish         00443c60 f   libcurl:mqtt.obj
 0001:00042e28       $LN28                      00443e28     libcurl:mqtt.obj
 0001:00042e40       _mqtt_send                 00443e40 f   libcurl:mqtt.obj
 0001:00042ec0       _mqtt_subscribe            00443ec0 f   libcurl:mqtt.obj
 0001:00042fc0       _mqtt_verify_connack       00443fc0 f   libcurl:mqtt.obj
 0001:00043040       _mqtt_verify_suback        00444040 f   libcurl:mqtt.obj
 0001:000430b0       _GetEnv                    004440b0 f   libcurl:getenv.obj
 0001:00043210       _Curl_parse_port           00444210 f   libcurl:urlapi.obj
 0001:00043390       _concat_url                00444390 f   libcurl:urlapi.obj
 0001:00043b88       $LN87                      00444b88     libcurl:urlapi.obj
 0001:000440e0       $LN123                     004450e0     libcurl:urlapi.obj
 0001:0004410c       $LN124                     0044510c     libcurl:urlapi.obj
 0001:00044140       _find_host_sep             00445140 f   libcurl:urlapi.obj
 0001:000441b0       _free_urlhandle            004451b0 f   libcurl:urlapi.obj
 0001:00044230       _hostname_check            00445230 f   libcurl:urlapi.obj
 0001:000443b0       _junkscan                  004453b0 f   libcurl:urlapi.obj
 0001:000443f0       _mv_urlhandle              004453f0 f   libcurl:urlapi.obj
 0001:00044430       _parse_hostname_login      00445430 f   libcurl:urlapi.obj
 0001:00044510       _parseurl                  00445510 f   libcurl:urlapi.obj
 0001:00044550       _seturl                    00445550 f   libcurl:urlapi.obj
 0001:00044b60       _strcpy_url                00445b60 f   libcurl:urlapi.obj
 0001:00044c10       _strlen_url                00445c10 f   libcurl:urlapi.obj
 0001:00044c90       _urlchar_needs_escaping    00445c90 f   libcurl:urlapi.obj
 0001:00044f00       _parsenetrc                00445f00 f   libcurl:netrc.obj
 0001:000456e0       _blobcmp                   004466e0 f   libcurl:vtls.obj
 0001:00045780       _blobdup                   00446780 f   libcurl:vtls.obj
 0001:00045808       $LN9                       00446808     libcurl:escape.obj
 0001:00045810       $LN7                       00446810     libcurl:escape.obj
 0001:00046088       $LN95                      00447088     libcurl:strerror.obj
 0001:00046210       _get_winapi_error          00447210 f   libcurl:strerror.obj
 0001:000462c0       _get_winsock_error         004472c0 f   libcurl:strerror.obj
 0001:000464f8       $LN61                      004474f8     libcurl:strerror.obj
 0001:000465b4       $LN58                      004475b4     libcurl:strerror.obj
 0001:00046710       _inet_ntop4                00447710 f   libcurl:inet_ntop.obj
 0001:000467b0       _inet_ntop6                004477b0 f   libcurl:inet_ntop.obj
 0001:00046b3c       $LN18                      00447b3c     libcurl:version_win32.obj
 0001:00046ba4       $LN10                      00447ba4     libcurl:digest.obj
 0001:00047714       $LN33                      00448714     libcurl:digest.obj
 0001:00047728       $LN28                      00448728     libcurl:digest.obj
 0001:00047780       _auth_create_digest_http_message 00448780 f   libcurl:digest.obj
 0001:00047c20       _auth_decode_digest_md5_message 00448c20 f   libcurl:digest.obj
 0001:00047d10       _auth_digest_get_key_value 00448d10 f   libcurl:digest.obj
 0001:00047d80       _auth_digest_get_qop_values 00448d80 f   libcurl:digest.obj
 0001:00047e40       _auth_digest_md5_to_ascii  00448e40 f   libcurl:digest.obj
 0001:00047e80       _auth_digest_sha256_to_ascii 00448e80 f   libcurl:digest.obj
 0001:00047ec0       _auth_digest_string_quoted 00448ec0 f   libcurl:digest.obj
 0001:00047f74       $LN16                      00448f74     libcurl:http_chunks.obj
 0001:00048330       $LN74                      00449330     libcurl:http_chunks.obj
 0001:00048750       _de_cleanup                00449750 f   libcurl:doh.obj
 0001:00048780       _de_init                   00449780 f   libcurl:doh.obj
 0001:000487d0       _doh2ai                    004497d0 f   libcurl:doh.obj
 0001:00048920       _doh_decode                00449920 f   libcurl:doh.obj
 0001:00048c20       _doh_done                  00449c20 f   libcurl:doh.obj
 0001:00048ca0       _doh_encode                00449ca0 f   libcurl:doh.obj
 0001:00048da0       _doh_strerror              00449da0 f   libcurl:doh.obj
 0001:00048dc0       _doh_write_cb              00449dc0 f   libcurl:doh.obj
 0001:00048df0       _dohprobe                  00449df0 f   libcurl:doh.obj
 0001:00049430       _get16bit                  0044a430 f   libcurl:doh.obj
 0001:00049450       _get32bit                  0044a450 f   libcurl:doh.obj
 0001:00049480       _rdata                     0044a480 f   libcurl:doh.obj
 0001:00049500       _showdoh                   0044a500 f   libcurl:doh.obj
 0001:00049690       _skipqname                 0044a690 f   libcurl:doh.obj
 0001:00049700       _store_a                   0044a700 f   libcurl:doh.obj
 0001:00049740       _store_aaaa                0044a740 f   libcurl:doh.obj
 0001:00049780       _store_cname               0044a780 f   libcurl:doh.obj
 0001:000498a0       _type2name                 0044a8a0 f   libcurl:doh.obj
 0001:00049b80       _setname                   0044ab80 f   libcurl:formdata.obj
 0001:00049d50       _base64_encode             0044ad50 f   libcurl:base64.obj
 0001:00049f10       _decodeQuantum             0044af10 f   libcurl:base64.obj
 0001:0004a780       _ntlm_decode_type2_target  0044b780 f   libcurl:ntlm.obj
 0001:0004a830       _ascii_to_unicode_le       0044b830 f   libcurl:curl_ntlm_core.obj
 0001:0004a830       _unicodecpy                0044b830 f   libcurl:ntlm.obj
 0001:0004b230       _sha256_to_hex             0044c230 f   libcurl:http_aws_sigv4.obj
 0001:0004bedc       $LN56                      0044cedc     libcurl:curl_sasl.obj
 0001:0004c4a0       _state                     0044d4a0 f   libcurl:curl_sasl.obj
 0001:0004c4b0       _MD5_Init                  0044d4b0 f   libcurl:md5.obj
 0001:0004c4f0       _MD4_Update                0044d4f0 f   libcurl:md4.obj
 0001:0004c4f0       _MD5_Update                0044d4f0 f   libcurl:md5.obj
 0001:0004c4f0       _SHA256_Update             0044d4f0 f   libcurl:sha256.obj
 0001:0004c510       _MD4_Final                 0044d510 f   libcurl:md4.obj
 0001:0004c510       _MD5_Final                 0044d510 f   libcurl:md5.obj
 0001:0004d150       $LN287                     0044e150     libcurl:ftplistparser.obj
 0001:0004d160       $LN288                     0044e160     libcurl:ftplistparser.obj
 0001:0004d188       $LN289                     0044e188     libcurl:ftplistparser.obj
 0001:0004d1ac       $LN266                     0044e1ac     libcurl:ftplistparser.obj
 0001:0004d1f4       $LN290                     0044e1f4     libcurl:ftplistparser.obj
 0001:0004d20c       $LN291                     0044e20c     libcurl:ftplistparser.obj
 0001:0004d270       _ftp_pl_get_permission     0044e270 f   libcurl:ftplistparser.obj
 0001:0004d3a0       _ftp_pl_insert_finfo       0044e3a0 f   libcurl:ftplistparser.obj
 0001:0004da10       _ascii_uppercase_to_unicode_le 0044ea10 f   libcurl:curl_ntlm_core.obj
 0001:0004da50       _encrypt_des               0044ea50 f   libcurl:curl_ntlm_core.obj
 0001:0004db50       _extend_key_56_to_64       0044eb50 f   libcurl:curl_ntlm_core.obj
 0001:0004dbe0       _time2filetime             0044ebe0 f   libcurl:curl_ntlm_core.obj
 0001:0004df60       _SHA256_Init               0044ef60 f   libcurl:sha256.obj
 0001:0004dfa0       _SHA256_Final              0044efa0 f   libcurl:sha256.obj
 0001:0004e630       _charclass                 0044f630 f   libcurl:curl_fnmatch.obj
 0001:0004e680       _loop                      0044f680 f   libcurl:curl_fnmatch.obj
 0001:0004e894       $LN84                      0044f894     libcurl:curl_fnmatch.obj
 0001:0004e8ac       $LN79                      0044f8ac     libcurl:curl_fnmatch.obj
 0001:0004e910       _parsekeyword              0044f910 f   libcurl:curl_fnmatch.obj
 0001:0004ecf0       _setcharorrange            0044fcf0 f   libcurl:curl_fnmatch.obj
 0001:0004eda0       _setcharset                0044fda0 f   libcurl:curl_fnmatch.obj
 0001:0004efb0       _MD4_Init                  0044ffb0 f   libcurl:md4.obj
 0001:0004f0e0       $$000000                   004500e0     MSVCRT:lldiv.obj
 0001:0004f101       L1                         00450101     MSVCRT:lldiv.obj
 0001:0004f11d       L2                         0045011d     MSVCRT:lldiv.obj
 0001:0004f139       L3                         00450139     MSVCRT:lldiv.obj
 0001:0004f147       L5                         00450147     MSVCRT:lldiv.obj
 0001:0004f175       L6                         00450175     MSVCRT:lldiv.obj
 0001:0004f176       L7                         00450176     MSVCRT:lldiv.obj
 0001:0004f17a       L4                         0045017a     MSVCRT:lldiv.obj
 0001:0004f184       L8                         00450184     MSVCRT:lldiv.obj
 0001:0004f190       $$000000                   00450190     MSVCRT:chkstk.obj
 0001:0004f1a4       cs10                       004501a4     MSVCRT:chkstk.obj
 0001:0004f1b4       cs20                       004501b4     MSVCRT:chkstk.obj
 0001:0004f1c0       $$000000                   004501c0     MSVCRT:ftol3.obj
 0001:0004f1de       _dtol3_default             004501de     MSVCRT:ftol3.obj
 0001:0004f208       _dtol3_getbits             00450208     MSVCRT:ftol3.obj
 0001:0004f231       _dtol3_trunc               00450231     MSVCRT:ftol3.obj
 0001:0004f238       _dtol3_lshift              00450238     MSVCRT:ftol3.obj
 0001:0004f23e       _dtol3_notsafe             0045023e     MSVCRT:ftol3.obj
 0001:0004f257       _dtol3_large               00450257     MSVCRT:ftol3.obj
 0001:0004f25f       _dtol3_NaN                 0045025f     MSVCRT:ftol3.obj
 0001:0004f267       _dtol3_retmin              00450267     MSVCRT:ftol3.obj
 0001:0004f270       $$000000                   00450270     MSVCRT:ftol3.obj
 0001:0004f28a       _ltod3_default             0045028a     MSVCRT:ftol3.obj
 0001:0004f2c0       $$000000                   004502c0     MSVCRT:lldvrm.obj
 0001:0004f2e4       L1                         004502e4     MSVCRT:lldvrm.obj
 0001:0004f300       L2                         00450300     MSVCRT:lldvrm.obj
 0001:0004f32c       L3                         0045032c     MSVCRT:lldvrm.obj
 0001:0004f33a       L5                         0045033a     MSVCRT:lldvrm.obj
 0001:0004f368       L6                         00450368     MSVCRT:lldvrm.obj
 0001:0004f371       L7                         00450371     MSVCRT:lldvrm.obj
 0001:0004f373       L4                         00450373     MSVCRT:lldvrm.obj
 0001:0004f385       L9                         00450385     MSVCRT:lldvrm.obj
 0001:0004f399       L8                         00450399     MSVCRT:lldvrm.obj
 0001:0004f3a0       $$000000                   004503a0     MSVCRT:llmul.obj
 0001:0004f3b9       hard                       004503b9     MSVCRT:llmul.obj
 0001:0004f3e0       $$000000                   004503e0     MSVCRT:llrem.obj
 0001:0004f400       L1                         00450400     MSVCRT:llrem.obj
 0001:0004f41b       L2                         0045041b     MSVCRT:llrem.obj
 0001:0004f43a       L3                         0045043a     MSVCRT:llrem.obj
 0001:0004f448       L5                         00450448     MSVCRT:llrem.obj
 0001:0004f473       L6                         00450473     MSVCRT:llrem.obj
 0001:0004f47b       L7                         0045047b     MSVCRT:llrem.obj
 0001:0004f486       L4                         00450486     MSVCRT:llrem.obj
 0001:0004f48d       L8                         0045048d     MSVCRT:llrem.obj
 0001:0004f4a0       $$000000                   004504a0     MSVCRT:ulldvrm.obj
 0001:0004f4d1       L1                         004504d1     MSVCRT:ulldvrm.obj
 0001:0004f4df       L3                         004504df     MSVCRT:ulldvrm.obj
 0001:0004f50d       L4                         0045050d     MSVCRT:ulldvrm.obj
 0001:0004f516       L5                         00450516     MSVCRT:ulldvrm.obj
 0001:0004f518       L2                         00450518     MSVCRT:ulldvrm.obj
 0001:0004f5c0       __unwindfunclet$?KEY@@YA?AV?$basic_string@DU?$char_traits@D@std@@V?$allocator@D@2@@std@@XZ$19 004505c0 f   protect.obj
 0001:0004f5d2       __unwindfunclet$?KEY@@YA?AV?$basic_string@DU?$char_traits@D@std@@V?$allocator@D@2@@std@@XZ$1 004505d2 f   protect.obj
 0001:0004f5dd       __unwindfunclet$?KEY@@YA?AV?$basic_string@DU?$char_traits@D@std@@V?$allocator@D@2@@std@@XZ$2 004505dd f   protect.obj
 0001:0004f5e8       __unwindfunclet$?KEY@@YA?AV?$basic_string@DU?$char_traits@D@std@@V?$allocator@D@2@@std@@XZ$3 004505e8 f   protect.obj
 0001:0004f60a       __unwindfunclet$?KEY@@YA?AV?$basic_string@DU?$char_traits@D@std@@V?$allocator@D@2@@std@@XZ$27 0045060a f   protect.obj
 0001:0004f61c       __unwindfunclet$?KEY@@YA?AV?$basic_string@DU?$char_traits@D@std@@V?$allocator@D@2@@std@@XZ$5 0045061c f   protect.obj
 0001:0004f627       __unwindfunclet$?KEY@@YA?AV?$basic_string@DU?$char_traits@D@std@@V?$allocator@D@2@@std@@XZ$6 00450627 f   protect.obj
 0001:0004f632       __unwindfunclet$?KEY@@YA?AV?$basic_string@DU?$char_traits@D@std@@V?$allocator@D@2@@std@@XZ$35 00450632 f   protect.obj
 0001:0004f644       __unwindfunclet$?KEY@@YA?AV?$basic_string@DU?$char_traits@D@std@@V?$allocator@D@2@@std@@XZ$9 00450644 f   protect.obj
 0001:0004f64f       __unwindfunclet$?KEY@@YA?AV?$basic_string@DU?$char_traits@D@std@@V?$allocator@D@2@@std@@XZ$10 0045064f f   protect.obj
 0001:0004f65a       __unwindfunclet$?KEY@@YA?AV?$basic_string@DU?$char_traits@D@std@@V?$allocator@D@2@@std@@XZ$43 0045065a f   protect.obj
 0001:0004f66c       __unwindfunclet$?KEY@@YA?AV?$basic_string@DU?$char_traits@D@std@@V?$allocator@D@2@@std@@XZ$13 0045066c f   protect.obj
 0001:0004f677       __unwindfunclet$?KEY@@YA?AV?$basic_string@DU?$char_traits@D@std@@V?$allocator@D@2@@std@@XZ$14 00450677 f   protect.obj
 0001:0004f682       __unwindfunclet$?KEY@@YA?AV?$basic_string@DU?$char_traits@D@std@@V?$allocator@D@2@@std@@XZ$49 00450682 f   protect.obj
 0001:0004f694       __unwindfunclet$?KEY@@YA?AV?$basic_string@DU?$char_traits@D@std@@V?$allocator@D@2@@std@@XZ$16 00450694 f   protect.obj
 0001:0004f69f       __unwindfunclet$?KEY@@YA?AV?$basic_string@DU?$char_traits@D@std@@V?$allocator@D@2@@std@@XZ$55 0045069f f   protect.obj
 0001:0004f6aa       __unwindfunclet$?KEY@@YA?AV?$basic_string@DU?$char_traits@D@std@@V?$allocator@D@2@@std@@XZ$17 004506aa f   protect.obj
 0001:0004f6ba       __ehhandler$?KEY@@YA?AV?$basic_string@DU?$char_traits@D@std@@V?$allocator@D@2@@std@@XZ 004506ba f   protect.obj
 0001:0004f6f0       __unwindfunclet$?write_to_string@@YAIPAXII0@Z$0 004506f0 f   protect.obj
 0001:0004f6fd       __ehhandler$?write_to_string@@YAIPAXII0@Z 004506fd f   protect.obj
 0001:0004f720       __unwindfunclet$?IsValidTime@@YA_NHHH@Z$0 00450720 f   protect.obj
 0001:0004f728       __unwindfunclet$?IsValidTime@@YA_NHHH@Z$1 00450728 f   protect.obj
 0001:0004f735       __ehhandler$?IsValidTime@@YA_NHHH@Z 00450735 f   protect.obj
 0001:0004f760       __ehhandler$??1sentry@?$basic_ostream@DU?$char_traits@D@std@@@std@@QAE@XZ 00450760 f   protect.obj
 0001:0004f780       __ehhandler$??1_Sentry_base@?$basic_ostream@DU?$char_traits@D@std@@@std@@QAE@XZ 00450780 f   protect.obj
 0001:0004f780       __ehhandler$??1_Sentry_base@?$basic_istream@DU?$char_traits@D@std@@@std@@QAE@XZ 00450780 f   systeminfo.obj
 0001:0004f7a0       __unwindfunclet$??$?6U?$char_traits@D@std@@@std@@YAAAV?$basic_ostream@DU?$char_traits@D@std@@@0@AAV10@PBD@Z$3 004507a0 f   protect.obj
 0001:0004f7a8       __unwindfunclet$??$?6U?$char_traits@D@std@@@std@@YAAAV?$basic_ostream@DU?$char_traits@D@std@@@0@AAV10@PBD@Z$2 004507a8 f   protect.obj
 0001:0004f7b5       __ehhandler$??$?6U?$char_traits@D@std@@@std@@YAAAV?$basic_ostream@DU?$char_traits@D@std@@@0@AAV10@PBD@Z 004507b5 f   protect.obj
 0001:0004f7e0       __unwindfunclet$??0CPUInfo@@QAE@ABV?$vector@V?$basic_string@DU?$char_traits@D@std@@V?$allocator@D@2@@std@@V?$allocator@V?$basic_string@DU?$char_traits@D@std@@V?$allocator@D@2@@std@@@2@@std@@H@Z$0 004507e0 f   systeminfo.obj
 0001:0004f7e8       __unwindfunclet$??0CPUInfo@@QAE@ABV?$vector@V?$basic_string@DU?$char_traits@D@std@@V?$allocator@D@2@@std@@V?$allocator@V?$basic_string@DU?$char_traits@D@std@@V?$allocator@D@2@@std@@@2@@std@@H@Z$1 004507e8 f   systeminfo.obj
 0001:0004f7f3       __unwindfunclet$??0CPUInfo@@QAE@ABV?$vector@V?$basic_string@DU?$char_traits@D@std@@V?$allocator@D@2@@std@@V?$allocator@V?$basic_string@DU?$char_traits@D@std@@V?$allocator@D@2@@std@@@2@@std@@H@Z$2 004507f3 f   systeminfo.obj
 0001:0004f7fe       __unwindfunclet$??0CPUInfo@@QAE@ABV?$vector@V?$basic_string@DU?$char_traits@D@std@@V?$allocator@D@2@@std@@V?$allocator@V?$basic_string@DU?$char_traits@D@std@@V?$allocator@D@2@@std@@@2@@std@@H@Z$3 004507fe f   systeminfo.obj
 0001:0004f809       __unwindfunclet$??0CPUInfo@@QAE@ABV?$vector@V?$basic_string@DU?$char_traits@D@std@@V?$allocator@D@2@@std@@V?$allocator@V?$basic_string@DU?$char_traits@D@std@@V?$allocator@D@2@@std@@@2@@std@@H@Z$4 00450809 f   systeminfo.obj
 0001:0004f814       __unwindfunclet$??0CPUInfo@@QAE@ABV?$vector@V?$basic_string@DU?$char_traits@D@std@@V?$allocator@D@2@@std@@V?$allocator@V?$basic_string@DU?$char_traits@D@std@@V?$allocator@D@2@@std@@@2@@std@@H@Z$5 00450814 f   systeminfo.obj
 0001:0004f81f       __unwindfunclet$??0CPUInfo@@QAE@ABV?$vector@V?$basic_string@DU?$char_traits@D@std@@V?$allocator@D@2@@std@@V?$allocator@V?$basic_string@DU?$char_traits@D@std@@V?$allocator@D@2@@std@@@2@@std@@H@Z$9 0045081f f   systeminfo.obj
 0001:0004f827       __unwindfunclet$??0CPUInfo@@QAE@ABV?$vector@V?$basic_string@DU?$char_traits@D@std@@V?$allocator@D@2@@std@@V?$allocator@V?$basic_string@DU?$char_traits@D@std@@V?$allocator@D@2@@std@@@2@@std@@H@Z$11 00450827 f   systeminfo.obj
 0001:0004f82f       __unwindfunclet$??0CPUInfo@@QAE@ABV?$vector@V?$basic_string@DU?$char_traits@D@std@@V?$allocator@D@2@@std@@V?$allocator@V?$basic_string@DU?$char_traits@D@std@@V?$allocator@D@2@@std@@@2@@std@@H@Z$13 0045082f f   systeminfo.obj
 0001:0004f83c       __ehhandler$??0CPUInfo@@QAE@ABV?$vector@V?$basic_string@DU?$char_traits@D@std@@V?$allocator@D@2@@std@@V?$allocator@V?$basic_string@DU?$char_traits@D@std@@V?$allocator@D@2@@std@@@2@@std@@H@Z 0045083c f   systeminfo.obj
 0001:0004f870       __ehhandler$?getArchitecture@CPUInfo@@ABE?AV?$basic_string@DU?$char_traits@D@std@@V?$allocator@D@2@@std@@AAV23@@Z 00450870 f   systeminfo.obj
 0001:0004f8a0       __unwindfunclet$??0CPUInfoDelegate@@QAE@XZ$0 004508a0 f   systeminfo.obj
 0001:0004f8ab       __unwindfunclet$??0CPUInfoDelegate@@QAE@XZ$2 004508ab f   systeminfo.obj
 0001:0004f8be       __unwindfunclet$??0CPUInfoDelegate@@QAE@XZ$7 004508be f   systeminfo.obj
 0001:0004f8c9       __unwindfunclet$??0CPUInfoDelegate@@QAE@XZ$3 004508c9 f   systeminfo.obj
 0001:0004f8d4       __unwindfunclet$??0CPUInfoDelegate@@QAE@XZ$4 004508d4 f   systeminfo.obj
 0001:0004f8dc       __unwindfunclet$??0CPUInfoDelegate@@QAE@XZ$5 004508dc f   systeminfo.obj
 0001:0004f8e4       __unwindfunclet$??0CPUInfoDelegate@@QAE@XZ$6 004508e4 f   systeminfo.obj
 0001:0004f8f1       __ehhandler$??0CPUInfoDelegate@@QAE@XZ 004508f1 f   systeminfo.obj
 0001:0004f920       __unwindfunclet$??0GPUInfo@@QAE@ABV?$vector@V?$basic_string@DU?$char_traits@D@std@@V?$allocator@D@2@@std@@V?$allocator@V?$basic_string@DU?$char_traits@D@std@@V?$allocator@D@2@@std@@@2@@std@@H@Z$2 00450920 f   systeminfo.obj
 0001:0004f928       __unwindfunclet$??0GPUInfo@@QAE@ABV?$vector@V?$basic_string@DU?$char_traits@D@std@@V?$allocator@D@2@@std@@V?$allocator@V?$basic_string@DU?$char_traits@D@std@@V?$allocator@D@2@@std@@@2@@std@@H@Z$3 00450928 f   systeminfo.obj
 0001:0004f933       __unwindfunclet$??0GPUInfo@@QAE@ABV?$vector@V?$basic_string@DU?$char_traits@D@std@@V?$allocator@D@2@@std@@V?$allocator@V?$basic_string@DU?$char_traits@D@std@@V?$allocator@D@2@@std@@@2@@std@@H@Z$4 00450933 f   systeminfo.obj
 0001:0004f93e       __unwindfunclet$??0GPUInfo@@QAE@ABV?$vector@V?$basic_string@DU?$char_traits@D@std@@V?$allocator@D@2@@std@@V?$allocator@V?$basic_string@DU?$char_traits@D@std@@V?$allocator@D@2@@std@@@2@@std@@H@Z$5 0045093e f   systeminfo.obj
 0001:0004f949       __unwindfunclet$??0GPUInfo@@QAE@ABV?$vector@V?$basic_string@DU?$char_traits@D@std@@V?$allocator@D@2@@std@@V?$allocator@V?$basic_string@DU?$char_traits@D@std@@V?$allocator@D@2@@std@@@2@@std@@H@Z$6 00450949 f   systeminfo.obj
 0001:0004f954       __unwindfunclet$??0GPUInfo@@QAE@ABV?$vector@V?$basic_string@DU?$char_traits@D@std@@V?$allocator@D@2@@std@@V?$allocator@V?$basic_string@DU?$char_traits@D@std@@V?$allocator@D@2@@std@@@2@@std@@H@Z$7 00450954 f   systeminfo.obj
 0001:0004f95f       __unwindfunclet$??0GPUInfo@@QAE@ABV?$vector@V?$basic_string@DU?$char_traits@D@std@@V?$allocator@D@2@@std@@V?$allocator@V?$basic_string@DU?$char_traits@D@std@@V?$allocator@D@2@@std@@@2@@std@@H@Z$8 0045095f f   systeminfo.obj
 0001:0004f96d       __unwindfunclet$??0GPUInfo@@QAE@ABV?$vector@V?$basic_string@DU?$char_traits@D@std@@V?$allocator@D@2@@std@@V?$allocator@V?$basic_string@DU?$char_traits@D@std@@V?$allocator@D@2@@std@@@2@@std@@H@Z$9 0045096d f   systeminfo.obj
 0001:0004f97b       __unwindfunclet$??0GPUInfo@@QAE@ABV?$vector@V?$basic_string@DU?$char_traits@D@std@@V?$allocator@D@2@@std@@V?$allocator@V?$basic_string@DU?$char_traits@D@std@@V?$allocator@D@2@@std@@@2@@std@@H@Z$10 0045097b f   systeminfo.obj
 0001:0004f989       __unwindfunclet$??0GPUInfo@@QAE@ABV?$vector@V?$basic_string@DU?$char_traits@D@std@@V?$allocator@D@2@@std@@V?$allocator@V?$basic_string@DU?$char_traits@D@std@@V?$allocator@D@2@@std@@@2@@std@@H@Z$11 00450989 f   systeminfo.obj
 0001:0004f997       __unwindfunclet$??0GPUInfo@@QAE@ABV?$vector@V?$basic_string@DU?$char_traits@D@std@@V?$allocator@D@2@@std@@V?$allocator@V?$basic_string@DU?$char_traits@D@std@@V?$allocator@D@2@@std@@@2@@std@@H@Z$15 00450997 f   systeminfo.obj
 0001:0004f99f       __unwindfunclet$??0GPUInfo@@QAE@ABV?$vector@V?$basic_string@DU?$char_traits@D@std@@V?$allocator@D@2@@std@@V?$allocator@V?$basic_string@DU?$char_traits@D@std@@V?$allocator@D@2@@std@@@2@@std@@H@Z$16 0045099f f   systeminfo.obj
 0001:0004f9aa       __unwindfunclet$??0GPUInfo@@QAE@ABV?$vector@V?$basic_string@DU?$char_traits@D@std@@V?$allocator@D@2@@std@@V?$allocator@V?$basic_string@DU?$char_traits@D@std@@V?$allocator@D@2@@std@@@2@@std@@H@Z$17 004509aa f   systeminfo.obj
 0001:0004f9b5       __unwindfunclet$??0GPUInfo@@QAE@ABV?$vector@V?$basic_string@DU?$char_traits@D@std@@V?$allocator@D@2@@std@@V?$allocator@V?$basic_string@DU?$char_traits@D@std@@V?$allocator@D@2@@std@@@2@@std@@H@Z$18 004509b5 f   systeminfo.obj
 0001:0004f9c0       __unwindfunclet$??0GPUInfo@@QAE@ABV?$vector@V?$basic_string@DU?$char_traits@D@std@@V?$allocator@D@2@@std@@V?$allocator@V?$basic_string@DU?$char_traits@D@std@@V?$allocator@D@2@@std@@@2@@std@@H@Z$19 004509c0 f   systeminfo.obj
 0001:0004f9c8       __unwindfunclet$??0GPUInfo@@QAE@ABV?$vector@V?$basic_string@DU?$char_traits@D@std@@V?$allocator@D@2@@std@@V?$allocator@V?$basic_string@DU?$char_traits@D@std@@V?$allocator@D@2@@std@@@2@@std@@H@Z$22 004509c8 f   systeminfo.obj
 0001:0004f9d0       __unwindfunclet$??0GPUInfo@@QAE@ABV?$vector@V?$basic_string@DU?$char_traits@D@std@@V?$allocator@D@2@@std@@V?$allocator@V?$basic_string@DU?$char_traits@D@std@@V?$allocator@D@2@@std@@@2@@std@@H@Z$25 004509d0 f   systeminfo.obj
 0001:0004f9d8       __unwindfunclet$??0GPUInfo@@QAE@ABV?$vector@V?$basic_string@DU?$char_traits@D@std@@V?$allocator@D@2@@std@@V?$allocator@V?$basic_string@DU?$char_traits@D@std@@V?$allocator@D@2@@std@@@2@@std@@H@Z$27 004509d8 f   systeminfo.obj
 0001:0004f9e5       __ehhandler$??0GPUInfo@@QAE@ABV?$vector@V?$basic_string@DU?$char_traits@D@std@@V?$allocator@D@2@@std@@V?$allocator@V?$basic_string@DU?$char_traits@D@std@@V?$allocator@D@2@@std@@@2@@std@@H@Z 004509e5 f   systeminfo.obj
 0001:0004fa10       __unwindfunclet$??0GPUInfoDelegate@@QAE@XZ$0 00450a10 f   systeminfo.obj
 0001:0004fa1b       __unwindfunclet$??0GPUInfoDelegate@@QAE@XZ$2 00450a1b f   systeminfo.obj
 0001:0004fa2e       __unwindfunclet$??0GPUInfoDelegate@@QAE@XZ$7 00450a2e f   systeminfo.obj
 0001:0004fa39       __unwindfunclet$??0GPUInfoDelegate@@QAE@XZ$3 00450a39 f   systeminfo.obj
 0001:0004fa44       __unwindfunclet$??0GPUInfoDelegate@@QAE@XZ$4 00450a44 f   systeminfo.obj
 0001:0004fa4c       __unwindfunclet$??0GPUInfoDelegate@@QAE@XZ$5 00450a4c f   systeminfo.obj
 0001:0004fa54       __unwindfunclet$??0GPUInfoDelegate@@QAE@XZ$6 00450a54 f   systeminfo.obj
 0001:0004fa61       __ehhandler$??0GPUInfoDelegate@@QAE@XZ 00450a61 f   systeminfo.obj
 0001:0004fa90       __unwindfunclet$??0MotherboardInfo@@QAE@ABV?$vector@V?$basic_string@DU?$char_traits@D@std@@V?$allocator@D@2@@std@@V?$allocator@V?$basic_string@DU?$char_traits@D@std@@V?$allocator@D@2@@std@@@2@@std@@H@Z$0 00450a90 f   systeminfo.obj
 0001:0004fa98       __unwindfunclet$??0MotherboardInfo@@QAE@ABV?$vector@V?$basic_string@DU?$char_traits@D@std@@V?$allocator@D@2@@std@@V?$allocator@V?$basic_string@DU?$char_traits@D@std@@V?$allocator@D@2@@std@@@2@@std@@H@Z$1 00450a98 f   systeminfo.obj
 0001:0004faa3       __unwindfunclet$??0MotherboardInfo@@QAE@ABV?$vector@V?$basic_string@DU?$char_traits@D@std@@V?$allocator@D@2@@std@@V?$allocator@V?$basic_string@DU?$char_traits@D@std@@V?$allocator@D@2@@std@@@2@@std@@H@Z$2 00450aa3 f   systeminfo.obj
 0001:0004faae       __unwindfunclet$??0MotherboardInfo@@QAE@ABV?$vector@V?$basic_string@DU?$char_traits@D@std@@V?$allocator@D@2@@std@@V?$allocator@V?$basic_string@DU?$char_traits@D@std@@V?$allocator@D@2@@std@@@2@@std@@H@Z$3 00450aae f   systeminfo.obj
 0001:0004fab9       __unwindfunclet$??0MotherboardInfo@@QAE@ABV?$vector@V?$basic_string@DU?$char_traits@D@std@@V?$allocator@D@2@@std@@V?$allocator@V?$basic_string@DU?$char_traits@D@std@@V?$allocator@D@2@@std@@@2@@std@@H@Z$4 00450ab9 f   systeminfo.obj
 0001:0004fac9       __ehhandler$??0MotherboardInfo@@QAE@ABV?$vector@V?$basic_string@DU?$char_traits@D@std@@V?$allocator@D@2@@std@@V?$allocator@V?$basic_string@DU?$char_traits@D@std@@V?$allocator@D@2@@std@@@2@@std@@H@Z 00450ac9 f   systeminfo.obj
 0001:0004faf0       __unwindfunclet$?determineChipset@MotherboardInfo@@AAEXXZ$1 00450af0 f   systeminfo.obj
 0001:0004fb06       __unwindfunclet$?determineChipset@MotherboardInfo@@AAEXXZ$5 00450b06 f   systeminfo.obj
 0001:0004fb11       __unwindfunclet$?determineChipset@MotherboardInfo@@AAEXXZ$2 00450b11 f   systeminfo.obj
 0001:0004fb1c       __unwindfunclet$?determineChipset@MotherboardInfo@@AAEXXZ$3 00450b1c f   systeminfo.obj
 0001:0004fb29       __ehhandler$?determineChipset@MotherboardInfo@@AAEXXZ 00450b29 f   systeminfo.obj
 0001:0004fb60       __unwindfunclet$??0MotherboardInfoDelegate@@QAE@XZ$0 00450b60 f   systeminfo.obj
 0001:0004fb6b       __unwindfunclet$??0MotherboardInfoDelegate@@QAE@XZ$2 00450b6b f   systeminfo.obj
 0001:0004fb7e       __unwindfunclet$??0MotherboardInfoDelegate@@QAE@XZ$7 00450b7e f   systeminfo.obj
 0001:0004fb89       __unwindfunclet$??0MotherboardInfoDelegate@@QAE@XZ$3 00450b89 f   systeminfo.obj
 0001:0004fb94       __unwindfunclet$??0MotherboardInfoDelegate@@QAE@XZ$4 00450b94 f   systeminfo.obj
 0001:0004fb9c       __unwindfunclet$??0MotherboardInfoDelegate@@QAE@XZ$5 00450b9c f   systeminfo.obj
 0001:0004fba4       __unwindfunclet$??0MotherboardInfoDelegate@@QAE@XZ$6 00450ba4 f   systeminfo.obj
 0001:0004fbb1       __ehhandler$??0MotherboardInfoDelegate@@QAE@XZ 00450bb1 f   systeminfo.obj
 0001:0004fbe0       __unwindfunclet$??0OSInfo@@QAE@ABV?$vector@V?$basic_string@DU?$char_traits@D@std@@V?$allocator@D@2@@std@@V?$allocator@V?$basic_string@DU?$char_traits@D@std@@V?$allocator@D@2@@std@@@2@@std@@H@Z$6 00450be0 f   systeminfo.obj
 0001:0004fbe8       __unwindfunclet$??0OSInfo@@QAE@ABV?$vector@V?$basic_string@DU?$char_traits@D@std@@V?$allocator@D@2@@std@@V?$allocator@V?$basic_string@DU?$char_traits@D@std@@V?$allocator@D@2@@std@@@2@@std@@H@Z$7 00450be8 f   systeminfo.obj
 0001:0004fbf3       __unwindfunclet$??0OSInfo@@QAE@ABV?$vector@V?$basic_string@DU?$char_traits@D@std@@V?$allocator@D@2@@std@@V?$allocator@V?$basic_string@DU?$char_traits@D@std@@V?$allocator@D@2@@std@@@2@@std@@H@Z$8 00450bf3 f   systeminfo.obj
 0001:0004fbfe       __unwindfunclet$??0OSInfo@@QAE@ABV?$vector@V?$basic_string@DU?$char_traits@D@std@@V?$allocator@D@2@@std@@V?$allocator@V?$basic_string@DU?$char_traits@D@std@@V?$allocator@D@2@@std@@@2@@std@@H@Z$9 00450bfe f   systeminfo.obj
 0001:0004fc09       __unwindfunclet$??0OSInfo@@QAE@ABV?$vector@V?$basic_string@DU?$char_traits@D@std@@V?$allocator@D@2@@std@@V?$allocator@V?$basic_string@DU?$char_traits@D@std@@V?$allocator@D@2@@std@@@2@@std@@H@Z$10 00450c09 f   systeminfo.obj
 0001:0004fc14       __unwindfunclet$??0OSInfo@@QAE@ABV?$vector@V?$basic_string@DU?$char_traits@D@std@@V?$allocator@D@2@@std@@V?$allocator@V?$basic_string@DU?$char_traits@D@std@@V?$allocator@D@2@@std@@@2@@std@@H@Z$11 00450c14 f   systeminfo.obj
 0001:0004fc1f       __unwindfunclet$??0OSInfo@@QAE@ABV?$vector@V?$basic_string@DU?$char_traits@D@std@@V?$allocator@D@2@@std@@V?$allocator@V?$basic_string@DU?$char_traits@D@std@@V?$allocator@D@2@@std@@@2@@std@@H@Z$12 00450c1f f   systeminfo.obj
 0001:0004fc2d       __unwindfunclet$??0OSInfo@@QAE@ABV?$vector@V?$basic_string@DU?$char_traits@D@std@@V?$allocator@D@2@@std@@V?$allocator@V?$basic_string@DU?$char_traits@D@std@@V?$allocator@D@2@@std@@@2@@std@@H@Z$13 00450c2d f   systeminfo.obj
 0001:0004fc3b       __unwindfunclet$??0OSInfo@@QAE@ABV?$vector@V?$basic_string@DU?$char_traits@D@std@@V?$allocator@D@2@@std@@V?$allocator@V?$basic_string@DU?$char_traits@D@std@@V?$allocator@D@2@@std@@@2@@std@@H@Z$14 00450c3b f   systeminfo.obj
 0001:0004fc49       __unwindfunclet$??0OSInfo@@QAE@ABV?$vector@V?$basic_string@DU?$char_traits@D@std@@V?$allocator@D@2@@std@@V?$allocator@V?$basic_string@DU?$char_traits@D@std@@V?$allocator@D@2@@std@@@2@@std@@H@Z$15 00450c49 f   systeminfo.obj
 0001:0004fc57       __unwindfunclet$??0OSInfo@@QAE@ABV?$vector@V?$basic_string@DU?$char_traits@D@std@@V?$allocator@D@2@@std@@V?$allocator@V?$basic_string@DU?$char_traits@D@std@@V?$allocator@D@2@@std@@@2@@std@@H@Z$16 00450c57 f   systeminfo.obj
 0001:0004fc65       __unwindfunclet$??0OSInfo@@QAE@ABV?$vector@V?$basic_string@DU?$char_traits@D@std@@V?$allocator@D@2@@std@@V?$allocator@V?$basic_string@DU?$char_traits@D@std@@V?$allocator@D@2@@std@@@2@@std@@H@Z$17 00450c65 f   systeminfo.obj
 0001:0004fc73       __unwindfunclet$??0OSInfo@@QAE@ABV?$vector@V?$basic_string@DU?$char_traits@D@std@@V?$allocator@D@2@@std@@V?$allocator@V?$basic_string@DU?$char_traits@D@std@@V?$allocator@D@2@@std@@@2@@std@@H@Z$18 00450c73 f   systeminfo.obj
 0001:0004fc81       __unwindfunclet$??0OSInfo@@QAE@ABV?$vector@V?$basic_string@DU?$char_traits@D@std@@V?$allocator@D@2@@std@@V?$allocator@V?$basic_string@DU?$char_traits@D@std@@V?$allocator@D@2@@std@@@2@@std@@H@Z$19 00450c81 f   systeminfo.obj
 0001:0004fc8f       __unwindfunclet$??0OSInfo@@QAE@ABV?$vector@V?$basic_string@DU?$char_traits@D@std@@V?$allocator@D@2@@std@@V?$allocator@V?$basic_string@DU?$char_traits@D@std@@V?$allocator@D@2@@std@@@2@@std@@H@Z$31 00450c8f f   systeminfo.obj
 0001:0004fc97       __unwindfunclet$??0OSInfo@@QAE@ABV?$vector@V?$basic_string@DU?$char_traits@D@std@@V?$allocator@D@2@@std@@V?$allocator@V?$basic_string@DU?$char_traits@D@std@@V?$allocator@D@2@@std@@@2@@std@@H@Z$32 00450c97 f   systeminfo.obj
 0001:0004fca2       __unwindfunclet$??0OSInfo@@QAE@ABV?$vector@V?$basic_string@DU?$char_traits@D@std@@V?$allocator@D@2@@std@@V?$allocator@V?$basic_string@DU?$char_traits@D@std@@V?$allocator@D@2@@std@@@2@@std@@H@Z$33 00450ca2 f   systeminfo.obj
 0001:0004fcad       __unwindfunclet$??0OSInfo@@QAE@ABV?$vector@V?$basic_string@DU?$char_traits@D@std@@V?$allocator@D@2@@std@@V?$allocator@V?$basic_string@DU?$char_traits@D@std@@V?$allocator@D@2@@std@@@2@@std@@H@Z$34 00450cad f   systeminfo.obj
 0001:0004fcb8       __unwindfunclet$??0OSInfo@@QAE@ABV?$vector@V?$basic_string@DU?$char_traits@D@std@@V?$allocator@D@2@@std@@V?$allocator@V?$basic_string@DU?$char_traits@D@std@@V?$allocator@D@2@@std@@@2@@std@@H@Z$35 00450cb8 f   systeminfo.obj
 0001:0004fcc0       __unwindfunclet$??0OSInfo@@QAE@ABV?$vector@V?$basic_string@DU?$char_traits@D@std@@V?$allocator@D@2@@std@@V?$allocator@V?$basic_string@DU?$char_traits@D@std@@V?$allocator@D@2@@std@@@2@@std@@H@Z$38 00450cc0 f   systeminfo.obj
 0001:0004fcc8       __unwindfunclet$??0OSInfo@@QAE@ABV?$vector@V?$basic_string@DU?$char_traits@D@std@@V?$allocator@D@2@@std@@V?$allocator@V?$basic_string@DU?$char_traits@D@std@@V?$allocator@D@2@@std@@@2@@std@@H@Z$39 00450cc8 f   systeminfo.obj
 0001:0004fcd3       __unwindfunclet$??0OSInfo@@QAE@ABV?$vector@V?$basic_string@DU?$char_traits@D@std@@V?$allocator@D@2@@std@@V?$allocator@V?$basic_string@DU?$char_traits@D@std@@V?$allocator@D@2@@std@@@2@@std@@H@Z$40 00450cd3 f   systeminfo.obj
 0001:0004fcde       __unwindfunclet$??0OSInfo@@QAE@ABV?$vector@V?$basic_string@DU?$char_traits@D@std@@V?$allocator@D@2@@std@@V?$allocator@V?$basic_string@DU?$char_traits@D@std@@V?$allocator@D@2@@std@@@2@@std@@H@Z$41 00450cde f   systeminfo.obj
 0001:0004fce9       __unwindfunclet$??0OSInfo@@QAE@ABV?$vector@V?$basic_string@DU?$char_traits@D@std@@V?$allocator@D@2@@std@@V?$allocator@V?$basic_string@DU?$char_traits@D@std@@V?$allocator@D@2@@std@@@2@@std@@H@Z$42 00450ce9 f   systeminfo.obj
 0001:0004fcf1       __unwindfunclet$??0OSInfo@@QAE@ABV?$vector@V?$basic_string@DU?$char_traits@D@std@@V?$allocator@D@2@@std@@V?$allocator@V?$basic_string@DU?$char_traits@D@std@@V?$allocator@D@2@@std@@@2@@std@@H@Z$45 00450cf1 f   systeminfo.obj
 0001:0004fcf9       __unwindfunclet$??0OSInfo@@QAE@ABV?$vector@V?$basic_string@DU?$char_traits@D@std@@V?$allocator@D@2@@std@@V?$allocator@V?$basic_string@DU?$char_traits@D@std@@V?$allocator@D@2@@std@@@2@@std@@H@Z$46 00450cf9 f   systeminfo.obj
 0001:0004fd04       __unwindfunclet$??0OSInfo@@QAE@ABV?$vector@V?$basic_string@DU?$char_traits@D@std@@V?$allocator@D@2@@std@@V?$allocator@V?$basic_string@DU?$char_traits@D@std@@V?$allocator@D@2@@std@@@2@@std@@H@Z$47 00450d04 f   systeminfo.obj
 0001:0004fd0f       __unwindfunclet$??0OSInfo@@QAE@ABV?$vector@V?$basic_string@DU?$char_traits@D@std@@V?$allocator@D@2@@std@@V?$allocator@V?$basic_string@DU?$char_traits@D@std@@V?$allocator@D@2@@std@@@2@@std@@H@Z$48 00450d0f f   systeminfo.obj
 0001:0004fd1a       __unwindfunclet$??0OSInfo@@QAE@ABV?$vector@V?$basic_string@DU?$char_traits@D@std@@V?$allocator@D@2@@std@@V?$allocator@V?$basic_string@DU?$char_traits@D@std@@V?$allocator@D@2@@std@@@2@@std@@H@Z$49 00450d1a f   systeminfo.obj
 0001:0004fd27       __ehhandler$??0OSInfo@@QAE@ABV?$vector@V?$basic_string@DU?$char_traits@D@std@@V?$allocator@D@2@@std@@V?$allocator@V?$basic_string@DU?$char_traits@D@std@@V?$allocator@D@2@@std@@@2@@std@@H@Z 00450d27 f   systeminfo.obj
 0001:0004fd60       __unwindfunclet$??0OSInfoDelegate@@QAE@XZ$0 00450d60 f   systeminfo.obj
 0001:0004fd6b       __unwindfunclet$??0OSInfoDelegate@@QAE@XZ$2 00450d6b f   systeminfo.obj
 0001:0004fd7e       __unwindfunclet$??0OSInfoDelegate@@QAE@XZ$7 00450d7e f   systeminfo.obj
 0001:0004fd89       __unwindfunclet$??0OSInfoDelegate@@QAE@XZ$3 00450d89 f   systeminfo.obj
 0001:0004fd94       __unwindfunclet$??0OSInfoDelegate@@QAE@XZ$4 00450d94 f   systeminfo.obj
 0001:0004fd9c       __unwindfunclet$??0OSInfoDelegate@@QAE@XZ$5 00450d9c f   systeminfo.obj
 0001:0004fda4       __unwindfunclet$??0OSInfoDelegate@@QAE@XZ$6 00450da4 f   systeminfo.obj
 0001:0004fdb1       __ehhandler$??0OSInfoDelegate@@QAE@XZ 00450db1 f   systeminfo.obj
 0001:0004fde0       __unwindfunclet$??0RAMInfo@@QAE@ABV?$vector@V?$basic_string@DU?$char_traits@D@std@@V?$allocator@D@2@@std@@V?$allocator@V?$basic_string@DU?$char_traits@D@std@@V?$allocator@D@2@@std@@@2@@std@@H@Z$2 00450de0 f   systeminfo.obj
 0001:0004fdeb       __unwindfunclet$??0RAMInfo@@QAE@ABV?$vector@V?$basic_string@DU?$char_traits@D@std@@V?$allocator@D@2@@std@@V?$allocator@V?$basic_string@DU?$char_traits@D@std@@V?$allocator@D@2@@std@@@2@@std@@H@Z$3 00450deb f   systeminfo.obj
 0001:0004fdf9       __unwindfunclet$??0RAMInfo@@QAE@ABV?$vector@V?$basic_string@DU?$char_traits@D@std@@V?$allocator@D@2@@std@@V?$allocator@V?$basic_string@DU?$char_traits@D@std@@V?$allocator@D@2@@std@@@2@@std@@H@Z$4 00450df9 f   systeminfo.obj
 0001:0004fe07       __unwindfunclet$??0RAMInfo@@QAE@ABV?$vector@V?$basic_string@DU?$char_traits@D@std@@V?$allocator@D@2@@std@@V?$allocator@V?$basic_string@DU?$char_traits@D@std@@V?$allocator@D@2@@std@@@2@@std@@H@Z$5 00450e07 f   systeminfo.obj
 0001:0004fe15       __unwindfunclet$??0RAMInfo@@QAE@ABV?$vector@V?$basic_string@DU?$char_traits@D@std@@V?$allocator@D@2@@std@@V?$allocator@V?$basic_string@DU?$char_traits@D@std@@V?$allocator@D@2@@std@@@2@@std@@H@Z$6 00450e15 f   systeminfo.obj
 0001:0004fe23       __unwindfunclet$??0RAMInfo@@QAE@ABV?$vector@V?$basic_string@DU?$char_traits@D@std@@V?$allocator@D@2@@std@@V?$allocator@V?$basic_string@DU?$char_traits@D@std@@V?$allocator@D@2@@std@@@2@@std@@H@Z$7 00450e23 f   systeminfo.obj
 0001:0004fe31       __unwindfunclet$??0RAMInfo@@QAE@ABV?$vector@V?$basic_string@DU?$char_traits@D@std@@V?$allocator@D@2@@std@@V?$allocator@V?$basic_string@DU?$char_traits@D@std@@V?$allocator@D@2@@std@@@2@@std@@H@Z$8 00450e31 f   systeminfo.obj
 0001:0004fe42       __unwindfunclet$??0RAMInfo@@QAE@ABV?$vector@V?$basic_string@DU?$char_traits@D@std@@V?$allocator@D@2@@std@@V?$allocator@V?$basic_string@DU?$char_traits@D@std@@V?$allocator@D@2@@std@@@2@@std@@H@Z$9 00450e42 f   systeminfo.obj
 0001:0004fe53       __unwindfunclet$??0RAMInfo@@QAE@ABV?$vector@V?$basic_string@DU?$char_traits@D@std@@V?$allocator@D@2@@std@@V?$allocator@V?$basic_string@DU?$char_traits@D@std@@V?$allocator@D@2@@std@@@2@@std@@H@Z$10 00450e53 f   systeminfo.obj
 0001:0004fe5b       __unwindfunclet$??0RAMInfo@@QAE@ABV?$vector@V?$basic_string@DU?$char_traits@D@std@@V?$allocator@D@2@@std@@V?$allocator@V?$basic_string@DU?$char_traits@D@std@@V?$allocator@D@2@@std@@@2@@std@@H@Z$13 00450e5b f   systeminfo.obj
 0001:0004fe63       __unwindfunclet$??0RAMInfo@@QAE@ABV?$vector@V?$basic_string@DU?$char_traits@D@std@@V?$allocator@D@2@@std@@V?$allocator@V?$basic_string@DU?$char_traits@D@std@@V?$allocator@D@2@@std@@@2@@std@@H@Z$14 00450e63 f   systeminfo.obj
 0001:0004fe6e       __unwindfunclet$??0RAMInfo@@QAE@ABV?$vector@V?$basic_string@DU?$char_traits@D@std@@V?$allocator@D@2@@std@@V?$allocator@V?$basic_string@DU?$char_traits@D@std@@V?$allocator@D@2@@std@@@2@@std@@H@Z$15 00450e6e f   systeminfo.obj
 0001:0004fe79       __unwindfunclet$??0RAMInfo@@QAE@ABV?$vector@V?$basic_string@DU?$char_traits@D@std@@V?$allocator@D@2@@std@@V?$allocator@V?$basic_string@DU?$char_traits@D@std@@V?$allocator@D@2@@std@@@2@@std@@H@Z$16 00450e79 f   systeminfo.obj
 0001:0004fe84       __unwindfunclet$??0RAMInfo@@QAE@ABV?$vector@V?$basic_string@DU?$char_traits@D@std@@V?$allocator@D@2@@std@@V?$allocator@V?$basic_string@DU?$char_traits@D@std@@V?$allocator@D@2@@std@@@2@@std@@H@Z$17 00450e84 f   systeminfo.obj
 0001:0004fe8c       __unwindfunclet$??0RAMInfo@@QAE@ABV?$vector@V?$basic_string@DU?$char_traits@D@std@@V?$allocator@D@2@@std@@V?$allocator@V?$basic_string@DU?$char_traits@D@std@@V?$allocator@D@2@@std@@@2@@std@@H@Z$21 00450e8c f   systeminfo.obj
 0001:0004fe94       __unwindfunclet$??0RAMInfo@@QAE@ABV?$vector@V?$basic_string@DU?$char_traits@D@std@@V?$allocator@D@2@@std@@V?$allocator@V?$basic_string@DU?$char_traits@D@std@@V?$allocator@D@2@@std@@@2@@std@@H@Z$24 00450e94 f   systeminfo.obj
 0001:0004fe9c       __unwindfunclet$??0RAMInfo@@QAE@ABV?$vector@V?$basic_string@DU?$char_traits@D@std@@V?$allocator@D@2@@std@@V?$allocator@V?$basic_string@DU?$char_traits@D@std@@V?$allocator@D@2@@std@@@2@@std@@H@Z$26 00450e9c f   systeminfo.obj
 0001:0004fea4       __unwindfunclet$??0RAMInfo@@QAE@ABV?$vector@V?$basic_string@DU?$char_traits@D@std@@V?$allocator@D@2@@std@@V?$allocator@V?$basic_string@DU?$char_traits@D@std@@V?$allocator@D@2@@std@@@2@@std@@H@Z$28 00450ea4 f   systeminfo.obj
 0001:0004feb1       __ehhandler$??0RAMInfo@@QAE@ABV?$vector@V?$basic_string@DU?$char_traits@D@std@@V?$allocator@D@2@@std@@V?$allocator@V?$basic_string@DU?$char_traits@D@std@@V?$allocator@D@2@@std@@@2@@std@@H@Z 00450eb1 f   systeminfo.obj
 0001:0004fee0       __ehhandler$?getMemoryType@RAMInfo@@ABE?AV?$basic_string@DU?$char_traits@D@std@@V?$allocator@D@2@@std@@ABV23@@Z 00450ee0 f   systeminfo.obj
 0001:0004ff10       __ehhandler$?getFormFactor@RAMInfo@@ABE?AV?$basic_string@DU?$char_traits@D@std@@V?$allocator@D@2@@std@@ABV23@@Z 00450f10 f   systeminfo.obj
 0001:0004ff40       __unwindfunclet$??0RAMInfoDelegate@@QAE@XZ$0 00450f40 f   systeminfo.obj
 0001:0004ff4b       __unwindfunclet$??0RAMInfoDelegate@@QAE@XZ$2 00450f4b f   systeminfo.obj
 0001:0004ff5e       __unwindfunclet$??0RAMInfoDelegate@@QAE@XZ$7 00450f5e f   systeminfo.obj
 0001:0004ff69       __unwindfunclet$??0RAMInfoDelegate@@QAE@XZ$3 00450f69 f   systeminfo.obj
 0001:0004ff74       __unwindfunclet$??0RAMInfoDelegate@@QAE@XZ$4 00450f74 f   systeminfo.obj
 0001:0004ff7c       __unwindfunclet$??0RAMInfoDelegate@@QAE@XZ$5 00450f7c f   systeminfo.obj
 0001:0004ff84       __unwindfunclet$??0RAMInfoDelegate@@QAE@XZ$6 00450f84 f   systeminfo.obj
 0001:0004ff91       __ehhandler$??0RAMInfoDelegate@@QAE@XZ 00450f91 f   systeminfo.obj
 0001:0004ffc0       __unwindfunclet$?stripAllFromString@SystemCommand@@AAE?AV?$basic_string@DU?$char_traits@D@std@@V?$allocator@D@2@@std@@ABV23@0@Z$0 00450fc0 f   systeminfo.obj
 0001:0004ffcd       __ehhandler$?stripAllFromString@SystemCommand@@AAE?AV?$basic_string@DU?$char_traits@D@std@@V?$allocator@D@2@@std@@ABV23@0@Z 00450fcd f   systeminfo.obj
 0001:00050000       __unwindfunclet$?stripFromString@SystemCommand@@AAE?AV?$basic_string@DU?$char_traits@D@std@@V?$allocator@D@2@@std@@ABV23@0@Z$0 00451000 f   systeminfo.obj
 0001:00050008       __unwindfunclet$?stripFromString@SystemCommand@@AAE?AV?$basic_string@DU?$char_traits@D@std@@V?$allocator@D@2@@std@@ABV23@0@Z$4 00451008 f   systeminfo.obj
 0001:00050010       __unwindfunclet$?stripFromString@SystemCommand@@AAE?AV?$basic_string@DU?$char_traits@D@std@@V?$allocator@D@2@@std@@ABV23@0@Z$5 00451010 f   systeminfo.obj
 0001:0005001d       __ehhandler$?stripFromString@SystemCommand@@AAE?AV?$basic_string@DU?$char_traits@D@std@@V?$allocator@D@2@@std@@ABV23@0@Z 0045101d f   systeminfo.obj
 0001:00050050       __unwindfunclet$?stripPipeFromCommand@SystemCommand@@AAEXXZ$0 00451050 f   systeminfo.obj
 0001:00050058       __unwindfunclet$?stripPipeFromCommand@SystemCommand@@AAEXXZ$2 00451058 f   systeminfo.obj
 0001:00050065       __ehhandler$?stripPipeFromCommand@SystemCommand@@AAEXXZ 00451065 f   systeminfo.obj
 0001:00050090       __unwindfunclet$?systemCommandLaunch@SystemCommand@@AAEX_N@Z$0 00451090 f   systeminfo.obj
 0001:0005009b       __unwindfunclet$?systemCommandLaunch@SystemCommand@@AAEX_N@Z$2 0045109b f   systeminfo.obj
 0001:000500a6       __unwindfunclet$?systemCommandLaunch@SystemCommand@@AAEX_N@Z$3 004510a6 f   systeminfo.obj
 0001:000500b1       __unwindfunclet$?systemCommandLaunch@SystemCommand@@AAEX_N@Z$12 004510b1 f   systeminfo.obj
 0001:000500c1       __ehhandler$?systemCommandLaunch@SystemCommand@@AAEX_N@Z 004510c1 f   systeminfo.obj
 0001:000500f0       __unwindfunclet$??R<lambda_b5565d269da327e336800d80f472b553>@@QBE?AV?$basic_string@DU?$char_traits@D@std@@V?$allocator@D@2@@std@@ABV12@@Z$0 004510f0 f   systeminfo.obj
 0001:00050109       __unwindfunclet$??R<lambda_b5565d269da327e336800d80f472b553>@@QBE?AV?$basic_string@DU?$char_traits@D@std@@V?$allocator@D@2@@std@@ABV12@@Z$1 00451109 f   systeminfo.obj
 0001:00050114       __unwindfunclet$??R<lambda_b5565d269da327e336800d80f472b553>@@QBE?AV?$basic_string@DU?$char_traits@D@std@@V?$allocator@D@2@@std@@ABV12@@Z$2 00451114 f   systeminfo.obj
 0001:0005011c       __unwindfunclet$??R<lambda_b5565d269da327e336800d80f472b553>@@QBE?AV?$basic_string@DU?$char_traits@D@std@@V?$allocator@D@2@@std@@ABV12@@Z$4 0045111c f   systeminfo.obj
 0001:00050132       __unwindfunclet$??R<lambda_b5565d269da327e336800d80f472b553>@@QBE?AV?$basic_string@DU?$char_traits@D@std@@V?$allocator@D@2@@std@@ABV12@@Z$13 00451132 f   systeminfo.obj
 0001:0005013a       __unwindfunclet$??R<lambda_b5565d269da327e336800d80f472b553>@@QBE?AV?$basic_string@DU?$char_traits@D@std@@V?$allocator@D@2@@std@@ABV12@@Z$14 0045113a f   systeminfo.obj
 0001:00050142       __unwindfunclet$??R<lambda_b5565d269da327e336800d80f472b553>@@QBE?AV?$basic_string@DU?$char_traits@D@std@@V?$allocator@D@2@@std@@ABV12@@Z$5 00451142 f   systeminfo.obj
 0001:0005014f       __ehhandler$??R<lambda_b5565d269da327e336800d80f472b553>@@QBE?AV?$basic_string@DU?$char_traits@D@std@@V?$allocator@D@2@@std@@ABV12@@Z 0045114f f   systeminfo.obj
 0001:00050180       __unwindfunclet$??0?$vector@VRAMInfo@@V?$allocator@VRAMInfo@@@std@@@std@@QAE@ABV01@@Z$0 00451180 f   systeminfo.obj
 0001:00050188       __unwindfunclet$??0?$vector@VRAMInfo@@V?$allocator@VRAMInfo@@@std@@@std@@QAE@ABV01@@Z$1 00451188 f   systeminfo.obj
 0001:00050190       __unwindfunclet$??0?$vector@VRAMInfo@@V?$allocator@VRAMInfo@@@std@@@std@@QAE@ABV01@@Z$2 00451190 f   systeminfo.obj
 0001:00050198       __unwindfunclet$??0?$vector@VRAMInfo@@V?$allocator@VRAMInfo@@@std@@@std@@QAE@ABV01@@Z$3 00451198 f   systeminfo.obj
 0001:000501a3       __unwindfunclet$??0?$vector@VRAMInfo@@V?$allocator@VRAMInfo@@@std@@@std@@QAE@ABV01@@Z$4 004511a3 f   systeminfo.obj
 0001:000501ae       __unwindfunclet$??0?$vector@VRAMInfo@@V?$allocator@VRAMInfo@@@std@@@std@@QAE@ABV01@@Z$5 004511ae f   systeminfo.obj
 0001:000501b9       __unwindfunclet$??0?$vector@VRAMInfo@@V?$allocator@VRAMInfo@@@std@@@std@@QAE@ABV01@@Z$6 004511b9 f   systeminfo.obj
 0001:000501c4       __unwindfunclet$??0?$vector@VRAMInfo@@V?$allocator@VRAMInfo@@@std@@@std@@QAE@ABV01@@Z$7 004511c4 f   systeminfo.obj
 0001:000501cf       __unwindfunclet$??0?$vector@VRAMInfo@@V?$allocator@VRAMInfo@@@std@@@std@@QAE@ABV01@@Z$8 004511cf f   systeminfo.obj
 0001:000501e2       __ehhandler$??0?$vector@VRAMInfo@@V?$allocator@VRAMInfo@@@std@@@std@@QAE@ABV01@@Z 004511e2 f   systeminfo.obj
 0001:00050210       __unwindfunclet$??0?$vector@VMotherboardInfo@@V?$allocator@VMotherboardInfo@@@std@@@std@@QAE@ABV01@@Z$0 00451210 f   systeminfo.obj
 0001:00050218       __unwindfunclet$??0?$vector@VMotherboardInfo@@V?$allocator@VMotherboardInfo@@@std@@@std@@QAE@ABV01@@Z$1 00451218 f   systeminfo.obj
 0001:00050220       __unwindfunclet$??0?$vector@VMotherboardInfo@@V?$allocator@VMotherboardInfo@@@std@@@std@@QAE@ABV01@@Z$2 00451220 f   systeminfo.obj
 0001:00050228       __unwindfunclet$??0?$vector@VMotherboardInfo@@V?$allocator@VMotherboardInfo@@@std@@@std@@QAE@ABV01@@Z$3 00451228 f   systeminfo.obj
 0001:00050233       __unwindfunclet$??0?$vector@VMotherboardInfo@@V?$allocator@VMotherboardInfo@@@std@@@std@@QAE@ABV01@@Z$4 00451233 f   systeminfo.obj
 0001:0005023e       __unwindfunclet$??0?$vector@VMotherboardInfo@@V?$allocator@VMotherboardInfo@@@std@@@std@@QAE@ABV01@@Z$5 0045123e f   systeminfo.obj
 0001:0005024e       __ehhandler$??0?$vector@VMotherboardInfo@@V?$allocator@VMotherboardInfo@@@std@@@std@@QAE@ABV01@@Z 0045124e f   systeminfo.obj
 0001:00050280       __unwindfunclet$??0?$vector@VGPUInfo@@V?$allocator@VGPUInfo@@@std@@@std@@QAE@ABV01@@Z$0 00451280 f   systeminfo.obj
 0001:00050288       __unwindfunclet$??0?$vector@VGPUInfo@@V?$allocator@VGPUInfo@@@std@@@std@@QAE@ABV01@@Z$1 00451288 f   systeminfo.obj
 0001:00050290       __unwindfunclet$??0?$vector@VGPUInfo@@V?$allocator@VGPUInfo@@@std@@@std@@QAE@ABV01@@Z$2 00451290 f   systeminfo.obj
 0001:00050298       __unwindfunclet$??0?$vector@VGPUInfo@@V?$allocator@VGPUInfo@@@std@@@std@@QAE@ABV01@@Z$3 00451298 f   systeminfo.obj
 0001:000502a3       __unwindfunclet$??0?$vector@VGPUInfo@@V?$allocator@VGPUInfo@@@std@@@std@@QAE@ABV01@@Z$4 004512a3 f   systeminfo.obj
 0001:000502ae       __unwindfunclet$??0?$vector@VGPUInfo@@V?$allocator@VGPUInfo@@@std@@@std@@QAE@ABV01@@Z$5 004512ae f   systeminfo.obj
 0001:000502b9       __unwindfunclet$??0?$vector@VGPUInfo@@V?$allocator@VGPUInfo@@@std@@@std@@QAE@ABV01@@Z$6 004512b9 f   systeminfo.obj
 0001:000502c4       __unwindfunclet$??0?$vector@VGPUInfo@@V?$allocator@VGPUInfo@@@std@@@std@@QAE@ABV01@@Z$7 004512c4 f   systeminfo.obj
 0001:000502cf       __unwindfunclet$??0?$vector@VGPUInfo@@V?$allocator@VGPUInfo@@@std@@@std@@QAE@ABV01@@Z$8 004512cf f   systeminfo.obj
 0001:000502dd       __unwindfunclet$??0?$vector@VGPUInfo@@V?$allocator@VGPUInfo@@@std@@@std@@QAE@ABV01@@Z$9 004512dd f   systeminfo.obj
 0001:000502eb       __unwindfunclet$??0?$vector@VGPUInfo@@V?$allocator@VGPUInfo@@@std@@@std@@QAE@ABV01@@Z$10 004512eb f   systeminfo.obj
 0001:000502fe       __ehhandler$??0?$vector@VGPUInfo@@V?$allocator@VGPUInfo@@@std@@@std@@QAE@ABV01@@Z 004512fe f   systeminfo.obj
 0001:00050330       __unwindfunclet$??0?$vector@VCPUInfo@@V?$allocator@VCPUInfo@@@std@@@std@@QAE@ABV01@@Z$0 00451330 f   systeminfo.obj
 0001:00050338       __unwindfunclet$??0?$vector@VCPUInfo@@V?$allocator@VCPUInfo@@@std@@@std@@QAE@ABV01@@Z$1 00451338 f   systeminfo.obj
 0001:00050340       __unwindfunclet$??0?$vector@VCPUInfo@@V?$allocator@VCPUInfo@@@std@@@std@@QAE@ABV01@@Z$2 00451340 f   systeminfo.obj
 0001:00050348       __unwindfunclet$??0?$vector@VCPUInfo@@V?$allocator@VCPUInfo@@@std@@@std@@QAE@ABV01@@Z$3 00451348 f   systeminfo.obj
 0001:00050353       __unwindfunclet$??0?$vector@VCPUInfo@@V?$allocator@VCPUInfo@@@std@@@std@@QAE@ABV01@@Z$4 00451353 f   systeminfo.obj
 0001:0005035e       __unwindfunclet$??0?$vector@VCPUInfo@@V?$allocator@VCPUInfo@@@std@@@std@@QAE@ABV01@@Z$5 0045135e f   systeminfo.obj
 0001:00050369       __unwindfunclet$??0?$vector@VCPUInfo@@V?$allocator@VCPUInfo@@@std@@@std@@QAE@ABV01@@Z$6 00451369 f   systeminfo.obj
 0001:00050379       __ehhandler$??0?$vector@VCPUInfo@@V?$allocator@VCPUInfo@@@std@@@std@@QAE@ABV01@@Z 00451379 f   systeminfo.obj
 0001:000503a0       __unwindfunclet$??0?$vector@V?$basic_string@DU?$char_traits@D@std@@V?$allocator@D@2@@std@@V?$allocator@V?$basic_string@DU?$char_traits@D@std@@V?$allocator@D@2@@std@@@2@@std@@QAE@ABV01@@Z$0 004513a0 f   systeminfo.obj
 0001:000503a8       __unwindfunclet$??0?$vector@V?$basic_string@DU?$char_traits@D@std@@V?$allocator@D@2@@std@@V?$allocator@V?$basic_string@DU?$char_traits@D@std@@V?$allocator@D@2@@std@@@2@@std@@QAE@ABV01@@Z$1 004513a8 f   systeminfo.obj
 0001:000503b5       __ehhandler$??0?$vector@V?$basic_string@DU?$char_traits@D@std@@V?$allocator@D@2@@std@@V?$allocator@V?$basic_string@DU?$char_traits@D@std@@V?$allocator@D@2@@std@@@2@@std@@QAE@ABV01@@Z 004513b5 f   systeminfo.obj
 0001:000503e0       __unwindfunclet$?imbue@?$basic_filebuf@DU?$char_traits@D@std@@@std@@MAEXABVlocale@2@@Z$0 004513e0 f   systeminfo.obj
 0001:000503e9       __unwindfunclet$?imbue@?$basic_filebuf@DU?$char_traits@D@std@@@std@@MAEXABVlocale@2@@Z$1 004513e9 f   systeminfo.obj
 0001:000503f6       __ehhandler$?imbue@?$basic_filebuf@DU?$char_traits@D@std@@@std@@MAEXABVlocale@2@@Z 004513f6 f   systeminfo.obj
 0001:00050420       __unwindfunclet$?uflow@?$basic_filebuf@DU?$char_traits@D@std@@@std@@MAEHXZ$0 00451420 f   systeminfo.obj
 0001:0005042d       __ehhandler$?uflow@?$basic_filebuf@DU?$char_traits@D@std@@@std@@MAEHXZ 0045142d f   systeminfo.obj
 0001:00050460       __ehhandler$??1?$basic_filebuf@DU?$char_traits@D@std@@@std@@UAE@XZ 00451460 f   systeminfo.obj
 0001:00050480       __unwindfunclet$??0?$basic_ifstream@DU?$char_traits@D@std@@@std@@QAE@XZ$0 00451480 f   systeminfo.obj
 0001:0005049d       __unwindfunclet$??0?$basic_ifstream@DU?$char_traits@D@std@@@std@@QAE@XZ$1 0045149d f   systeminfo.obj
 0001:000504a9       __unwindfunclet$??0?$basic_ifstream@DU?$char_traits@D@std@@@std@@QAE@XZ$3 004514a9 f   systeminfo.obj
 0001:000504b7       __ehhandler$??0?$basic_ifstream@DU?$char_traits@D@std@@@std@@QAE@XZ 004514b7 f   systeminfo.obj
 0001:000504e0       __unwindfunclet$??$use_facet@V?$ctype@D@std@@@std@@YAABV?$ctype@D@0@ABVlocale@0@@Z$0 004514e0 f   systeminfo.obj
 0001:000504e9       __unwindfunclet$??$use_facet@V?$ctype@D@std@@@std@@YAABV?$ctype@D@0@ABVlocale@0@@Z$1 004514e9 f   systeminfo.obj
 0001:000504f6       __ehhandler$??$use_facet@V?$ctype@D@std@@@std@@YAABV?$ctype@D@0@ABVlocale@0@@Z 004514f6 f   systeminfo.obj
 0001:00050520       __ehhandler$??$_Emplace_reallocate@AAV?$vector@V?$basic_string@DU?$char_traits@D@std@@V?$allocator@D@2@@std@@V?$allocator@V?$basic_string@DU?$char_traits@D@std@@V?$allocator@D@2@@std@@@2@@std@@AAH@?$vector@VCPUInfo@@V?$allocator@VCPUInfo@@@std@@@std@@QAEPAVCPUInfo@@QAV2@AAV?$vector@V?$basic_string@DU?$char_traits@D@std@@V?$allocator@D@2@@std@@V?$allocator@V?$basic_string@DU?$char_traits@D@std@@V?$allocator@D@2@@std@@@2@@1@AAH@Z 00451520 f   systeminfo.obj
 0001:00050540       __unwindfunclet$??$toString@_J@GPUInfo@@ABE?AV?$basic_string@DU?$char_traits@D@std@@V?$allocator@D@2@@std@@AB_J@Z$2 00451540 f   systeminfo.obj
 0001:00050540       __unwindfunclet$??$toString@_J@OSInfo@@ABE?AV?$basic_string@DU?$char_traits@D@std@@V?$allocator@D@2@@std@@AB_J@Z$2 00451540 f   systeminfo.obj
 0001:00050540       __unwindfunclet$??$toString@_J@RAMInfo@@ABE?AV?$basic_string@DU?$char_traits@D@std@@V?$allocator@D@2@@std@@AB_J@Z$2 00451540 f   systeminfo.obj
 0001:00050560       __unwindfunclet$??$toString@_J@GPUInfo@@ABE?AV?$basic_string@DU?$char_traits@D@std@@V?$allocator@D@2@@std@@AB_J@Z$3 00451560 f   systeminfo.obj
 0001:00050560       __unwindfunclet$??$toString@_J@OSInfo@@ABE?AV?$basic_string@DU?$char_traits@D@std@@V?$allocator@D@2@@std@@AB_J@Z$3 00451560 f   systeminfo.obj
 0001:00050560       __unwindfunclet$??$toString@_J@RAMInfo@@ABE?AV?$basic_string@DU?$char_traits@D@std@@V?$allocator@D@2@@std@@AB_J@Z$3 00451560 f   systeminfo.obj
 0001:0005056c       __unwindfunclet$??$toString@_J@GPUInfo@@ABE?AV?$basic_string@DU?$char_traits@D@std@@V?$allocator@D@2@@std@@AB_J@Z$0 0045156c f   systeminfo.obj
 0001:0005056c       __unwindfunclet$??$toString@_J@OSInfo@@ABE?AV?$basic_string@DU?$char_traits@D@std@@V?$allocator@D@2@@std@@AB_J@Z$0 0045156c f   systeminfo.obj
 0001:0005056c       __unwindfunclet$??$toString@_J@RAMInfo@@ABE?AV?$basic_string@DU?$char_traits@D@std@@V?$allocator@D@2@@std@@AB_J@Z$0 0045156c f   systeminfo.obj
 0001:00050577       __unwindfunclet$??$toString@_J@GPUInfo@@ABE?AV?$basic_string@DU?$char_traits@D@std@@V?$allocator@D@2@@std@@AB_J@Z$1 00451577 f   systeminfo.obj
 0001:00050577       __unwindfunclet$??$toString@_J@OSInfo@@ABE?AV?$basic_string@DU?$char_traits@D@std@@V?$allocator@D@2@@std@@AB_J@Z$1 00451577 f   systeminfo.obj
 0001:00050577       __unwindfunclet$??$toString@_J@RAMInfo@@ABE?AV?$basic_string@DU?$char_traits@D@std@@V?$allocator@D@2@@std@@AB_J@Z$1 00451577 f   systeminfo.obj
 0001:0005059e       __ehhandler$??$toString@_J@GPUInfo@@ABE?AV?$basic_string@DU?$char_traits@D@std@@V?$allocator@D@2@@std@@AB_J@Z 0045159e f   systeminfo.obj
 0001:0005059e       __ehhandler$??$toString@_J@OSInfo@@ABE?AV?$basic_string@DU?$char_traits@D@std@@V?$allocator@D@2@@std@@AB_J@Z 0045159e f   systeminfo.obj
 0001:0005059e       __ehhandler$??$toString@_J@RAMInfo@@ABE?AV?$basic_string@DU?$char_traits@D@std@@V?$allocator@D@2@@std@@AB_J@Z 0045159e f   systeminfo.obj
 0001:000505d0       __ehhandler$??$_Emplace_reallocate@AAV?$vector@V?$basic_string@DU?$char_traits@D@std@@V?$allocator@D@2@@std@@V?$allocator@V?$basic_string@DU?$char_traits@D@std@@V?$allocator@D@2@@std@@@2@@std@@AAH@?$vector@VGPUInfo@@V?$allocator@VGPUInfo@@@std@@@std@@QAEPAVGPUInfo@@QAV2@AAV?$vector@V?$basic_string@DU?$char_traits@D@std@@V?$allocator@D@2@@std@@V?$allocator@V?$basic_string@DU?$char_traits@D@std@@V?$allocator@D@2@@std@@@2@@1@AAH@Z 004515d0 f   systeminfo.obj
 0001:000505f0       __ehhandler$??$_Emplace_reallocate@AAV?$vector@V?$basic_string@DU?$char_traits@D@std@@V?$allocator@D@2@@std@@V?$allocator@V?$basic_string@DU?$char_traits@D@std@@V?$allocator@D@2@@std@@@2@@std@@AAH@?$vector@VMotherboardInfo@@V?$allocator@VMotherboardInfo@@@std@@@std@@QAEPAVMotherboardInfo@@QAV2@AAV?$vector@V?$basic_string@DU?$char_traits@D@std@@V?$allocator@D@2@@std@@V?$allocator@V?$basic_string@DU?$char_traits@D@std@@V?$allocator@D@2@@std@@@2@@1@AAH@Z 004515f0 f   systeminfo.obj
 0001:00050610       __ehhandler$??$_Emplace_reallocate@AAV?$vector@V?$basic_string@DU?$char_traits@D@std@@V?$allocator@D@2@@std@@V?$allocator@V?$basic_string@DU?$char_traits@D@std@@V?$allocator@D@2@@std@@@2@@std@@AAH@?$vector@VOSInfo@@V?$allocator@VOSInfo@@@std@@@std@@QAEPAVOSInfo@@QAV2@AAV?$vector@V?$basic_string@DU?$char_traits@D@std@@V?$allocator@D@2@@std@@V?$allocator@V?$basic_string@DU?$char_traits@D@std@@V?$allocator@D@2@@std@@@2@@1@AAH@Z 00451610 f   systeminfo.obj
 0001:00050630       __ehhandler$??$_Emplace_reallocate@AAV?$vector@V?$basic_string@DU?$char_traits@D@std@@V?$allocator@D@2@@std@@V?$allocator@V?$basic_string@DU?$char_traits@D@std@@V?$allocator@D@2@@std@@@2@@std@@AAH@?$vector@VRAMInfo@@V?$allocator@VRAMInfo@@@std@@@std@@QAEPAVRAMInfo@@QAV2@AAV?$vector@V?$basic_string@DU?$char_traits@D@std@@V?$allocator@D@2@@std@@V?$allocator@V?$basic_string@DU?$char_traits@D@std@@V?$allocator@D@2@@std@@@2@@1@AAH@Z 00451630 f   systeminfo.obj
 0001:00050650       __ehhandler$??$_Emplace_reallocate@ABV?$basic_string@DU?$char_traits@D@std@@V?$allocator@D@2@@std@@@?$vector@V?$basic_string@DU?$char_traits@D@std@@V?$allocator@D@2@@std@@V?$allocator@V?$basic_string@DU?$char_traits@D@std@@V?$allocator@D@2@@std@@@2@@std@@QAEPAV?$basic_string@DU?$char_traits@D@std@@V?$allocator@D@2@@1@QAV21@ABV21@@Z 00451650 f   systeminfo.obj
 0001:00050670       __unwindfunclet$??$_Insert_string@DU?$char_traits@D@std@@I@std@@YAAAV?$basic_ostream@DU?$char_traits@D@std@@@0@AAV10@QBDI@Z$3 00451670 f   systeminfo.obj
 0001:00050678       __unwindfunclet$??$_Insert_string@DU?$char_traits@D@std@@I@std@@YAAAV?$basic_ostream@DU?$char_traits@D@std@@@0@AAV10@QBDI@Z$2 00451678 f   systeminfo.obj
 0001:00050685       __ehhandler$??$_Insert_string@DU?$char_traits@D@std@@I@std@@YAAAV?$basic_ostream@DU?$char_traits@D@std@@@0@AAV10@QBDI@Z 00451685 f   systeminfo.obj
 0001:000506b0       __unwindfunclet$??$_Uninitialized_copy@PAVOSInfo@@V?$allocator@VOSInfo@@@std@@@std@@YAPAVOSInfo@@QAV1@0PAV1@AAV?$allocator@VOSInfo@@@0@@Z$0 004516b0 f   systeminfo.obj
 0001:000506b8       __unwindfunclet$??$_Uninitialized_copy@PAVOSInfo@@V?$allocator@VOSInfo@@@std@@@std@@YAPAVOSInfo@@QAV1@0PAV1@AAV?$allocator@VOSInfo@@@0@@Z$1 004516b8 f   systeminfo.obj
 0001:000506c0       __unwindfunclet$??$_Uninitialized_copy@PAVOSInfo@@V?$allocator@VOSInfo@@@std@@@std@@YAPAVOSInfo@@QAV1@0PAV1@AAV?$allocator@VOSInfo@@@0@@Z$2 004516c0 f   systeminfo.obj
 0001:000506cb       __unwindfunclet$??$_Uninitialized_copy@PAVOSInfo@@V?$allocator@VOSInfo@@@std@@@std@@YAPAVOSInfo@@QAV1@0PAV1@AAV?$allocator@VOSInfo@@@0@@Z$3 004516cb f   systeminfo.obj
 0001:000506d6       __unwindfunclet$??$_Uninitialized_copy@PAVOSInfo@@V?$allocator@VOSInfo@@@std@@@std@@YAPAVOSInfo@@QAV1@0PAV1@AAV?$allocator@VOSInfo@@@0@@Z$4 004516d6 f   systeminfo.obj
 0001:000506e1       __unwindfunclet$??$_Uninitialized_copy@PAVOSInfo@@V?$allocator@VOSInfo@@@std@@@std@@YAPAVOSInfo@@QAV1@0PAV1@AAV?$allocator@VOSInfo@@@0@@Z$5 004516e1 f   systeminfo.obj
 0001:000506ec       __unwindfunclet$??$_Uninitialized_copy@PAVOSInfo@@V?$allocator@VOSInfo@@@std@@@std@@YAPAVOSInfo@@QAV1@0PAV1@AAV?$allocator@VOSInfo@@@0@@Z$6 004516ec f   systeminfo.obj
 0001:000506f7       __unwindfunclet$??$_Uninitialized_copy@PAVOSInfo@@V?$allocator@VOSInfo@@@std@@@std@@YAPAVOSInfo@@QAV1@0PAV1@AAV?$allocator@VOSInfo@@@0@@Z$7 004516f7 f   systeminfo.obj
 0001:00050705       __unwindfunclet$??$_Uninitialized_copy@PAVOSInfo@@V?$allocator@VOSInfo@@@std@@@std@@YAPAVOSInfo@@QAV1@0PAV1@AAV?$allocator@VOSInfo@@@0@@Z$8 00451705 f   systeminfo.obj
 0001:00050713       __unwindfunclet$??$_Uninitialized_copy@PAVOSInfo@@V?$allocator@VOSInfo@@@std@@@std@@YAPAVOSInfo@@QAV1@0PAV1@AAV?$allocator@VOSInfo@@@0@@Z$9 00451713 f   systeminfo.obj
 0001:00050721       __unwindfunclet$??$_Uninitialized_copy@PAVOSInfo@@V?$allocator@VOSInfo@@@std@@@std@@YAPAVOSInfo@@QAV1@0PAV1@AAV?$allocator@VOSInfo@@@0@@Z$10 00451721 f   systeminfo.obj
 0001:0005072f       __unwindfunclet$??$_Uninitialized_copy@PAVOSInfo@@V?$allocator@VOSInfo@@@std@@@std@@YAPAVOSInfo@@QAV1@0PAV1@AAV?$allocator@VOSInfo@@@0@@Z$11 0045172f f   systeminfo.obj
 0001:0005073d       __unwindfunclet$??$_Uninitialized_copy@PAVOSInfo@@V?$allocator@VOSInfo@@@std@@@std@@YAPAVOSInfo@@QAV1@0PAV1@AAV?$allocator@VOSInfo@@@0@@Z$12 0045173d f   systeminfo.obj
 0001:0005074b       __unwindfunclet$??$_Uninitialized_copy@PAVOSInfo@@V?$allocator@VOSInfo@@@std@@@std@@YAPAVOSInfo@@QAV1@0PAV1@AAV?$allocator@VOSInfo@@@0@@Z$13 0045174b f   systeminfo.obj
 0001:0005075e       __ehhandler$??$_Uninitialized_copy@PAVOSInfo@@V?$allocator@VOSInfo@@@std@@@std@@YAPAVOSInfo@@QAV1@0PAV1@AAV?$allocator@VOSInfo@@@0@@Z 0045175e f   systeminfo.obj
 0001:00050790       __unwindfunclet$??$?5DU?$char_traits@D@std@@V?$allocator@D@1@@std@@YAAAV?$basic_istream@DU?$char_traits@D@std@@@0@$$QAV10@AAV?$basic_string@DU?$char_traits@D@std@@V?$allocator@D@2@@0@@Z$4 00451790 f   systeminfo.obj
 0001:00050798       __unwindfunclet$??$?5DU?$char_traits@D@std@@V?$allocator@D@1@@std@@YAAAV?$basic_istream@DU?$char_traits@D@std@@@0@$$QAV10@AAV?$basic_string@DU?$char_traits@D@std@@V?$allocator@D@2@@0@@Z$2 00451798 f   systeminfo.obj
 0001:000507a0       __unwindfunclet$??$?5DU?$char_traits@D@std@@V?$allocator@D@1@@std@@YAAAV?$basic_istream@DU?$char_traits@D@std@@@0@$$QAV10@AAV?$basic_string@DU?$char_traits@D@std@@V?$allocator@D@2@@0@@Z$3 004517a0 f   systeminfo.obj
 0001:000507ad       __ehhandler$??$?5DU?$char_traits@D@std@@V?$allocator@D@1@@std@@YAAAV?$basic_istream@DU?$char_traits@D@std@@@0@$$QAV10@AAV?$basic_string@DU?$char_traits@D@std@@V?$allocator@D@2@@0@@Z 004517ad f   systeminfo.obj
 0001:000507d0       __ehhandler$??1sentry@?$basic_istream@DU?$char_traits@D@std@@@std@@QAE@XZ 004517d0 f   systeminfo.obj
 0001:000507f0       ??__F?TEMPERATURE_QUERY_STRING@CPUInfo@@0V?$basic_string@DU?$char_traits@D@std@@V?$allocator@D@2@@std@@B@@YAXXZ 004517f0 f   systeminfo.obj
 0001:00050850       ??__F?TEMPERATURE_ERROR_IDENTIFIER_STRING@CPUInfo@@0V?$basic_string@DU?$char_traits@D@std@@V?$allocator@D@2@@std@@B@@YAXXZ 00451850 f   systeminfo.obj
 0001:000508b0       ??__F?CLOCK_SPEED_QUERY_STRING@CPUInfo@@0V?$basic_string@DU?$char_traits@D@std@@V?$allocator@D@2@@std@@B@@YAXXZ 004518b0 f   systeminfo.obj
 0001:00050910       ??__F?CURRENT_CLOCK_SPEED_IDENTIFIER_STRING@CPUInfo@@0V?$basic_string@DU?$char_traits@D@std@@V?$allocator@D@2@@std@@B@@YAXXZ 00451910 f   systeminfo.obj
 0001:00050970       ??__F?NAME_IDENTIFIER_STRING@CPUInfo@@0V?$basic_string@DU?$char_traits@D@std@@V?$allocator@D@2@@std@@B@@YAXXZ 00451970 f   systeminfo.obj
 0001:000509d0       ??__F?NUMBER_OF_CORES_IDENTIFIER_STRING@CPUInfo@@0V?$basic_string@DU?$char_traits@D@std@@V?$allocator@D@2@@std@@B@@YAXXZ 004519d0 f   systeminfo.obj
 0001:00050a30       ??__F?MANUFACTURER_IDENTIFIER_STRING@CPUInfo@@0V?$basic_string@DU?$char_traits@D@std@@V?$allocator@D@2@@std@@B@@YAXXZ 00451a30 f   systeminfo.obj
 0001:00050a90       ??__F?ARCHITECTURE_IDENTIFIER_STRING@CPUInfo@@0V?$basic_string@DU?$char_traits@D@std@@V?$allocator@D@2@@std@@B@@YAXXZ 00451a90 f   systeminfo.obj
 0001:00050af0       ??__F?L2_CACHE_SIZE_IDENTIFIER_STRING@CPUInfo@@0V?$basic_string@DU?$char_traits@D@std@@V?$allocator@D@2@@std@@B@@YAXXZ 00451af0 f   systeminfo.obj
 0001:00050b50       ??__F?L3_CACHE_SIZE_IDENTIFIER_STRING@CPUInfo@@0V?$basic_string@DU?$char_traits@D@std@@V?$allocator@D@2@@std@@B@@YAXXZ 00451b50 f   systeminfo.obj
 0001:00050bb0       ??__F?CPU_INFO_QUERY_STRING@CPUInfoDelegate@@0V?$basic_string@DU?$char_traits@D@std@@V?$allocator@D@2@@std@@B@@YAXXZ 00451bb0 f   systeminfo.obj
 0001:00050c10       ??__F?CPU_INSTANCE_QUERY_STRING@CPUInfoDelegate@@0V?$basic_string@DU?$char_traits@D@std@@V?$allocator@D@2@@std@@B@@YAXXZ 00451c10 f   systeminfo.obj
 0001:00050c70       ??__F?CPU_INFO_END_IDENTIFIER_STRING@CPUInfoDelegate@@0V?$basic_string@DU?$char_traits@D@std@@V?$allocator@D@2@@std@@B@@YAXXZ 00451c70 f   systeminfo.obj
 0001:00050cd0       ??__F?NVIDIA_IDENTIFIER_STRING@GPUInfo@@0V?$basic_string@DU?$char_traits@D@std@@V?$allocator@D@2@@std@@B@@YAXXZ 00451cd0 f   systeminfo.obj
 0001:00050d30       ??__F?INTEL_IDENTIFIER_STRING@GPUInfo@@0V?$basic_string@DU?$char_traits@D@std@@V?$allocator@D@2@@std@@B@@YAXXZ 00451d30 f   systeminfo.obj
 0001:00050d90       ??__F?AMD_IDENTIFIER_STRING@GPUInfo@@0V?$basic_string@DU?$char_traits@D@std@@V?$allocator@D@2@@std@@B@@YAXXZ 00451d90 f   systeminfo.obj
 0001:00050df0       ??__F?NAME_IDENTIFIER_STRING@GPUInfo@@0V?$basic_string@DU?$char_traits@D@std@@V?$allocator@D@2@@std@@B@@YAXXZ 00451df0 f   systeminfo.obj
 0001:00050e50       ??__F?MANUFACTURER_IDENTIFIER_STRING@GPUInfo@@0V?$basic_string@DU?$char_traits@D@std@@V?$allocator@D@2@@std@@B@@YAXXZ 00451e50 f   systeminfo.obj
 0001:00050eb0       ??__F?ADAPTER_RAM_IDENTIFIER_STRING@GPUInfo@@0V?$basic_string@DU?$char_traits@D@std@@V?$allocator@D@2@@std@@B@@YAXXZ 00451eb0 f   systeminfo.obj
 0001:00050f10       ??__F?REFRESH_RATE_IDENTIFIER_STRING@GPUInfo@@0V?$basic_string@DU?$char_traits@D@std@@V?$allocator@D@2@@std@@B@@YAXXZ 00451f10 f   systeminfo.obj
 0001:00050f70       ??__F?DRIVER_VERSION_IDENTIFIER_STRING@GPUInfo@@0V?$basic_string@DU?$char_traits@D@std@@V?$allocator@D@2@@std@@B@@YAXXZ 00451f70 f   systeminfo.obj
 0001:00050fd0       ??__F?VIDEO_ARCHITECTURE_IDENTIFIER_STRING@GPUInfo@@0V?$basic_string@DU?$char_traits@D@std@@V?$allocator@D@2@@std@@B@@YAXXZ 00451fd0 f   systeminfo.obj
 0001:00051030       ??__F?VIDEO_MEMORY_TYPE_IDENTIFIER_STRING@GPUInfo@@0V?$basic_string@DU?$char_traits@D@std@@V?$allocator@D@2@@std@@B@@YAXXZ 00452030 f   systeminfo.obj
 0001:00051090       ??__F?VIDEO_MODE_DESCRIPTION_IDENTIFIER_STRING@GPUInfo@@0V?$basic_string@DU?$char_traits@D@std@@V?$allocator@D@2@@std@@B@@YAXXZ 00452090 f   systeminfo.obj
 0001:000510f0       ??__F?VIDEO_PROCESSOR_IDENTIFIER_STRING@GPUInfo@@0V?$basic_string@DU?$char_traits@D@std@@V?$allocator@D@2@@std@@B@@YAXXZ 004520f0 f   systeminfo.obj
 0001:00051150       ??__F?CAPTION_IDENTIFIER_STRING@GPUInfo@@0V?$basic_string@DU?$char_traits@D@std@@V?$allocator@D@2@@std@@B@@YAXXZ 00452150 f   systeminfo.obj
 0001:000511b0       ??__F?GPU_INFO_QUERY_STRING@GPUInfoDelegate@@0V?$basic_string@DU?$char_traits@D@std@@V?$allocator@D@2@@std@@B@@YAXXZ 004521b0 f   systeminfo.obj
 0001:00051210       ??__F?GPU_INSTANCE_QUERY_STRING@GPUInfoDelegate@@0V?$basic_string@DU?$char_traits@D@std@@V?$allocator@D@2@@std@@B@@YAXXZ 00452210 f   systeminfo.obj
 0001:00051270       ??__F?GPU_INFO_END_IDENTIFIER_STRING@GPUInfoDelegate@@0V?$basic_string@DU?$char_traits@D@std@@V?$allocator@D@2@@std@@B@@YAXXZ 00452270 f   systeminfo.obj
 0001:000512d0       ??__F?CHIPSET_QUERY_STRING@MotherboardInfo@@0V?$basic_string@DU?$char_traits@D@std@@V?$allocator@D@2@@std@@B@@YAXXZ 004522d0 f   systeminfo.obj
 0001:00051330       ??__F?NAME_IDENTIFIER_STRING@MotherboardInfo@@0V?$basic_string@DU?$char_traits@D@std@@V?$allocator@D@2@@std@@B@@YAXXZ 00452330 f   systeminfo.obj
 0001:00051390       ??__F?MANUFACTURER_IDENTIFIER_STRING@MotherboardInfo@@0V?$basic_string@DU?$char_traits@D@std@@V?$allocator@D@2@@std@@B@@YAXXZ 00452390 f   systeminfo.obj
 0001:000513f0       ??__F?CHIPSET_IDENTIFIER_STRING@MotherboardInfo@@0V?$basic_string@DU?$char_traits@D@std@@V?$allocator@D@2@@std@@B@@YAXXZ 004523f0 f   systeminfo.obj
 0001:00051450       ??__F?CHIPSET_END_IDENTIFIER_STRING@MotherboardInfo@@0V?$basic_string@DU?$char_traits@D@std@@V?$allocator@D@2@@std@@B@@YAXXZ 00452450 f   systeminfo.obj
 0001:000514b0       ??__F?SERIAL_NUMBER_IDENTIFIER_STRING@MotherboardInfo@@0V?$basic_string@DU?$char_traits@D@std@@V?$allocator@D@2@@std@@B@@YAXXZ 004524b0 f   systeminfo.obj
 0001:00051510       ??__F?VERSION_IDENTIFIER_STRING@MotherboardInfo@@0V?$basic_string@DU?$char_traits@D@std@@V?$allocator@D@2@@std@@B@@YAXXZ 00452510 f   systeminfo.obj
 0001:00051570       ??__F?MOTHERBOARD_INFO_QUERY_STRING@MotherboardInfoDelegate@@0V?$basic_string@DU?$char_traits@D@std@@V?$allocator@D@2@@std@@B@@YAXXZ 00452570 f   systeminfo.obj
 0001:000515d0       ??__F?MOTHERBOARD_INSTANCE_QUERY_STRING@MotherboardInfoDelegate@@0V?$basic_string@DU?$char_traits@D@std@@V?$allocator@D@2@@std@@B@@YAXXZ 004525d0 f   systeminfo.obj
 0001:00051630       ??__F?MOTHERBOARD_INFO_END_IDENTIFIER_STRING@MotherboardInfoDelegate@@0V?$basic_string@DU?$char_traits@D@std@@V?$allocator@D@2@@std@@B@@YAXXZ 00452630 f   systeminfo.obj
 0001:00051690       ??__F?ARCHITECTURE_IDENTIFIER_STRING@OSInfo@@0V?$basic_string@DU?$char_traits@D@std@@V?$allocator@D@2@@std@@B@@YAXXZ 00452690 f   systeminfo.obj
 0001:000516f0       ??__F?CAPTION_INDENTIFIER_STRING@OSInfo@@0V?$basic_string@DU?$char_traits@D@std@@V?$allocator@D@2@@std@@B@@YAXXZ 004526f0 f   systeminfo.obj
 0001:00051750       ??__F?NAME_IDENTIFIER_STRING@OSInfo@@0V?$basic_string@DU?$char_traits@D@std@@V?$allocator@D@2@@std@@B@@YAXXZ 00452750 f   systeminfo.obj
 0001:000517b0       ??__F?MANUFACTURER_IDENTIFIER_STRING@OSInfo@@0V?$basic_string@DU?$char_traits@D@std@@V?$allocator@D@2@@std@@B@@YAXXZ 004527b0 f   systeminfo.obj
 0001:00051810       ??__F?VERSION_IDENTIFIER_STRING@OSInfo@@0V?$basic_string@DU?$char_traits@D@std@@V?$allocator@D@2@@std@@B@@YAXXZ 00452810 f   systeminfo.obj
 0001:00051870       ??__F?CURRENT_USER_IDENTIFIER_STRING@OSInfo@@0V?$basic_string@DU?$char_traits@D@std@@V?$allocator@D@2@@std@@B@@YAXXZ 00452870 f   systeminfo.obj
 0001:000518d0       ??__F?INSTALL_DATE_IDENTIFIER_STRING@OSInfo@@0V?$basic_string@DU?$char_traits@D@std@@V?$allocator@D@2@@std@@B@@YAXXZ 004528d0 f   systeminfo.obj
 0001:00051930       ??__F?BUILD_NUMBER_IDENTIFIER_STRING@OSInfo@@0V?$basic_string@DU?$char_traits@D@std@@V?$allocator@D@2@@std@@B@@YAXXZ 00452930 f   systeminfo.obj
 0001:00051990       ??__F?LAST_BOOT_UP_TIME_IDENTIFIER_STRING@OSInfo@@0V?$basic_string@DU?$char_traits@D@std@@V?$allocator@D@2@@std@@B@@YAXXZ 00452990 f   systeminfo.obj
 0001:000519f0       ??__F?BOOT_DEVICE_IDENTIFIER_STRING@OSInfo@@0V?$basic_string@DU?$char_traits@D@std@@V?$allocator@D@2@@std@@B@@YAXXZ 004529f0 f   systeminfo.obj
 0001:00051a50       ??__F?SERIAL_NUMBER_IDENTIFIER_STRING@OSInfo@@0V?$basic_string@DU?$char_traits@D@std@@V?$allocator@D@2@@std@@B@@YAXXZ 00452a50 f   systeminfo.obj
 0001:00051ab0       ??__F?TOTAL_VIRTUAL_MEMORY_SIZE_IDENTIFIER_STRING@OSInfo@@0V?$basic_string@DU?$char_traits@D@std@@V?$allocator@D@2@@std@@B@@YAXXZ 00452ab0 f   systeminfo.obj
 0001:00051b10       ??__F?TOTAL_VISIBLE_MEMORY_SIZE_IDENTIFIER_STRING@OSInfo@@0V?$basic_string@DU?$char_traits@D@std@@V?$allocator@D@2@@std@@B@@YAXXZ 00452b10 f   systeminfo.obj
 0001:00051b70       ??__F?TOTAL_SWAP_SIZE_IDENTIFIER_STRING@OSInfo@@0V?$basic_string@DU?$char_traits@D@std@@V?$allocator@D@2@@std@@B@@YAXXZ 00452b70 f   systeminfo.obj
 0001:00051bd0       ??__F?FREE_PHYSICAL_MEMORY_IDENTIFIER_STRING@OSInfo@@0V?$basic_string@DU?$char_traits@D@std@@V?$allocator@D@2@@std@@B@@YAXXZ 00452bd0 f   systeminfo.obj
 0001:00051c30       ??__F?FREE_PHYSICAL_MEMORY_QUERY_STRING@OSInfo@@0V?$basic_string@DU?$char_traits@D@std@@V?$allocator@D@2@@std@@B@@YAXXZ 00452c30 f   systeminfo.obj
 0001:00051c90       ??__F?FREE_VIRTUAL_MEMORY_IDENTIFIER_STRING@OSInfo@@0V?$basic_string@DU?$char_traits@D@std@@V?$allocator@D@2@@std@@B@@YAXXZ 00452c90 f   systeminfo.obj
 0001:00051cf0       ??__F?FREE_VIRTUAL_MEMORY_QUERY_STRING@OSInfo@@0V?$basic_string@DU?$char_traits@D@std@@V?$allocator@D@2@@std@@B@@YAXXZ 00452cf0 f   systeminfo.obj
 0001:00051d50       ??__F?FREE_SPACE_IN_PAGING_FILES_IDENTIFIER_STRING@OSInfo@@0V?$basic_string@DU?$char_traits@D@std@@V?$allocator@D@2@@std@@B@@YAXXZ 00452d50 f   systeminfo.obj
 0001:00051db0       ??__F?FREE_SPACE_IN_PAGING_FILES_QUERY_STRING@OSInfo@@0V?$basic_string@DU?$char_traits@D@std@@V?$allocator@D@2@@std@@B@@YAXXZ 00452db0 f   systeminfo.obj
 0001:00051e10       ??__F?USED_SPACE_IN_PAGING_FILE_IDENTIFIER_STRING@OSInfo@@0V?$basic_string@DU?$char_traits@D@std@@V?$allocator@D@2@@std@@B@@YAXXZ 00452e10 f   systeminfo.obj
 0001:00051e70       ??__F?USED_SPACE_IN_PAGING_FILE_QUERY_STRING@OSInfo@@0V?$basic_string@DU?$char_traits@D@std@@V?$allocator@D@2@@std@@B@@YAXXZ 00452e70 f   systeminfo.obj
 0001:00051ed0       ??__F?CURRENT_DATE_TIME_IDENTIFIER_STRING@OSInfo@@0V?$basic_string@DU?$char_traits@D@std@@V?$allocator@D@2@@std@@B@@YAXXZ 00452ed0 f   systeminfo.obj
 0001:00051f30       ??__F?CURRENT_DATE_TIME_QUERY_STRING@OSInfo@@0V?$basic_string@DU?$char_traits@D@std@@V?$allocator@D@2@@std@@B@@YAXXZ 00452f30 f   systeminfo.obj
 0001:00051f90       ??__F?OS_INFO_QUERY_STRING@OSInfoDelegate@@0V?$basic_string@DU?$char_traits@D@std@@V?$allocator@D@2@@std@@B@@YAXXZ 00452f90 f   systeminfo.obj
 0001:00051ff0       ??__F?OS_INSTANCE_QUERY_STRING@OSInfoDelegate@@0V?$basic_string@DU?$char_traits@D@std@@V?$allocator@D@2@@std@@B@@YAXXZ 00452ff0 f   systeminfo.obj
 0001:00052050       ??__F?OS_INFO_END_IDENTIFIER_STRING@OSInfoDelegate@@0V?$basic_string@DU?$char_traits@D@std@@V?$allocator@D@2@@std@@B@@YAXXZ 00453050 f   systeminfo.obj
 0001:000520b0       ??__F?NAME_IDENTIFIER_STRING@RAMInfo@@0V?$basic_string@DU?$char_traits@D@std@@V?$allocator@D@2@@std@@B@@YAXXZ 004530b0 f   systeminfo.obj
 0001:00052110       ??__F?MANUFACTURER_IDENTIFIER_STRING@RAMInfo@@0V?$basic_string@DU?$char_traits@D@std@@V?$allocator@D@2@@std@@B@@YAXXZ 00453110 f   systeminfo.obj
 0001:00052170       ??__F?CAPACITY_IDENTIFIER_STRING@RAMInfo@@0V?$basic_string@DU?$char_traits@D@std@@V?$allocator@D@2@@std@@B@@YAXXZ 00453170 f   systeminfo.obj
 0001:000521d0       ??__F?SERIAL_NUMBER_IDENTIFIER_STRING@RAMInfo@@0V?$basic_string@DU?$char_traits@D@std@@V?$allocator@D@2@@std@@B@@YAXXZ 004531d0 f   systeminfo.obj
 0001:00052230       ??__F?FORM_FACTOR_IDENTIFIER_STRING@RAMInfo@@0V?$basic_string@DU?$char_traits@D@std@@V?$allocator@D@2@@std@@B@@YAXXZ 00453230 f   systeminfo.obj
 0001:00052290       ??__F?PART_NUMBER_IDENTIFIER_STRING@RAMInfo@@0V?$basic_string@DU?$char_traits@D@std@@V?$allocator@D@2@@std@@B@@YAXXZ 00453290 f   systeminfo.obj
 0001:000522f0       ??__F?MEMORY_TYPE_IDENTIFIER_STRING@RAMInfo@@0V?$basic_string@DU?$char_traits@D@std@@V?$allocator@D@2@@std@@B@@YAXXZ 004532f0 f   systeminfo.obj
 0001:00052350       ??__F?CLOCK_SPEED_IDENTIFIER_STRING@RAMInfo@@0V?$basic_string@DU?$char_traits@D@std@@V?$allocator@D@2@@std@@B@@YAXXZ 00453350 f   systeminfo.obj
 0001:000523b0       ??__F?BACKUP_CLOCK_SPEED_IDENTIFIER_STRING@RAMInfo@@0V?$basic_string@DU?$char_traits@D@std@@V?$allocator@D@2@@std@@B@@YAXXZ 004533b0 f   systeminfo.obj
 0001:00052410       ??__F?RAM_INFO_QUERY_STRING@RAMInfoDelegate@@0V?$basic_string@DU?$char_traits@D@std@@V?$allocator@D@2@@std@@B@@YAXXZ 00453410 f   systeminfo.obj
 0001:00052470       ??__F?RAM_INSTANCE_QUERY_STRING@RAMInfoDelegate@@0V?$basic_string@DU?$char_traits@D@std@@V?$allocator@D@2@@std@@B@@YAXXZ 00453470 f   systeminfo.obj
 0001:000524d0       ??__F?RAM_INFO_END_IDENTIFIER_STRING@RAMInfoDelegate@@0V?$basic_string@DU?$char_traits@D@std@@V?$allocator@D@2@@std@@B@@YAXXZ 004534d0 f   systeminfo.obj
 0001:00052527       ??__F_Fac_tidy_reg@std@@YAXXZ 00453527 f   msvcprt:locale0_implib.obj
 0002:000004b0       ?pre_cpp_initializer@@3P6AXXZA 004544b0     MSVCRT:exe_winmain.obj
 0002:000004b4       ?_Fac_tidy_reg$initializer$@std@@3P6AXXZA 004544b4     msvcprt:locale0_implib.obj
 0002:000004b8       ?g_hWarcraftWnd$initializer$@@3P6AXXZA 004544b8     Main.obj
 0002:000004bc       ??TEMPERATURE_QUERY_STRING$initializer$@CPUInfo@@0P6AXXZA@@3P6AXXZA 004544bc     systeminfo.obj
 0002:000004c0       ??TEMPERATURE_ERROR_IDENTIFIER_STRING$initializer$@CPUInfo@@0P6AXXZA@@3P6AXXZA 004544c0     systeminfo.obj
 0002:000004c4       ??CLOCK_SPEED_QUERY_STRING$initializer$@CPUInfo@@0P6AXXZA@@3P6AXXZA 004544c4     systeminfo.obj
 0002:000004c8       ??CURRENT_CLOCK_SPEED_IDENTIFIER_STRING$initializer$@CPUInfo@@0P6AXXZA@@3P6AXXZA 004544c8     systeminfo.obj
 0002:000004cc       ??NAME_IDENTIFIER_STRING$initializer$@CPUInfo@@0P6AXXZA@@3P6AXXZA 004544cc     systeminfo.obj
 0002:000004d0       ??NUMBER_OF_CORES_IDENTIFIER_STRING$initializer$@CPUInfo@@0P6AXXZA@@3P6AXXZA 004544d0     systeminfo.obj
 0002:000004d4       ??MANUFACTURER_IDENTIFIER_STRING$initializer$@CPUInfo@@0P6AXXZA@@3P6AXXZA 004544d4     systeminfo.obj
 0002:000004d8       ??ARCHITECTURE_IDENTIFIER_STRING$initializer$@CPUInfo@@0P6AXXZA@@3P6AXXZA 004544d8     systeminfo.obj
 0002:000004dc       ??L2_CACHE_SIZE_IDENTIFIER_STRING$initializer$@CPUInfo@@0P6AXXZA@@3P6AXXZA 004544dc     systeminfo.obj
 0002:000004e0       ??L3_CACHE_SIZE_IDENTIFIER_STRING$initializer$@CPUInfo@@0P6AXXZA@@3P6AXXZA 004544e0     systeminfo.obj
 0002:000004e4       ??CPU_INFO_QUERY_STRING$initializer$@CPUInfoDelegate@@0P6AXXZA@@3P6AXXZA 004544e4     systeminfo.obj
 0002:000004e8       ??CPU_INSTANCE_QUERY_STRING$initializer$@CPUInfoDelegate@@0P6AXXZA@@3P6AXXZA 004544e8     systeminfo.obj
 0002:000004ec       ??CPU_INFO_END_IDENTIFIER_STRING$initializer$@CPUInfoDelegate@@0P6AXXZA@@3P6AXXZA 004544ec     systeminfo.obj
 0002:000004f0       ??NVIDIA_IDENTIFIER_STRING$initializer$@GPUInfo@@0P6AXXZA@@3P6AXXZA 004544f0     systeminfo.obj
 0002:000004f4       ??INTEL_IDENTIFIER_STRING$initializer$@GPUInfo@@0P6AXXZA@@3P6AXXZA 004544f4     systeminfo.obj
 0002:000004f8       ??AMD_IDENTIFIER_STRING$initializer$@GPUInfo@@0P6AXXZA@@3P6AXXZA 004544f8     systeminfo.obj
 0002:000004fc       ??NAME_IDENTIFIER_STRING$initializer$@GPUInfo@@0P6AXXZA@@3P6AXXZA 004544fc     systeminfo.obj
 0002:00000500       ??MANUFACTURER_IDENTIFIER_STRING$initializer$@GPUInfo@@0P6AXXZA@@3P6AXXZA 00454500     systeminfo.obj
 0002:00000504       ??ADAPTER_RAM_IDENTIFIER_STRING$initializer$@GPUInfo@@0P6AXXZA@@3P6AXXZA 00454504     systeminfo.obj
 0002:00000508       ??REFRESH_RATE_IDENTIFIER_STRING$initializer$@GPUInfo@@0P6AXXZA@@3P6AXXZA 00454508     systeminfo.obj
 0002:0000050c       ??DRIVER_VERSION_IDENTIFIER_STRING$initializer$@GPUInfo@@0P6AXXZA@@3P6AXXZA 0045450c     systeminfo.obj
 0002:00000510       ??VIDEO_ARCHITECTURE_IDENTIFIER_STRING$initializer$@GPUInfo@@0P6AXXZA@@3P6AXXZA 00454510     systeminfo.obj
 0002:00000514       ??VIDEO_MEMORY_TYPE_IDENTIFIER_STRING$initializer$@GPUInfo@@0P6AXXZA@@3P6AXXZA 00454514     systeminfo.obj
 0002:00000518       ??VIDEO_MODE_DESCRIPTION_IDENTIFIER_STRING$initializer$@GPUInfo@@0P6AXXZA@@3P6AXXZA 00454518     systeminfo.obj
 0002:0000051c       ??VIDEO_PROCESSOR_IDENTIFIER_STRING$initializer$@GPUInfo@@0P6AXXZA@@3P6AXXZA 0045451c     systeminfo.obj
 0002:00000520       ??CAPTION_IDENTIFIER_STRING$initializer$@GPUInfo@@0P6AXXZA@@3P6AXXZA 00454520     systeminfo.obj
 0002:00000524       ??GPU_INFO_QUERY_STRING$initializer$@GPUInfoDelegate@@0P6AXXZA@@3P6AXXZA 00454524     systeminfo.obj
 0002:00000528       ??GPU_INSTANCE_QUERY_STRING$initializer$@GPUInfoDelegate@@0P6AXXZA@@3P6AXXZA 00454528     systeminfo.obj
 0002:0000052c       ??GPU_INFO_END_IDENTIFIER_STRING$initializer$@GPUInfoDelegate@@0P6AXXZA@@3P6AXXZA 0045452c     systeminfo.obj
 0002:00000530       ??CHIPSET_QUERY_STRING$initializer$@MotherboardInfo@@0P6AXXZA@@3P6AXXZA 00454530     systeminfo.obj
 0002:00000534       ??NAME_IDENTIFIER_STRING$initializer$@MotherboardInfo@@0P6AXXZA@@3P6AXXZA 00454534     systeminfo.obj
 0002:00000538       ??MANUFACTURER_IDENTIFIER_STRING$initializer$@MotherboardInfo@@0P6AXXZA@@3P6AXXZA 00454538     systeminfo.obj
 0002:0000053c       ??CHIPSET_IDENTIFIER_STRING$initializer$@MotherboardInfo@@0P6AXXZA@@3P6AXXZA 0045453c     systeminfo.obj
 0002:00000540       ??CHIPSET_END_IDENTIFIER_STRING$initializer$@MotherboardInfo@@0P6AXXZA@@3P6AXXZA 00454540     systeminfo.obj
 0002:00000544       ??SERIAL_NUMBER_IDENTIFIER_STRING$initializer$@MotherboardInfo@@0P6AXXZA@@3P6AXXZA 00454544     systeminfo.obj
 0002:00000548       ??VERSION_IDENTIFIER_STRING$initializer$@MotherboardInfo@@0P6AXXZA@@3P6AXXZA 00454548     systeminfo.obj
 0002:0000054c       ??MOTHERBOARD_INFO_QUERY_STRING$initializer$@MotherboardInfoDelegate@@0P6AXXZA@@3P6AXXZA 0045454c     systeminfo.obj
 0002:00000550       ??MOTHERBOARD_INSTANCE_QUERY_STRING$initializer$@MotherboardInfoDelegate@@0P6AXXZA@@3P6AXXZA 00454550     systeminfo.obj
 0002:00000554       ??MOTHERBOARD_INFO_END_IDENTIFIER_STRING$initializer$@MotherboardInfoDelegate@@0P6AXXZA@@3P6AXXZA 00454554     systeminfo.obj
 0002:00000558       ??ARCHITECTURE_IDENTIFIER_STRING$initializer$@OSInfo@@0P6AXXZA@@3P6AXXZA 00454558     systeminfo.obj
 0002:0000055c       ??CAPTION_INDENTIFIER_STRING$initializer$@OSInfo@@0P6AXXZA@@3P6AXXZA 0045455c     systeminfo.obj
 0002:00000560       ??NAME_IDENTIFIER_STRING$initializer$@OSInfo@@0P6AXXZA@@3P6AXXZA 00454560     systeminfo.obj
 0002:00000564       ??MANUFACTURER_IDENTIFIER_STRING$initializer$@OSInfo@@0P6AXXZA@@3P6AXXZA 00454564     systeminfo.obj
 0002:00000568       ??VERSION_IDENTIFIER_STRING$initializer$@OSInfo@@0P6AXXZA@@3P6AXXZA 00454568     systeminfo.obj
 0002:0000056c       ??CURRENT_USER_IDENTIFIER_STRING$initializer$@OSInfo@@0P6AXXZA@@3P6AXXZA 0045456c     systeminfo.obj
 0002:00000570       ??INSTALL_DATE_IDENTIFIER_STRING$initializer$@OSInfo@@0P6AXXZA@@3P6AXXZA 00454570     systeminfo.obj
 0002:00000574       ??BUILD_NUMBER_IDENTIFIER_STRING$initializer$@OSInfo@@0P6AXXZA@@3P6AXXZA 00454574     systeminfo.obj
 0002:00000578       ??LAST_BOOT_UP_TIME_IDENTIFIER_STRING$initializer$@OSInfo@@0P6AXXZA@@3P6AXXZA 00454578     systeminfo.obj
 0002:0000057c       ??BOOT_DEVICE_IDENTIFIER_STRING$initializer$@OSInfo@@0P6AXXZA@@3P6AXXZA 0045457c     systeminfo.obj
 0002:00000580       ??SERIAL_NUMBER_IDENTIFIER_STRING$initializer$@OSInfo@@0P6AXXZA@@3P6AXXZA 00454580     systeminfo.obj
 0002:00000584       ??TOTAL_VIRTUAL_MEMORY_SIZE_IDENTIFIER_STRING$initializer$@OSInfo@@0P6AXXZA@@3P6AXXZA 00454584     systeminfo.obj
 0002:00000588       ??TOTAL_VISIBLE_MEMORY_SIZE_IDENTIFIER_STRING$initializer$@OSInfo@@0P6AXXZA@@3P6AXXZA 00454588     systeminfo.obj
 0002:0000058c       ??TOTAL_SWAP_SIZE_IDENTIFIER_STRING$initializer$@OSInfo@@0P6AXXZA@@3P6AXXZA 0045458c     systeminfo.obj
 0002:00000590       ??FREE_PHYSICAL_MEMORY_IDENTIFIER_STRING$initializer$@OSInfo@@0P6AXXZA@@3P6AXXZA 00454590     systeminfo.obj
 0002:00000594       ??FREE_PHYSICAL_MEMORY_QUERY_STRING$initializer$@OSInfo@@0P6AXXZA@@3P6AXXZA 00454594     systeminfo.obj
 0002:00000598       ??FREE_VIRTUAL_MEMORY_IDENTIFIER_STRING$initializer$@OSInfo@@0P6AXXZA@@3P6AXXZA 00454598     systeminfo.obj
 0002:0000059c       ??FREE_VIRTUAL_MEMORY_QUERY_STRING$initializer$@OSInfo@@0P6AXXZA@@3P6AXXZA 0045459c     systeminfo.obj
 0002:000005a0       ??FREE_SPACE_IN_PAGING_FILES_IDENTIFIER_STRING$initializer$@OSInfo@@0P6AXXZA@@3P6AXXZA 004545a0     systeminfo.obj
 0002:000005a4       ??FREE_SPACE_IN_PAGING_FILES_QUERY_STRING$initializer$@OSInfo@@0P6AXXZA@@3P6AXXZA 004545a4     systeminfo.obj
 0002:000005a8       ??USED_SPACE_IN_PAGING_FILE_IDENTIFIER_STRING$initializer$@OSInfo@@0P6AXXZA@@3P6AXXZA 004545a8     systeminfo.obj
 0002:000005ac       ??USED_SPACE_IN_PAGING_FILE_QUERY_STRING$initializer$@OSInfo@@0P6AXXZA@@3P6AXXZA 004545ac     systeminfo.obj
 0002:000005b0       ??CURRENT_DATE_TIME_IDENTIFIER_STRING$initializer$@OSInfo@@0P6AXXZA@@3P6AXXZA 004545b0     systeminfo.obj
 0002:000005b4       ??CURRENT_DATE_TIME_QUERY_STRING$initializer$@OSInfo@@0P6AXXZA@@3P6AXXZA 004545b4     systeminfo.obj
 0002:000005b8       ??OS_INFO_QUERY_STRING$initializer$@OSInfoDelegate@@0P6AXXZA@@3P6AXXZA 004545b8     systeminfo.obj
 0002:000005bc       ??OS_INSTANCE_QUERY_STRING$initializer$@OSInfoDelegate@@0P6AXXZA@@3P6AXXZA 004545bc     systeminfo.obj
 0002:000005c0       ??OS_INFO_END_IDENTIFIER_STRING$initializer$@OSInfoDelegate@@0P6AXXZA@@3P6AXXZA 004545c0     systeminfo.obj
 0002:000005c4       ??NAME_IDENTIFIER_STRING$initializer$@RAMInfo@@0P6AXXZA@@3P6AXXZA 004545c4     systeminfo.obj
 0002:000005c8       ??MANUFACTURER_IDENTIFIER_STRING$initializer$@RAMInfo@@0P6AXXZA@@3P6AXXZA 004545c8     systeminfo.obj
 0002:000005cc       ??CAPACITY_IDENTIFIER_STRING$initializer$@RAMInfo@@0P6AXXZA@@3P6AXXZA 004545cc     systeminfo.obj
 0002:000005d0       ??SERIAL_NUMBER_IDENTIFIER_STRING$initializer$@RAMInfo@@0P6AXXZA@@3P6AXXZA 004545d0     systeminfo.obj
 0002:000005d4       ??FORM_FACTOR_IDENTIFIER_STRING$initializer$@RAMInfo@@0P6AXXZA@@3P6AXXZA 004545d4     systeminfo.obj
 0002:000005d8       ??PART_NUMBER_IDENTIFIER_STRING$initializer$@RAMInfo@@0P6AXXZA@@3P6AXXZA 004545d8     systeminfo.obj
 0002:000005dc       ??MEMORY_TYPE_IDENTIFIER_STRING$initializer$@RAMInfo@@0P6AXXZA@@3P6AXXZA 004545dc     systeminfo.obj
 0002:000005e0       ??CLOCK_SPEED_IDENTIFIER_STRING$initializer$@RAMInfo@@0P6AXXZA@@3P6AXXZA 004545e0     systeminfo.obj
 0002:000005e4       ??BACKUP_CLOCK_SPEED_IDENTIFIER_STRING$initializer$@RAMInfo@@0P6AXXZA@@3P6AXXZA 004545e4     systeminfo.obj
 0002:000005e8       ??RAM_INFO_QUERY_STRING$initializer$@RAMInfoDelegate@@0P6AXXZA@@3P6AXXZA 004545e8     systeminfo.obj
 0002:000005ec       ??RAM_INSTANCE_QUERY_STRING$initializer$@RAMInfoDelegate@@0P6AXXZA@@3P6AXXZA 004545ec     systeminfo.obj
 0002:000005f0       ??RAM_INFO_END_IDENTIFIER_STRING$initializer$@RAMInfoDelegate@@0P6AXXZA@@3P6AXXZA 004545f0     systeminfo.obj
 0002:000005fc       ?pre_c_initializer@@3P6AHXZA 004545fc     MSVCRT:exe_winmain.obj
 0002:00000600       ?post_pgo_initializer@@3P6AHXZA 00454600     MSVCRT:exe_winmain.obj
 0002:00000628       _GS_ExceptionPointers      00454628     MSVCRT:gs_report.obj
 0002:000006b8       ?finit@?1??mstate@@9@9     004546b8     libcurl:multi.obj
 0002:00000700       ?none@?3??Curl_update_timer@@9@9 00454700     libcurl:multi.obj
 0002:00000ba0       ?ctts@?1??Curl_mime_contenttype@@9@9 00454ba0     libcurl:mime.obj
 0002:00000bf0       _encoders                  00454bf0     libcurl:mime.obj
 0002:00000c38       _base64                    00454c38     libcurl:mime.obj
 0002:00000c80       _qp_class                  00454c80     libcurl:mime.obj
 0002:00000d80       _aschex                    00454d80     libcurl:mime.obj
 0002:00001040       _protocols                 00455040     libcurl:url.obj
 0002:00001080       _Curl_handler_dummy        00455080     libcurl:url.obj
 0002:000017e8       ?s_infotype@?2??Curl_debug@@9@9 004557e8     libcurl:sendf.obj
 0002:00001e38       _identity_encoding         00455e38     libcurl:content_encoding.obj
 0002:00001e50       _encodings                 00455e50     libcurl:content_encoding.obj
 0002:00001e58       _client_encoding           00455e58     libcurl:content_encoding.obj
 0002:00001e70       _error_encoding            00455e70     libcurl:content_encoding.obj
 0002:000020a8       ?KEY_NOTUSED@?1??Curl_splayinsert@@9@9 004560a8     libcurl:splay.obj
 0002:00003b94       ?lookup@?DF@??Curl_SOCKS5@@9@9 00457b94     libcurl:socks.obj
 0002:000040c0       _lower_digits              004580c0     libcurl:mprintf.obj
 0002:000040e8       _upper_digits              004580e8     libcurl:mprintf.obj
 0002:00004110       ?null@?CE@??dprintf_formatf@@9@9 00458110     libcurl:mprintf.obj
 0002:00004118       ?strnil@?DA@??dprintf_formatf@@9@9 00458118     libcurl:mprintf.obj
 0002:00004140       ?digits@?1??inet_pton4@@9@9 00458140     libcurl:inet_pton.obj
 0002:0000414c       ?xdigits_l@?1??inet_pton6@@9@9 0045814c     libcurl:inet_pton.obj
 0002:00004160       ?xdigits_u@?1??inet_pton6@@9@9 00458160     libcurl:inet_pton.obj
 0002:000041c4       _weekday                   004581c4     libcurl:parsedate.obj
 0002:000041e0       _tz                        004581e0     libcurl:parsedate.obj
 0002:0000451c       ?month_days_cumulative@?1??time2epoch@@9@9 0045851c     libcurl:parsedate.obj
 0002:000046f0       _saslimap                  004586f0     libcurl:imap.obj
 0002:00004bb0       _saslpop3                  00458bb0     libcurl:pop3.obj
 0002:00004ce8       _saslsmtp                  00458ce8     libcurl:smtp.obj
 0002:00005218       ?ftpauth@?1??ftp_statemachine@@9@9 00459218     libcurl:ftp.obj
 0002:0000526c       ?mode@?1??ftp_state_use_port@@9@9 0045926c     libcurl:ftp.obj
 0002:00005278       ?mode@?1??ftp_state_use_pasv@@9@9 00459278     libcurl:ftp.obj
 0002:00006058       _telnetoptions             0045a058     libcurl:telnet.obj
 0002:000060f8       _telnetcmds                0045a0f8     libcurl:telnet.obj
 0002:000071cc       ?badbytes@?2??junkscan@@9@9 0045b1cc     libcurl:urlapi.obj
 0002:000072f8       _ascii                     0045b2f8     libcurl:curl_ctype.obj
 0002:000087b4       _errors                    0045c7b4     libcurl:doh.obj
 0002:000089c0       _base64                    0045c9c0     libcurl:base64.obj
 0002:00008a08       _base64url                 0045ca08     libcurl:base64.obj
 0002:00008a5c       ?type2_marker@?1??Curl_auth_decode_ntlm_type2_message@@9@9 0045ca5c     libcurl:ntlm.obj
 0002:00008f08       _mechtable                 0045cf08     libcurl:curl_sasl.obj
 0002:000090a4       ?magic@?1??Curl_ntlm_core_mk_lm_hash@@9@9 0045d0a4     libcurl:curl_ntlm_core.obj
 0002:00009124       _hmac_ipad                 0045d124     libcurl:hmac.obj
 0002:00009125       _hmac_opad                 0045d125     libcurl:hmac.obj
 0002:00009230       _NaN                       0045d230     MSVCRT:ftol3.obj
 0002:00009234       _onept5                    0045d234     MSVCRT:ftol3.obj
 0002:00009238       _DP2to32                   0045d238     MSVCRT:ftol3.obj
 0002:00009238       _Int32ToUInt32             0045d238     MSVCRT:ftol3.obj
 0002:00009d48       ??_7?$_Func_impl_no_alloc@V<lambda_b5565d269da327e336800d80f472b553>@@V?$basic_string@DU?$char_traits@D@std@@V?$allocator@D@2@@std@@ABV23@@std@@6B@ 0045dd48     systeminfo.obj
 0002:0000a150       ??_R3?$_Func_impl_no_alloc@V<lambda_b5565d269da327e336800d80f472b553>@@V?$basic_string@DU?$char_traits@D@std@@V?$allocator@D@2@@std@@ABV23@@std@@8 0045e150     systeminfo.obj
 0002:0000a33c       ??_R4?$_Func_impl_no_alloc@V<lambda_b5565d269da327e336800d80f472b553>@@V?$basic_string@DU?$char_traits@D@std@@V?$allocator@D@2@@std@@ABV23@@std@@6B@ 0045e33c     systeminfo.obj
 0002:0000a394       ??_R2?$_Func_impl_no_alloc@V<lambda_b5565d269da327e336800d80f472b553>@@V?$basic_string@DU?$char_traits@D@std@@V?$allocator@D@2@@std@@ABV23@@std@@8 0045e394     systeminfo.obj
 0002:0000a400       ??_R1A@?0A@EA@?$_Func_impl_no_alloc@V<lambda_b5565d269da327e336800d80f472b553>@@V?$basic_string@DU?$char_traits@D@std@@V?$allocator@D@2@@std@@ABV23@@std@@8 0045e400     systeminfo.obj
 0002:0000a808       __ehfuncinfo$?KEY@@YA?AV?$basic_string@DU?$char_traits@D@std@@V?$allocator@D@2@@std@@XZ 0045e808     protect.obj
 0002:0000a830       __unwindtable$?KEY@@YA?AV?$basic_string@DU?$char_traits@D@std@@V?$allocator@D@2@@std@@XZ 0045e830     protect.obj
 0002:0000a8b8       __ehfuncinfo$?write_to_string@@YAIPAXII0@Z 0045e8b8     protect.obj
 0002:0000a8dc       __unwindtable$?write_to_string@@YAIPAXII0@Z 0045e8dc     protect.obj
 0002:0000a8e4       __ehfuncinfo$?IsValidTime@@YA_NHHH@Z 0045e8e4     protect.obj
 0002:0000a908       __unwindtable$?IsValidTime@@YA_NHHH@Z 0045e908     protect.obj
 0002:0000a918       __ehfuncinfo$??1sentry@?$basic_ostream@DU?$char_traits@D@std@@@std@@QAE@XZ 0045e918     protect.obj
 0002:0000a918       __ehfuncinfo$??1sentry@?$basic_istream@DU?$char_traits@D@std@@@std@@QAE@XZ 0045e918     systeminfo.obj
 0002:0000a93c       __unwindtable$??1sentry@?$basic_ostream@DU?$char_traits@D@std@@@std@@QAE@XZ 0045e93c     protect.obj
 0002:0000a93c       __unwindtable$??1sentry@?$basic_istream@DU?$char_traits@D@std@@@std@@QAE@XZ 0045e93c     systeminfo.obj
 0002:0000a944       __ehfuncinfo$??1_Sentry_base@?$basic_ostream@DU?$char_traits@D@std@@@std@@QAE@XZ 0045e944     protect.obj
 0002:0000a944       __ehfuncinfo$??1?$basic_filebuf@DU?$char_traits@D@std@@@std@@UAE@XZ 0045e944     systeminfo.obj
 0002:0000a944       __ehfuncinfo$??1_Sentry_base@?$basic_istream@DU?$char_traits@D@std@@@std@@QAE@XZ 0045e944     systeminfo.obj
 0002:0000a968       __ehfuncinfo$??$?6U?$char_traits@D@std@@@std@@YAAAV?$basic_ostream@DU?$char_traits@D@std@@@0@AAV10@PBD@Z 0045e968     protect.obj
 0002:0000a98c       __unwindtable$??$?6U?$char_traits@D@std@@@std@@YAAAV?$basic_ostream@DU?$char_traits@D@std@@@0@AAV10@PBD@Z 0045e98c     protect.obj
 0002:0000a9bc       __tryblocktable$??$?6U?$char_traits@D@std@@@std@@YAAAV?$basic_ostream@DU?$char_traits@D@std@@@0@AAV10@PBD@Z 0045e9bc     protect.obj
 0002:0000a9d0       __catchsym$??$?6U?$char_traits@D@std@@@std@@YAAAV?$basic_ostream@DU?$char_traits@D@std@@@0@AAV10@PBD@Z$6 0045e9d0     protect.obj
 0002:0000a9e0       __ehfuncinfo$??0CPUInfo@@QAE@ABV?$vector@V?$basic_string@DU?$char_traits@D@std@@V?$allocator@D@2@@std@@V?$allocator@V?$basic_string@DU?$char_traits@D@std@@V?$allocator@D@2@@std@@@2@@std@@H@Z 0045e9e0     systeminfo.obj
 0002:0000aa08       __unwindtable$??0CPUInfo@@QAE@ABV?$vector@V?$basic_string@DU?$char_traits@D@std@@V?$allocator@D@2@@std@@V?$allocator@V?$basic_string@DU?$char_traits@D@std@@V?$allocator@D@2@@std@@@2@@std@@H@Z 0045ea08     systeminfo.obj
 0002:0000aa50       __ehfuncinfo$?getArchitecture@CPUInfo@@ABE?AV?$basic_string@DU?$char_traits@D@std@@V?$allocator@D@2@@std@@AAV23@@Z 0045ea50     systeminfo.obj
 0002:0000aa74       __unwindtable$?getArchitecture@CPUInfo@@ABE?AV?$basic_string@DU?$char_traits@D@std@@V?$allocator@D@2@@std@@AAV23@@Z 0045ea74     systeminfo.obj
 0002:0000aa84       __tryblocktable$?getArchitecture@CPUInfo@@ABE?AV?$basic_string@DU?$char_traits@D@std@@V?$allocator@D@2@@std@@AAV23@@Z 0045ea84     systeminfo.obj
 0002:0000aa98       __catchsym$?getArchitecture@CPUInfo@@ABE?AV?$basic_string@DU?$char_traits@D@std@@V?$allocator@D@2@@std@@AAV23@@Z$11 0045ea98     systeminfo.obj
 0002:0000aaa8       __ehfuncinfo$??0CPUInfoDelegate@@QAE@XZ 0045eaa8     systeminfo.obj
 0002:0000aad0       __unwindtable$??0CPUInfoDelegate@@QAE@XZ 0045ead0     systeminfo.obj
 0002:0000ab10       __ehfuncinfo$??0GPUInfo@@QAE@ABV?$vector@V?$basic_string@DU?$char_traits@D@std@@V?$allocator@D@2@@std@@V?$allocator@V?$basic_string@DU?$char_traits@D@std@@V?$allocator@D@2@@std@@@2@@std@@H@Z 0045eb10     systeminfo.obj
 0002:0000ab34       __tryblocktable$??0GPUInfo@@QAE@ABV?$vector@V?$basic_string@DU?$char_traits@D@std@@V?$allocator@D@2@@std@@V?$allocator@V?$basic_string@DU?$char_traits@D@std@@V?$allocator@D@2@@std@@@2@@std@@H@Z 0045eb34     systeminfo.obj
 0002:0000ab48       __unwindtable$??0GPUInfo@@QAE@ABV?$vector@V?$basic_string@DU?$char_traits@D@std@@V?$allocator@D@2@@std@@V?$allocator@V?$basic_string@DU?$char_traits@D@std@@V?$allocator@D@2@@std@@@2@@std@@H@Z 0045eb48     systeminfo.obj
 0002:0000abe8       __catchsym$??0GPUInfo@@QAE@ABV?$vector@V?$basic_string@DU?$char_traits@D@std@@V?$allocator@D@2@@std@@V?$allocator@V?$basic_string@DU?$char_traits@D@std@@V?$allocator@D@2@@std@@@2@@std@@H@Z$112 0045ebe8     systeminfo.obj
 0002:0000abf8       __ehfuncinfo$??0GPUInfoDelegate@@QAE@XZ 0045ebf8     systeminfo.obj
 0002:0000ac20       __unwindtable$??0GPUInfoDelegate@@QAE@XZ 0045ec20     systeminfo.obj
 0002:0000ac60       __ehfuncinfo$??0MotherboardInfo@@QAE@ABV?$vector@V?$basic_string@DU?$char_traits@D@std@@V?$allocator@D@2@@std@@V?$allocator@V?$basic_string@DU?$char_traits@D@std@@V?$allocator@D@2@@std@@@2@@std@@H@Z 0045ec60     systeminfo.obj
 0002:0000ac84       __unwindtable$??0MotherboardInfo@@QAE@ABV?$vector@V?$basic_string@DU?$char_traits@D@std@@V?$allocator@D@2@@std@@V?$allocator@V?$basic_string@DU?$char_traits@D@std@@V?$allocator@D@2@@std@@@2@@std@@H@Z 0045ec84     systeminfo.obj
 0002:0000acac       __ehfuncinfo$?determineChipset@MotherboardInfo@@AAEXXZ 0045ecac     systeminfo.obj
 0002:0000acd0       __unwindtable$?determineChipset@MotherboardInfo@@AAEXXZ 0045ecd0     systeminfo.obj
 0002:0000acf8       __ehfuncinfo$??0MotherboardInfoDelegate@@QAE@XZ 0045ecf8     systeminfo.obj
 0002:0000ad20       __unwindtable$??0MotherboardInfoDelegate@@QAE@XZ 0045ed20     systeminfo.obj
 0002:0000ad60       __ehfuncinfo$??0OSInfo@@QAE@ABV?$vector@V?$basic_string@DU?$char_traits@D@std@@V?$allocator@D@2@@std@@V?$allocator@V?$basic_string@DU?$char_traits@D@std@@V?$allocator@D@2@@std@@@2@@std@@H@Z 0045ed60     systeminfo.obj
 0002:0000ad84       __tryblocktable$??0OSInfo@@QAE@ABV?$vector@V?$basic_string@DU?$char_traits@D@std@@V?$allocator@D@2@@std@@V?$allocator@V?$basic_string@DU?$char_traits@D@std@@V?$allocator@D@2@@std@@@2@@std@@H@Z 0045ed84     systeminfo.obj
 0002:0000adc0       __unwindtable$??0OSInfo@@QAE@ABV?$vector@V?$basic_string@DU?$char_traits@D@std@@V?$allocator@D@2@@std@@V?$allocator@V?$basic_string@DU?$char_traits@D@std@@V?$allocator@D@2@@std@@@2@@std@@H@Z 0045edc0     systeminfo.obj
 0002:0000aed8       __catchsym$??0OSInfo@@QAE@ABV?$vector@V?$basic_string@DU?$char_traits@D@std@@V?$allocator@D@2@@std@@V?$allocator@V?$basic_string@DU?$char_traits@D@std@@V?$allocator@D@2@@std@@@2@@std@@H@Z$181 0045eed8     systeminfo.obj
 0002:0000aee8       __catchsym$??0OSInfo@@QAE@ABV?$vector@V?$basic_string@DU?$char_traits@D@std@@V?$allocator@D@2@@std@@V?$allocator@V?$basic_string@DU?$char_traits@D@std@@V?$allocator@D@2@@std@@@2@@std@@H@Z$182 0045eee8     systeminfo.obj
 0002:0000aef8       __catchsym$??0OSInfo@@QAE@ABV?$vector@V?$basic_string@DU?$char_traits@D@std@@V?$allocator@D@2@@std@@V?$allocator@V?$basic_string@DU?$char_traits@D@std@@V?$allocator@D@2@@std@@@2@@std@@H@Z$183 0045eef8     systeminfo.obj
 0002:0000af08       __ehfuncinfo$??0OSInfoDelegate@@QAE@XZ 0045ef08     systeminfo.obj
 0002:0000af30       __unwindtable$??0OSInfoDelegate@@QAE@XZ 0045ef30     systeminfo.obj
 0002:0000af70       __ehfuncinfo$??0RAMInfo@@QAE@ABV?$vector@V?$basic_string@DU?$char_traits@D@std@@V?$allocator@D@2@@std@@V?$allocator@V?$basic_string@DU?$char_traits@D@std@@V?$allocator@D@2@@std@@@2@@std@@H@Z 0045ef70     systeminfo.obj
 0002:0000af94       __tryblocktable$??0RAMInfo@@QAE@ABV?$vector@V?$basic_string@DU?$char_traits@D@std@@V?$allocator@D@2@@std@@V?$allocator@V?$basic_string@DU?$char_traits@D@std@@V?$allocator@D@2@@std@@@2@@std@@H@Z 0045ef94     systeminfo.obj
 0002:0000afa8       __unwindtable$??0RAMInfo@@QAE@ABV?$vector@V?$basic_string@DU?$char_traits@D@std@@V?$allocator@D@2@@std@@V?$allocator@V?$basic_string@DU?$char_traits@D@std@@V?$allocator@D@2@@std@@@2@@std@@H@Z 0045efa8     systeminfo.obj
 0002:0000b048       __catchsym$??0RAMInfo@@QAE@ABV?$vector@V?$basic_string@DU?$char_traits@D@std@@V?$allocator@D@2@@std@@V?$allocator@V?$basic_string@DU?$char_traits@D@std@@V?$allocator@D@2@@std@@@2@@std@@H@Z$112 0045f048     systeminfo.obj
 0002:0000b058       __ehfuncinfo$?getMemoryType@RAMInfo@@ABE?AV?$basic_string@DU?$char_traits@D@std@@V?$allocator@D@2@@std@@ABV23@@Z 0045f058     systeminfo.obj
 0002:0000b07c       __unwindtable$?getMemoryType@RAMInfo@@ABE?AV?$basic_string@DU?$char_traits@D@std@@V?$allocator@D@2@@std@@ABV23@@Z 0045f07c     systeminfo.obj
 0002:0000b08c       __tryblocktable$?getMemoryType@RAMInfo@@ABE?AV?$basic_string@DU?$char_traits@D@std@@V?$allocator@D@2@@std@@ABV23@@Z 0045f08c     systeminfo.obj
 0002:0000b0a0       __catchsym$?getMemoryType@RAMInfo@@ABE?AV?$basic_string@DU?$char_traits@D@std@@V?$allocator@D@2@@std@@ABV23@@Z$57 0045f0a0     systeminfo.obj
 0002:0000b0b0       __ehfuncinfo$?getFormFactor@RAMInfo@@ABE?AV?$basic_string@DU?$char_traits@D@std@@V?$allocator@D@2@@std@@ABV23@@Z 0045f0b0     systeminfo.obj
 0002:0000b0d4       __unwindtable$?getFormFactor@RAMInfo@@ABE?AV?$basic_string@DU?$char_traits@D@std@@V?$allocator@D@2@@std@@ABV23@@Z 0045f0d4     systeminfo.obj
 0002:0000b0e4       __tryblocktable$?getFormFactor@RAMInfo@@ABE?AV?$basic_string@DU?$char_traits@D@std@@V?$allocator@D@2@@std@@ABV23@@Z 0045f0e4     systeminfo.obj
 0002:0000b0f8       __catchsym$?getFormFactor@RAMInfo@@ABE?AV?$basic_string@DU?$char_traits@D@std@@V?$allocator@D@2@@std@@ABV23@@Z$53 0045f0f8     systeminfo.obj
 0002:0000b108       __ehfuncinfo$??0RAMInfoDelegate@@QAE@XZ 0045f108     systeminfo.obj
 0002:0000b130       __unwindtable$??0RAMInfoDelegate@@QAE@XZ 0045f130     systeminfo.obj
 0002:0000b170       __ehfuncinfo$?stripAllFromString@SystemCommand@@AAE?AV?$basic_string@DU?$char_traits@D@std@@V?$allocator@D@2@@std@@ABV23@0@Z 0045f170     systeminfo.obj
 0002:0000b194       __unwindtable$?stripAllFromString@SystemCommand@@AAE?AV?$basic_string@DU?$char_traits@D@std@@V?$allocator@D@2@@std@@ABV23@0@Z 0045f194     systeminfo.obj
 0002:0000b19c       __ehfuncinfo$?stripFromString@SystemCommand@@AAE?AV?$basic_string@DU?$char_traits@D@std@@V?$allocator@D@2@@std@@ABV23@0@Z 0045f19c     systeminfo.obj
 0002:0000b1c0       __unwindtable$?stripFromString@SystemCommand@@AAE?AV?$basic_string@DU?$char_traits@D@std@@V?$allocator@D@2@@std@@ABV23@0@Z 0045f1c0     systeminfo.obj
 0002:0000b1d8       __ehfuncinfo$?stripPipeFromCommand@SystemCommand@@AAEXXZ 0045f1d8     systeminfo.obj
 0002:0000b1fc       __unwindtable$?stripPipeFromCommand@SystemCommand@@AAEXXZ 0045f1fc     systeminfo.obj
 0002:0000b20c       __ehfuncinfo$?systemCommandLaunch@SystemCommand@@AAEX_N@Z 0045f20c     systeminfo.obj
 0002:0000b230       __unwindtable$?systemCommandLaunch@SystemCommand@@AAEX_N@Z 0045f230     systeminfo.obj
 0002:0000b250       __ehfuncinfo$??R<lambda_b5565d269da327e336800d80f472b553>@@QBE?AV?$basic_string@DU?$char_traits@D@std@@V?$allocator@D@2@@std@@ABV12@@Z 0045f250     systeminfo.obj
 0002:0000b278       __unwindtable$??R<lambda_b5565d269da327e336800d80f472b553>@@QBE?AV?$basic_string@DU?$char_traits@D@std@@V?$allocator@D@2@@std@@ABV12@@Z 0045f278     systeminfo.obj
 0002:0000b2b8       __ehfuncinfo$??0?$vector@VRAMInfo@@V?$allocator@VRAMInfo@@@std@@@std@@QAE@ABV01@@Z 0045f2b8     systeminfo.obj
 0002:0000b2e0       __unwindtable$??0?$vector@VRAMInfo@@V?$allocator@VRAMInfo@@@std@@@std@@QAE@ABV01@@Z 0045f2e0     systeminfo.obj
 0002:0000b328       __ehfuncinfo$??0?$vector@VMotherboardInfo@@V?$allocator@VMotherboardInfo@@@std@@@std@@QAE@ABV01@@Z 0045f328     systeminfo.obj
 0002:0000b34c       __unwindtable$??0?$vector@VMotherboardInfo@@V?$allocator@VMotherboardInfo@@@std@@@std@@QAE@ABV01@@Z 0045f34c     systeminfo.obj
 0002:0000b380       __ehfuncinfo$??0?$vector@VGPUInfo@@V?$allocator@VGPUInfo@@@std@@@std@@QAE@ABV01@@Z 0045f380     systeminfo.obj
 0002:0000b3a8       __unwindtable$??0?$vector@VGPUInfo@@V?$allocator@VGPUInfo@@@std@@@std@@QAE@ABV01@@Z 0045f3a8     systeminfo.obj
 0002:0000b400       __ehfuncinfo$??0?$vector@VCPUInfo@@V?$allocator@VCPUInfo@@@std@@@std@@QAE@ABV01@@Z 0045f400     systeminfo.obj
 0002:0000b424       __unwindtable$??0?$vector@VCPUInfo@@V?$allocator@VCPUInfo@@@std@@@std@@QAE@ABV01@@Z 0045f424     systeminfo.obj
 0002:0000b45c       __ehfuncinfo$??0?$vector@V?$basic_string@DU?$char_traits@D@std@@V?$allocator@D@2@@std@@V?$allocator@V?$basic_string@DU?$char_traits@D@std@@V?$allocator@D@2@@std@@@2@@std@@QAE@ABV01@@Z 0045f45c     systeminfo.obj
 0002:0000b480       __unwindtable$??0?$vector@V?$basic_string@DU?$char_traits@D@std@@V?$allocator@D@2@@std@@V?$allocator@V?$basic_string@DU?$char_traits@D@std@@V?$allocator@D@2@@std@@@2@@std@@QAE@ABV01@@Z 0045f480     systeminfo.obj
 0002:0000b490       __ehfuncinfo$?imbue@?$basic_filebuf@DU?$char_traits@D@std@@@std@@MAEXABVlocale@2@@Z 0045f490     systeminfo.obj
 0002:0000b4b4       __unwindtable$?imbue@?$basic_filebuf@DU?$char_traits@D@std@@@std@@MAEXABVlocale@2@@Z 0045f4b4     systeminfo.obj
 0002:0000b4c4       __ehfuncinfo$?uflow@?$basic_filebuf@DU?$char_traits@D@std@@@std@@MAEHXZ 0045f4c4     systeminfo.obj
 0002:0000b4e8       __unwindtable$?uflow@?$basic_filebuf@DU?$char_traits@D@std@@@std@@MAEHXZ 0045f4e8     systeminfo.obj
 0002:0000b4f0       __ehfuncinfo$??0?$basic_ifstream@DU?$char_traits@D@std@@@std@@QAE@XZ 0045f4f0     systeminfo.obj
 0002:0000b514       __unwindtable$??0?$basic_ifstream@DU?$char_traits@D@std@@@std@@QAE@XZ 0045f514     systeminfo.obj
 0002:0000b52c       __ehfuncinfo$??$use_facet@V?$ctype@D@std@@@std@@YAABV?$ctype@D@0@ABVlocale@0@@Z 0045f52c     systeminfo.obj
 0002:0000b550       __unwindtable$??$use_facet@V?$ctype@D@std@@@std@@YAABV?$ctype@D@0@ABVlocale@0@@Z 0045f550     systeminfo.obj
 0002:0000b560       __ehfuncinfo$??$_Emplace_reallocate@AAV?$vector@V?$basic_string@DU?$char_traits@D@std@@V?$allocator@D@2@@std@@V?$allocator@V?$basic_string@DU?$char_traits@D@std@@V?$allocator@D@2@@std@@@2@@std@@AAH@?$vector@VCPUInfo@@V?$allocator@VCPUInfo@@@std@@@std@@QAEPAVCPUInfo@@QAV2@AAV?$vector@V?$basic_string@DU?$char_traits@D@std@@V?$allocator@D@2@@std@@V?$allocator@V?$basic_string@DU?$char_traits@D@std@@V?$allocator@D@2@@std@@@2@@1@AAH@Z 0045f560     systeminfo.obj
 0002:0000b584       __unwindtable$??$_Emplace_reallocate@AAV?$vector@V?$basic_string@DU?$char_traits@D@std@@V?$allocator@D@2@@std@@V?$allocator@V?$basic_string@DU?$char_traits@D@std@@V?$allocator@D@2@@std@@@2@@std@@AAH@?$vector@VCPUInfo@@V?$allocator@VCPUInfo@@@std@@@std@@QAEPAVCPUInfo@@QAV2@AAV?$vector@V?$basic_string@DU?$char_traits@D@std@@V?$allocator@D@2@@std@@V?$allocator@V?$basic_string@DU?$char_traits@D@std@@V?$allocator@D@2@@std@@@2@@1@AAH@Z 0045f584     systeminfo.obj
 0002:0000b594       __tryblocktable$??$_Emplace_reallocate@AAV?$vector@V?$basic_string@DU?$char_traits@D@std@@V?$allocator@D@2@@std@@V?$allocator@V?$basic_string@DU?$char_traits@D@std@@V?$allocator@D@2@@std@@@2@@std@@AAH@?$vector@VCPUInfo@@V?$allocator@VCPUInfo@@@std@@@std@@QAEPAVCPUInfo@@QAV2@AAV?$vector@V?$basic_string@DU?$char_traits@D@std@@V?$allocator@D@2@@std@@V?$allocator@V?$basic_string@DU?$char_traits@D@std@@V?$allocator@D@2@@std@@@2@@1@AAH@Z 0045f594     systeminfo.obj
 0002:0000b5a8       __catchsym$??$_Emplace_reallocate@AAV?$vector@V?$basic_string@DU?$char_traits@D@std@@V?$allocator@D@2@@std@@V?$allocator@V?$basic_string@DU?$char_traits@D@std@@V?$allocator@D@2@@std@@@2@@std@@AAH@?$vector@VCPUInfo@@V?$allocator@VCPUInfo@@@std@@@std@@QAEPAVCPUInfo@@QAV2@AAV?$vector@V?$basic_string@DU?$char_traits@D@std@@V?$allocator@D@2@@std@@V?$allocator@V?$basic_string@DU?$char_traits@D@std@@V?$allocator@D@2@@std@@@2@@1@AAH@Z$2 0045f5a8     systeminfo.obj
 0002:0000b5b8       __ehfuncinfo$??$toString@_J@GPUInfo@@ABE?AV?$basic_string@DU?$char_traits@D@std@@V?$allocator@D@2@@std@@AB_J@Z 0045f5b8     systeminfo.obj
 0002:0000b5b8       __ehfuncinfo$??$toString@_J@OSInfo@@ABE?AV?$basic_string@DU?$char_traits@D@std@@V?$allocator@D@2@@std@@AB_J@Z 0045f5b8     systeminfo.obj
 0002:0000b5b8       __ehfuncinfo$??$toString@_J@RAMInfo@@ABE?AV?$basic_string@DU?$char_traits@D@std@@V?$allocator@D@2@@std@@AB_J@Z 0045f5b8     systeminfo.obj
 0002:0000b5dc       __unwindtable$??$toString@_J@GPUInfo@@ABE?AV?$basic_string@DU?$char_traits@D@std@@V?$allocator@D@2@@std@@AB_J@Z 0045f5dc     systeminfo.obj
 0002:0000b5dc       __unwindtable$??$toString@_J@OSInfo@@ABE?AV?$basic_string@DU?$char_traits@D@std@@V?$allocator@D@2@@std@@AB_J@Z 0045f5dc     systeminfo.obj
 0002:0000b5dc       __unwindtable$??$toString@_J@RAMInfo@@ABE?AV?$basic_string@DU?$char_traits@D@std@@V?$allocator@D@2@@std@@AB_J@Z 0045f5dc     systeminfo.obj
 0002:0000b5fc       __ehfuncinfo$??$_Emplace_reallocate@AAV?$vector@V?$basic_string@DU?$char_traits@D@std@@V?$allocator@D@2@@std@@V?$allocator@V?$basic_string@DU?$char_traits@D@std@@V?$allocator@D@2@@std@@@2@@std@@AAH@?$vector@VGPUInfo@@V?$allocator@VGPUInfo@@@std@@@std@@QAEPAVGPUInfo@@QAV2@AAV?$vector@V?$basic_string@DU?$char_traits@D@std@@V?$allocator@D@2@@std@@V?$allocator@V?$basic_string@DU?$char_traits@D@std@@V?$allocator@D@2@@std@@@2@@1@AAH@Z 0045f5fc     systeminfo.obj
 0002:0000b620       __unwindtable$??$_Emplace_reallocate@AAV?$vector@V?$basic_string@DU?$char_traits@D@std@@V?$allocator@D@2@@std@@V?$allocator@V?$basic_string@DU?$char_traits@D@std@@V?$allocator@D@2@@std@@@2@@std@@AAH@?$vector@VGPUInfo@@V?$allocator@VGPUInfo@@@std@@@std@@QAEPAVGPUInfo@@QAV2@AAV?$vector@V?$basic_string@DU?$char_traits@D@std@@V?$allocator@D@2@@std@@V?$allocator@V?$basic_string@DU?$char_traits@D@std@@V?$allocator@D@2@@std@@@2@@1@AAH@Z 0045f620     systeminfo.obj
 0002:0000b630       __tryblocktable$??$_Emplace_reallocate@AAV?$vector@V?$basic_string@DU?$char_traits@D@std@@V?$allocator@D@2@@std@@V?$allocator@V?$basic_string@DU?$char_traits@D@std@@V?$allocator@D@2@@std@@@2@@std@@AAH@?$vector@VGPUInfo@@V?$allocator@VGPUInfo@@@std@@@std@@QAEPAVGPUInfo@@QAV2@AAV?$vector@V?$basic_string@DU?$char_traits@D@std@@V?$allocator@D@2@@std@@V?$allocator@V?$basic_string@DU?$char_traits@D@std@@V?$allocator@D@2@@std@@@2@@1@AAH@Z 0045f630     systeminfo.obj
 0002:0000b644       __catchsym$??$_Emplace_reallocate@AAV?$vector@V?$basic_string@DU?$char_traits@D@std@@V?$allocator@D@2@@std@@V?$allocator@V?$basic_string@DU?$char_traits@D@std@@V?$allocator@D@2@@std@@@2@@std@@AAH@?$vector@VGPUInfo@@V?$allocator@VGPUInfo@@@std@@@std@@QAEPAVGPUInfo@@QAV2@AAV?$vector@V?$basic_string@DU?$char_traits@D@std@@V?$allocator@D@2@@std@@V?$allocator@V?$basic_string@DU?$char_traits@D@std@@V?$allocator@D@2@@std@@@2@@1@AAH@Z$2 0045f644     systeminfo.obj
 0002:0000b654       __ehfuncinfo$??$_Emplace_reallocate@AAV?$vector@V?$basic_string@DU?$char_traits@D@std@@V?$allocator@D@2@@std@@V?$allocator@V?$basic_string@DU?$char_traits@D@std@@V?$allocator@D@2@@std@@@2@@std@@AAH@?$vector@VMotherboardInfo@@V?$allocator@VMotherboardInfo@@@std@@@std@@QAEPAVMotherboardInfo@@QAV2@AAV?$vector@V?$basic_string@DU?$char_traits@D@std@@V?$allocator@D@2@@std@@V?$allocator@V?$basic_string@DU?$char_traits@D@std@@V?$allocator@D@2@@std@@@2@@1@AAH@Z 0045f654     systeminfo.obj
 0002:0000b678       __unwindtable$??$_Emplace_reallocate@AAV?$vector@V?$basic_string@DU?$char_traits@D@std@@V?$allocator@D@2@@std@@V?$allocator@V?$basic_string@DU?$char_traits@D@std@@V?$allocator@D@2@@std@@@2@@std@@AAH@?$vector@VMotherboardInfo@@V?$allocator@VMotherboardInfo@@@std@@@std@@QAEPAVMotherboardInfo@@QAV2@AAV?$vector@V?$basic_string@DU?$char_traits@D@std@@V?$allocator@D@2@@std@@V?$allocator@V?$basic_string@DU?$char_traits@D@std@@V?$allocator@D@2@@std@@@2@@1@AAH@Z 0045f678     systeminfo.obj
 0002:0000b688       __tryblocktable$??$_Emplace_reallocate@AAV?$vector@V?$basic_string@DU?$char_traits@D@std@@V?$allocator@D@2@@std@@V?$allocator@V?$basic_string@DU?$char_traits@D@std@@V?$allocator@D@2@@std@@@2@@std@@AAH@?$vector@VMotherboardInfo@@V?$allocator@VMotherboardInfo@@@std@@@std@@QAEPAVMotherboardInfo@@QAV2@AAV?$vector@V?$basic_string@DU?$char_traits@D@std@@V?$allocator@D@2@@std@@V?$allocator@V?$basic_string@DU?$char_traits@D@std@@V?$allocator@D@2@@std@@@2@@1@AAH@Z 0045f688     systeminfo.obj
 0002:0000b69c       __catchsym$??$_Emplace_reallocate@AAV?$vector@V?$basic_string@DU?$char_traits@D@std@@V?$allocator@D@2@@std@@V?$allocator@V?$basic_string@DU?$char_traits@D@std@@V?$allocator@D@2@@std@@@2@@std@@AAH@?$vector@VMotherboardInfo@@V?$allocator@VMotherboardInfo@@@std@@@std@@QAEPAVMotherboardInfo@@QAV2@AAV?$vector@V?$basic_string@DU?$char_traits@D@std@@V?$allocator@D@2@@std@@V?$allocator@V?$basic_string@DU?$char_traits@D@std@@V?$allocator@D@2@@std@@@2@@1@AAH@Z$2 0045f69c     systeminfo.obj
 0002:0000b6ac       __ehfuncinfo$??$_Emplace_reallocate@AAV?$vector@V?$basic_string@DU?$char_traits@D@std@@V?$allocator@D@2@@std@@V?$allocator@V?$basic_string@DU?$char_traits@D@std@@V?$allocator@D@2@@std@@@2@@std@@AAH@?$vector@VOSInfo@@V?$allocator@VOSInfo@@@std@@@std@@QAEPAVOSInfo@@QAV2@AAV?$vector@V?$basic_string@DU?$char_traits@D@std@@V?$allocator@D@2@@std@@V?$allocator@V?$basic_string@DU?$char_traits@D@std@@V?$allocator@D@2@@std@@@2@@1@AAH@Z 0045f6ac     systeminfo.obj
 0002:0000b6d0       __unwindtable$??$_Emplace_reallocate@AAV?$vector@V?$basic_string@DU?$char_traits@D@std@@V?$allocator@D@2@@std@@V?$allocator@V?$basic_string@DU?$char_traits@D@std@@V?$allocator@D@2@@std@@@2@@std@@AAH@?$vector@VOSInfo@@V?$allocator@VOSInfo@@@std@@@std@@QAEPAVOSInfo@@QAV2@AAV?$vector@V?$basic_string@DU?$char_traits@D@std@@V?$allocator@D@2@@std@@V?$allocator@V?$basic_string@DU?$char_traits@D@std@@V?$allocator@D@2@@std@@@2@@1@AAH@Z 0045f6d0     systeminfo.obj
 0002:0000b6e0       __tryblocktable$??$_Emplace_reallocate@AAV?$vector@V?$basic_string@DU?$char_traits@D@std@@V?$allocator@D@2@@std@@V?$allocator@V?$basic_string@DU?$char_traits@D@std@@V?$allocator@D@2@@std@@@2@@std@@AAH@?$vector@VOSInfo@@V?$allocator@VOSInfo@@@std@@@std@@QAEPAVOSInfo@@QAV2@AAV?$vector@V?$basic_string@DU?$char_traits@D@std@@V?$allocator@D@2@@std@@V?$allocator@V?$basic_string@DU?$char_traits@D@std@@V?$allocator@D@2@@std@@@2@@1@AAH@Z 0045f6e0     systeminfo.obj
 0002:0000b6f4       __catchsym$??$_Emplace_reallocate@AAV?$vector@V?$basic_string@DU?$char_traits@D@std@@V?$allocator@D@2@@std@@V?$allocator@V?$basic_string@DU?$char_traits@D@std@@V?$allocator@D@2@@std@@@2@@std@@AAH@?$vector@VOSInfo@@V?$allocator@VOSInfo@@@std@@@std@@QAEPAVOSInfo@@QAV2@AAV?$vector@V?$basic_string@DU?$char_traits@D@std@@V?$allocator@D@2@@std@@V?$allocator@V?$basic_string@DU?$char_traits@D@std@@V?$allocator@D@2@@std@@@2@@1@AAH@Z$2 0045f6f4     systeminfo.obj
 0002:0000b704       __ehfuncinfo$??$_Emplace_reallocate@AAV?$vector@V?$basic_string@DU?$char_traits@D@std@@V?$allocator@D@2@@std@@V?$allocator@V?$basic_string@DU?$char_traits@D@std@@V?$allocator@D@2@@std@@@2@@std@@AAH@?$vector@VRAMInfo@@V?$allocator@VRAMInfo@@@std@@@std@@QAEPAVRAMInfo@@QAV2@AAV?$vector@V?$basic_string@DU?$char_traits@D@std@@V?$allocator@D@2@@std@@V?$allocator@V?$basic_string@DU?$char_traits@D@std@@V?$allocator@D@2@@std@@@2@@1@AAH@Z 0045f704     systeminfo.obj
 0002:0000b728       __unwindtable$??$_Emplace_reallocate@AAV?$vector@V?$basic_string@DU?$char_traits@D@std@@V?$allocator@D@2@@std@@V?$allocator@V?$basic_string@DU?$char_traits@D@std@@V?$allocator@D@2@@std@@@2@@std@@AAH@?$vector@VRAMInfo@@V?$allocator@VRAMInfo@@@std@@@std@@QAEPAVRAMInfo@@QAV2@AAV?$vector@V?$basic_string@DU?$char_traits@D@std@@V?$allocator@D@2@@std@@V?$allocator@V?$basic_string@DU?$char_traits@D@std@@V?$allocator@D@2@@std@@@2@@1@AAH@Z 0045f728     systeminfo.obj
 0002:0000b738       __tryblocktable$??$_Emplace_reallocate@AAV?$vector@V?$basic_string@DU?$char_traits@D@std@@V?$allocator@D@2@@std@@V?$allocator@V?$basic_string@DU?$char_traits@D@std@@V?$allocator@D@2@@std@@@2@@std@@AAH@?$vector@VRAMInfo@@V?$allocator@VRAMInfo@@@std@@@std@@QAEPAVRAMInfo@@QAV2@AAV?$vector@V?$basic_string@DU?$char_traits@D@std@@V?$allocator@D@2@@std@@V?$allocator@V?$basic_string@DU?$char_traits@D@std@@V?$allocator@D@2@@std@@@2@@1@AAH@Z 0045f738     systeminfo.obj
 0002:0000b74c       __catchsym$??$_Emplace_reallocate@AAV?$vector@V?$basic_string@DU?$char_traits@D@std@@V?$allocator@D@2@@std@@V?$allocator@V?$basic_string@DU?$char_traits@D@std@@V?$allocator@D@2@@std@@@2@@std@@AAH@?$vector@VRAMInfo@@V?$allocator@VRAMInfo@@@std@@@std@@QAEPAVRAMInfo@@QAV2@AAV?$vector@V?$basic_string@DU?$char_traits@D@std@@V?$allocator@D@2@@std@@V?$allocator@V?$basic_string@DU?$char_traits@D@std@@V?$allocator@D@2@@std@@@2@@1@AAH@Z$2 0045f74c     systeminfo.obj
 0002:0000b75c       __ehfuncinfo$??$_Emplace_reallocate@ABV?$basic_string@DU?$char_traits@D@std@@V?$allocator@D@2@@std@@@?$vector@V?$basic_string@DU?$char_traits@D@std@@V?$allocator@D@2@@std@@V?$allocator@V?$basic_string@DU?$char_traits@D@std@@V?$allocator@D@2@@std@@@2@@std@@QAEPAV?$basic_string@DU?$char_traits@D@std@@V?$allocator@D@2@@1@QAV21@ABV21@@Z 0045f75c     systeminfo.obj
 0002:0000b780       __unwindtable$??$_Emplace_reallocate@ABV?$basic_string@DU?$char_traits@D@std@@V?$allocator@D@2@@std@@@?$vector@V?$basic_string@DU?$char_traits@D@std@@V?$allocator@D@2@@std@@V?$allocator@V?$basic_string@DU?$char_traits@D@std@@V?$allocator@D@2@@std@@@2@@std@@QAEPAV?$basic_string@DU?$char_traits@D@std@@V?$allocator@D@2@@1@QAV21@ABV21@@Z 0045f780     systeminfo.obj
 0002:0000b790       __tryblocktable$??$_Emplace_reallocate@ABV?$basic_string@DU?$char_traits@D@std@@V?$allocator@D@2@@std@@@?$vector@V?$basic_string@DU?$char_traits@D@std@@V?$allocator@D@2@@std@@V?$allocator@V?$basic_string@DU?$char_traits@D@std@@V?$allocator@D@2@@std@@@2@@std@@QAEPAV?$basic_string@DU?$char_traits@D@std@@V?$allocator@D@2@@1@QAV21@ABV21@@Z 0045f790     systeminfo.obj
 0002:0000b7a4       __catchsym$??$_Emplace_reallocate@ABV?$basic_string@DU?$char_traits@D@std@@V?$allocator@D@2@@std@@@?$vector@V?$basic_string@DU?$char_traits@D@std@@V?$allocator@D@2@@std@@V?$allocator@V?$basic_string@DU?$char_traits@D@std@@V?$allocator@D@2@@std@@@2@@std@@QAEPAV?$basic_string@DU?$char_traits@D@std@@V?$allocator@D@2@@1@QAV21@ABV21@@Z$2 0045f7a4     systeminfo.obj
 0002:0000b7b4       __ehfuncinfo$??$_Insert_string@DU?$char_traits@D@std@@I@std@@YAAAV?$basic_ostream@DU?$char_traits@D@std@@@0@AAV10@QBDI@Z 0045f7b4     systeminfo.obj
 0002:0000b7d8       __unwindtable$??$_Insert_string@DU?$char_traits@D@std@@I@std@@YAAAV?$basic_ostream@DU?$char_traits@D@std@@@0@AAV10@QBDI@Z 0045f7d8     systeminfo.obj
 0002:0000b808       __tryblocktable$??$_Insert_string@DU?$char_traits@D@std@@I@std@@YAAAV?$basic_ostream@DU?$char_traits@D@std@@@0@AAV10@QBDI@Z 0045f808     systeminfo.obj
 0002:0000b81c       __catchsym$??$_Insert_string@DU?$char_traits@D@std@@I@std@@YAAAV?$basic_ostream@DU?$char_traits@D@std@@@0@AAV10@QBDI@Z$6 0045f81c     systeminfo.obj
 0002:0000b830       __ehfuncinfo$??$_Uninitialized_copy@PAVOSInfo@@V?$allocator@VOSInfo@@@std@@@std@@YAPAVOSInfo@@QAV1@0PAV1@AAV?$allocator@VOSInfo@@@0@@Z 0045f830     systeminfo.obj
 0002:0000b858       __unwindtable$??$_Uninitialized_copy@PAVOSInfo@@V?$allocator@VOSInfo@@@std@@@std@@YAPAVOSInfo@@QAV1@0PAV1@AAV?$allocator@VOSInfo@@@0@@Z 0045f858     systeminfo.obj
 0002:0000b8c8       __ehfuncinfo$??$?5DU?$char_traits@D@std@@V?$allocator@D@1@@std@@YAAAV?$basic_istream@DU?$char_traits@D@std@@@0@$$QAV10@AAV?$basic_string@DU?$char_traits@D@std@@V?$allocator@D@2@@0@@Z 0045f8c8     systeminfo.obj
 0002:0000b8ec       __unwindtable$??$?5DU?$char_traits@D@std@@V?$allocator@D@1@@std@@YAAAV?$basic_istream@DU?$char_traits@D@std@@@0@$$QAV10@AAV?$basic_string@DU?$char_traits@D@std@@V?$allocator@D@2@@0@@Z 0045f8ec     systeminfo.obj
 0002:0000b91c       __tryblocktable$??$?5DU?$char_traits@D@std@@V?$allocator@D@1@@std@@YAAAV?$basic_istream@DU?$char_traits@D@std@@@0@$$QAV10@AAV?$basic_string@DU?$char_traits@D@std@@V?$allocator@D@2@@0@@Z 0045f91c     systeminfo.obj
 0002:0000b930       __catchsym$??$?5DU?$char_traits@D@std@@V?$allocator@D@1@@std@@YAAAV?$basic_istream@DU?$char_traits@D@std@@@0@$$QAV10@AAV?$basic_string@DU?$char_traits@D@std@@V?$allocator@D@2@@0@@Z$7 0045f930     systeminfo.obj
 0002:0000b940       __sehtable$??_M@YGXPAXIIP6EX0@Z@Z 0045f940     MSVCRT:ehvecdtr.obj
 0002:0000b960       __sehtable$?__ArrayUnwind@@YGXPAXIIP6EX0@Z@Z 0045f960     MSVCRT:ehvecdtr.obj
 0002:0000b980       __sehtable$___scrt_is_nonwritable_in_current_image 0045f980     MSVCRT:utility.obj
 0002:0000b9a0       __sehtable$?__scrt_common_main_seh@@YAHXZ 0045f9a0     MSVCRT:exe_winmain.obj
 0002:0000c16a       .idata$6                   0046016a     kernel32:KERNEL32.dll
 0002:0000c2b6       .idata$6                   004602b6     user32:USER32.dll
 0002:0000c2d6       .idata$6                   004602d6     gdi32:GDI32.dll
 0002:0000c324       .idata$6                   00460324     advapi32:ADVAPI32.dll
 0002:0000ceee       .idata$6                   00460eee     msvcprt:MSVCP140.dll
 0002:0000cf0e       .idata$6                   00460f0e     d3d9:d3d9.dll
 0002:0000cf3c       .idata$6                   00460f3c     d3dx9:d3dx9_43.dll
 0002:0000cfc0       .idata$6                   00460fc0     ws2_32:WS2_32.dll
 0002:0000cfcc       .idata$6                   00460fcc     wldap32:WLDAP32.dll
 0002:0000d0dc       .idata$6                   004610dc     vcruntime:VCRUNTIME140.dll
 0002:0000d554       .idata$6                   00461554     ucrt:api-ms-win-crt-stdio-l1-1-0.dll
 0002:0000d574       .idata$6                   00461574     ucrt:api-ms-win-crt-runtime-l1-1-0.dll
 0002:0000d596       .idata$6                   00461596     ucrt:api-ms-win-crt-convert-l1-1-0.dll
 0002:0000d5b8       .idata$6                   004615b8     ucrt:api-ms-win-crt-time-l1-1-0.dll
 0002:0000d5d8       .idata$6                   004615d8     ucrt:api-ms-win-crt-filesystem-l1-1-0.dll
 0002:0000d5fe       .idata$6                   004615fe     ucrt:api-ms-win-crt-heap-l1-1-0.dll
 0002:0000d61e       .idata$6                   0046161e     ucrt:api-ms-win-crt-math-l1-1-0.dll
 0002:0000d63e       .idata$6                   0046163e     ucrt:api-ms-win-crt-locale-l1-1-0.dll
 0002:0000d660       .idata$6                   00461660     ucrt:api-ms-win-crt-string-l1-1-0.dll
 0002:0000d682       .idata$6                   00461682     ucrt:api-ms-win-crt-utility-l1-1-0.dll
 0002:0000d6a4       .idata$6                   004616a4     ucrt:api-ms-win-crt-multibyte-l1-1-0.dll
 0003:0000002c       ?if_prefix@?2??bindlocal@@9@9 0046202c     libcurl:connect.obj
 0003:00000030       ?host_prefix@?2??bindlocal@@9@9 00462030     libcurl:connect.obj
 0003:00000820       ??_R0?AV<lambda_b5565d269da327e336800d80f472b553>@@@8 00462820     systeminfo.obj
 0003:00000a48       ??_R0?AV?$_Func_impl_no_alloc@V<lambda_b5565d269da327e336800d80f472b553>@@V?$basic_string@DU?$char_traits@D@std@@V?$allocator@D@2@@std@@ABV23@@std@@@8 00462a48     systeminfo.obj
 0003:00000bf0       ?_Fac_head@std@@3PAU_Fac_node@1@A 00462bf0     msvcprt:locale0_implib.obj
 0003:00000bf4       ?_Fac_tidy_reg@std@@3U_Fac_tidy_reg_t@1@B 00462bf4     msvcprt:locale0_implib.obj
 0003:00000c00       ?is_initialized_as_dll@@3_NA 00462c00     MSVCRT:utility.obj
 0003:00000c01       ?module_local_atexit_table_initialized@@3_NA 00462c01     MSVCRT:utility.obj
 0003:00000c04       ?module_local_atexit_table@@3U_onexit_table_t@@A 00462c04     MSVCRT:utility.obj
 0003:00000c10       ?module_local_at_quick_exit_table@@3U_onexit_table_t@@A 00462c10     MSVCRT:utility.obj
 0003:00000c20       _GS_ExceptionRecord        00462c20     MSVCRT:gs_report.obj
 0003:00000c70       _GS_ContextRecord          00462c70     MSVCRT:gs_report.obj
 0003:00000f58       _initialized               00462f58     libcurl:easy.obj
 0003:00000f5c       _init_flags                00462f5c     libcurl:easy.obj
 0003:00000f60       ?tv_zero@?1??multi_timeout@@9@9 00462f60     libcurl:multi.obj
 0003:00000f70       ?detectOsState@?1??Curl_sndbufset@@9@9 00462f70     libcurl:connect.obj
 0003:00000f78       _s_hIpHlpApiDll            00462f78     libcurl:system_win32.obj
 0003:00000f80       ?tv_zero@?1??Curl_splaygetbest@@9@9 00462f80     libcurl:splay.obj
 0003:00000f90       ?randseed@?1??randit@@9@9  00462f90     libcurl:rand.obj
 0003:00000f94       ?seeded@?1??randit@@9@9    00462f94     libcurl:rand.obj
 0004:00000060       $R000000                   00464060     * linker generated manifest res *
